8035  48        PHA                             A:9E X:80 Y:00 P:A5 SP:F7 CYC: 37 SL:241
8035  48        PHA                             A:9E X:80 Y:00 P:A5 SP:F7 CYC: 37 SL:241
8036  98        TYA                             A:9E X:80 Y:00 P:A5 SP:F6 CYC: 46 SL:241
8037  48        PHA                             A:00 X:80 Y:00 P:27 SP:F6 CYC: 52 SL:241
8038  8A        TXA                             A:00 X:80 Y:00 P:27 SP:F5 CYC: 61 SL:241
8039  48        PHA                             A:80 X:80 Y:00 P:A5 SP:F5 CYC: 67 SL:241
803A  A9 01     LDA #$01                        A:80 X:80 Y:00 P:A5 SP:F4 CYC: 76 SL:241
803C  85 70     STA $70 = 00                    A:01 X:80 Y:00 P:25 SP:F4 CYC: 82 SL:241
803E  E6 6B     INC $6B = 00                    A:01 X:80 Y:00 P:25 SP:F4 CYC: 91 SL:241
8040  D0 02     BNE $8044                       A:01 X:80 Y:00 P:25 SP:F4 CYC:106 SL:241
8044  20 C4 82  JSR $82C4                       A:01 X:80 Y:00 P:25 SP:F4 CYC:115 SL:241
82C4  A4 73     LDY $73 = 00                    A:01 X:80 Y:00 P:25 SP:F2 CYC:133 SL:241
82C6  D0 01     BNE $82C9                       A:01 X:80 Y:00 P:27 SP:F2 CYC:142 SL:241
82C8  60        RTS                             A:01 X:80 Y:00 P:27 SP:F2 CYC:148 SL:241
8047  A9 20     LDA #$20                        A:01 X:80 Y:00 P:27 SP:F4 CYC:166 SL:241
8049  8D 06 20  STA $2006 = FF                  A:20 X:80 Y:00 P:25 SP:F4 CYC:172 SL:241
804C  A9 00     LDA #$00                        A:20 X:80 Y:00 P:25 SP:F4 CYC:184 SL:241
804E  8D 06 20  STA $2006 = FF                  A:00 X:80 Y:00 P:27 SP:F4 CYC:190 SL:241
8051  8D 05 20  STA $2005 = FF                  A:00 X:80 Y:00 P:27 SP:F4 CYC:202 SL:241
8054  8D 05 20  STA $2005 = FF                  A:00 X:80 Y:00 P:27 SP:F4 CYC:214 SL:241
8057  68        PLA                             A:00 X:80 Y:00 P:27 SP:F4 CYC:226 SL:241
8058  AA        TAX                             A:80 X:80 Y:00 P:A5 SP:F5 CYC:238 SL:241
8059  68        PLA                             A:80 X:80 Y:00 P:A5 SP:F5 CYC:244 SL:241
805A  A8        TAY                             A:00 X:80 Y:00 P:27 SP:F6 CYC:256 SL:241
805B  68        PLA                             A:00 X:80 Y:00 P:27 SP:F6 CYC:262 SL:241
805C  40        RTI                             A:9E X:80 Y:00 P:A5 SP:F7 CYC:274 SL:241
8355  10 FB     BPL $8352                       A:9E X:80 Y:00 P:A5 SP:FA CYC:292 SL:241
8357  A9 00     LDA #$00                        A:9E X:80 Y:00 P:A5 SP:FA CYC:298 SL:241
8359  8D 05 20  STA $2005 = FF                  A:00 X:80 Y:00 P:27 SP:FA CYC:304 SL:241
835C  8D 05 20  STA $2005 = FF                  A:00 X:80 Y:00 P:27 SP:FA CYC:316 SL:241
835F  A9 00     LDA #$00                        A:00 X:80 Y:00 P:27 SP:FA CYC:328 SL:241
8361  A0 F0     LDY #$F0                        A:00 X:80 Y:00 P:27 SP:FA CYC:334 SL:241
8363  8D 03 20  STA $2003 = FF                  A:00 X:80 Y:F0 P:A5 SP:FA CYC:340 SL:241
8366  A2 40     LDX #$40                        A:00 X:80 Y:F0 P:A5 SP:FA CYC: 11 SL:242
8368  8C 04 20  STY $2004 = FF                  A:00 X:40 Y:F0 P:25 SP:FA CYC: 17 SL:242
836B  8D 04 20  STA $2004 = FF                  A:00 X:40 Y:F0 P:25 SP:FA CYC: 29 SL:242
836E  8D 04 20  STA $2004 = FF                  A:00 X:40 Y:F0 P:25 SP:FA CYC: 41 SL:242
8371  8C 04 20  STY $2004 = FF                  A:00 X:40 Y:F0 P:25 SP:FA CYC: 53 SL:242
8374  CA        DEX                             A:00 X:40 Y:F0 P:25 SP:FA CYC: 65 SL:242
8375  D0 F1     BNE $8368                       A:00 X:3F Y:F0 P:25 SP:FA CYC: 71 SL:242
8368  8C 04 20  STY $2004 = FF                  A:00 X:3F Y:F0 P:25 SP:FA CYC: 80 SL:242
836B  8D 04 20  STA $2004 = FF                  A:00 X:3F Y:F0 P:25 SP:FA CYC: 92 SL:242
836E  8D 04 20  STA $2004 = FF                  A:00 X:3F Y:F0 P:25 SP:FA CYC:104 SL:242
8371  8C 04 20  STY $2004 = FF                  A:00 X:3F Y:F0 P:25 SP:FA CYC:116 SL:242
8374  CA        DEX                             A:00 X:3F Y:F0 P:25 SP:FA CYC:128 SL:242
8375  D0 F1     BNE $8368                       A:00 X:3E Y:F0 P:25 SP:FA CYC:134 SL:242
8368  8C 04 20  STY $2004 = FF                  A:00 X:3E Y:F0 P:25 SP:FA CYC:143 SL:242
836B  8D 04 20  STA $2004 = FF                  A:00 X:3E Y:F0 P:25 SP:FA CYC:155 SL:242
836E  8D 04 20  STA $2004 = FF                  A:00 X:3E Y:F0 P:25 SP:FA CYC:167 SL:242
8371  8C 04 20  STY $2004 = FF                  A:00 X:3E Y:F0 P:25 SP:FA CYC:179 SL:242
8374  CA        DEX                             A:00 X:3E Y:F0 P:25 SP:FA CYC:191 SL:242
8375  D0 F1     BNE $8368                       A:00 X:3D Y:F0 P:25 SP:FA CYC:197 SL:242
8368  8C 04 20  STY $2004 = FF                  A:00 X:3D Y:F0 P:25 SP:FA CYC:206 SL:242
836B  8D 04 20  STA $2004 = FF                  A:00 X:3D Y:F0 P:25 SP:FA CYC:218 SL:242
836E  8D 04 20  STA $2004 = FF                  A:00 X:3D Y:F0 P:25 SP:FA CYC:230 SL:242
8371  8C 04 20  STY $2004 = FF                  A:00 X:3D Y:F0 P:25 SP:FA CYC:242 SL:242
8374  CA        DEX                             A:00 X:3D Y:F0 P:25 SP:FA CYC:254 SL:242
8375  D0 F1     BNE $8368                       A:00 X:3C Y:F0 P:25 SP:FA CYC:260 SL:242
8368  8C 04 20  STY $2004 = FF                  A:00 X:3C Y:F0 P:25 SP:FA CYC:269 SL:242
836B  8D 04 20  STA $2004 = FF                  A:00 X:3C Y:F0 P:25 SP:FA CYC:281 SL:242
836E  8D 04 20  STA $2004 = FF                  A:00 X:3C Y:F0 P:25 SP:FA CYC:293 SL:242
8371  8C 04 20  STY $2004 = FF                  A:00 X:3C Y:F0 P:25 SP:FA CYC:305 SL:242
8374  CA        DEX                             A:00 X:3C Y:F0 P:25 SP:FA CYC:317 SL:242
8375  D0 F1     BNE $8368                       A:00 X:3B Y:F0 P:25 SP:FA CYC:323 SL:242
8368  8C 04 20  STY $2004 = FF                  A:00 X:3B Y:F0 P:25 SP:FA CYC:332 SL:242
836B  8D 04 20  STA $2004 = FF                  A:00 X:3B Y:F0 P:25 SP:FA CYC:  3 SL:243
836E  8D 04 20  STA $2004 = FF                  A:00 X:3B Y:F0 P:25 SP:FA CYC: 15 SL:243
8371  8C 04 20  STY $2004 = FF                  A:00 X:3B Y:F0 P:25 SP:FA CYC: 27 SL:243
8374  CA        DEX                             A:00 X:3B Y:F0 P:25 SP:FA CYC: 39 SL:243
8375  D0 F1     BNE $8368                       A:00 X:3A Y:F0 P:25 SP:FA CYC: 45 SL:243
8368  8C 04 20  STY $2004 = FF                  A:00 X:3A Y:F0 P:25 SP:FA CYC: 54 SL:243
836B  8D 04 20  STA $2004 = FF                  A:00 X:3A Y:F0 P:25 SP:FA CYC: 66 SL:243
836E  8D 04 20  STA $2004 = FF                  A:00 X:3A Y:F0 P:25 SP:FA CYC: 78 SL:243
8371  8C 04 20  STY $2004 = FF                  A:00 X:3A Y:F0 P:25 SP:FA CYC: 90 SL:243
8374  CA        DEX                             A:00 X:3A Y:F0 P:25 SP:FA CYC:102 SL:243
8375  D0 F1     BNE $8368                       A:00 X:39 Y:F0 P:25 SP:FA CYC:108 SL:243
8368  8C 04 20  STY $2004 = FF                  A:00 X:39 Y:F0 P:25 SP:FA CYC:117 SL:243
836B  8D 04 20  STA $2004 = FF                  A:00 X:39 Y:F0 P:25 SP:FA CYC:129 SL:243
836E  8D 04 20  STA $2004 = FF                  A:00 X:39 Y:F0 P:25 SP:FA CYC:141 SL:243
8371  8C 04 20  STY $2004 = FF                  A:00 X:39 Y:F0 P:25 SP:FA CYC:153 SL:243
8374  CA        DEX                             A:00 X:39 Y:F0 P:25 SP:FA CYC:165 SL:243
8375  D0 F1     BNE $8368                       A:00 X:38 Y:F0 P:25 SP:FA CYC:171 SL:243
8368  8C 04 20  STY $2004 = FF                  A:00 X:38 Y:F0 P:25 SP:FA CYC:180 SL:243
836B  8D 04 20  STA $2004 = FF                  A:00 X:38 Y:F0 P:25 SP:FA CYC:192 SL:243
836E  8D 04 20  STA $2004 = FF                  A:00 X:38 Y:F0 P:25 SP:FA CYC:204 SL:243
8371  8C 04 20  STY $2004 = FF                  A:00 X:38 Y:F0 P:25 SP:FA CYC:216 SL:243
8374  CA        DEX                             A:00 X:38 Y:F0 P:25 SP:FA CYC:228 SL:243
8375  D0 F1     BNE $8368                       A:00 X:37 Y:F0 P:25 SP:FA CYC:234 SL:243
8368  8C 04 20  STY $2004 = FF                  A:00 X:37 Y:F0 P:25 SP:FA CYC:243 SL:243
836B  8D 04 20  STA $2004 = FF                  A:00 X:37 Y:F0 P:25 SP:FA CYC:255 SL:243
836E  8D 04 20  STA $2004 = FF                  A:00 X:37 Y:F0 P:25 SP:FA CYC:267 SL:243
8371  8C 04 20  STY $2004 = FF                  A:00 X:37 Y:F0 P:25 SP:FA CYC:279 SL:243
8374  CA        DEX                             A:00 X:37 Y:F0 P:25 SP:FA CYC:291 SL:243
8375  D0 F1     BNE $8368                       A:00 X:36 Y:F0 P:25 SP:FA CYC:297 SL:243
8368  8C 04 20  STY $2004 = FF                  A:00 X:36 Y:F0 P:25 SP:FA CYC:306 SL:243
836B  8D 04 20  STA $2004 = FF                  A:00 X:36 Y:F0 P:25 SP:FA CYC:318 SL:243
836E  8D 04 20  STA $2004 = FF                  A:00 X:36 Y:F0 P:25 SP:FA CYC:330 SL:243
8371  8C 04 20  STY $2004 = FF                  A:00 X:36 Y:F0 P:25 SP:FA CYC:  1 SL:244
8374  CA        DEX                             A:00 X:36 Y:F0 P:25 SP:FA CYC: 13 SL:244
8375  D0 F1     BNE $8368                       A:00 X:35 Y:F0 P:25 SP:FA CYC: 19 SL:244
8368  8C 04 20  STY $2004 = FF                  A:00 X:35 Y:F0 P:25 SP:FA CYC: 28 SL:244
836B  8D 04 20  STA $2004 = FF                  A:00 X:35 Y:F0 P:25 SP:FA CYC: 40 SL:244
836E  8D 04 20  STA $2004 = FF                  A:00 X:35 Y:F0 P:25 SP:FA CYC: 52 SL:244
8371  8C 04 20  STY $2004 = FF                  A:00 X:35 Y:F0 P:25 SP:FA CYC: 64 SL:244
8374  CA        DEX                             A:00 X:35 Y:F0 P:25 SP:FA CYC: 76 SL:244
8375  D0 F1     BNE $8368                       A:00 X:34 Y:F0 P:25 SP:FA CYC: 82 SL:244
8368  8C 04 20  STY $2004 = FF                  A:00 X:34 Y:F0 P:25 SP:FA CYC: 91 SL:244
836B  8D 04 20  STA $2004 = FF                  A:00 X:34 Y:F0 P:25 SP:FA CYC:103 SL:244
836E  8D 04 20  STA $2004 = FF                  A:00 X:34 Y:F0 P:25 SP:FA CYC:115 SL:244
8371  8C 04 20  STY $2004 = FF                  A:00 X:34 Y:F0 P:25 SP:FA CYC:127 SL:244
8374  CA        DEX                             A:00 X:34 Y:F0 P:25 SP:FA CYC:139 SL:244
8375  D0 F1     BNE $8368                       A:00 X:33 Y:F0 P:25 SP:FA CYC:145 SL:244
8368  8C 04 20  STY $2004 = FF                  A:00 X:33 Y:F0 P:25 SP:FA CYC:154 SL:244
836B  8D 04 20  STA $2004 = FF                  A:00 X:33 Y:F0 P:25 SP:FA CYC:166 SL:244
836E  8D 04 20  STA $2004 = FF                  A:00 X:33 Y:F0 P:25 SP:FA CYC:178 SL:244
8371  8C 04 20  STY $2004 = FF                  A:00 X:33 Y:F0 P:25 SP:FA CYC:190 SL:244
8374  CA        DEX                             A:00 X:33 Y:F0 P:25 SP:FA CYC:202 SL:244
8375  D0 F1     BNE $8368                       A:00 X:32 Y:F0 P:25 SP:FA CYC:208 SL:244
8368  8C 04 20  STY $2004 = FF                  A:00 X:32 Y:F0 P:25 SP:FA CYC:217 SL:244
836B  8D 04 20  STA $2004 = FF                  A:00 X:32 Y:F0 P:25 SP:FA CYC:229 SL:244
836E  8D 04 20  STA $2004 = FF                  A:00 X:32 Y:F0 P:25 SP:FA CYC:241 SL:244
8371  8C 04 20  STY $2004 = FF                  A:00 X:32 Y:F0 P:25 SP:FA CYC:253 SL:244
8374  CA        DEX                             A:00 X:32 Y:F0 P:25 SP:FA CYC:265 SL:244
8375  D0 F1     BNE $8368                       A:00 X:31 Y:F0 P:25 SP:FA CYC:271 SL:244
8368  8C 04 20  STY $2004 = FF                  A:00 X:31 Y:F0 P:25 SP:FA CYC:280 SL:244
836B  8D 04 20  STA $2004 = FF                  A:00 X:31 Y:F0 P:25 SP:FA CYC:292 SL:244
836E  8D 04 20  STA $2004 = FF                  A:00 X:31 Y:F0 P:25 SP:FA CYC:304 SL:244
8371  8C 04 20  STY $2004 = FF                  A:00 X:31 Y:F0 P:25 SP:FA CYC:316 SL:244
8374  CA        DEX                             A:00 X:31 Y:F0 P:25 SP:FA CYC:328 SL:244
8375  D0 F1     BNE $8368                       A:00 X:30 Y:F0 P:25 SP:FA CYC:334 SL:244
8368  8C 04 20  STY $2004 = FF                  A:00 X:30 Y:F0 P:25 SP:FA CYC:  2 SL:245
836B  8D 04 20  STA $2004 = FF                  A:00 X:30 Y:F0 P:25 SP:FA CYC: 14 SL:245
836E  8D 04 20  STA $2004 = FF                  A:00 X:30 Y:F0 P:25 SP:FA CYC: 26 SL:245
8371  8C 04 20  STY $2004 = FF                  A:00 X:30 Y:F0 P:25 SP:FA CYC: 38 SL:245
8374  CA        DEX                             A:00 X:30 Y:F0 P:25 SP:FA CYC: 50 SL:245
8375  D0 F1     BNE $8368                       A:00 X:2F Y:F0 P:25 SP:FA CYC: 56 SL:245
8368  8C 04 20  STY $2004 = FF                  A:00 X:2F Y:F0 P:25 SP:FA CYC: 65 SL:245
836B  8D 04 20  STA $2004 = FF                  A:00 X:2F Y:F0 P:25 SP:FA CYC: 77 SL:245
836E  8D 04 20  STA $2004 = FF                  A:00 X:2F Y:F0 P:25 SP:FA CYC: 89 SL:245
8371  8C 04 20  STY $2004 = FF                  A:00 X:2F Y:F0 P:25 SP:FA CYC:101 SL:245
8374  CA        DEX                             A:00 X:2F Y:F0 P:25 SP:FA CYC:113 SL:245
8375  D0 F1     BNE $8368                       A:00 X:2E Y:F0 P:25 SP:FA CYC:119 SL:245
8368  8C 04 20  STY $2004 = FF                  A:00 X:2E Y:F0 P:25 SP:FA CYC:128 SL:245
836B  8D 04 20  STA $2004 = FF                  A:00 X:2E Y:F0 P:25 SP:FA CYC:140 SL:245
836E  8D 04 20  STA $2004 = FF                  A:00 X:2E Y:F0 P:25 SP:FA CYC:152 SL:245
8371  8C 04 20  STY $2004 = FF                  A:00 X:2E Y:F0 P:25 SP:FA CYC:164 SL:245
8374  CA        DEX                             A:00 X:2E Y:F0 P:25 SP:FA CYC:176 SL:245
8375  D0 F1     BNE $8368                       A:00 X:2D Y:F0 P:25 SP:FA CYC:182 SL:245
8368  8C 04 20  STY $2004 = FF                  A:00 X:2D Y:F0 P:25 SP:FA CYC:191 SL:245
836B  8D 04 20  STA $2004 = FF                  A:00 X:2D Y:F0 P:25 SP:FA CYC:203 SL:245
836E  8D 04 20  STA $2004 = FF                  A:00 X:2D Y:F0 P:25 SP:FA CYC:215 SL:245
8371  8C 04 20  STY $2004 = FF                  A:00 X:2D Y:F0 P:25 SP:FA CYC:227 SL:245
8374  CA        DEX                             A:00 X:2D Y:F0 P:25 SP:FA CYC:239 SL:245
8375  D0 F1     BNE $8368                       A:00 X:2C Y:F0 P:25 SP:FA CYC:245 SL:245
8368  8C 04 20  STY $2004 = FF                  A:00 X:2C Y:F0 P:25 SP:FA CYC:254 SL:245
836B  8D 04 20  STA $2004 = FF                  A:00 X:2C Y:F0 P:25 SP:FA CYC:266 SL:245
836E  8D 04 20  STA $2004 = FF                  A:00 X:2C Y:F0 P:25 SP:FA CYC:278 SL:245
8371  8C 04 20  STY $2004 = FF                  A:00 X:2C Y:F0 P:25 SP:FA CYC:290 SL:245
8374  CA        DEX                             A:00 X:2C Y:F0 P:25 SP:FA CYC:302 SL:245
8375  D0 F1     BNE $8368                       A:00 X:2B Y:F0 P:25 SP:FA CYC:308 SL:245
8368  8C 04 20  STY $2004 = FF                  A:00 X:2B Y:F0 P:25 SP:FA CYC:317 SL:245
836B  8D 04 20  STA $2004 = FF                  A:00 X:2B Y:F0 P:25 SP:FA CYC:329 SL:245
836E  8D 04 20  STA $2004 = FF                  A:00 X:2B Y:F0 P:25 SP:FA CYC:  0 SL:246
8371  8C 04 20  STY $2004 = FF                  A:00 X:2B Y:F0 P:25 SP:FA CYC: 12 SL:246
8374  CA        DEX                             A:00 X:2B Y:F0 P:25 SP:FA CYC: 24 SL:246
8375  D0 F1     BNE $8368                       A:00 X:2A Y:F0 P:25 SP:FA CYC: 30 SL:246
8368  8C 04 20  STY $2004 = FF                  A:00 X:2A Y:F0 P:25 SP:FA CYC: 39 SL:246
836B  8D 04 20  STA $2004 = FF                  A:00 X:2A Y:F0 P:25 SP:FA CYC: 51 SL:246
836E  8D 04 20  STA $2004 = FF                  A:00 X:2A Y:F0 P:25 SP:FA CYC: 63 SL:246
8371  8C 04 20  STY $2004 = FF                  A:00 X:2A Y:F0 P:25 SP:FA CYC: 75 SL:246
8374  CA        DEX                             A:00 X:2A Y:F0 P:25 SP:FA CYC: 87 SL:246
8375  D0 F1     BNE $8368                       A:00 X:29 Y:F0 P:25 SP:FA CYC: 93 SL:246
8368  8C 04 20  STY $2004 = FF                  A:00 X:29 Y:F0 P:25 SP:FA CYC:102 SL:246
836B  8D 04 20  STA $2004 = FF                  A:00 X:29 Y:F0 P:25 SP:FA CYC:114 SL:246
836E  8D 04 20  STA $2004 = FF                  A:00 X:29 Y:F0 P:25 SP:FA CYC:126 SL:246
8371  8C 04 20  STY $2004 = FF                  A:00 X:29 Y:F0 P:25 SP:FA CYC:138 SL:246
8374  CA        DEX                             A:00 X:29 Y:F0 P:25 SP:FA CYC:150 SL:246
8375  D0 F1     BNE $8368                       A:00 X:28 Y:F0 P:25 SP:FA CYC:156 SL:246
8368  8C 04 20  STY $2004 = FF                  A:00 X:28 Y:F0 P:25 SP:FA CYC:165 SL:246
836B  8D 04 20  STA $2004 = FF                  A:00 X:28 Y:F0 P:25 SP:FA CYC:177 SL:246
836E  8D 04 20  STA $2004 = FF                  A:00 X:28 Y:F0 P:25 SP:FA CYC:189 SL:246
8371  8C 04 20  STY $2004 = FF                  A:00 X:28 Y:F0 P:25 SP:FA CYC:201 SL:246
8374  CA        DEX                             A:00 X:28 Y:F0 P:25 SP:FA CYC:213 SL:246
8375  D0 F1     BNE $8368                       A:00 X:27 Y:F0 P:25 SP:FA CYC:219 SL:246
8368  8C 04 20  STY $2004 = FF                  A:00 X:27 Y:F0 P:25 SP:FA CYC:228 SL:246
836B  8D 04 20  STA $2004 = FF                  A:00 X:27 Y:F0 P:25 SP:FA CYC:240 SL:246
836E  8D 04 20  STA $2004 = FF                  A:00 X:27 Y:F0 P:25 SP:FA CYC:252 SL:246
8371  8C 04 20  STY $2004 = FF                  A:00 X:27 Y:F0 P:25 SP:FA CYC:264 SL:246
8374  CA        DEX                             A:00 X:27 Y:F0 P:25 SP:FA CYC:276 SL:246
8375  D0 F1     BNE $8368                       A:00 X:26 Y:F0 P:25 SP:FA CYC:282 SL:246
8368  8C 04 20  STY $2004 = FF                  A:00 X:26 Y:F0 P:25 SP:FA CYC:291 SL:246
836B  8D 04 20  STA $2004 = FF                  A:00 X:26 Y:F0 P:25 SP:FA CYC:303 SL:246
836E  8D 04 20  STA $2004 = FF                  A:00 X:26 Y:F0 P:25 SP:FA CYC:315 SL:246
8371  8C 04 20  STY $2004 = FF                  A:00 X:26 Y:F0 P:25 SP:FA CYC:327 SL:246
8374  CA        DEX                             A:00 X:26 Y:F0 P:25 SP:FA CYC:339 SL:246
8375  D0 F1     BNE $8368                       A:00 X:25 Y:F0 P:25 SP:FA CYC:  4 SL:247
8368  8C 04 20  STY $2004 = FF                  A:00 X:25 Y:F0 P:25 SP:FA CYC: 13 SL:247
836B  8D 04 20  STA $2004 = FF                  A:00 X:25 Y:F0 P:25 SP:FA CYC: 25 SL:247
836E  8D 04 20  STA $2004 = FF                  A:00 X:25 Y:F0 P:25 SP:FA CYC: 37 SL:247
8371  8C 04 20  STY $2004 = FF                  A:00 X:25 Y:F0 P:25 SP:FA CYC: 49 SL:247
8374  CA        DEX                             A:00 X:25 Y:F0 P:25 SP:FA CYC: 61 SL:247
8375  D0 F1     BNE $8368                       A:00 X:24 Y:F0 P:25 SP:FA CYC: 67 SL:247
8368  8C 04 20  STY $2004 = FF                  A:00 X:24 Y:F0 P:25 SP:FA CYC: 76 SL:247
836B  8D 04 20  STA $2004 = FF                  A:00 X:24 Y:F0 P:25 SP:FA CYC: 88 SL:247
836E  8D 04 20  STA $2004 = FF                  A:00 X:24 Y:F0 P:25 SP:FA CYC:100 SL:247
8371  8C 04 20  STY $2004 = FF                  A:00 X:24 Y:F0 P:25 SP:FA CYC:112 SL:247
8374  CA        DEX                             A:00 X:24 Y:F0 P:25 SP:FA CYC:124 SL:247
8375  D0 F1     BNE $8368                       A:00 X:23 Y:F0 P:25 SP:FA CYC:130 SL:247
8368  8C 04 20  STY $2004 = FF                  A:00 X:23 Y:F0 P:25 SP:FA CYC:139 SL:247
836B  8D 04 20  STA $2004 = FF                  A:00 X:23 Y:F0 P:25 SP:FA CYC:151 SL:247
836E  8D 04 20  STA $2004 = FF                  A:00 X:23 Y:F0 P:25 SP:FA CYC:163 SL:247
8371  8C 04 20  STY $2004 = FF                  A:00 X:23 Y:F0 P:25 SP:FA CYC:175 SL:247
8374  CA        DEX                             A:00 X:23 Y:F0 P:25 SP:FA CYC:187 SL:247
8375  D0 F1     BNE $8368                       A:00 X:22 Y:F0 P:25 SP:FA CYC:193 SL:247
8368  8C 04 20  STY $2004 = FF                  A:00 X:22 Y:F0 P:25 SP:FA CYC:202 SL:247
836B  8D 04 20  STA $2004 = FF                  A:00 X:22 Y:F0 P:25 SP:FA CYC:214 SL:247
836E  8D 04 20  STA $2004 = FF                  A:00 X:22 Y:F0 P:25 SP:FA CYC:226 SL:247
8371  8C 04 20  STY $2004 = FF                  A:00 X:22 Y:F0 P:25 SP:FA CYC:238 SL:247
8374  CA        DEX                             A:00 X:22 Y:F0 P:25 SP:FA CYC:250 SL:247
8375  D0 F1     BNE $8368                       A:00 X:21 Y:F0 P:25 SP:FA CYC:256 SL:247
8368  8C 04 20  STY $2004 = FF                  A:00 X:21 Y:F0 P:25 SP:FA CYC:265 SL:247
836B  8D 04 20  STA $2004 = FF                  A:00 X:21 Y:F0 P:25 SP:FA CYC:277 SL:247
836E  8D 04 20  STA $2004 = FF                  A:00 X:21 Y:F0 P:25 SP:FA CYC:289 SL:247
8371  8C 04 20  STY $2004 = FF                  A:00 X:21 Y:F0 P:25 SP:FA CYC:301 SL:247
8374  CA        DEX                             A:00 X:21 Y:F0 P:25 SP:FA CYC:313 SL:247
8375  D0 F1     BNE $8368                       A:00 X:20 Y:F0 P:25 SP:FA CYC:319 SL:247
8368  8C 04 20  STY $2004 = FF                  A:00 X:20 Y:F0 P:25 SP:FA CYC:328 SL:247
836B  8D 04 20  STA $2004 = FF                  A:00 X:20 Y:F0 P:25 SP:FA CYC:340 SL:247
836E  8D 04 20  STA $2004 = FF                  A:00 X:20 Y:F0 P:25 SP:FA CYC: 11 SL:248
8371  8C 04 20  STY $2004 = FF                  A:00 X:20 Y:F0 P:25 SP:FA CYC: 23 SL:248
8374  CA        DEX                             A:00 X:20 Y:F0 P:25 SP:FA CYC: 35 SL:248
8375  D0 F1     BNE $8368                       A:00 X:1F Y:F0 P:25 SP:FA CYC: 41 SL:248
8368  8C 04 20  STY $2004 = FF                  A:00 X:1F Y:F0 P:25 SP:FA CYC: 50 SL:248
836B  8D 04 20  STA $2004 = FF                  A:00 X:1F Y:F0 P:25 SP:FA CYC: 62 SL:248
836E  8D 04 20  STA $2004 = FF                  A:00 X:1F Y:F0 P:25 SP:FA CYC: 74 SL:248
8371  8C 04 20  STY $2004 = FF                  A:00 X:1F Y:F0 P:25 SP:FA CYC: 86 SL:248
8374  CA        DEX                             A:00 X:1F Y:F0 P:25 SP:FA CYC: 98 SL:248
8375  D0 F1     BNE $8368                       A:00 X:1E Y:F0 P:25 SP:FA CYC:104 SL:248
8368  8C 04 20  STY $2004 = FF                  A:00 X:1E Y:F0 P:25 SP:FA CYC:113 SL:248
836B  8D 04 20  STA $2004 = FF                  A:00 X:1E Y:F0 P:25 SP:FA CYC:125 SL:248
836E  8D 04 20  STA $2004 = FF                  A:00 X:1E Y:F0 P:25 SP:FA CYC:137 SL:248
8371  8C 04 20  STY $2004 = FF                  A:00 X:1E Y:F0 P:25 SP:FA CYC:149 SL:248
8374  CA        DEX                             A:00 X:1E Y:F0 P:25 SP:FA CYC:161 SL:248
8375  D0 F1     BNE $8368                       A:00 X:1D Y:F0 P:25 SP:FA CYC:167 SL:248
8368  8C 04 20  STY $2004 = FF                  A:00 X:1D Y:F0 P:25 SP:FA CYC:176 SL:248
836B  8D 04 20  STA $2004 = FF                  A:00 X:1D Y:F0 P:25 SP:FA CYC:188 SL:248
836E  8D 04 20  STA $2004 = FF                  A:00 X:1D Y:F0 P:25 SP:FA CYC:200 SL:248
8371  8C 04 20  STY $2004 = FF                  A:00 X:1D Y:F0 P:25 SP:FA CYC:212 SL:248
8374  CA        DEX                             A:00 X:1D Y:F0 P:25 SP:FA CYC:224 SL:248
8375  D0 F1     BNE $8368                       A:00 X:1C Y:F0 P:25 SP:FA CYC:230 SL:248
8368  8C 04 20  STY $2004 = FF                  A:00 X:1C Y:F0 P:25 SP:FA CYC:239 SL:248
836B  8D 04 20  STA $2004 = FF                  A:00 X:1C Y:F0 P:25 SP:FA CYC:251 SL:248
836E  8D 04 20  STA $2004 = FF                  A:00 X:1C Y:F0 P:25 SP:FA CYC:263 SL:248
8371  8C 04 20  STY $2004 = FF                  A:00 X:1C Y:F0 P:25 SP:FA CYC:275 SL:248
8374  CA        DEX                             A:00 X:1C Y:F0 P:25 SP:FA CYC:287 SL:248
8375  D0 F1     BNE $8368                       A:00 X:1B Y:F0 P:25 SP:FA CYC:293 SL:248
8368  8C 04 20  STY $2004 = FF                  A:00 X:1B Y:F0 P:25 SP:FA CYC:302 SL:248
836B  8D 04 20  STA $2004 = FF                  A:00 X:1B Y:F0 P:25 SP:FA CYC:314 SL:248
836E  8D 04 20  STA $2004 = FF                  A:00 X:1B Y:F0 P:25 SP:FA CYC:326 SL:248
8371  8C 04 20  STY $2004 = FF                  A:00 X:1B Y:F0 P:25 SP:FA CYC:338 SL:248
8374  CA        DEX                             A:00 X:1B Y:F0 P:25 SP:FA CYC:  9 SL:249
8375  D0 F1     BNE $8368                       A:00 X:1A Y:F0 P:25 SP:FA CYC: 15 SL:249
8368  8C 04 20  STY $2004 = FF                  A:00 X:1A Y:F0 P:25 SP:FA CYC: 24 SL:249
836B  8D 04 20  STA $2004 = FF                  A:00 X:1A Y:F0 P:25 SP:FA CYC: 36 SL:249
836E  8D 04 20  STA $2004 = FF                  A:00 X:1A Y:F0 P:25 SP:FA CYC: 48 SL:249
8371  8C 04 20  STY $2004 = FF                  A:00 X:1A Y:F0 P:25 SP:FA CYC: 60 SL:249
8374  CA        DEX                             A:00 X:1A Y:F0 P:25 SP:FA CYC: 72 SL:249
8375  D0 F1     BNE $8368                       A:00 X:19 Y:F0 P:25 SP:FA CYC: 78 SL:249
8368  8C 04 20  STY $2004 = FF                  A:00 X:19 Y:F0 P:25 SP:FA CYC: 87 SL:249
836B  8D 04 20  STA $2004 = FF                  A:00 X:19 Y:F0 P:25 SP:FA CYC: 99 SL:249
836E  8D 04 20  STA $2004 = FF                  A:00 X:19 Y:F0 P:25 SP:FA CYC:111 SL:249
8371  8C 04 20  STY $2004 = FF                  A:00 X:19 Y:F0 P:25 SP:FA CYC:123 SL:249
8374  CA        DEX                             A:00 X:19 Y:F0 P:25 SP:FA CYC:135 SL:249
8375  D0 F1     BNE $8368                       A:00 X:18 Y:F0 P:25 SP:FA CYC:141 SL:249
8368  8C 04 20  STY $2004 = FF                  A:00 X:18 Y:F0 P:25 SP:FA CYC:150 SL:249
836B  8D 04 20  STA $2004 = FF                  A:00 X:18 Y:F0 P:25 SP:FA CYC:162 SL:249
836E  8D 04 20  STA $2004 = FF                  A:00 X:18 Y:F0 P:25 SP:FA CYC:174 SL:249
8371  8C 04 20  STY $2004 = FF                  A:00 X:18 Y:F0 P:25 SP:FA CYC:186 SL:249
8374  CA        DEX                             A:00 X:18 Y:F0 P:25 SP:FA CYC:198 SL:249
8375  D0 F1     BNE $8368                       A:00 X:17 Y:F0 P:25 SP:FA CYC:204 SL:249
8368  8C 04 20  STY $2004 = FF                  A:00 X:17 Y:F0 P:25 SP:FA CYC:213 SL:249
836B  8D 04 20  STA $2004 = FF                  A:00 X:17 Y:F0 P:25 SP:FA CYC:225 SL:249
836E  8D 04 20  STA $2004 = FF                  A:00 X:17 Y:F0 P:25 SP:FA CYC:237 SL:249
8371  8C 04 20  STY $2004 = FF                  A:00 X:17 Y:F0 P:25 SP:FA CYC:249 SL:249
8374  CA        DEX                             A:00 X:17 Y:F0 P:25 SP:FA CYC:261 SL:249
8375  D0 F1     BNE $8368                       A:00 X:16 Y:F0 P:25 SP:FA CYC:267 SL:249
8368  8C 04 20  STY $2004 = FF                  A:00 X:16 Y:F0 P:25 SP:FA CYC:276 SL:249
836B  8D 04 20  STA $2004 = FF                  A:00 X:16 Y:F0 P:25 SP:FA CYC:288 SL:249
836E  8D 04 20  STA $2004 = FF                  A:00 X:16 Y:F0 P:25 SP:FA CYC:300 SL:249
8371  8C 04 20  STY $2004 = FF                  A:00 X:16 Y:F0 P:25 SP:FA CYC:312 SL:249
8374  CA        DEX                             A:00 X:16 Y:F0 P:25 SP:FA CYC:324 SL:249
8375  D0 F1     BNE $8368                       A:00 X:15 Y:F0 P:25 SP:FA CYC:330 SL:249
8368  8C 04 20  STY $2004 = FF                  A:00 X:15 Y:F0 P:25 SP:FA CYC:339 SL:249
836B  8D 04 20  STA $2004 = FF                  A:00 X:15 Y:F0 P:25 SP:FA CYC: 10 SL:250
836E  8D 04 20  STA $2004 = FF                  A:00 X:15 Y:F0 P:25 SP:FA CYC: 22 SL:250
8371  8C 04 20  STY $2004 = FF                  A:00 X:15 Y:F0 P:25 SP:FA CYC: 34 SL:250
8374  CA        DEX                             A:00 X:15 Y:F0 P:25 SP:FA CYC: 46 SL:250
8375  D0 F1     BNE $8368                       A:00 X:14 Y:F0 P:25 SP:FA CYC: 52 SL:250
8368  8C 04 20  STY $2004 = FF                  A:00 X:14 Y:F0 P:25 SP:FA CYC: 61 SL:250
836B  8D 04 20  STA $2004 = FF                  A:00 X:14 Y:F0 P:25 SP:FA CYC: 73 SL:250
836E  8D 04 20  STA $2004 = FF                  A:00 X:14 Y:F0 P:25 SP:FA CYC: 85 SL:250
8371  8C 04 20  STY $2004 = FF                  A:00 X:14 Y:F0 P:25 SP:FA CYC: 97 SL:250
8374  CA        DEX                             A:00 X:14 Y:F0 P:25 SP:FA CYC:109 SL:250
8375  D0 F1     BNE $8368                       A:00 X:13 Y:F0 P:25 SP:FA CYC:115 SL:250
8368  8C 04 20  STY $2004 = FF                  A:00 X:13 Y:F0 P:25 SP:FA CYC:124 SL:250
836B  8D 04 20  STA $2004 = FF                  A:00 X:13 Y:F0 P:25 SP:FA CYC:136 SL:250
836E  8D 04 20  STA $2004 = FF                  A:00 X:13 Y:F0 P:25 SP:FA CYC:148 SL:250
8371  8C 04 20  STY $2004 = FF                  A:00 X:13 Y:F0 P:25 SP:FA CYC:160 SL:250
8374  CA        DEX                             A:00 X:13 Y:F0 P:25 SP:FA CYC:172 SL:250
8375  D0 F1     BNE $8368                       A:00 X:12 Y:F0 P:25 SP:FA CYC:178 SL:250
8368  8C 04 20  STY $2004 = FF                  A:00 X:12 Y:F0 P:25 SP:FA CYC:187 SL:250
836B  8D 04 20  STA $2004 = FF                  A:00 X:12 Y:F0 P:25 SP:FA CYC:199 SL:250
836E  8D 04 20  STA $2004 = FF                  A:00 X:12 Y:F0 P:25 SP:FA CYC:211 SL:250
8371  8C 04 20  STY $2004 = FF                  A:00 X:12 Y:F0 P:25 SP:FA CYC:223 SL:250
8374  CA        DEX                             A:00 X:12 Y:F0 P:25 SP:FA CYC:235 SL:250
8375  D0 F1     BNE $8368                       A:00 X:11 Y:F0 P:25 SP:FA CYC:241 SL:250
8368  8C 04 20  STY $2004 = FF                  A:00 X:11 Y:F0 P:25 SP:FA CYC:250 SL:250
836B  8D 04 20  STA $2004 = FF                  A:00 X:11 Y:F0 P:25 SP:FA CYC:262 SL:250
836E  8D 04 20  STA $2004 = FF                  A:00 X:11 Y:F0 P:25 SP:FA CYC:274 SL:250
8371  8C 04 20  STY $2004 = FF                  A:00 X:11 Y:F0 P:25 SP:FA CYC:286 SL:250
8374  CA        DEX                             A:00 X:11 Y:F0 P:25 SP:FA CYC:298 SL:250
8375  D0 F1     BNE $8368                       A:00 X:10 Y:F0 P:25 SP:FA CYC:304 SL:250
8368  8C 04 20  STY $2004 = FF                  A:00 X:10 Y:F0 P:25 SP:FA CYC:313 SL:250
836B  8D 04 20  STA $2004 = FF                  A:00 X:10 Y:F0 P:25 SP:FA CYC:325 SL:250
836E  8D 04 20  STA $2004 = FF                  A:00 X:10 Y:F0 P:25 SP:FA CYC:337 SL:250
8371  8C 04 20  STY $2004 = FF                  A:00 X:10 Y:F0 P:25 SP:FA CYC:  8 SL:251
8374  CA        DEX                             A:00 X:10 Y:F0 P:25 SP:FA CYC: 20 SL:251
8375  D0 F1     BNE $8368                       A:00 X:0F Y:F0 P:25 SP:FA CYC: 26 SL:251
8368  8C 04 20  STY $2004 = FF                  A:00 X:0F Y:F0 P:25 SP:FA CYC: 35 SL:251
836B  8D 04 20  STA $2004 = FF                  A:00 X:0F Y:F0 P:25 SP:FA CYC: 47 SL:251
836E  8D 04 20  STA $2004 = FF                  A:00 X:0F Y:F0 P:25 SP:FA CYC: 59 SL:251
8371  8C 04 20  STY $2004 = FF                  A:00 X:0F Y:F0 P:25 SP:FA CYC: 71 SL:251
8374  CA        DEX                             A:00 X:0F Y:F0 P:25 SP:FA CYC: 83 SL:251
8375  D0 F1     BNE $8368                       A:00 X:0E Y:F0 P:25 SP:FA CYC: 89 SL:251
8368  8C 04 20  STY $2004 = FF                  A:00 X:0E Y:F0 P:25 SP:FA CYC: 98 SL:251
836B  8D 04 20  STA $2004 = FF                  A:00 X:0E Y:F0 P:25 SP:FA CYC:110 SL:251
836E  8D 04 20  STA $2004 = FF                  A:00 X:0E Y:F0 P:25 SP:FA CYC:122 SL:251
8371  8C 04 20  STY $2004 = FF                  A:00 X:0E Y:F0 P:25 SP:FA CYC:134 SL:251
8374  CA        DEX                             A:00 X:0E Y:F0 P:25 SP:FA CYC:146 SL:251
8375  D0 F1     BNE $8368                       A:00 X:0D Y:F0 P:25 SP:FA CYC:152 SL:251
8368  8C 04 20  STY $2004 = FF                  A:00 X:0D Y:F0 P:25 SP:FA CYC:161 SL:251
836B  8D 04 20  STA $2004 = FF                  A:00 X:0D Y:F0 P:25 SP:FA CYC:173 SL:251
836E  8D 04 20  STA $2004 = FF                  A:00 X:0D Y:F0 P:25 SP:FA CYC:185 SL:251
8371  8C 04 20  STY $2004 = FF                  A:00 X:0D Y:F0 P:25 SP:FA CYC:197 SL:251
8374  CA        DEX                             A:00 X:0D Y:F0 P:25 SP:FA CYC:209 SL:251
8375  D0 F1     BNE $8368                       A:00 X:0C Y:F0 P:25 SP:FA CYC:215 SL:251
8368  8C 04 20  STY $2004 = FF                  A:00 X:0C Y:F0 P:25 SP:FA CYC:224 SL:251
836B  8D 04 20  STA $2004 = FF                  A:00 X:0C Y:F0 P:25 SP:FA CYC:236 SL:251
836E  8D 04 20  STA $2004 = FF                  A:00 X:0C Y:F0 P:25 SP:FA CYC:248 SL:251
8371  8C 04 20  STY $2004 = FF                  A:00 X:0C Y:F0 P:25 SP:FA CYC:260 SL:251
8374  CA        DEX                             A:00 X:0C Y:F0 P:25 SP:FA CYC:272 SL:251
8375  D0 F1     BNE $8368                       A:00 X:0B Y:F0 P:25 SP:FA CYC:278 SL:251
8368  8C 04 20  STY $2004 = FF                  A:00 X:0B Y:F0 P:25 SP:FA CYC:287 SL:251
836B  8D 04 20  STA $2004 = FF                  A:00 X:0B Y:F0 P:25 SP:FA CYC:299 SL:251
836E  8D 04 20  STA $2004 = FF                  A:00 X:0B Y:F0 P:25 SP:FA CYC:311 SL:251
8371  8C 04 20  STY $2004 = FF                  A:00 X:0B Y:F0 P:25 SP:FA CYC:323 SL:251
8374  CA        DEX                             A:00 X:0B Y:F0 P:25 SP:FA CYC:335 SL:251
8375  D0 F1     BNE $8368                       A:00 X:0A Y:F0 P:25 SP:FA CYC:  0 SL:252
8368  8C 04 20  STY $2004 = FF                  A:00 X:0A Y:F0 P:25 SP:FA CYC:  9 SL:252
836B  8D 04 20  STA $2004 = FF                  A:00 X:0A Y:F0 P:25 SP:FA CYC: 21 SL:252
836E  8D 04 20  STA $2004 = FF                  A:00 X:0A Y:F0 P:25 SP:FA CYC: 33 SL:252
8371  8C 04 20  STY $2004 = FF                  A:00 X:0A Y:F0 P:25 SP:FA CYC: 45 SL:252
8374  CA        DEX                             A:00 X:0A Y:F0 P:25 SP:FA CYC: 57 SL:252
8375  D0 F1     BNE $8368                       A:00 X:09 Y:F0 P:25 SP:FA CYC: 63 SL:252
8368  8C 04 20  STY $2004 = FF                  A:00 X:09 Y:F0 P:25 SP:FA CYC: 72 SL:252
836B  8D 04 20  STA $2004 = FF                  A:00 X:09 Y:F0 P:25 SP:FA CYC: 84 SL:252
836E  8D 04 20  STA $2004 = FF                  A:00 X:09 Y:F0 P:25 SP:FA CYC: 96 SL:252
8371  8C 04 20  STY $2004 = FF                  A:00 X:09 Y:F0 P:25 SP:FA CYC:108 SL:252
8374  CA        DEX                             A:00 X:09 Y:F0 P:25 SP:FA CYC:120 SL:252
8375  D0 F1     BNE $8368                       A:00 X:08 Y:F0 P:25 SP:FA CYC:126 SL:252
8368  8C 04 20  STY $2004 = FF                  A:00 X:08 Y:F0 P:25 SP:FA CYC:135 SL:252
836B  8D 04 20  STA $2004 = FF                  A:00 X:08 Y:F0 P:25 SP:FA CYC:147 SL:252
836E  8D 04 20  STA $2004 = FF                  A:00 X:08 Y:F0 P:25 SP:FA CYC:159 SL:252
8371  8C 04 20  STY $2004 = FF                  A:00 X:08 Y:F0 P:25 SP:FA CYC:171 SL:252
8374  CA        DEX                             A:00 X:08 Y:F0 P:25 SP:FA CYC:183 SL:252
8375  D0 F1     BNE $8368                       A:00 X:07 Y:F0 P:25 SP:FA CYC:189 SL:252
8368  8C 04 20  STY $2004 = FF                  A:00 X:07 Y:F0 P:25 SP:FA CYC:198 SL:252
836B  8D 04 20  STA $2004 = FF                  A:00 X:07 Y:F0 P:25 SP:FA CYC:210 SL:252
836E  8D 04 20  STA $2004 = FF                  A:00 X:07 Y:F0 P:25 SP:FA CYC:222 SL:252
8371  8C 04 20  STY $2004 = FF                  A:00 X:07 Y:F0 P:25 SP:FA CYC:234 SL:252
8374  CA        DEX                             A:00 X:07 Y:F0 P:25 SP:FA CYC:246 SL:252
8375  D0 F1     BNE $8368                       A:00 X:06 Y:F0 P:25 SP:FA CYC:252 SL:252
8368  8C 04 20  STY $2004 = FF                  A:00 X:06 Y:F0 P:25 SP:FA CYC:261 SL:252
836B  8D 04 20  STA $2004 = FF                  A:00 X:06 Y:F0 P:25 SP:FA CYC:273 SL:252
836E  8D 04 20  STA $2004 = FF                  A:00 X:06 Y:F0 P:25 SP:FA CYC:285 SL:252
8371  8C 04 20  STY $2004 = FF                  A:00 X:06 Y:F0 P:25 SP:FA CYC:297 SL:252
8374  CA        DEX                             A:00 X:06 Y:F0 P:25 SP:FA CYC:309 SL:252
8375  D0 F1     BNE $8368                       A:00 X:05 Y:F0 P:25 SP:FA CYC:315 SL:252
8368  8C 04 20  STY $2004 = FF                  A:00 X:05 Y:F0 P:25 SP:FA CYC:324 SL:252
836B  8D 04 20  STA $2004 = FF                  A:00 X:05 Y:F0 P:25 SP:FA CYC:336 SL:252
836E  8D 04 20  STA $2004 = FF                  A:00 X:05 Y:F0 P:25 SP:FA CYC:  7 SL:253
8371  8C 04 20  STY $2004 = FF                  A:00 X:05 Y:F0 P:25 SP:FA CYC: 19 SL:253
8374  CA        DEX                             A:00 X:05 Y:F0 P:25 SP:FA CYC: 31 SL:253
8375  D0 F1     BNE $8368                       A:00 X:04 Y:F0 P:25 SP:FA CYC: 37 SL:253
8368  8C 04 20  STY $2004 = FF                  A:00 X:04 Y:F0 P:25 SP:FA CYC: 46 SL:253
836B  8D 04 20  STA $2004 = FF                  A:00 X:04 Y:F0 P:25 SP:FA CYC: 58 SL:253
836E  8D 04 20  STA $2004 = FF                  A:00 X:04 Y:F0 P:25 SP:FA CYC: 70 SL:253
8371  8C 04 20  STY $2004 = FF                  A:00 X:04 Y:F0 P:25 SP:FA CYC: 82 SL:253
8374  CA        DEX                             A:00 X:04 Y:F0 P:25 SP:FA CYC: 94 SL:253
8375  D0 F1     BNE $8368                       A:00 X:03 Y:F0 P:25 SP:FA CYC:100 SL:253
8368  8C 04 20  STY $2004 = FF                  A:00 X:03 Y:F0 P:25 SP:FA CYC:109 SL:253
836B  8D 04 20  STA $2004 = FF                  A:00 X:03 Y:F0 P:25 SP:FA CYC:121 SL:253
836E  8D 04 20  STA $2004 = FF                  A:00 X:03 Y:F0 P:25 SP:FA CYC:133 SL:253
8371  8C 04 20  STY $2004 = FF                  A:00 X:03 Y:F0 P:25 SP:FA CYC:145 SL:253
8374  CA        DEX                             A:00 X:03 Y:F0 P:25 SP:FA CYC:157 SL:253
8375  D0 F1     BNE $8368                       A:00 X:02 Y:F0 P:25 SP:FA CYC:163 SL:253
8368  8C 04 20  STY $2004 = FF                  A:00 X:02 Y:F0 P:25 SP:FA CYC:172 SL:253
836B  8D 04 20  STA $2004 = FF                  A:00 X:02 Y:F0 P:25 SP:FA CYC:184 SL:253
836E  8D 04 20  STA $2004 = FF                  A:00 X:02 Y:F0 P:25 SP:FA CYC:196 SL:253
8371  8C 04 20  STY $2004 = FF                  A:00 X:02 Y:F0 P:25 SP:FA CYC:208 SL:253
8374  CA        DEX                             A:00 X:02 Y:F0 P:25 SP:FA CYC:220 SL:253
8375  D0 F1     BNE $8368                       A:00 X:01 Y:F0 P:25 SP:FA CYC:226 SL:253
8368  8C 04 20  STY $2004 = FF                  A:00 X:01 Y:F0 P:25 SP:FA CYC:235 SL:253
836B  8D 04 20  STA $2004 = FF                  A:00 X:01 Y:F0 P:25 SP:FA CYC:247 SL:253
836E  8D 04 20  STA $2004 = FF                  A:00 X:01 Y:F0 P:25 SP:FA CYC:259 SL:253
8371  8C 04 20  STY $2004 = FF                  A:00 X:01 Y:F0 P:25 SP:FA CYC:271 SL:253
8374  CA        DEX                             A:00 X:01 Y:F0 P:25 SP:FA CYC:283 SL:253
8375  D0 F1     BNE $8368                       A:00 X:00 Y:F0 P:27 SP:FA CYC:289 SL:253
8377  60        RTS                             A:00 X:00 Y:F0 P:27 SP:FA CYC:295 SL:253
8060  20 78 83  JSR $8378                       A:00 X:00 Y:F0 P:27 SP:FC CYC:313 SL:253
8378  AD 02 20  LDA $2002 = FF                  A:00 X:00 Y:F0 P:27 SP:FA CYC:331 SL:253
837B  10 FB     BPL $8378                       A:10 X:00 Y:F0 P:25 SP:FA CYC:  2 SL:254
8378  AD 02 20  LDA $2002 = FF                  A:10 X:00 Y:F0 P:25 SP:FA CYC: 11 SL:254
837B  10 FB     BPL $8378                       A:10 X:00 Y:F0 P:25 SP:FA CYC: 23 SL:254
8378  AD 02 20  LDA $2002 = FF                  A:10 X:00 Y:F0 P:25 SP:FA CYC: 32 SL:254
837B  10 FB     BPL $8378                       A:10 X:00 Y:F0 P:25 SP:FA CYC: 44 SL:254
8378  AD 02 20  LDA $2002 = FF                  A:10 X:00 Y:F0 P:25 SP:FA CYC: 53 SL:254
837B  10 FB     BPL $8378                       A:10 X:00 Y:F0 P:25 SP:FA CYC: 65 SL:254
8378  AD 02 20  LDA $2002 = FF                  A:10 X:00 Y:F0 P:25 SP:FA CYC: 74 SL:254
837B  10 FB     BPL $8378                       A:10 X:00 Y:F0 P:25 SP:FA CYC: 86 SL:254
8378  AD 02 20  LDA $2002 = FF                  A:10 X:00 Y:F0 P:25 SP:FA CYC: 95 SL:254
837B  10 FB     BPL $8378                       A:10 X:00 Y:F0 P:25 SP:FA CYC:107 SL:254
8378  AD 02 20  LDA $2002 = FF                  A:10 X:00 Y:F0 P:25 SP:FA CYC:116 SL:254
837B  10 FB     BPL $8378                       A:10 X:00 Y:F0 P:25 SP:FA CYC:128 SL:254
8378  AD 02 20  LDA $2002 = FF                  A:10 X:00 Y:F0 P:25 SP:FA CYC:137 SL:254
837B  10 FB     BPL $8378                       A:10 X:00 Y:F0 P:25 SP:FA CYC:149 SL:254
8378  AD 02 20  LDA $2002 = FF                  A:10 X:00 Y:F0 P:25 SP:FA CYC:158 SL:254
837B  10 FB     BPL $8378                       A:10 X:00 Y:F0 P:25 SP:FA CYC:170 SL:254
8378  AD 02 20  LDA $2002 = FF                  A:10 X:00 Y:F0 P:25 SP:FA CYC:179 SL:254
837B  10 FB     BPL $8378                       A:10 X:00 Y:F0 P:25 SP:FA CYC:191 SL:254
8378  AD 02 20  LDA $2002 = FF                  A:10 X:00 Y:F0 P:25 SP:FA CYC:200 SL:254
837B  10 FB     BPL $8378                       A:10 X:00 Y:F0 P:25 SP:FA CYC:212 SL:254
8378  AD 02 20  LDA $2002 = FF                  A:10 X:00 Y:F0 P:25 SP:FA CYC:221 SL:254
837B  10 FB     BPL $8378                       A:10 X:00 Y:F0 P:25 SP:FA CYC:233 SL:254
8378  AD 02 20  LDA $2002 = FF                  A:10 X:00 Y:F0 P:25 SP:FA CYC:242 SL:254
837B  10 FB     BPL $8378                       A:10 X:00 Y:F0 P:25 SP:FA CYC:254 SL:254
8378  AD 02 20  LDA $2002 = FF                  A:10 X:00 Y:F0 P:25 SP:FA CYC:263 SL:254
837B  10 FB     BPL $8378                       A:10 X:00 Y:F0 P:25 SP:FA CYC:275 SL:254
8378  AD 02 20  LDA $2002 = FF                  A:10 X:00 Y:F0 P:25 SP:FA CYC:284 SL:254
837B  10 FB     BPL $8378                       A:10 X:00 Y:F0 P:25 SP:FA CYC:296 SL:254
8378  AD 02 20  LDA $2002 = FF                  A:10 X:00 Y:F0 P:25 SP:FA CYC:305 SL:254
837B  10 FB     BPL $8378                       A:10 X:00 Y:F0 P:25 SP:FA CYC:317 SL:254
8378  AD 02 20  LDA $2002 = FF                  A:10 X:00 Y:F0 P:25 SP:FA CYC:326 SL:254
837B  10 FB     BPL $8378                       A:10 X:00 Y:F0 P:25 SP:FA CYC:338 SL:254
8378  AD 02 20  LDA $2002 = FF                  A:10 X:00 Y:F0 P:25 SP:FA CYC:  6 SL:255
837B  10 FB     BPL $8378                       A:10 X:00 Y:F0 P:25 SP:FA CYC: 18 SL:255
8378  AD 02 20  LDA $2002 = FF                  A:10 X:00 Y:F0 P:25 SP:FA CYC: 27 SL:255
837B  10 FB     BPL $8378                       A:10 X:00 Y:F0 P:25 SP:FA CYC: 39 SL:255
8378  AD 02 20  LDA $2002 = FF                  A:10 X:00 Y:F0 P:25 SP:FA CYC: 48 SL:255
837B  10 FB     BPL $8378                       A:10 X:00 Y:F0 P:25 SP:FA CYC: 60 SL:255
8378  AD 02 20  LDA $2002 = FF                  A:10 X:00 Y:F0 P:25 SP:FA CYC: 69 SL:255
837B  10 FB     BPL $8378                       A:10 X:00 Y:F0 P:25 SP:FA CYC: 81 SL:255
8378  AD 02 20  LDA $2002 = FF                  A:10 X:00 Y:F0 P:25 SP:FA CYC: 90 SL:255
837B  10 FB     BPL $8378                       A:10 X:00 Y:F0 P:25 SP:FA CYC:102 SL:255
8378  AD 02 20  LDA $2002 = FF                  A:10 X:00 Y:F0 P:25 SP:FA CYC:111 SL:255
837B  10 FB     BPL $8378                       A:10 X:00 Y:F0 P:25 SP:FA CYC:123 SL:255
8378  AD 02 20  LDA $2002 = FF                  A:10 X:00 Y:F0 P:25 SP:FA CYC:132 SL:255
837B  10 FB     BPL $8378                       A:10 X:00 Y:F0 P:25 SP:FA CYC:144 SL:255
8378  AD 02 20  LDA $2002 = FF                  A:10 X:00 Y:F0 P:25 SP:FA CYC:153 SL:255
837B  10 FB     BPL $8378                       A:10 X:00 Y:F0 P:25 SP:FA CYC:165 SL:255
8378  AD 02 20  LDA $2002 = FF                  A:10 X:00 Y:F0 P:25 SP:FA CYC:174 SL:255
837B  10 FB     BPL $8378                       A:10 X:00 Y:F0 P:25 SP:FA CYC:186 SL:255
8378  AD 02 20  LDA $2002 = FF                  A:10 X:00 Y:F0 P:25 SP:FA CYC:195 SL:255
837B  10 FB     BPL $8378                       A:10 X:00 Y:F0 P:25 SP:FA CYC:207 SL:255
8378  AD 02 20  LDA $2002 = FF                  A:10 X:00 Y:F0 P:25 SP:FA CYC:216 SL:255
837B  10 FB     BPL $8378                       A:10 X:00 Y:F0 P:25 SP:FA CYC:228 SL:255
8378  AD 02 20  LDA $2002 = FF                  A:10 X:00 Y:F0 P:25 SP:FA CYC:237 SL:255
837B  10 FB     BPL $8378                       A:10 X:00 Y:F0 P:25 SP:FA CYC:249 SL:255
8378  AD 02 20  LDA $2002 = FF                  A:10 X:00 Y:F0 P:25 SP:FA CYC:258 SL:255
837B  10 FB     BPL $8378                       A:10 X:00 Y:F0 P:25 SP:FA CYC:270 SL:255
8378  AD 02 20  LDA $2002 = FF                  A:10 X:00 Y:F0 P:25 SP:FA CYC:279 SL:255
837B  10 FB     BPL $8378                       A:10 X:00 Y:F0 P:25 SP:FA CYC:291 SL:255
8378  AD 02 20  LDA $2002 = FF                  A:10 X:00 Y:F0 P:25 SP:FA CYC:300 SL:255
837B  10 FB     BPL $8378                       A:10 X:00 Y:F0 P:25 SP:FA CYC:312 SL:255
8378  AD 02 20  LDA $2002 = FF                  A:10 X:00 Y:F0 P:25 SP:FA CYC:321 SL:255
837B  10 FB     BPL $8378                       A:10 X:00 Y:F0 P:25 SP:FA CYC:333 SL:255
8378  AD 02 20  LDA $2002 = FF                  A:10 X:00 Y:F0 P:25 SP:FA CYC:  1 SL:256
837B  10 FB     BPL $8378                       A:10 X:00 Y:F0 P:25 SP:FA CYC: 13 SL:256
8378  AD 02 20  LDA $2002 = FF                  A:10 X:00 Y:F0 P:25 SP:FA CYC: 22 SL:256
837B  10 FB     BPL $8378                       A:10 X:00 Y:F0 P:25 SP:FA CYC: 34 SL:256
8378  AD 02 20  LDA $2002 = FF                  A:10 X:00 Y:F0 P:25 SP:FA CYC: 43 SL:256
837B  10 FB     BPL $8378                       A:10 X:00 Y:F0 P:25 SP:FA CYC: 55 SL:256
8378  AD 02 20  LDA $2002 = FF                  A:10 X:00 Y:F0 P:25 SP:FA CYC: 64 SL:256
837B  10 FB     BPL $8378                       A:10 X:00 Y:F0 P:25 SP:FA CYC: 76 SL:256
8378  AD 02 20  LDA $2002 = FF                  A:10 X:00 Y:F0 P:25 SP:FA CYC: 85 SL:256
837B  10 FB     BPL $8378                       A:10 X:00 Y:F0 P:25 SP:FA CYC: 97 SL:256
8378  AD 02 20  LDA $2002 = FF                  A:10 X:00 Y:F0 P:25 SP:FA CYC:106 SL:256
837B  10 FB     BPL $8378                       A:10 X:00 Y:F0 P:25 SP:FA CYC:118 SL:256
8378  AD 02 20  LDA $2002 = FF                  A:10 X:00 Y:F0 P:25 SP:FA CYC:127 SL:256
837B  10 FB     BPL $8378                       A:10 X:00 Y:F0 P:25 SP:FA CYC:139 SL:256
8378  AD 02 20  LDA $2002 = FF                  A:10 X:00 Y:F0 P:25 SP:FA CYC:148 SL:256
837B  10 FB     BPL $8378                       A:10 X:00 Y:F0 P:25 SP:FA CYC:160 SL:256
8378  AD 02 20  LDA $2002 = FF                  A:10 X:00 Y:F0 P:25 SP:FA CYC:169 SL:256
837B  10 FB     BPL $8378                       A:10 X:00 Y:F0 P:25 SP:FA CYC:181 SL:256
8378  AD 02 20  LDA $2002 = FF                  A:10 X:00 Y:F0 P:25 SP:FA CYC:190 SL:256
837B  10 FB     BPL $8378                       A:10 X:00 Y:F0 P:25 SP:FA CYC:202 SL:256
8378  AD 02 20  LDA $2002 = FF                  A:10 X:00 Y:F0 P:25 SP:FA CYC:211 SL:256
837B  10 FB     BPL $8378                       A:10 X:00 Y:F0 P:25 SP:FA CYC:223 SL:256
8378  AD 02 20  LDA $2002 = FF                  A:10 X:00 Y:F0 P:25 SP:FA CYC:232 SL:256
837B  10 FB     BPL $8378                       A:10 X:00 Y:F0 P:25 SP:FA CYC:244 SL:256
8378  AD 02 20  LDA $2002 = FF                  A:10 X:00 Y:F0 P:25 SP:FA CYC:253 SL:256
837B  10 FB     BPL $8378                       A:10 X:00 Y:F0 P:25 SP:FA CYC:265 SL:256
8378  AD 02 20  LDA $2002 = FF                  A:10 X:00 Y:F0 P:25 SP:FA CYC:274 SL:256
837B  10 FB     BPL $8378                       A:10 X:00 Y:F0 P:25 SP:FA CYC:286 SL:256
8378  AD 02 20  LDA $2002 = FF                  A:10 X:00 Y:F0 P:25 SP:FA CYC:295 SL:256
837B  10 FB     BPL $8378                       A:10 X:00 Y:F0 P:25 SP:FA CYC:307 SL:256
8378  AD 02 20  LDA $2002 = FF                  A:10 X:00 Y:F0 P:25 SP:FA CYC:316 SL:256
837B  10 FB     BPL $8378                       A:10 X:00 Y:F0 P:25 SP:FA CYC:328 SL:256
8378  AD 02 20  LDA $2002 = FF                  A:10 X:00 Y:F0 P:25 SP:FA CYC:337 SL:256
837B  10 FB     BPL $8378                       A:10 X:00 Y:F0 P:25 SP:FA CYC:  8 SL:257
8378  AD 02 20  LDA $2002 = FF                  A:10 X:00 Y:F0 P:25 SP:FA CYC: 17 SL:257
837B  10 FB     BPL $8378                       A:10 X:00 Y:F0 P:25 SP:FA CYC: 29 SL:257
8378  AD 02 20  LDA $2002 = FF                  A:10 X:00 Y:F0 P:25 SP:FA CYC: 38 SL:257
837B  10 FB     BPL $8378                       A:10 X:00 Y:F0 P:25 SP:FA CYC: 50 SL:257
8378  AD 02 20  LDA $2002 = FF                  A:10 X:00 Y:F0 P:25 SP:FA CYC: 59 SL:257
837B  10 FB     BPL $8378                       A:10 X:00 Y:F0 P:25 SP:FA CYC: 71 SL:257
8378  AD 02 20  LDA $2002 = FF                  A:10 X:00 Y:F0 P:25 SP:FA CYC: 80 SL:257
837B  10 FB     BPL $8378                       A:10 X:00 Y:F0 P:25 SP:FA CYC: 92 SL:257
8378  AD 02 20  LDA $2002 = FF                  A:10 X:00 Y:F0 P:25 SP:FA CYC:101 SL:257
837B  10 FB     BPL $8378                       A:10 X:00 Y:F0 P:25 SP:FA CYC:113 SL:257
8378  AD 02 20  LDA $2002 = FF                  A:10 X:00 Y:F0 P:25 SP:FA CYC:122 SL:257
837B  10 FB     BPL $8378                       A:10 X:00 Y:F0 P:25 SP:FA CYC:134 SL:257
8378  AD 02 20  LDA $2002 = FF                  A:10 X:00 Y:F0 P:25 SP:FA CYC:143 SL:257
837B  10 FB     BPL $8378                       A:10 X:00 Y:F0 P:25 SP:FA CYC:155 SL:257
8378  AD 02 20  LDA $2002 = FF                  A:10 X:00 Y:F0 P:25 SP:FA CYC:164 SL:257
837B  10 FB     BPL $8378                       A:10 X:00 Y:F0 P:25 SP:FA CYC:176 SL:257
8378  AD 02 20  LDA $2002 = FF                  A:10 X:00 Y:F0 P:25 SP:FA CYC:185 SL:257
837B  10 FB     BPL $8378                       A:10 X:00 Y:F0 P:25 SP:FA CYC:197 SL:257
8378  AD 02 20  LDA $2002 = FF                  A:10 X:00 Y:F0 P:25 SP:FA CYC:206 SL:257
837B  10 FB     BPL $8378                       A:10 X:00 Y:F0 P:25 SP:FA CYC:218 SL:257
8378  AD 02 20  LDA $2002 = FF                  A:10 X:00 Y:F0 P:25 SP:FA CYC:227 SL:257
837B  10 FB     BPL $8378                       A:10 X:00 Y:F0 P:25 SP:FA CYC:239 SL:257
8378  AD 02 20  LDA $2002 = FF                  A:10 X:00 Y:F0 P:25 SP:FA CYC:248 SL:257
837B  10 FB     BPL $8378                       A:10 X:00 Y:F0 P:25 SP:FA CYC:260 SL:257
8378  AD 02 20  LDA $2002 = FF                  A:10 X:00 Y:F0 P:25 SP:FA CYC:269 SL:257
837B  10 FB     BPL $8378                       A:10 X:00 Y:F0 P:25 SP:FA CYC:281 SL:257
8378  AD 02 20  LDA $2002 = FF                  A:10 X:00 Y:F0 P:25 SP:FA CYC:290 SL:257
837B  10 FB     BPL $8378                       A:10 X:00 Y:F0 P:25 SP:FA CYC:302 SL:257
8378  AD 02 20  LDA $2002 = FF                  A:10 X:00 Y:F0 P:25 SP:FA CYC:311 SL:257
837B  10 FB     BPL $8378                       A:10 X:00 Y:F0 P:25 SP:FA CYC:323 SL:257
8378  AD 02 20  LDA $2002 = FF                  A:10 X:00 Y:F0 P:25 SP:FA CYC:332 SL:257
837B  10 FB     BPL $8378                       A:10 X:00 Y:F0 P:25 SP:FA CYC:  3 SL:258
8378  AD 02 20  LDA $2002 = FF                  A:10 X:00 Y:F0 P:25 SP:FA CYC: 12 SL:258
837B  10 FB     BPL $8378                       A:10 X:00 Y:F0 P:25 SP:FA CYC: 24 SL:258
8378  AD 02 20  LDA $2002 = FF                  A:10 X:00 Y:F0 P:25 SP:FA CYC: 33 SL:258
837B  10 FB     BPL $8378                       A:10 X:00 Y:F0 P:25 SP:FA CYC: 45 SL:258
8378  AD 02 20  LDA $2002 = FF                  A:10 X:00 Y:F0 P:25 SP:FA CYC: 54 SL:258
837B  10 FB     BPL $8378                       A:10 X:00 Y:F0 P:25 SP:FA CYC: 66 SL:258
8378  AD 02 20  LDA $2002 = FF                  A:10 X:00 Y:F0 P:25 SP:FA CYC: 75 SL:258
837B  10 FB     BPL $8378                       A:10 X:00 Y:F0 P:25 SP:FA CYC: 87 SL:258
8378  AD 02 20  LDA $2002 = FF                  A:10 X:00 Y:F0 P:25 SP:FA CYC: 96 SL:258
837B  10 FB     BPL $8378                       A:10 X:00 Y:F0 P:25 SP:FA CYC:108 SL:258
8378  AD 02 20  LDA $2002 = FF                  A:10 X:00 Y:F0 P:25 SP:FA CYC:117 SL:258
837B  10 FB     BPL $8378                       A:10 X:00 Y:F0 P:25 SP:FA CYC:129 SL:258
8378  AD 02 20  LDA $2002 = FF                  A:10 X:00 Y:F0 P:25 SP:FA CYC:138 SL:258
837B  10 FB     BPL $8378                       A:10 X:00 Y:F0 P:25 SP:FA CYC:150 SL:258
8378  AD 02 20  LDA $2002 = FF                  A:10 X:00 Y:F0 P:25 SP:FA CYC:159 SL:258
837B  10 FB     BPL $8378                       A:10 X:00 Y:F0 P:25 SP:FA CYC:171 SL:258
8378  AD 02 20  LDA $2002 = FF                  A:10 X:00 Y:F0 P:25 SP:FA CYC:180 SL:258
837B  10 FB     BPL $8378                       A:10 X:00 Y:F0 P:25 SP:FA CYC:192 SL:258
8378  AD 02 20  LDA $2002 = FF                  A:10 X:00 Y:F0 P:25 SP:FA CYC:201 SL:258
837B  10 FB     BPL $8378                       A:10 X:00 Y:F0 P:25 SP:FA CYC:213 SL:258
8378  AD 02 20  LDA $2002 = FF                  A:10 X:00 Y:F0 P:25 SP:FA CYC:222 SL:258
837B  10 FB     BPL $8378                       A:10 X:00 Y:F0 P:25 SP:FA CYC:234 SL:258
8378  AD 02 20  LDA $2002 = FF                  A:10 X:00 Y:F0 P:25 SP:FA CYC:243 SL:258
837B  10 FB     BPL $8378                       A:10 X:00 Y:F0 P:25 SP:FA CYC:255 SL:258
8378  AD 02 20  LDA $2002 = FF                  A:10 X:00 Y:F0 P:25 SP:FA CYC:264 SL:258
837B  10 FB     BPL $8378                       A:10 X:00 Y:F0 P:25 SP:FA CYC:276 SL:258
8378  AD 02 20  LDA $2002 = FF                  A:10 X:00 Y:F0 P:25 SP:FA CYC:285 SL:258
837B  10 FB     BPL $8378                       A:10 X:00 Y:F0 P:25 SP:FA CYC:297 SL:258
8378  AD 02 20  LDA $2002 = FF                  A:10 X:00 Y:F0 P:25 SP:FA CYC:306 SL:258
837B  10 FB     BPL $8378                       A:10 X:00 Y:F0 P:25 SP:FA CYC:318 SL:258
8378  AD 02 20  LDA $2002 = FF                  A:10 X:00 Y:F0 P:25 SP:FA CYC:327 SL:258
837B  10 FB     BPL $8378                       A:10 X:00 Y:F0 P:25 SP:FA CYC:339 SL:258
8378  AD 02 20  LDA $2002 = FF                  A:10 X:00 Y:F0 P:25 SP:FA CYC:  7 SL:259
837B  10 FB     BPL $8378                       A:10 X:00 Y:F0 P:25 SP:FA CYC: 19 SL:259
8378  AD 02 20  LDA $2002 = FF                  A:10 X:00 Y:F0 P:25 SP:FA CYC: 28 SL:259
837B  10 FB     BPL $8378                       A:10 X:00 Y:F0 P:25 SP:FA CYC: 40 SL:259
8378  AD 02 20  LDA $2002 = FF                  A:10 X:00 Y:F0 P:25 SP:FA CYC: 49 SL:259
837B  10 FB     BPL $8378                       A:10 X:00 Y:F0 P:25 SP:FA CYC: 61 SL:259
8378  AD 02 20  LDA $2002 = FF                  A:10 X:00 Y:F0 P:25 SP:FA CYC: 70 SL:259
837B  10 FB     BPL $8378                       A:10 X:00 Y:F0 P:25 SP:FA CYC: 82 SL:259
8378  AD 02 20  LDA $2002 = FF                  A:10 X:00 Y:F0 P:25 SP:FA CYC: 91 SL:259
837B  10 FB     BPL $8378                       A:10 X:00 Y:F0 P:25 SP:FA CYC:103 SL:259
8378  AD 02 20  LDA $2002 = FF                  A:10 X:00 Y:F0 P:25 SP:FA CYC:112 SL:259
837B  10 FB     BPL $8378                       A:10 X:00 Y:F0 P:25 SP:FA CYC:124 SL:259
8378  AD 02 20  LDA $2002 = FF                  A:10 X:00 Y:F0 P:25 SP:FA CYC:133 SL:259
837B  10 FB     BPL $8378                       A:10 X:00 Y:F0 P:25 SP:FA CYC:145 SL:259
8378  AD 02 20  LDA $2002 = FF                  A:10 X:00 Y:F0 P:25 SP:FA CYC:154 SL:259
837B  10 FB     BPL $8378                       A:10 X:00 Y:F0 P:25 SP:FA CYC:166 SL:259
8378  AD 02 20  LDA $2002 = FF                  A:10 X:00 Y:F0 P:25 SP:FA CYC:175 SL:259
837B  10 FB     BPL $8378                       A:10 X:00 Y:F0 P:25 SP:FA CYC:187 SL:259
8378  AD 02 20  LDA $2002 = FF                  A:10 X:00 Y:F0 P:25 SP:FA CYC:196 SL:259
837B  10 FB     BPL $8378                       A:10 X:00 Y:F0 P:25 SP:FA CYC:208 SL:259
8378  AD 02 20  LDA $2002 = FF                  A:10 X:00 Y:F0 P:25 SP:FA CYC:217 SL:259
837B  10 FB     BPL $8378                       A:10 X:00 Y:F0 P:25 SP:FA CYC:229 SL:259
8378  AD 02 20  LDA $2002 = FF                  A:10 X:00 Y:F0 P:25 SP:FA CYC:238 SL:259
837B  10 FB     BPL $8378                       A:10 X:00 Y:F0 P:25 SP:FA CYC:250 SL:259
8378  AD 02 20  LDA $2002 = FF                  A:10 X:00 Y:F0 P:25 SP:FA CYC:259 SL:259
837B  10 FB     BPL $8378                       A:10 X:00 Y:F0 P:25 SP:FA CYC:271 SL:259
8378  AD 02 20  LDA $2002 = FF                  A:10 X:00 Y:F0 P:25 SP:FA CYC:280 SL:259
837B  10 FB     BPL $8378                       A:10 X:00 Y:F0 P:25 SP:FA CYC:292 SL:259
8378  AD 02 20  LDA $2002 = FF                  A:10 X:00 Y:F0 P:25 SP:FA CYC:301 SL:259
837B  10 FB     BPL $8378                       A:10 X:00 Y:F0 P:25 SP:FA CYC:313 SL:259
8378  AD 02 20  LDA $2002 = FF                  A:10 X:00 Y:F0 P:25 SP:FA CYC:322 SL:259
837B  10 FB     BPL $8378                       A:10 X:00 Y:F0 P:25 SP:FA CYC:334 SL:259
8378  AD 02 20  LDA $2002 = FF                  A:10 X:00 Y:F0 P:25 SP:FA CYC:  2 SL:260
837B  10 FB     BPL $8378                       A:10 X:00 Y:F0 P:25 SP:FA CYC: 14 SL:260
8378  AD 02 20  LDA $2002 = FF                  A:10 X:00 Y:F0 P:25 SP:FA CYC: 23 SL:260
837B  10 FB     BPL $8378                       A:10 X:00 Y:F0 P:25 SP:FA CYC: 35 SL:260
8378  AD 02 20  LDA $2002 = FF                  A:10 X:00 Y:F0 P:25 SP:FA CYC: 44 SL:260
837B  10 FB     BPL $8378                       A:10 X:00 Y:F0 P:25 SP:FA CYC: 56 SL:260
8378  AD 02 20  LDA $2002 = FF                  A:10 X:00 Y:F0 P:25 SP:FA CYC: 65 SL:260
837B  10 FB     BPL $8378                       A:10 X:00 Y:F0 P:25 SP:FA CYC: 77 SL:260
8378  AD 02 20  LDA $2002 = FF                  A:10 X:00 Y:F0 P:25 SP:FA CYC: 86 SL:260
837B  10 FB     BPL $8378                       A:10 X:00 Y:F0 P:25 SP:FA CYC: 98 SL:260
8378  AD 02 20  LDA $2002 = FF                  A:10 X:00 Y:F0 P:25 SP:FA CYC:107 SL:260
837B  10 FB     BPL $8378                       A:10 X:00 Y:F0 P:25 SP:FA CYC:119 SL:260
8378  AD 02 20  LDA $2002 = FF                  A:10 X:00 Y:F0 P:25 SP:FA CYC:128 SL:260
837B  10 FB     BPL $8378                       A:10 X:00 Y:F0 P:25 SP:FA CYC:140 SL:260
8378  AD 02 20  LDA $2002 = FF                  A:10 X:00 Y:F0 P:25 SP:FA CYC:149 SL:260
837B  10 FB     BPL $8378                       A:10 X:00 Y:F0 P:25 SP:FA CYC:161 SL:260
8378  AD 02 20  LDA $2002 = FF                  A:10 X:00 Y:F0 P:25 SP:FA CYC:170 SL:260
837B  10 FB     BPL $8378                       A:10 X:00 Y:F0 P:25 SP:FA CYC:182 SL:260
8378  AD 02 20  LDA $2002 = FF                  A:10 X:00 Y:F0 P:25 SP:FA CYC:191 SL:260
837B  10 FB     BPL $8378                       A:10 X:00 Y:F0 P:25 SP:FA CYC:203 SL:260
8378  AD 02 20  LDA $2002 = FF                  A:10 X:00 Y:F0 P:25 SP:FA CYC:212 SL:260
837B  10 FB     BPL $8378                       A:10 X:00 Y:F0 P:25 SP:FA CYC:224 SL:260
8378  AD 02 20  LDA $2002 = FF                  A:10 X:00 Y:F0 P:25 SP:FA CYC:233 SL:260
837B  10 FB     BPL $8378                       A:10 X:00 Y:F0 P:25 SP:FA CYC:245 SL:260
8378  AD 02 20  LDA $2002 = FF                  A:10 X:00 Y:F0 P:25 SP:FA CYC:254 SL:260
837B  10 FB     BPL $8378                       A:10 X:00 Y:F0 P:25 SP:FA CYC:266 SL:260
8378  AD 02 20  LDA $2002 = FF                  A:10 X:00 Y:F0 P:25 SP:FA CYC:275 SL:260
837B  10 FB     BPL $8378                       A:10 X:00 Y:F0 P:25 SP:FA CYC:287 SL:260
8378  AD 02 20  LDA $2002 = FF                  A:10 X:00 Y:F0 P:25 SP:FA CYC:296 SL:260
837B  10 FB     BPL $8378                       A:10 X:00 Y:F0 P:25 SP:FA CYC:308 SL:260
8378  AD 02 20  LDA $2002 = FF                  A:10 X:00 Y:F0 P:25 SP:FA CYC:317 SL:260
837B  10 FB     BPL $8378                       A:10 X:00 Y:F0 P:25 SP:FA CYC:329 SL:260
8378  AD 02 20  LDA $2002 = FF                  A:10 X:00 Y:F0 P:25 SP:FA CYC:338 SL:260
837B  10 FB     BPL $8378                       A:10 X:00 Y:F0 P:25 SP:FA CYC:  9 SL:-1
8378  AD 02 20  LDA $2002 = FF                  A:10 X:00 Y:F0 P:25 SP:FA CYC: 18 SL:-1
837B  10 FB     BPL $8378                       A:10 X:00 Y:F0 P:25 SP:FA CYC: 30 SL:-1
8378  AD 02 20  LDA $2002 = FF                  A:10 X:00 Y:F0 P:25 SP:FA CYC: 39 SL:-1
837B  10 FB     BPL $8378                       A:10 X:00 Y:F0 P:25 SP:FA CYC: 51 SL:-1
8378  AD 02 20  LDA $2002 = FF                  A:10 X:00 Y:F0 P:25 SP:FA CYC: 60 SL:-1
837B  10 FB     BPL $8378                       A:10 X:00 Y:F0 P:25 SP:FA CYC: 72 SL:-1
8378  AD 02 20  LDA $2002 = FF                  A:10 X:00 Y:F0 P:25 SP:FA CYC: 81 SL:-1
837B  10 FB     BPL $8378                       A:10 X:00 Y:F0 P:25 SP:FA CYC: 93 SL:-1
8378  AD 02 20  LDA $2002 = FF                  A:10 X:00 Y:F0 P:25 SP:FA CYC:102 SL:-1
837B  10 FB     BPL $8378                       A:10 X:00 Y:F0 P:25 SP:FA CYC:114 SL:-1
8378  AD 02 20  LDA $2002 = FF                  A:10 X:00 Y:F0 P:25 SP:FA CYC:123 SL:-1
837B  10 FB     BPL $8378                       A:10 X:00 Y:F0 P:25 SP:FA CYC:135 SL:-1
8378  AD 02 20  LDA $2002 = FF                  A:10 X:00 Y:F0 P:25 SP:FA CYC:144 SL:-1
837B  10 FB     BPL $8378                       A:10 X:00 Y:F0 P:25 SP:FA CYC:156 SL:-1
8378  AD 02 20  LDA $2002 = FF                  A:10 X:00 Y:F0 P:25 SP:FA CYC:165 SL:-1
837B  10 FB     BPL $8378                       A:10 X:00 Y:F0 P:25 SP:FA CYC:177 SL:-1
8378  AD 02 20  LDA $2002 = FF                  A:10 X:00 Y:F0 P:25 SP:FA CYC:186 SL:-1
837B  10 FB     BPL $8378                       A:10 X:00 Y:F0 P:25 SP:FA CYC:198 SL:-1
8378  AD 02 20  LDA $2002 = FF                  A:10 X:00 Y:F0 P:25 SP:FA CYC:207 SL:-1
837B  10 FB     BPL $8378                       A:10 X:00 Y:F0 P:25 SP:FA CYC:219 SL:-1
8378  AD 02 20  LDA $2002 = FF                  A:10 X:00 Y:F0 P:25 SP:FA CYC:228 SL:-1
837B  10 FB     BPL $8378                       A:10 X:00 Y:F0 P:25 SP:FA CYC:240 SL:-1
8378  AD 02 20  LDA $2002 = FF                  A:10 X:00 Y:F0 P:25 SP:FA CYC:249 SL:-1
837B  10 FB     BPL $8378                       A:10 X:00 Y:F0 P:25 SP:FA CYC:261 SL:-1
8378  AD 02 20  LDA $2002 = FF                  A:10 X:00 Y:F0 P:25 SP:FA CYC:270 SL:-1
837B  10 FB     BPL $8378                       A:10 X:00 Y:F0 P:25 SP:FA CYC:282 SL:-1
8378  AD 02 20  LDA $2002 = FF                  A:10 X:00 Y:F0 P:25 SP:FA CYC:291 SL:-1
837B  10 FB     BPL $8378                       A:10 X:00 Y:F0 P:25 SP:FA CYC:303 SL:-1
8378  AD 02 20  LDA $2002 = FF                  A:10 X:00 Y:F0 P:25 SP:FA CYC:312 SL:-1
837B  10 FB     BPL $8378                       A:10 X:00 Y:F0 P:25 SP:FA CYC:324 SL:-1
8378  AD 02 20  LDA $2002 = FF                  A:10 X:00 Y:F0 P:25 SP:FA CYC:333 SL:-1
837B  10 FB     BPL $8378                       A:10 X:00 Y:F0 P:25 SP:FA CYC:  5 SL:0
8378  AD 02 20  LDA $2002 = FF                  A:10 X:00 Y:F0 P:25 SP:FA CYC: 14 SL:0
837B  10 FB     BPL $8378                       A:10 X:00 Y:F0 P:25 SP:FA CYC: 26 SL:0
8378  AD 02 20  LDA $2002 = FF                  A:10 X:00 Y:F0 P:25 SP:FA CYC: 35 SL:0
837B  10 FB     BPL $8378                       A:10 X:00 Y:F0 P:25 SP:FA CYC: 47 SL:0
8378  AD 02 20  LDA $2002 = FF                  A:10 X:00 Y:F0 P:25 SP:FA CYC: 56 SL:0
837B  10 FB     BPL $8378                       A:10 X:00 Y:F0 P:25 SP:FA CYC: 68 SL:0
8378  AD 02 20  LDA $2002 = FF                  A:10 X:00 Y:F0 P:25 SP:FA CYC: 77 SL:0
837B  10 FB     BPL $8378                       A:10 X:00 Y:F0 P:25 SP:FA CYC: 89 SL:0
8378  AD 02 20  LDA $2002 = FF                  A:10 X:00 Y:F0 P:25 SP:FA CYC: 98 SL:0
837B  10 FB     BPL $8378                       A:10 X:00 Y:F0 P:25 SP:FA CYC:110 SL:0
8378  AD 02 20  LDA $2002 = FF                  A:10 X:00 Y:F0 P:25 SP:FA CYC:119 SL:0
837B  10 FB     BPL $8378                       A:10 X:00 Y:F0 P:25 SP:FA CYC:131 SL:0
8378  AD 02 20  LDA $2002 = FF                  A:10 X:00 Y:F0 P:25 SP:FA CYC:140 SL:0
837B  10 FB     BPL $8378                       A:10 X:00 Y:F0 P:25 SP:FA CYC:152 SL:0
8378  AD 02 20  LDA $2002 = FF                  A:10 X:00 Y:F0 P:25 SP:FA CYC:161 SL:0
837B  10 FB     BPL $8378                       A:10 X:00 Y:F0 P:25 SP:FA CYC:173 SL:0
8378  AD 02 20  LDA $2002 = FF                  A:10 X:00 Y:F0 P:25 SP:FA CYC:182 SL:0
837B  10 FB     BPL $8378                       A:10 X:00 Y:F0 P:25 SP:FA CYC:194 SL:0
8378  AD 02 20  LDA $2002 = FF                  A:10 X:00 Y:F0 P:25 SP:FA CYC:203 SL:0
837B  10 FB     BPL $8378                       A:10 X:00 Y:F0 P:25 SP:FA CYC:215 SL:0
8378  AD 02 20  LDA $2002 = FF                  A:10 X:00 Y:F0 P:25 SP:FA CYC:224 SL:0
837B  10 FB     BPL $8378                       A:10 X:00 Y:F0 P:25 SP:FA CYC:236 SL:0
8378  AD 02 20  LDA $2002 = FF                  A:10 X:00 Y:F0 P:25 SP:FA CYC:245 SL:0
837B  10 FB     BPL $8378                       A:10 X:00 Y:F0 P:25 SP:FA CYC:257 SL:0
8378  AD 02 20  LDA $2002 = FF                  A:10 X:00 Y:F0 P:25 SP:FA CYC:266 SL:0
837B  10 FB     BPL $8378                       A:10 X:00 Y:F0 P:25 SP:FA CYC:278 SL:0
8378  AD 02 20  LDA $2002 = FF                  A:10 X:00 Y:F0 P:25 SP:FA CYC:287 SL:0
837B  10 FB     BPL $8378                       A:10 X:00 Y:F0 P:25 SP:FA CYC:299 SL:0
8378  AD 02 20  LDA $2002 = FF                  A:10 X:00 Y:F0 P:25 SP:FA CYC:308 SL:0
837B  10 FB     BPL $8378                       A:10 X:00 Y:F0 P:25 SP:FA CYC:320 SL:0
8378  AD 02 20  LDA $2002 = FF                  A:10 X:00 Y:F0 P:25 SP:FA CYC:329 SL:0
837B  10 FB     BPL $8378                       A:10 X:00 Y:F0 P:25 SP:FA CYC:  0 SL:1
8378  AD 02 20  LDA $2002 = FF                  A:10 X:00 Y:F0 P:25 SP:FA CYC:  9 SL:1
837B  10 FB     BPL $8378                       A:10 X:00 Y:F0 P:25 SP:FA CYC: 21 SL:1
8378  AD 02 20  LDA $2002 = FF                  A:10 X:00 Y:F0 P:25 SP:FA CYC: 30 SL:1
837B  10 FB     BPL $8378                       A:10 X:00 Y:F0 P:25 SP:FA CYC: 42 SL:1
8378  AD 02 20  LDA $2002 = FF                  A:10 X:00 Y:F0 P:25 SP:FA CYC: 51 SL:1
837B  10 FB     BPL $8378                       A:10 X:00 Y:F0 P:25 SP:FA CYC: 63 SL:1
8378  AD 02 20  LDA $2002 = FF                  A:10 X:00 Y:F0 P:25 SP:FA CYC: 72 SL:1
837B  10 FB     BPL $8378                       A:10 X:00 Y:F0 P:25 SP:FA CYC: 84 SL:1
8378  AD 02 20  LDA $2002 = FF                  A:10 X:00 Y:F0 P:25 SP:FA CYC: 93 SL:1
837B  10 FB     BPL $8378                       A:10 X:00 Y:F0 P:25 SP:FA CYC:105 SL:1
8378  AD 02 20  LDA $2002 = FF                  A:10 X:00 Y:F0 P:25 SP:FA CYC:114 SL:1
837B  10 FB     BPL $8378                       A:10 X:00 Y:F0 P:25 SP:FA CYC:126 SL:1
8378  AD 02 20  LDA $2002 = FF                  A:10 X:00 Y:F0 P:25 SP:FA CYC:135 SL:1
837B  10 FB     BPL $8378                       A:10 X:00 Y:F0 P:25 SP:FA CYC:147 SL:1
8378  AD 02 20  LDA $2002 = FF                  A:10 X:00 Y:F0 P:25 SP:FA CYC:156 SL:1
837B  10 FB     BPL $8378                       A:10 X:00 Y:F0 P:25 SP:FA CYC:168 SL:1
8378  AD 02 20  LDA $2002 = FF                  A:10 X:00 Y:F0 P:25 SP:FA CYC:177 SL:1
837B  10 FB     BPL $8378                       A:10 X:00 Y:F0 P:25 SP:FA CYC:189 SL:1
8378  AD 02 20  LDA $2002 = FF                  A:10 X:00 Y:F0 P:25 SP:FA CYC:198 SL:1
837B  10 FB     BPL $8378                       A:10 X:00 Y:F0 P:25 SP:FA CYC:210 SL:1
8378  AD 02 20  LDA $2002 = FF                  A:10 X:00 Y:F0 P:25 SP:FA CYC:219 SL:1
837B  10 FB     BPL $8378                       A:10 X:00 Y:F0 P:25 SP:FA CYC:231 SL:1
8378  AD 02 20  LDA $2002 = FF                  A:10 X:00 Y:F0 P:25 SP:FA CYC:240 SL:1
837B  10 FB     BPL $8378                       A:10 X:00 Y:F0 P:25 SP:FA CYC:252 SL:1
8378  AD 02 20  LDA $2002 = FF                  A:10 X:00 Y:F0 P:25 SP:FA CYC:261 SL:1
837B  10 FB     BPL $8378                       A:10 X:00 Y:F0 P:25 SP:FA CYC:273 SL:1
8378  AD 02 20  LDA $2002 = FF                  A:10 X:00 Y:F0 P:25 SP:FA CYC:282 SL:1
837B  10 FB     BPL $8378                       A:10 X:00 Y:F0 P:25 SP:FA CYC:294 SL:1
8378  AD 02 20  LDA $2002 = FF                  A:10 X:00 Y:F0 P:25 SP:FA CYC:303 SL:1
837B  10 FB     BPL $8378                       A:10 X:00 Y:F0 P:25 SP:FA CYC:315 SL:1
8378  AD 02 20  LDA $2002 = FF                  A:10 X:00 Y:F0 P:25 SP:FA CYC:324 SL:1
837B  10 FB     BPL $8378                       A:10 X:00 Y:F0 P:25 SP:FA CYC:336 SL:1
8378  AD 02 20  LDA $2002 = FF                  A:10 X:00 Y:F0 P:25 SP:FA CYC:  4 SL:2
837B  10 FB     BPL $8378                       A:10 X:00 Y:F0 P:25 SP:FA CYC: 16 SL:2
8378  AD 02 20  LDA $2002 = FF                  A:10 X:00 Y:F0 P:25 SP:FA CYC: 25 SL:2
837B  10 FB     BPL $8378                       A:10 X:00 Y:F0 P:25 SP:FA CYC: 37 SL:2
8378  AD 02 20  LDA $2002 = FF                  A:10 X:00 Y:F0 P:25 SP:FA CYC: 46 SL:2
837B  10 FB     BPL $8378                       A:10 X:00 Y:F0 P:25 SP:FA CYC: 58 SL:2
8378  AD 02 20  LDA $2002 = FF                  A:10 X:00 Y:F0 P:25 SP:FA CYC: 67 SL:2
837B  10 FB     BPL $8378                       A:10 X:00 Y:F0 P:25 SP:FA CYC: 79 SL:2
8378  AD 02 20  LDA $2002 = FF                  A:10 X:00 Y:F0 P:25 SP:FA CYC: 88 SL:2
837B  10 FB     BPL $8378                       A:10 X:00 Y:F0 P:25 SP:FA CYC:100 SL:2
8378  AD 02 20  LDA $2002 = FF                  A:10 X:00 Y:F0 P:25 SP:FA CYC:109 SL:2
837B  10 FB     BPL $8378                       A:10 X:00 Y:F0 P:25 SP:FA CYC:121 SL:2
8378  AD 02 20  LDA $2002 = FF                  A:10 X:00 Y:F0 P:25 SP:FA CYC:130 SL:2
837B  10 FB     BPL $8378                       A:10 X:00 Y:F0 P:25 SP:FA CYC:142 SL:2
8378  AD 02 20  LDA $2002 = FF                  A:10 X:00 Y:F0 P:25 SP:FA CYC:151 SL:2
837B  10 FB     BPL $8378                       A:10 X:00 Y:F0 P:25 SP:FA CYC:163 SL:2
8378  AD 02 20  LDA $2002 = FF                  A:10 X:00 Y:F0 P:25 SP:FA CYC:172 SL:2
837B  10 FB     BPL $8378                       A:10 X:00 Y:F0 P:25 SP:FA CYC:184 SL:2
8378  AD 02 20  LDA $2002 = FF                  A:10 X:00 Y:F0 P:25 SP:FA CYC:193 SL:2
837B  10 FB     BPL $8378                       A:10 X:00 Y:F0 P:25 SP:FA CYC:205 SL:2
8378  AD 02 20  LDA $2002 = FF                  A:10 X:00 Y:F0 P:25 SP:FA CYC:214 SL:2
837B  10 FB     BPL $8378                       A:10 X:00 Y:F0 P:25 SP:FA CYC:226 SL:2
8378  AD 02 20  LDA $2002 = FF                  A:10 X:00 Y:F0 P:25 SP:FA CYC:235 SL:2
837B  10 FB     BPL $8378                       A:10 X:00 Y:F0 P:25 SP:FA CYC:247 SL:2
8378  AD 02 20  LDA $2002 = FF                  A:10 X:00 Y:F0 P:25 SP:FA CYC:256 SL:2
837B  10 FB     BPL $8378                       A:10 X:00 Y:F0 P:25 SP:FA CYC:268 SL:2
8378  AD 02 20  LDA $2002 = FF                  A:10 X:00 Y:F0 P:25 SP:FA CYC:277 SL:2
837B  10 FB     BPL $8378                       A:10 X:00 Y:F0 P:25 SP:FA CYC:289 SL:2
8378  AD 02 20  LDA $2002 = FF                  A:10 X:00 Y:F0 P:25 SP:FA CYC:298 SL:2
837B  10 FB     BPL $8378                       A:10 X:00 Y:F0 P:25 SP:FA CYC:310 SL:2
8378  AD 02 20  LDA $2002 = FF                  A:10 X:00 Y:F0 P:25 SP:FA CYC:319 SL:2
837B  10 FB     BPL $8378                       A:10 X:00 Y:F0 P:25 SP:FA CYC:331 SL:2
8378  AD 02 20  LDA $2002 = FF                  A:10 X:00 Y:F0 P:25 SP:FA CYC:340 SL:2
837B  10 FB     BPL $8378                       A:10 X:00 Y:F0 P:25 SP:FA CYC: 11 SL:3
8378  AD 02 20  LDA $2002 = FF                  A:10 X:00 Y:F0 P:25 SP:FA CYC: 20 SL:3
837B  10 FB     BPL $8378                       A:10 X:00 Y:F0 P:25 SP:FA CYC: 32 SL:3
8378  AD 02 20  LDA $2002 = FF                  A:10 X:00 Y:F0 P:25 SP:FA CYC: 41 SL:3
837B  10 FB     BPL $8378                       A:10 X:00 Y:F0 P:25 SP:FA CYC: 53 SL:3
8378  AD 02 20  LDA $2002 = FF                  A:10 X:00 Y:F0 P:25 SP:FA CYC: 62 SL:3
837B  10 FB     BPL $8378                       A:10 X:00 Y:F0 P:25 SP:FA CYC: 74 SL:3
8378  AD 02 20  LDA $2002 = FF                  A:10 X:00 Y:F0 P:25 SP:FA CYC: 83 SL:3
837B  10 FB     BPL $8378                       A:10 X:00 Y:F0 P:25 SP:FA CYC: 95 SL:3
8378  AD 02 20  LDA $2002 = FF                  A:10 X:00 Y:F0 P:25 SP:FA CYC:104 SL:3
837B  10 FB     BPL $8378                       A:10 X:00 Y:F0 P:25 SP:FA CYC:116 SL:3
8378  AD 02 20  LDA $2002 = FF                  A:10 X:00 Y:F0 P:25 SP:FA CYC:125 SL:3
837B  10 FB     BPL $8378                       A:10 X:00 Y:F0 P:25 SP:FA CYC:137 SL:3
8378  AD 02 20  LDA $2002 = FF                  A:10 X:00 Y:F0 P:25 SP:FA CYC:146 SL:3
837B  10 FB     BPL $8378                       A:10 X:00 Y:F0 P:25 SP:FA CYC:158 SL:3
8378  AD 02 20  LDA $2002 = FF                  A:10 X:00 Y:F0 P:25 SP:FA CYC:167 SL:3
837B  10 FB     BPL $8378                       A:10 X:00 Y:F0 P:25 SP:FA CYC:179 SL:3
8378  AD 02 20  LDA $2002 = FF                  A:10 X:00 Y:F0 P:25 SP:FA CYC:188 SL:3
837B  10 FB     BPL $8378                       A:10 X:00 Y:F0 P:25 SP:FA CYC:200 SL:3
8378  AD 02 20  LDA $2002 = FF                  A:10 X:00 Y:F0 P:25 SP:FA CYC:209 SL:3
837B  10 FB     BPL $8378                       A:10 X:00 Y:F0 P:25 SP:FA CYC:221 SL:3
8378  AD 02 20  LDA $2002 = FF                  A:10 X:00 Y:F0 P:25 SP:FA CYC:230 SL:3
837B  10 FB     BPL $8378                       A:10 X:00 Y:F0 P:25 SP:FA CYC:242 SL:3
8378  AD 02 20  LDA $2002 = FF                  A:10 X:00 Y:F0 P:25 SP:FA CYC:251 SL:3
837B  10 FB     BPL $8378                       A:10 X:00 Y:F0 P:25 SP:FA CYC:263 SL:3
8378  AD 02 20  LDA $2002 = FF                  A:10 X:00 Y:F0 P:25 SP:FA CYC:272 SL:3
837B  10 FB     BPL $8378                       A:10 X:00 Y:F0 P:25 SP:FA CYC:284 SL:3
8378  AD 02 20  LDA $2002 = FF                  A:10 X:00 Y:F0 P:25 SP:FA CYC:293 SL:3
837B  10 FB     BPL $8378                       A:10 X:00 Y:F0 P:25 SP:FA CYC:305 SL:3
8378  AD 02 20  LDA $2002 = FF                  A:10 X:00 Y:F0 P:25 SP:FA CYC:314 SL:3
837B  10 FB     BPL $8378                       A:10 X:00 Y:F0 P:25 SP:FA CYC:326 SL:3
8378  AD 02 20  LDA $2002 = FF                  A:10 X:00 Y:F0 P:25 SP:FA CYC:335 SL:3
837B  10 FB     BPL $8378                       A:10 X:00 Y:F0 P:25 SP:FA CYC:  6 SL:4
8378  AD 02 20  LDA $2002 = FF                  A:10 X:00 Y:F0 P:25 SP:FA CYC: 15 SL:4
837B  10 FB     BPL $8378                       A:10 X:00 Y:F0 P:25 SP:FA CYC: 27 SL:4
8378  AD 02 20  LDA $2002 = FF                  A:10 X:00 Y:F0 P:25 SP:FA CYC: 36 SL:4
837B  10 FB     BPL $8378                       A:10 X:00 Y:F0 P:25 SP:FA CYC: 48 SL:4
8378  AD 02 20  LDA $2002 = FF                  A:10 X:00 Y:F0 P:25 SP:FA CYC: 57 SL:4
837B  10 FB     BPL $8378                       A:10 X:00 Y:F0 P:25 SP:FA CYC: 69 SL:4
8378  AD 02 20  LDA $2002 = FF                  A:10 X:00 Y:F0 P:25 SP:FA CYC: 78 SL:4
837B  10 FB     BPL $8378                       A:10 X:00 Y:F0 P:25 SP:FA CYC: 90 SL:4
8378  AD 02 20  LDA $2002 = FF                  A:10 X:00 Y:F0 P:25 SP:FA CYC: 99 SL:4
837B  10 FB     BPL $8378                       A:10 X:00 Y:F0 P:25 SP:FA CYC:111 SL:4
8378  AD 02 20  LDA $2002 = FF                  A:10 X:00 Y:F0 P:25 SP:FA CYC:120 SL:4
837B  10 FB     BPL $8378                       A:10 X:00 Y:F0 P:25 SP:FA CYC:132 SL:4
8378  AD 02 20  LDA $2002 = FF                  A:10 X:00 Y:F0 P:25 SP:FA CYC:141 SL:4
837B  10 FB     BPL $8378                       A:10 X:00 Y:F0 P:25 SP:FA CYC:153 SL:4
8378  AD 02 20  LDA $2002 = FF                  A:10 X:00 Y:F0 P:25 SP:FA CYC:162 SL:4
837B  10 FB     BPL $8378                       A:10 X:00 Y:F0 P:25 SP:FA CYC:174 SL:4
8378  AD 02 20  LDA $2002 = FF                  A:10 X:00 Y:F0 P:25 SP:FA CYC:183 SL:4
837B  10 FB     BPL $8378                       A:10 X:00 Y:F0 P:25 SP:FA CYC:195 SL:4
8378  AD 02 20  LDA $2002 = FF                  A:10 X:00 Y:F0 P:25 SP:FA CYC:204 SL:4
837B  10 FB     BPL $8378                       A:10 X:00 Y:F0 P:25 SP:FA CYC:216 SL:4
8378  AD 02 20  LDA $2002 = FF                  A:10 X:00 Y:F0 P:25 SP:FA CYC:225 SL:4
837B  10 FB     BPL $8378                       A:10 X:00 Y:F0 P:25 SP:FA CYC:237 SL:4
8378  AD 02 20  LDA $2002 = FF                  A:10 X:00 Y:F0 P:25 SP:FA CYC:246 SL:4
837B  10 FB     BPL $8378                       A:10 X:00 Y:F0 P:25 SP:FA CYC:258 SL:4
8378  AD 02 20  LDA $2002 = FF                  A:10 X:00 Y:F0 P:25 SP:FA CYC:267 SL:4
837B  10 FB     BPL $8378                       A:10 X:00 Y:F0 P:25 SP:FA CYC:279 SL:4
8378  AD 02 20  LDA $2002 = FF                  A:10 X:00 Y:F0 P:25 SP:FA CYC:288 SL:4
837B  10 FB     BPL $8378                       A:10 X:00 Y:F0 P:25 SP:FA CYC:300 SL:4
8378  AD 02 20  LDA $2002 = FF                  A:10 X:00 Y:F0 P:25 SP:FA CYC:309 SL:4
837B  10 FB     BPL $8378                       A:10 X:00 Y:F0 P:25 SP:FA CYC:321 SL:4
8378  AD 02 20  LDA $2002 = FF                  A:10 X:00 Y:F0 P:25 SP:FA CYC:330 SL:4
837B  10 FB     BPL $8378                       A:10 X:00 Y:F0 P:25 SP:FA CYC:  1 SL:5
8378  AD 02 20  LDA $2002 = FF                  A:10 X:00 Y:F0 P:25 SP:FA CYC: 10 SL:5
837B  10 FB     BPL $8378                       A:10 X:00 Y:F0 P:25 SP:FA CYC: 22 SL:5
8378  AD 02 20  LDA $2002 = FF                  A:10 X:00 Y:F0 P:25 SP:FA CYC: 31 SL:5
837B  10 FB     BPL $8378                       A:10 X:00 Y:F0 P:25 SP:FA CYC: 43 SL:5
8378  AD 02 20  LDA $2002 = FF                  A:10 X:00 Y:F0 P:25 SP:FA CYC: 52 SL:5
837B  10 FB     BPL $8378                       A:10 X:00 Y:F0 P:25 SP:FA CYC: 64 SL:5
8378  AD 02 20  LDA $2002 = FF                  A:10 X:00 Y:F0 P:25 SP:FA CYC: 73 SL:5
837B  10 FB     BPL $8378                       A:10 X:00 Y:F0 P:25 SP:FA CYC: 85 SL:5
8378  AD 02 20  LDA $2002 = FF                  A:10 X:00 Y:F0 P:25 SP:FA CYC: 94 SL:5
837B  10 FB     BPL $8378                       A:10 X:00 Y:F0 P:25 SP:FA CYC:106 SL:5
8378  AD 02 20  LDA $2002 = FF                  A:10 X:00 Y:F0 P:25 SP:FA CYC:115 SL:5
837B  10 FB     BPL $8378                       A:10 X:00 Y:F0 P:25 SP:FA CYC:127 SL:5
8378  AD 02 20  LDA $2002 = FF                  A:10 X:00 Y:F0 P:25 SP:FA CYC:136 SL:5
837B  10 FB     BPL $8378                       A:10 X:00 Y:F0 P:25 SP:FA CYC:148 SL:5
8378  AD 02 20  LDA $2002 = FF                  A:10 X:00 Y:F0 P:25 SP:FA CYC:157 SL:5
837B  10 FB     BPL $8378                       A:10 X:00 Y:F0 P:25 SP:FA CYC:169 SL:5
8378  AD 02 20  LDA $2002 = FF                  A:10 X:00 Y:F0 P:25 SP:FA CYC:178 SL:5
837B  10 FB     BPL $8378                       A:10 X:00 Y:F0 P:25 SP:FA CYC:190 SL:5
8378  AD 02 20  LDA $2002 = FF                  A:10 X:00 Y:F0 P:25 SP:FA CYC:199 SL:5
837B  10 FB     BPL $8378                       A:10 X:00 Y:F0 P:25 SP:FA CYC:211 SL:5
8378  AD 02 20  LDA $2002 = FF                  A:10 X:00 Y:F0 P:25 SP:FA CYC:220 SL:5
837B  10 FB     BPL $8378                       A:10 X:00 Y:F0 P:25 SP:FA CYC:232 SL:5
8378  AD 02 20  LDA $2002 = FF                  A:10 X:00 Y:F0 P:25 SP:FA CYC:241 SL:5
837B  10 FB     BPL $8378                       A:10 X:00 Y:F0 P:25 SP:FA CYC:253 SL:5
8378  AD 02 20  LDA $2002 = FF                  A:10 X:00 Y:F0 P:25 SP:FA CYC:262 SL:5
837B  10 FB     BPL $8378                       A:10 X:00 Y:F0 P:25 SP:FA CYC:274 SL:5
8378  AD 02 20  LDA $2002 = FF                  A:10 X:00 Y:F0 P:25 SP:FA CYC:283 SL:5
837B  10 FB     BPL $8378                       A:10 X:00 Y:F0 P:25 SP:FA CYC:295 SL:5
8378  AD 02 20  LDA $2002 = FF                  A:10 X:00 Y:F0 P:25 SP:FA CYC:304 SL:5
837B  10 FB     BPL $8378                       A:10 X:00 Y:F0 P:25 SP:FA CYC:316 SL:5
8378  AD 02 20  LDA $2002 = FF                  A:10 X:00 Y:F0 P:25 SP:FA CYC:325 SL:5
837B  10 FB     BPL $8378                       A:10 X:00 Y:F0 P:25 SP:FA CYC:337 SL:5
8378  AD 02 20  LDA $2002 = FF                  A:10 X:00 Y:F0 P:25 SP:FA CYC:  5 SL:6
837B  10 FB     BPL $8378                       A:10 X:00 Y:F0 P:25 SP:FA CYC: 17 SL:6
8378  AD 02 20  LDA $2002 = FF                  A:10 X:00 Y:F0 P:25 SP:FA CYC: 26 SL:6
837B  10 FB     BPL $8378                       A:10 X:00 Y:F0 P:25 SP:FA CYC: 38 SL:6
8378  AD 02 20  LDA $2002 = FF                  A:10 X:00 Y:F0 P:25 SP:FA CYC: 47 SL:6
837B  10 FB     BPL $8378                       A:10 X:00 Y:F0 P:25 SP:FA CYC: 59 SL:6
8378  AD 02 20  LDA $2002 = FF                  A:10 X:00 Y:F0 P:25 SP:FA CYC: 68 SL:6
837B  10 FB     BPL $8378                       A:10 X:00 Y:F0 P:25 SP:FA CYC: 80 SL:6
8378  AD 02 20  LDA $2002 = FF                  A:10 X:00 Y:F0 P:25 SP:FA CYC: 89 SL:6
837B  10 FB     BPL $8378                       A:10 X:00 Y:F0 P:25 SP:FA CYC:101 SL:6
8378  AD 02 20  LDA $2002 = FF                  A:10 X:00 Y:F0 P:25 SP:FA CYC:110 SL:6
837B  10 FB     BPL $8378                       A:10 X:00 Y:F0 P:25 SP:FA CYC:122 SL:6
8378  AD 02 20  LDA $2002 = FF                  A:10 X:00 Y:F0 P:25 SP:FA CYC:131 SL:6
837B  10 FB     BPL $8378                       A:10 X:00 Y:F0 P:25 SP:FA CYC:143 SL:6
8378  AD 02 20  LDA $2002 = FF                  A:10 X:00 Y:F0 P:25 SP:FA CYC:152 SL:6
837B  10 FB     BPL $8378                       A:10 X:00 Y:F0 P:25 SP:FA CYC:164 SL:6
8378  AD 02 20  LDA $2002 = FF                  A:10 X:00 Y:F0 P:25 SP:FA CYC:173 SL:6
837B  10 FB     BPL $8378                       A:10 X:00 Y:F0 P:25 SP:FA CYC:185 SL:6
8378  AD 02 20  LDA $2002 = FF                  A:10 X:00 Y:F0 P:25 SP:FA CYC:194 SL:6
837B  10 FB     BPL $8378                       A:10 X:00 Y:F0 P:25 SP:FA CYC:206 SL:6
8378  AD 02 20  LDA $2002 = FF                  A:10 X:00 Y:F0 P:25 SP:FA CYC:215 SL:6
837B  10 FB     BPL $8378                       A:10 X:00 Y:F0 P:25 SP:FA CYC:227 SL:6
8378  AD 02 20  LDA $2002 = FF                  A:10 X:00 Y:F0 P:25 SP:FA CYC:236 SL:6
837B  10 FB     BPL $8378                       A:10 X:00 Y:F0 P:25 SP:FA CYC:248 SL:6
8378  AD 02 20  LDA $2002 = FF                  A:10 X:00 Y:F0 P:25 SP:FA CYC:257 SL:6
837B  10 FB     BPL $8378                       A:10 X:00 Y:F0 P:25 SP:FA CYC:269 SL:6
8378  AD 02 20  LDA $2002 = FF                  A:10 X:00 Y:F0 P:25 SP:FA CYC:278 SL:6
837B  10 FB     BPL $8378                       A:10 X:00 Y:F0 P:25 SP:FA CYC:290 SL:6
8378  AD 02 20  LDA $2002 = FF                  A:10 X:00 Y:F0 P:25 SP:FA CYC:299 SL:6
837B  10 FB     BPL $8378                       A:10 X:00 Y:F0 P:25 SP:FA CYC:311 SL:6
8378  AD 02 20  LDA $2002 = FF                  A:10 X:00 Y:F0 P:25 SP:FA CYC:320 SL:6
837B  10 FB     BPL $8378                       A:10 X:00 Y:F0 P:25 SP:FA CYC:332 SL:6
8378  AD 02 20  LDA $2002 = FF                  A:10 X:00 Y:F0 P:25 SP:FA CYC:  0 SL:7
837B  10 FB     BPL $8378                       A:10 X:00 Y:F0 P:25 SP:FA CYC: 12 SL:7
8378  AD 02 20  LDA $2002 = FF                  A:10 X:00 Y:F0 P:25 SP:FA CYC: 21 SL:7
837B  10 FB     BPL $8378                       A:10 X:00 Y:F0 P:25 SP:FA CYC: 33 SL:7
8378  AD 02 20  LDA $2002 = FF                  A:10 X:00 Y:F0 P:25 SP:FA CYC: 42 SL:7
837B  10 FB     BPL $8378                       A:10 X:00 Y:F0 P:25 SP:FA CYC: 54 SL:7
8378  AD 02 20  LDA $2002 = FF                  A:10 X:00 Y:F0 P:25 SP:FA CYC: 63 SL:7
837B  10 FB     BPL $8378                       A:10 X:00 Y:F0 P:25 SP:FA CYC: 75 SL:7
8378  AD 02 20  LDA $2002 = FF                  A:10 X:00 Y:F0 P:25 SP:FA CYC: 84 SL:7
837B  10 FB     BPL $8378                       A:10 X:00 Y:F0 P:25 SP:FA CYC: 96 SL:7
8378  AD 02 20  LDA $2002 = FF                  A:10 X:00 Y:F0 P:25 SP:FA CYC:105 SL:7
837B  10 FB     BPL $8378                       A:10 X:00 Y:F0 P:25 SP:FA CYC:117 SL:7
8378  AD 02 20  LDA $2002 = FF                  A:10 X:00 Y:F0 P:25 SP:FA CYC:126 SL:7
837B  10 FB     BPL $8378                       A:10 X:00 Y:F0 P:25 SP:FA CYC:138 SL:7
8378  AD 02 20  LDA $2002 = FF                  A:10 X:00 Y:F0 P:25 SP:FA CYC:147 SL:7
837B  10 FB     BPL $8378                       A:10 X:00 Y:F0 P:25 SP:FA CYC:159 SL:7
8378  AD 02 20  LDA $2002 = FF                  A:10 X:00 Y:F0 P:25 SP:FA CYC:168 SL:7
837B  10 FB     BPL $8378                       A:10 X:00 Y:F0 P:25 SP:FA CYC:180 SL:7
8378  AD 02 20  LDA $2002 = FF                  A:10 X:00 Y:F0 P:25 SP:FA CYC:189 SL:7
837B  10 FB     BPL $8378                       A:10 X:00 Y:F0 P:25 SP:FA CYC:201 SL:7
8378  AD 02 20  LDA $2002 = FF                  A:10 X:00 Y:F0 P:25 SP:FA CYC:210 SL:7
837B  10 FB     BPL $8378                       A:10 X:00 Y:F0 P:25 SP:FA CYC:222 SL:7
8378  AD 02 20  LDA $2002 = FF                  A:10 X:00 Y:F0 P:25 SP:FA CYC:231 SL:7
837B  10 FB     BPL $8378                       A:10 X:00 Y:F0 P:25 SP:FA CYC:243 SL:7
8378  AD 02 20  LDA $2002 = FF                  A:10 X:00 Y:F0 P:25 SP:FA CYC:252 SL:7
837B  10 FB     BPL $8378                       A:10 X:00 Y:F0 P:25 SP:FA CYC:264 SL:7
8378  AD 02 20  LDA $2002 = FF                  A:10 X:00 Y:F0 P:25 SP:FA CYC:273 SL:7
837B  10 FB     BPL $8378                       A:10 X:00 Y:F0 P:25 SP:FA CYC:285 SL:7
8378  AD 02 20  LDA $2002 = FF                  A:10 X:00 Y:F0 P:25 SP:FA CYC:294 SL:7
837B  10 FB     BPL $8378                       A:10 X:00 Y:F0 P:25 SP:FA CYC:306 SL:7
8378  AD 02 20  LDA $2002 = FF                  A:10 X:00 Y:F0 P:25 SP:FA CYC:315 SL:7
837B  10 FB     BPL $8378                       A:10 X:00 Y:F0 P:25 SP:FA CYC:327 SL:7
8378  AD 02 20  LDA $2002 = FF                  A:10 X:00 Y:F0 P:25 SP:FA CYC:336 SL:7
837B  10 FB     BPL $8378                       A:10 X:00 Y:F0 P:25 SP:FA CYC:  7 SL:8
8378  AD 02 20  LDA $2002 = FF                  A:10 X:00 Y:F0 P:25 SP:FA CYC: 16 SL:8
837B  10 FB     BPL $8378                       A:10 X:00 Y:F0 P:25 SP:FA CYC: 28 SL:8
8378  AD 02 20  LDA $2002 = FF                  A:10 X:00 Y:F0 P:25 SP:FA CYC: 37 SL:8
837B  10 FB     BPL $8378                       A:10 X:00 Y:F0 P:25 SP:FA CYC: 49 SL:8
8378  AD 02 20  LDA $2002 = FF                  A:10 X:00 Y:F0 P:25 SP:FA CYC: 58 SL:8
837B  10 FB     BPL $8378                       A:10 X:00 Y:F0 P:25 SP:FA CYC: 70 SL:8
8378  AD 02 20  LDA $2002 = FF                  A:10 X:00 Y:F0 P:25 SP:FA CYC: 79 SL:8
837B  10 FB     BPL $8378                       A:10 X:00 Y:F0 P:25 SP:FA CYC: 91 SL:8
8378  AD 02 20  LDA $2002 = FF                  A:10 X:00 Y:F0 P:25 SP:FA CYC:100 SL:8
837B  10 FB     BPL $8378                       A:10 X:00 Y:F0 P:25 SP:FA CYC:112 SL:8
8378  AD 02 20  LDA $2002 = FF                  A:10 X:00 Y:F0 P:25 SP:FA CYC:121 SL:8
837B  10 FB     BPL $8378                       A:10 X:00 Y:F0 P:25 SP:FA CYC:133 SL:8
8378  AD 02 20  LDA $2002 = FF                  A:10 X:00 Y:F0 P:25 SP:FA CYC:142 SL:8
837B  10 FB     BPL $8378                       A:10 X:00 Y:F0 P:25 SP:FA CYC:154 SL:8
8378  AD 02 20  LDA $2002 = FF                  A:10 X:00 Y:F0 P:25 SP:FA CYC:163 SL:8
837B  10 FB     BPL $8378                       A:10 X:00 Y:F0 P:25 SP:FA CYC:175 SL:8
8378  AD 02 20  LDA $2002 = FF                  A:10 X:00 Y:F0 P:25 SP:FA CYC:184 SL:8
837B  10 FB     BPL $8378                       A:10 X:00 Y:F0 P:25 SP:FA CYC:196 SL:8
8378  AD 02 20  LDA $2002 = FF                  A:10 X:00 Y:F0 P:25 SP:FA CYC:205 SL:8
837B  10 FB     BPL $8378                       A:10 X:00 Y:F0 P:25 SP:FA CYC:217 SL:8
8378  AD 02 20  LDA $2002 = FF                  A:10 X:00 Y:F0 P:25 SP:FA CYC:226 SL:8
837B  10 FB     BPL $8378                       A:10 X:00 Y:F0 P:25 SP:FA CYC:238 SL:8
8378  AD 02 20  LDA $2002 = FF                  A:10 X:00 Y:F0 P:25 SP:FA CYC:247 SL:8
837B  10 FB     BPL $8378                       A:10 X:00 Y:F0 P:25 SP:FA CYC:259 SL:8
8378  AD 02 20  LDA $2002 = FF                  A:10 X:00 Y:F0 P:25 SP:FA CYC:268 SL:8
837B  10 FB     BPL $8378                       A:10 X:00 Y:F0 P:25 SP:FA CYC:280 SL:8
8378  AD 02 20  LDA $2002 = FF                  A:10 X:00 Y:F0 P:25 SP:FA CYC:289 SL:8
837B  10 FB     BPL $8378                       A:10 X:00 Y:F0 P:25 SP:FA CYC:301 SL:8
8378  AD 02 20  LDA $2002 = FF                  A:10 X:00 Y:F0 P:25 SP:FA CYC:310 SL:8
837B  10 FB     BPL $8378                       A:10 X:00 Y:F0 P:25 SP:FA CYC:322 SL:8
8378  AD 02 20  LDA $2002 = FF                  A:10 X:00 Y:F0 P:25 SP:FA CYC:331 SL:8
837B  10 FB     BPL $8378                       A:10 X:00 Y:F0 P:25 SP:FA CYC:  2 SL:9
8378  AD 02 20  LDA $2002 = FF                  A:10 X:00 Y:F0 P:25 SP:FA CYC: 11 SL:9
837B  10 FB     BPL $8378                       A:10 X:00 Y:F0 P:25 SP:FA CYC: 23 SL:9
8378  AD 02 20  LDA $2002 = FF                  A:10 X:00 Y:F0 P:25 SP:FA CYC: 32 SL:9
837B  10 FB     BPL $8378                       A:10 X:00 Y:F0 P:25 SP:FA CYC: 44 SL:9
8378  AD 02 20  LDA $2002 = FF                  A:10 X:00 Y:F0 P:25 SP:FA CYC: 53 SL:9
837B  10 FB     BPL $8378                       A:10 X:00 Y:F0 P:25 SP:FA CYC: 65 SL:9
8378  AD 02 20  LDA $2002 = FF                  A:10 X:00 Y:F0 P:25 SP:FA CYC: 74 SL:9
837B  10 FB     BPL $8378                       A:10 X:00 Y:F0 P:25 SP:FA CYC: 86 SL:9
8378  AD 02 20  LDA $2002 = FF                  A:10 X:00 Y:F0 P:25 SP:FA CYC: 95 SL:9
837B  10 FB     BPL $8378                       A:10 X:00 Y:F0 P:25 SP:FA CYC:107 SL:9
8378  AD 02 20  LDA $2002 = FF                  A:10 X:00 Y:F0 P:25 SP:FA CYC:116 SL:9
837B  10 FB     BPL $8378                       A:10 X:00 Y:F0 P:25 SP:FA CYC:128 SL:9
8378  AD 02 20  LDA $2002 = FF                  A:10 X:00 Y:F0 P:25 SP:FA CYC:137 SL:9
837B  10 FB     BPL $8378                       A:10 X:00 Y:F0 P:25 SP:FA CYC:149 SL:9
8378  AD 02 20  LDA $2002 = FF                  A:10 X:00 Y:F0 P:25 SP:FA CYC:158 SL:9
837B  10 FB     BPL $8378                       A:10 X:00 Y:F0 P:25 SP:FA CYC:170 SL:9
8378  AD 02 20  LDA $2002 = FF                  A:10 X:00 Y:F0 P:25 SP:FA CYC:179 SL:9
837B  10 FB     BPL $8378                       A:10 X:00 Y:F0 P:25 SP:FA CYC:191 SL:9
8378  AD 02 20  LDA $2002 = FF                  A:10 X:00 Y:F0 P:25 SP:FA CYC:200 SL:9
837B  10 FB     BPL $8378                       A:10 X:00 Y:F0 P:25 SP:FA CYC:212 SL:9
8378  AD 02 20  LDA $2002 = FF                  A:10 X:00 Y:F0 P:25 SP:FA CYC:221 SL:9
837B  10 FB     BPL $8378                       A:10 X:00 Y:F0 P:25 SP:FA CYC:233 SL:9
8378  AD 02 20  LDA $2002 = FF                  A:10 X:00 Y:F0 P:25 SP:FA CYC:242 SL:9
837B  10 FB     BPL $8378                       A:10 X:00 Y:F0 P:25 SP:FA CYC:254 SL:9
8378  AD 02 20  LDA $2002 = FF                  A:10 X:00 Y:F0 P:25 SP:FA CYC:263 SL:9
837B  10 FB     BPL $8378                       A:10 X:00 Y:F0 P:25 SP:FA CYC:275 SL:9
8378  AD 02 20  LDA $2002 = FF                  A:10 X:00 Y:F0 P:25 SP:FA CYC:284 SL:9
837B  10 FB     BPL $8378                       A:10 X:00 Y:F0 P:25 SP:FA CYC:296 SL:9
8378  AD 02 20  LDA $2002 = FF                  A:10 X:00 Y:F0 P:25 SP:FA CYC:305 SL:9
837B  10 FB     BPL $8378                       A:10 X:00 Y:F0 P:25 SP:FA CYC:317 SL:9
8378  AD 02 20  LDA $2002 = FF                  A:10 X:00 Y:F0 P:25 SP:FA CYC:326 SL:9
837B  10 FB     BPL $8378                       A:10 X:00 Y:F0 P:25 SP:FA CYC:338 SL:9
8378  AD 02 20  LDA $2002 = FF                  A:10 X:00 Y:F0 P:25 SP:FA CYC:  6 SL:10
837B  10 FB     BPL $8378                       A:10 X:00 Y:F0 P:25 SP:FA CYC: 18 SL:10
8378  AD 02 20  LDA $2002 = FF                  A:10 X:00 Y:F0 P:25 SP:FA CYC: 27 SL:10
837B  10 FB     BPL $8378                       A:10 X:00 Y:F0 P:25 SP:FA CYC: 39 SL:10
8378  AD 02 20  LDA $2002 = FF                  A:10 X:00 Y:F0 P:25 SP:FA CYC: 48 SL:10
837B  10 FB     BPL $8378                       A:10 X:00 Y:F0 P:25 SP:FA CYC: 60 SL:10
8378  AD 02 20  LDA $2002 = FF                  A:10 X:00 Y:F0 P:25 SP:FA CYC: 69 SL:10
837B  10 FB     BPL $8378                       A:10 X:00 Y:F0 P:25 SP:FA CYC: 81 SL:10
8378  AD 02 20  LDA $2002 = FF                  A:10 X:00 Y:F0 P:25 SP:FA CYC: 90 SL:10
837B  10 FB     BPL $8378                       A:10 X:00 Y:F0 P:25 SP:FA CYC:102 SL:10
8378  AD 02 20  LDA $2002 = FF                  A:10 X:00 Y:F0 P:25 SP:FA CYC:111 SL:10
837B  10 FB     BPL $8378                       A:10 X:00 Y:F0 P:25 SP:FA CYC:123 SL:10
8378  AD 02 20  LDA $2002 = FF                  A:10 X:00 Y:F0 P:25 SP:FA CYC:132 SL:10
837B  10 FB     BPL $8378                       A:10 X:00 Y:F0 P:25 SP:FA CYC:144 SL:10
8378  AD 02 20  LDA $2002 = FF                  A:10 X:00 Y:F0 P:25 SP:FA CYC:153 SL:10
837B  10 FB     BPL $8378                       A:10 X:00 Y:F0 P:25 SP:FA CYC:165 SL:10
8378  AD 02 20  LDA $2002 = FF                  A:10 X:00 Y:F0 P:25 SP:FA CYC:174 SL:10
837B  10 FB     BPL $8378                       A:10 X:00 Y:F0 P:25 SP:FA CYC:186 SL:10
8378  AD 02 20  LDA $2002 = FF                  A:10 X:00 Y:F0 P:25 SP:FA CYC:195 SL:10
837B  10 FB     BPL $8378                       A:10 X:00 Y:F0 P:25 SP:FA CYC:207 SL:10
8378  AD 02 20  LDA $2002 = FF                  A:10 X:00 Y:F0 P:25 SP:FA CYC:216 SL:10
837B  10 FB     BPL $8378                       A:10 X:00 Y:F0 P:25 SP:FA CYC:228 SL:10
8378  AD 02 20  LDA $2002 = FF                  A:10 X:00 Y:F0 P:25 SP:FA CYC:237 SL:10
837B  10 FB     BPL $8378                       A:10 X:00 Y:F0 P:25 SP:FA CYC:249 SL:10
8378  AD 02 20  LDA $2002 = FF                  A:10 X:00 Y:F0 P:25 SP:FA CYC:258 SL:10
837B  10 FB     BPL $8378                       A:10 X:00 Y:F0 P:25 SP:FA CYC:270 SL:10
8378  AD 02 20  LDA $2002 = FF                  A:10 X:00 Y:F0 P:25 SP:FA CYC:279 SL:10
837B  10 FB     BPL $8378                       A:10 X:00 Y:F0 P:25 SP:FA CYC:291 SL:10
8378  AD 02 20  LDA $2002 = FF                  A:10 X:00 Y:F0 P:25 SP:FA CYC:300 SL:10
837B  10 FB     BPL $8378                       A:10 X:00 Y:F0 P:25 SP:FA CYC:312 SL:10
8378  AD 02 20  LDA $2002 = FF                  A:10 X:00 Y:F0 P:25 SP:FA CYC:321 SL:10
837B  10 FB     BPL $8378                       A:10 X:00 Y:F0 P:25 SP:FA CYC:333 SL:10
8378  AD 02 20  LDA $2002 = FF                  A:10 X:00 Y:F0 P:25 SP:FA CYC:  1 SL:11
837B  10 FB     BPL $8378                       A:10 X:00 Y:F0 P:25 SP:FA CYC: 13 SL:11
8378  AD 02 20  LDA $2002 = FF                  A:10 X:00 Y:F0 P:25 SP:FA CYC: 22 SL:11
837B  10 FB     BPL $8378                       A:10 X:00 Y:F0 P:25 SP:FA CYC: 34 SL:11
8378  AD 02 20  LDA $2002 = FF                  A:10 X:00 Y:F0 P:25 SP:FA CYC: 43 SL:11
837B  10 FB     BPL $8378                       A:10 X:00 Y:F0 P:25 SP:FA CYC: 55 SL:11
8378  AD 02 20  LDA $2002 = FF                  A:10 X:00 Y:F0 P:25 SP:FA CYC: 64 SL:11
837B  10 FB     BPL $8378                       A:10 X:00 Y:F0 P:25 SP:FA CYC: 76 SL:11
8378  AD 02 20  LDA $2002 = FF                  A:10 X:00 Y:F0 P:25 SP:FA CYC: 85 SL:11
837B  10 FB     BPL $8378                       A:10 X:00 Y:F0 P:25 SP:FA CYC: 97 SL:11
8378  AD 02 20  LDA $2002 = FF                  A:10 X:00 Y:F0 P:25 SP:FA CYC:106 SL:11
837B  10 FB     BPL $8378                       A:10 X:00 Y:F0 P:25 SP:FA CYC:118 SL:11
8378  AD 02 20  LDA $2002 = FF                  A:10 X:00 Y:F0 P:25 SP:FA CYC:127 SL:11
837B  10 FB     BPL $8378                       A:10 X:00 Y:F0 P:25 SP:FA CYC:139 SL:11
8378  AD 02 20  LDA $2002 = FF                  A:10 X:00 Y:F0 P:25 SP:FA CYC:148 SL:11
837B  10 FB     BPL $8378                       A:10 X:00 Y:F0 P:25 SP:FA CYC:160 SL:11
8378  AD 02 20  LDA $2002 = FF                  A:10 X:00 Y:F0 P:25 SP:FA CYC:169 SL:11
837B  10 FB     BPL $8378                       A:10 X:00 Y:F0 P:25 SP:FA CYC:181 SL:11
8378  AD 02 20  LDA $2002 = FF                  A:10 X:00 Y:F0 P:25 SP:FA CYC:190 SL:11
837B  10 FB     BPL $8378                       A:10 X:00 Y:F0 P:25 SP:FA CYC:202 SL:11
8378  AD 02 20  LDA $2002 = FF                  A:10 X:00 Y:F0 P:25 SP:FA CYC:211 SL:11
837B  10 FB     BPL $8378                       A:10 X:00 Y:F0 P:25 SP:FA CYC:223 SL:11
8378  AD 02 20  LDA $2002 = FF                  A:10 X:00 Y:F0 P:25 SP:FA CYC:232 SL:11
837B  10 FB     BPL $8378                       A:10 X:00 Y:F0 P:25 SP:FA CYC:244 SL:11
8378  AD 02 20  LDA $2002 = FF                  A:10 X:00 Y:F0 P:25 SP:FA CYC:253 SL:11
837B  10 FB     BPL $8378                       A:10 X:00 Y:F0 P:25 SP:FA CYC:265 SL:11
8378  AD 02 20  LDA $2002 = FF                  A:10 X:00 Y:F0 P:25 SP:FA CYC:274 SL:11
837B  10 FB     BPL $8378                       A:10 X:00 Y:F0 P:25 SP:FA CYC:286 SL:11
8378  AD 02 20  LDA $2002 = FF                  A:10 X:00 Y:F0 P:25 SP:FA CYC:295 SL:11
837B  10 FB     BPL $8378                       A:10 X:00 Y:F0 P:25 SP:FA CYC:307 SL:11
8378  AD 02 20  LDA $2002 = FF                  A:10 X:00 Y:F0 P:25 SP:FA CYC:316 SL:11
837B  10 FB     BPL $8378                       A:10 X:00 Y:F0 P:25 SP:FA CYC:328 SL:11
8378  AD 02 20  LDA $2002 = FF                  A:10 X:00 Y:F0 P:25 SP:FA CYC:337 SL:11
837B  10 FB     BPL $8378                       A:10 X:00 Y:F0 P:25 SP:FA CYC:  8 SL:12
8378  AD 02 20  LDA $2002 = FF                  A:10 X:00 Y:F0 P:25 SP:FA CYC: 17 SL:12
837B  10 FB     BPL $8378                       A:10 X:00 Y:F0 P:25 SP:FA CYC: 29 SL:12
8378  AD 02 20  LDA $2002 = FF                  A:10 X:00 Y:F0 P:25 SP:FA CYC: 38 SL:12
837B  10 FB     BPL $8378                       A:10 X:00 Y:F0 P:25 SP:FA CYC: 50 SL:12
8378  AD 02 20  LDA $2002 = FF                  A:10 X:00 Y:F0 P:25 SP:FA CYC: 59 SL:12
837B  10 FB     BPL $8378                       A:10 X:00 Y:F0 P:25 SP:FA CYC: 71 SL:12
8378  AD 02 20  LDA $2002 = FF                  A:10 X:00 Y:F0 P:25 SP:FA CYC: 80 SL:12
837B  10 FB     BPL $8378                       A:10 X:00 Y:F0 P:25 SP:FA CYC: 92 SL:12
8378  AD 02 20  LDA $2002 = FF                  A:10 X:00 Y:F0 P:25 SP:FA CYC:101 SL:12
837B  10 FB     BPL $8378                       A:10 X:00 Y:F0 P:25 SP:FA CYC:113 SL:12
8378  AD 02 20  LDA $2002 = FF                  A:10 X:00 Y:F0 P:25 SP:FA CYC:122 SL:12
837B  10 FB     BPL $8378                       A:10 X:00 Y:F0 P:25 SP:FA CYC:134 SL:12
8378  AD 02 20  LDA $2002 = FF                  A:10 X:00 Y:F0 P:25 SP:FA CYC:143 SL:12
837B  10 FB     BPL $8378                       A:10 X:00 Y:F0 P:25 SP:FA CYC:155 SL:12
8378  AD 02 20  LDA $2002 = FF                  A:10 X:00 Y:F0 P:25 SP:FA CYC:164 SL:12
837B  10 FB     BPL $8378                       A:10 X:00 Y:F0 P:25 SP:FA CYC:176 SL:12
8378  AD 02 20  LDA $2002 = FF                  A:10 X:00 Y:F0 P:25 SP:FA CYC:185 SL:12
837B  10 FB     BPL $8378                       A:10 X:00 Y:F0 P:25 SP:FA CYC:197 SL:12
8378  AD 02 20  LDA $2002 = FF                  A:10 X:00 Y:F0 P:25 SP:FA CYC:206 SL:12
837B  10 FB     BPL $8378                       A:10 X:00 Y:F0 P:25 SP:FA CYC:218 SL:12
8378  AD 02 20  LDA $2002 = FF                  A:10 X:00 Y:F0 P:25 SP:FA CYC:227 SL:12
837B  10 FB     BPL $8378                       A:10 X:00 Y:F0 P:25 SP:FA CYC:239 SL:12
8378  AD 02 20  LDA $2002 = FF                  A:10 X:00 Y:F0 P:25 SP:FA CYC:248 SL:12
837B  10 FB     BPL $8378                       A:10 X:00 Y:F0 P:25 SP:FA CYC:260 SL:12
8378  AD 02 20  LDA $2002 = FF                  A:10 X:00 Y:F0 P:25 SP:FA CYC:269 SL:12
837B  10 FB     BPL $8378                       A:10 X:00 Y:F0 P:25 SP:FA CYC:281 SL:12
8378  AD 02 20  LDA $2002 = FF                  A:10 X:00 Y:F0 P:25 SP:FA CYC:290 SL:12
837B  10 FB     BPL $8378                       A:10 X:00 Y:F0 P:25 SP:FA CYC:302 SL:12
8378  AD 02 20  LDA $2002 = FF                  A:10 X:00 Y:F0 P:25 SP:FA CYC:311 SL:12
837B  10 FB     BPL $8378                       A:10 X:00 Y:F0 P:25 SP:FA CYC:323 SL:12
8378  AD 02 20  LDA $2002 = FF                  A:10 X:00 Y:F0 P:25 SP:FA CYC:332 SL:12
837B  10 FB     BPL $8378                       A:10 X:00 Y:F0 P:25 SP:FA CYC:  3 SL:13
8378  AD 02 20  LDA $2002 = FF                  A:10 X:00 Y:F0 P:25 SP:FA CYC: 12 SL:13
837B  10 FB     BPL $8378                       A:10 X:00 Y:F0 P:25 SP:FA CYC: 24 SL:13
8378  AD 02 20  LDA $2002 = FF                  A:10 X:00 Y:F0 P:25 SP:FA CYC: 33 SL:13
837B  10 FB     BPL $8378                       A:10 X:00 Y:F0 P:25 SP:FA CYC: 45 SL:13
8378  AD 02 20  LDA $2002 = FF                  A:10 X:00 Y:F0 P:25 SP:FA CYC: 54 SL:13
837B  10 FB     BPL $8378                       A:10 X:00 Y:F0 P:25 SP:FA CYC: 66 SL:13
8378  AD 02 20  LDA $2002 = FF                  A:10 X:00 Y:F0 P:25 SP:FA CYC: 75 SL:13
837B  10 FB     BPL $8378                       A:10 X:00 Y:F0 P:25 SP:FA CYC: 87 SL:13
8378  AD 02 20  LDA $2002 = FF                  A:10 X:00 Y:F0 P:25 SP:FA CYC: 96 SL:13
837B  10 FB     BPL $8378                       A:10 X:00 Y:F0 P:25 SP:FA CYC:108 SL:13
8378  AD 02 20  LDA $2002 = FF                  A:10 X:00 Y:F0 P:25 SP:FA CYC:117 SL:13
837B  10 FB     BPL $8378                       A:10 X:00 Y:F0 P:25 SP:FA CYC:129 SL:13
8378  AD 02 20  LDA $2002 = FF                  A:10 X:00 Y:F0 P:25 SP:FA CYC:138 SL:13
837B  10 FB     BPL $8378                       A:10 X:00 Y:F0 P:25 SP:FA CYC:150 SL:13
8378  AD 02 20  LDA $2002 = FF                  A:10 X:00 Y:F0 P:25 SP:FA CYC:159 SL:13
837B  10 FB     BPL $8378                       A:10 X:00 Y:F0 P:25 SP:FA CYC:171 SL:13
8378  AD 02 20  LDA $2002 = FF                  A:10 X:00 Y:F0 P:25 SP:FA CYC:180 SL:13
837B  10 FB     BPL $8378                       A:10 X:00 Y:F0 P:25 SP:FA CYC:192 SL:13
8378  AD 02 20  LDA $2002 = FF                  A:10 X:00 Y:F0 P:25 SP:FA CYC:201 SL:13
837B  10 FB     BPL $8378                       A:10 X:00 Y:F0 P:25 SP:FA CYC:213 SL:13
8378  AD 02 20  LDA $2002 = FF                  A:10 X:00 Y:F0 P:25 SP:FA CYC:222 SL:13
837B  10 FB     BPL $8378                       A:10 X:00 Y:F0 P:25 SP:FA CYC:234 SL:13
8378  AD 02 20  LDA $2002 = FF                  A:10 X:00 Y:F0 P:25 SP:FA CYC:243 SL:13
837B  10 FB     BPL $8378                       A:10 X:00 Y:F0 P:25 SP:FA CYC:255 SL:13
8378  AD 02 20  LDA $2002 = FF                  A:10 X:00 Y:F0 P:25 SP:FA CYC:264 SL:13
837B  10 FB     BPL $8378                       A:10 X:00 Y:F0 P:25 SP:FA CYC:276 SL:13
8378  AD 02 20  LDA $2002 = FF                  A:10 X:00 Y:F0 P:25 SP:FA CYC:285 SL:13
837B  10 FB     BPL $8378                       A:10 X:00 Y:F0 P:25 SP:FA CYC:297 SL:13
8378  AD 02 20  LDA $2002 = FF                  A:10 X:00 Y:F0 P:25 SP:FA CYC:306 SL:13
837B  10 FB     BPL $8378                       A:10 X:00 Y:F0 P:25 SP:FA CYC:318 SL:13
8378  AD 02 20  LDA $2002 = FF                  A:10 X:00 Y:F0 P:25 SP:FA CYC:327 SL:13
837B  10 FB     BPL $8378                       A:10 X:00 Y:F0 P:25 SP:FA CYC:339 SL:13
8378  AD 02 20  LDA $2002 = FF                  A:10 X:00 Y:F0 P:25 SP:FA CYC:  7 SL:14
837B  10 FB     BPL $8378                       A:10 X:00 Y:F0 P:25 SP:FA CYC: 19 SL:14
8378  AD 02 20  LDA $2002 = FF                  A:10 X:00 Y:F0 P:25 SP:FA CYC: 28 SL:14
837B  10 FB     BPL $8378                       A:10 X:00 Y:F0 P:25 SP:FA CYC: 40 SL:14
8378  AD 02 20  LDA $2002 = FF                  A:10 X:00 Y:F0 P:25 SP:FA CYC: 49 SL:14
837B  10 FB     BPL $8378                       A:10 X:00 Y:F0 P:25 SP:FA CYC: 61 SL:14
8378  AD 02 20  LDA $2002 = FF                  A:10 X:00 Y:F0 P:25 SP:FA CYC: 70 SL:14
837B  10 FB     BPL $8378                       A:10 X:00 Y:F0 P:25 SP:FA CYC: 82 SL:14
8378  AD 02 20  LDA $2002 = FF                  A:10 X:00 Y:F0 P:25 SP:FA CYC: 91 SL:14
837B  10 FB     BPL $8378                       A:10 X:00 Y:F0 P:25 SP:FA CYC:103 SL:14
8378  AD 02 20  LDA $2002 = FF                  A:10 X:00 Y:F0 P:25 SP:FA CYC:112 SL:14
837B  10 FB     BPL $8378                       A:10 X:00 Y:F0 P:25 SP:FA CYC:124 SL:14
8378  AD 02 20  LDA $2002 = FF                  A:10 X:00 Y:F0 P:25 SP:FA CYC:133 SL:14
837B  10 FB     BPL $8378                       A:10 X:00 Y:F0 P:25 SP:FA CYC:145 SL:14
8378  AD 02 20  LDA $2002 = FF                  A:10 X:00 Y:F0 P:25 SP:FA CYC:154 SL:14
837B  10 FB     BPL $8378                       A:10 X:00 Y:F0 P:25 SP:FA CYC:166 SL:14
8378  AD 02 20  LDA $2002 = FF                  A:10 X:00 Y:F0 P:25 SP:FA CYC:175 SL:14
837B  10 FB     BPL $8378                       A:10 X:00 Y:F0 P:25 SP:FA CYC:187 SL:14
8378  AD 02 20  LDA $2002 = FF                  A:10 X:00 Y:F0 P:25 SP:FA CYC:196 SL:14
837B  10 FB     BPL $8378                       A:10 X:00 Y:F0 P:25 SP:FA CYC:208 SL:14
8378  AD 02 20  LDA $2002 = FF                  A:10 X:00 Y:F0 P:25 SP:FA CYC:217 SL:14
837B  10 FB     BPL $8378                       A:10 X:00 Y:F0 P:25 SP:FA CYC:229 SL:14
8378  AD 02 20  LDA $2002 = FF                  A:10 X:00 Y:F0 P:25 SP:FA CYC:238 SL:14
837B  10 FB     BPL $8378                       A:10 X:00 Y:F0 P:25 SP:FA CYC:250 SL:14
8378  AD 02 20  LDA $2002 = FF                  A:10 X:00 Y:F0 P:25 SP:FA CYC:259 SL:14
837B  10 FB     BPL $8378                       A:10 X:00 Y:F0 P:25 SP:FA CYC:271 SL:14
8378  AD 02 20  LDA $2002 = FF                  A:10 X:00 Y:F0 P:25 SP:FA CYC:280 SL:14
837B  10 FB     BPL $8378                       A:10 X:00 Y:F0 P:25 SP:FA CYC:292 SL:14
8378  AD 02 20  LDA $2002 = FF                  A:10 X:00 Y:F0 P:25 SP:FA CYC:301 SL:14
837B  10 FB     BPL $8378                       A:10 X:00 Y:F0 P:25 SP:FA CYC:313 SL:14
8378  AD 02 20  LDA $2002 = FF                  A:10 X:00 Y:F0 P:25 SP:FA CYC:322 SL:14
837B  10 FB     BPL $8378                       A:10 X:00 Y:F0 P:25 SP:FA CYC:334 SL:14
8378  AD 02 20  LDA $2002 = FF                  A:10 X:00 Y:F0 P:25 SP:FA CYC:  2 SL:15
837B  10 FB     BPL $8378                       A:10 X:00 Y:F0 P:25 SP:FA CYC: 14 SL:15
8378  AD 02 20  LDA $2002 = FF                  A:10 X:00 Y:F0 P:25 SP:FA CYC: 23 SL:15
837B  10 FB     BPL $8378                       A:10 X:00 Y:F0 P:25 SP:FA CYC: 35 SL:15
8378  AD 02 20  LDA $2002 = FF                  A:10 X:00 Y:F0 P:25 SP:FA CYC: 44 SL:15
837B  10 FB     BPL $8378                       A:10 X:00 Y:F0 P:25 SP:FA CYC: 56 SL:15
8378  AD 02 20  LDA $2002 = FF                  A:10 X:00 Y:F0 P:25 SP:FA CYC: 65 SL:15
837B  10 FB     BPL $8378                       A:10 X:00 Y:F0 P:25 SP:FA CYC: 77 SL:15
8378  AD 02 20  LDA $2002 = FF                  A:10 X:00 Y:F0 P:25 SP:FA CYC: 86 SL:15
837B  10 FB     BPL $8378                       A:10 X:00 Y:F0 P:25 SP:FA CYC: 98 SL:15
8378  AD 02 20  LDA $2002 = FF                  A:10 X:00 Y:F0 P:25 SP:FA CYC:107 SL:15
837B  10 FB     BPL $8378                       A:10 X:00 Y:F0 P:25 SP:FA CYC:119 SL:15
8378  AD 02 20  LDA $2002 = FF                  A:10 X:00 Y:F0 P:25 SP:FA CYC:128 SL:15
837B  10 FB     BPL $8378                       A:10 X:00 Y:F0 P:25 SP:FA CYC:140 SL:15
8378  AD 02 20  LDA $2002 = FF                  A:10 X:00 Y:F0 P:25 SP:FA CYC:149 SL:15
837B  10 FB     BPL $8378                       A:10 X:00 Y:F0 P:25 SP:FA CYC:161 SL:15
8378  AD 02 20  LDA $2002 = FF                  A:10 X:00 Y:F0 P:25 SP:FA CYC:170 SL:15
837B  10 FB     BPL $8378                       A:10 X:00 Y:F0 P:25 SP:FA CYC:182 SL:15
8378  AD 02 20  LDA $2002 = FF                  A:10 X:00 Y:F0 P:25 SP:FA CYC:191 SL:15
837B  10 FB     BPL $8378                       A:10 X:00 Y:F0 P:25 SP:FA CYC:203 SL:15
8378  AD 02 20  LDA $2002 = FF                  A:10 X:00 Y:F0 P:25 SP:FA CYC:212 SL:15
837B  10 FB     BPL $8378                       A:10 X:00 Y:F0 P:25 SP:FA CYC:224 SL:15
8378  AD 02 20  LDA $2002 = FF                  A:10 X:00 Y:F0 P:25 SP:FA CYC:233 SL:15
837B  10 FB     BPL $8378                       A:10 X:00 Y:F0 P:25 SP:FA CYC:245 SL:15
8378  AD 02 20  LDA $2002 = FF                  A:10 X:00 Y:F0 P:25 SP:FA CYC:254 SL:15
837B  10 FB     BPL $8378                       A:10 X:00 Y:F0 P:25 SP:FA CYC:266 SL:15
8378  AD 02 20  LDA $2002 = FF                  A:10 X:00 Y:F0 P:25 SP:FA CYC:275 SL:15
837B  10 FB     BPL $8378                       A:10 X:00 Y:F0 P:25 SP:FA CYC:287 SL:15
8378  AD 02 20  LDA $2002 = FF                  A:10 X:00 Y:F0 P:25 SP:FA CYC:296 SL:15
837B  10 FB     BPL $8378                       A:10 X:00 Y:F0 P:25 SP:FA CYC:308 SL:15
8378  AD 02 20  LDA $2002 = FF                  A:10 X:00 Y:F0 P:25 SP:FA CYC:317 SL:15
837B  10 FB     BPL $8378                       A:10 X:00 Y:F0 P:25 SP:FA CYC:329 SL:15
8378  AD 02 20  LDA $2002 = FF                  A:10 X:00 Y:F0 P:25 SP:FA CYC:338 SL:15
837B  10 FB     BPL $8378                       A:10 X:00 Y:F0 P:25 SP:FA CYC:  9 SL:16
8378  AD 02 20  LDA $2002 = FF                  A:10 X:00 Y:F0 P:25 SP:FA CYC: 18 SL:16
837B  10 FB     BPL $8378                       A:10 X:00 Y:F0 P:25 SP:FA CYC: 30 SL:16
8378  AD 02 20  LDA $2002 = FF                  A:10 X:00 Y:F0 P:25 SP:FA CYC: 39 SL:16
837B  10 FB     BPL $8378                       A:10 X:00 Y:F0 P:25 SP:FA CYC: 51 SL:16
8378  AD 02 20  LDA $2002 = FF                  A:10 X:00 Y:F0 P:25 SP:FA CYC: 60 SL:16
837B  10 FB     BPL $8378                       A:10 X:00 Y:F0 P:25 SP:FA CYC: 72 SL:16
8378  AD 02 20  LDA $2002 = FF                  A:10 X:00 Y:F0 P:25 SP:FA CYC: 81 SL:16
837B  10 FB     BPL $8378                       A:10 X:00 Y:F0 P:25 SP:FA CYC: 93 SL:16
8378  AD 02 20  LDA $2002 = FF                  A:10 X:00 Y:F0 P:25 SP:FA CYC:102 SL:16
837B  10 FB     BPL $8378                       A:10 X:00 Y:F0 P:25 SP:FA CYC:114 SL:16
8378  AD 02 20  LDA $2002 = FF                  A:10 X:00 Y:F0 P:25 SP:FA CYC:123 SL:16
837B  10 FB     BPL $8378                       A:10 X:00 Y:F0 P:25 SP:FA CYC:135 SL:16
8378  AD 02 20  LDA $2002 = FF                  A:10 X:00 Y:F0 P:25 SP:FA CYC:144 SL:16
837B  10 FB     BPL $8378                       A:10 X:00 Y:F0 P:25 SP:FA CYC:156 SL:16
8378  AD 02 20  LDA $2002 = FF                  A:10 X:00 Y:F0 P:25 SP:FA CYC:165 SL:16
837B  10 FB     BPL $8378                       A:10 X:00 Y:F0 P:25 SP:FA CYC:177 SL:16
8378  AD 02 20  LDA $2002 = FF                  A:10 X:00 Y:F0 P:25 SP:FA CYC:186 SL:16
837B  10 FB     BPL $8378                       A:10 X:00 Y:F0 P:25 SP:FA CYC:198 SL:16
8378  AD 02 20  LDA $2002 = FF                  A:10 X:00 Y:F0 P:25 SP:FA CYC:207 SL:16
837B  10 FB     BPL $8378                       A:10 X:00 Y:F0 P:25 SP:FA CYC:219 SL:16
8378  AD 02 20  LDA $2002 = FF                  A:10 X:00 Y:F0 P:25 SP:FA CYC:228 SL:16
837B  10 FB     BPL $8378                       A:10 X:00 Y:F0 P:25 SP:FA CYC:240 SL:16
8378  AD 02 20  LDA $2002 = FF                  A:10 X:00 Y:F0 P:25 SP:FA CYC:249 SL:16
837B  10 FB     BPL $8378                       A:10 X:00 Y:F0 P:25 SP:FA CYC:261 SL:16
8378  AD 02 20  LDA $2002 = FF                  A:10 X:00 Y:F0 P:25 SP:FA CYC:270 SL:16
837B  10 FB     BPL $8378                       A:10 X:00 Y:F0 P:25 SP:FA CYC:282 SL:16
8378  AD 02 20  LDA $2002 = FF                  A:10 X:00 Y:F0 P:25 SP:FA CYC:291 SL:16
837B  10 FB     BPL $8378                       A:10 X:00 Y:F0 P:25 SP:FA CYC:303 SL:16
8378  AD 02 20  LDA $2002 = FF                  A:10 X:00 Y:F0 P:25 SP:FA CYC:312 SL:16
837B  10 FB     BPL $8378                       A:10 X:00 Y:F0 P:25 SP:FA CYC:324 SL:16
8378  AD 02 20  LDA $2002 = FF                  A:10 X:00 Y:F0 P:25 SP:FA CYC:333 SL:16
837B  10 FB     BPL $8378                       A:10 X:00 Y:F0 P:25 SP:FA CYC:  4 SL:17
8378  AD 02 20  LDA $2002 = FF                  A:10 X:00 Y:F0 P:25 SP:FA CYC: 13 SL:17
837B  10 FB     BPL $8378                       A:10 X:00 Y:F0 P:25 SP:FA CYC: 25 SL:17
8378  AD 02 20  LDA $2002 = FF                  A:10 X:00 Y:F0 P:25 SP:FA CYC: 34 SL:17
837B  10 FB     BPL $8378                       A:10 X:00 Y:F0 P:25 SP:FA CYC: 46 SL:17
8378  AD 02 20  LDA $2002 = FF                  A:10 X:00 Y:F0 P:25 SP:FA CYC: 55 SL:17
837B  10 FB     BPL $8378                       A:10 X:00 Y:F0 P:25 SP:FA CYC: 67 SL:17
8378  AD 02 20  LDA $2002 = FF                  A:10 X:00 Y:F0 P:25 SP:FA CYC: 76 SL:17
837B  10 FB     BPL $8378                       A:10 X:00 Y:F0 P:25 SP:FA CYC: 88 SL:17
8378  AD 02 20  LDA $2002 = FF                  A:10 X:00 Y:F0 P:25 SP:FA CYC: 97 SL:17
837B  10 FB     BPL $8378                       A:10 X:00 Y:F0 P:25 SP:FA CYC:109 SL:17
8378  AD 02 20  LDA $2002 = FF                  A:10 X:00 Y:F0 P:25 SP:FA CYC:118 SL:17
837B  10 FB     BPL $8378                       A:10 X:00 Y:F0 P:25 SP:FA CYC:130 SL:17
8378  AD 02 20  LDA $2002 = FF                  A:10 X:00 Y:F0 P:25 SP:FA CYC:139 SL:17
837B  10 FB     BPL $8378                       A:10 X:00 Y:F0 P:25 SP:FA CYC:151 SL:17
8378  AD 02 20  LDA $2002 = FF                  A:10 X:00 Y:F0 P:25 SP:FA CYC:160 SL:17
837B  10 FB     BPL $8378                       A:10 X:00 Y:F0 P:25 SP:FA CYC:172 SL:17
8378  AD 02 20  LDA $2002 = FF                  A:10 X:00 Y:F0 P:25 SP:FA CYC:181 SL:17
837B  10 FB     BPL $8378                       A:10 X:00 Y:F0 P:25 SP:FA CYC:193 SL:17
8378  AD 02 20  LDA $2002 = FF                  A:10 X:00 Y:F0 P:25 SP:FA CYC:202 SL:17
837B  10 FB     BPL $8378                       A:10 X:00 Y:F0 P:25 SP:FA CYC:214 SL:17
8378  AD 02 20  LDA $2002 = FF                  A:10 X:00 Y:F0 P:25 SP:FA CYC:223 SL:17
837B  10 FB     BPL $8378                       A:10 X:00 Y:F0 P:25 SP:FA CYC:235 SL:17
8378  AD 02 20  LDA $2002 = FF                  A:10 X:00 Y:F0 P:25 SP:FA CYC:244 SL:17
837B  10 FB     BPL $8378                       A:10 X:00 Y:F0 P:25 SP:FA CYC:256 SL:17
8378  AD 02 20  LDA $2002 = FF                  A:10 X:00 Y:F0 P:25 SP:FA CYC:265 SL:17
837B  10 FB     BPL $8378                       A:10 X:00 Y:F0 P:25 SP:FA CYC:277 SL:17
8378  AD 02 20  LDA $2002 = FF                  A:10 X:00 Y:F0 P:25 SP:FA CYC:286 SL:17
837B  10 FB     BPL $8378                       A:10 X:00 Y:F0 P:25 SP:FA CYC:298 SL:17
8378  AD 02 20  LDA $2002 = FF                  A:10 X:00 Y:F0 P:25 SP:FA CYC:307 SL:17
837B  10 FB     BPL $8378                       A:10 X:00 Y:F0 P:25 SP:FA CYC:319 SL:17
8378  AD 02 20  LDA $2002 = FF                  A:10 X:00 Y:F0 P:25 SP:FA CYC:328 SL:17
837B  10 FB     BPL $8378                       A:10 X:00 Y:F0 P:25 SP:FA CYC:340 SL:17
8378  AD 02 20  LDA $2002 = FF                  A:10 X:00 Y:F0 P:25 SP:FA CYC:  8 SL:18
837B  10 FB     BPL $8378                       A:10 X:00 Y:F0 P:25 SP:FA CYC: 20 SL:18
8378  AD 02 20  LDA $2002 = FF                  A:10 X:00 Y:F0 P:25 SP:FA CYC: 29 SL:18
837B  10 FB     BPL $8378                       A:10 X:00 Y:F0 P:25 SP:FA CYC: 41 SL:18
8378  AD 02 20  LDA $2002 = FF                  A:10 X:00 Y:F0 P:25 SP:FA CYC: 50 SL:18
837B  10 FB     BPL $8378                       A:10 X:00 Y:F0 P:25 SP:FA CYC: 62 SL:18
8378  AD 02 20  LDA $2002 = FF                  A:10 X:00 Y:F0 P:25 SP:FA CYC: 71 SL:18
837B  10 FB     BPL $8378                       A:10 X:00 Y:F0 P:25 SP:FA CYC: 83 SL:18
8378  AD 02 20  LDA $2002 = FF                  A:10 X:00 Y:F0 P:25 SP:FA CYC: 92 SL:18
837B  10 FB     BPL $8378                       A:10 X:00 Y:F0 P:25 SP:FA CYC:104 SL:18
8378  AD 02 20  LDA $2002 = FF                  A:10 X:00 Y:F0 P:25 SP:FA CYC:113 SL:18
837B  10 FB     BPL $8378                       A:10 X:00 Y:F0 P:25 SP:FA CYC:125 SL:18
8378  AD 02 20  LDA $2002 = FF                  A:10 X:00 Y:F0 P:25 SP:FA CYC:134 SL:18
837B  10 FB     BPL $8378                       A:10 X:00 Y:F0 P:25 SP:FA CYC:146 SL:18
8378  AD 02 20  LDA $2002 = FF                  A:10 X:00 Y:F0 P:25 SP:FA CYC:155 SL:18
837B  10 FB     BPL $8378                       A:10 X:00 Y:F0 P:25 SP:FA CYC:167 SL:18
8378  AD 02 20  LDA $2002 = FF                  A:10 X:00 Y:F0 P:25 SP:FA CYC:176 SL:18
837B  10 FB     BPL $8378                       A:10 X:00 Y:F0 P:25 SP:FA CYC:188 SL:18
8378  AD 02 20  LDA $2002 = FF                  A:10 X:00 Y:F0 P:25 SP:FA CYC:197 SL:18
837B  10 FB     BPL $8378                       A:10 X:00 Y:F0 P:25 SP:FA CYC:209 SL:18
8378  AD 02 20  LDA $2002 = FF                  A:10 X:00 Y:F0 P:25 SP:FA CYC:218 SL:18
837B  10 FB     BPL $8378                       A:10 X:00 Y:F0 P:25 SP:FA CYC:230 SL:18
8378  AD 02 20  LDA $2002 = FF                  A:10 X:00 Y:F0 P:25 SP:FA CYC:239 SL:18
837B  10 FB     BPL $8378                       A:10 X:00 Y:F0 P:25 SP:FA CYC:251 SL:18
8378  AD 02 20  LDA $2002 = FF                  A:10 X:00 Y:F0 P:25 SP:FA CYC:260 SL:18
837B  10 FB     BPL $8378                       A:10 X:00 Y:F0 P:25 SP:FA CYC:272 SL:18
8378  AD 02 20  LDA $2002 = FF                  A:10 X:00 Y:F0 P:25 SP:FA CYC:281 SL:18
837B  10 FB     BPL $8378                       A:10 X:00 Y:F0 P:25 SP:FA CYC:293 SL:18
8378  AD 02 20  LDA $2002 = FF                  A:10 X:00 Y:F0 P:25 SP:FA CYC:302 SL:18
837B  10 FB     BPL $8378                       A:10 X:00 Y:F0 P:25 SP:FA CYC:314 SL:18
8378  AD 02 20  LDA $2002 = FF                  A:10 X:00 Y:F0 P:25 SP:FA CYC:323 SL:18
837B  10 FB     BPL $8378                       A:10 X:00 Y:F0 P:25 SP:FA CYC:335 SL:18
8378  AD 02 20  LDA $2002 = FF                  A:10 X:00 Y:F0 P:25 SP:FA CYC:  3 SL:19
837B  10 FB     BPL $8378                       A:10 X:00 Y:F0 P:25 SP:FA CYC: 15 SL:19
8378  AD 02 20  LDA $2002 = FF                  A:10 X:00 Y:F0 P:25 SP:FA CYC: 24 SL:19
837B  10 FB     BPL $8378                       A:10 X:00 Y:F0 P:25 SP:FA CYC: 36 SL:19
8378  AD 02 20  LDA $2002 = FF                  A:10 X:00 Y:F0 P:25 SP:FA CYC: 45 SL:19
837B  10 FB     BPL $8378                       A:10 X:00 Y:F0 P:25 SP:FA CYC: 57 SL:19
8378  AD 02 20  LDA $2002 = FF                  A:10 X:00 Y:F0 P:25 SP:FA CYC: 66 SL:19
837B  10 FB     BPL $8378                       A:10 X:00 Y:F0 P:25 SP:FA CYC: 78 SL:19
8378  AD 02 20  LDA $2002 = FF                  A:10 X:00 Y:F0 P:25 SP:FA CYC: 87 SL:19
837B  10 FB     BPL $8378                       A:10 X:00 Y:F0 P:25 SP:FA CYC: 99 SL:19
8378  AD 02 20  LDA $2002 = FF                  A:10 X:00 Y:F0 P:25 SP:FA CYC:108 SL:19
837B  10 FB     BPL $8378                       A:10 X:00 Y:F0 P:25 SP:FA CYC:120 SL:19
8378  AD 02 20  LDA $2002 = FF                  A:10 X:00 Y:F0 P:25 SP:FA CYC:129 SL:19
837B  10 FB     BPL $8378                       A:10 X:00 Y:F0 P:25 SP:FA CYC:141 SL:19
8378  AD 02 20  LDA $2002 = FF                  A:10 X:00 Y:F0 P:25 SP:FA CYC:150 SL:19
837B  10 FB     BPL $8378                       A:10 X:00 Y:F0 P:25 SP:FA CYC:162 SL:19
8378  AD 02 20  LDA $2002 = FF                  A:10 X:00 Y:F0 P:25 SP:FA CYC:171 SL:19
837B  10 FB     BPL $8378                       A:10 X:00 Y:F0 P:25 SP:FA CYC:183 SL:19
8378  AD 02 20  LDA $2002 = FF                  A:10 X:00 Y:F0 P:25 SP:FA CYC:192 SL:19
837B  10 FB     BPL $8378                       A:10 X:00 Y:F0 P:25 SP:FA CYC:204 SL:19
8378  AD 02 20  LDA $2002 = FF                  A:10 X:00 Y:F0 P:25 SP:FA CYC:213 SL:19
837B  10 FB     BPL $8378                       A:10 X:00 Y:F0 P:25 SP:FA CYC:225 SL:19
8378  AD 02 20  LDA $2002 = FF                  A:10 X:00 Y:F0 P:25 SP:FA CYC:234 SL:19
837B  10 FB     BPL $8378                       A:10 X:00 Y:F0 P:25 SP:FA CYC:246 SL:19
8378  AD 02 20  LDA $2002 = FF                  A:10 X:00 Y:F0 P:25 SP:FA CYC:255 SL:19
837B  10 FB     BPL $8378                       A:10 X:00 Y:F0 P:25 SP:FA CYC:267 SL:19
8378  AD 02 20  LDA $2002 = FF                  A:10 X:00 Y:F0 P:25 SP:FA CYC:276 SL:19
837B  10 FB     BPL $8378                       A:10 X:00 Y:F0 P:25 SP:FA CYC:288 SL:19
8378  AD 02 20  LDA $2002 = FF                  A:10 X:00 Y:F0 P:25 SP:FA CYC:297 SL:19
837B  10 FB     BPL $8378                       A:10 X:00 Y:F0 P:25 SP:FA CYC:309 SL:19
8378  AD 02 20  LDA $2002 = FF                  A:10 X:00 Y:F0 P:25 SP:FA CYC:318 SL:19
837B  10 FB     BPL $8378                       A:10 X:00 Y:F0 P:25 SP:FA CYC:330 SL:19
8378  AD 02 20  LDA $2002 = FF                  A:10 X:00 Y:F0 P:25 SP:FA CYC:339 SL:19
837B  10 FB     BPL $8378                       A:10 X:00 Y:F0 P:25 SP:FA CYC: 10 SL:20
8378  AD 02 20  LDA $2002 = FF                  A:10 X:00 Y:F0 P:25 SP:FA CYC: 19 SL:20
837B  10 FB     BPL $8378                       A:10 X:00 Y:F0 P:25 SP:FA CYC: 31 SL:20
8378  AD 02 20  LDA $2002 = FF                  A:10 X:00 Y:F0 P:25 SP:FA CYC: 40 SL:20
837B  10 FB     BPL $8378                       A:10 X:00 Y:F0 P:25 SP:FA CYC: 52 SL:20
8378  AD 02 20  LDA $2002 = FF                  A:10 X:00 Y:F0 P:25 SP:FA CYC: 61 SL:20
837B  10 FB     BPL $8378                       A:10 X:00 Y:F0 P:25 SP:FA CYC: 73 SL:20
8378  AD 02 20  LDA $2002 = FF                  A:10 X:00 Y:F0 P:25 SP:FA CYC: 82 SL:20
837B  10 FB     BPL $8378                       A:10 X:00 Y:F0 P:25 SP:FA CYC: 94 SL:20
8378  AD 02 20  LDA $2002 = FF                  A:10 X:00 Y:F0 P:25 SP:FA CYC:103 SL:20
837B  10 FB     BPL $8378                       A:10 X:00 Y:F0 P:25 SP:FA CYC:115 SL:20
8378  AD 02 20  LDA $2002 = FF                  A:10 X:00 Y:F0 P:25 SP:FA CYC:124 SL:20
837B  10 FB     BPL $8378                       A:10 X:00 Y:F0 P:25 SP:FA CYC:136 SL:20
8378  AD 02 20  LDA $2002 = FF                  A:10 X:00 Y:F0 P:25 SP:FA CYC:145 SL:20
837B  10 FB     BPL $8378                       A:10 X:00 Y:F0 P:25 SP:FA CYC:157 SL:20
8378  AD 02 20  LDA $2002 = FF                  A:10 X:00 Y:F0 P:25 SP:FA CYC:166 SL:20
837B  10 FB     BPL $8378                       A:10 X:00 Y:F0 P:25 SP:FA CYC:178 SL:20
8378  AD 02 20  LDA $2002 = FF                  A:10 X:00 Y:F0 P:25 SP:FA CYC:187 SL:20
837B  10 FB     BPL $8378                       A:10 X:00 Y:F0 P:25 SP:FA CYC:199 SL:20
8378  AD 02 20  LDA $2002 = FF                  A:10 X:00 Y:F0 P:25 SP:FA CYC:208 SL:20
837B  10 FB     BPL $8378                       A:10 X:00 Y:F0 P:25 SP:FA CYC:220 SL:20
8378  AD 02 20  LDA $2002 = FF                  A:10 X:00 Y:F0 P:25 SP:FA CYC:229 SL:20
837B  10 FB     BPL $8378                       A:10 X:00 Y:F0 P:25 SP:FA CYC:241 SL:20
8378  AD 02 20  LDA $2002 = FF                  A:10 X:00 Y:F0 P:25 SP:FA CYC:250 SL:20
837B  10 FB     BPL $8378                       A:10 X:00 Y:F0 P:25 SP:FA CYC:262 SL:20
8378  AD 02 20  LDA $2002 = FF                  A:10 X:00 Y:F0 P:25 SP:FA CYC:271 SL:20
837B  10 FB     BPL $8378                       A:10 X:00 Y:F0 P:25 SP:FA CYC:283 SL:20
8378  AD 02 20  LDA $2002 = FF                  A:10 X:00 Y:F0 P:25 SP:FA CYC:292 SL:20
837B  10 FB     BPL $8378                       A:10 X:00 Y:F0 P:25 SP:FA CYC:304 SL:20
8378  AD 02 20  LDA $2002 = FF                  A:10 X:00 Y:F0 P:25 SP:FA CYC:313 SL:20
837B  10 FB     BPL $8378                       A:10 X:00 Y:F0 P:25 SP:FA CYC:325 SL:20
8378  AD 02 20  LDA $2002 = FF                  A:10 X:00 Y:F0 P:25 SP:FA CYC:334 SL:20
837B  10 FB     BPL $8378                       A:10 X:00 Y:F0 P:25 SP:FA CYC:  5 SL:21
8378  AD 02 20  LDA $2002 = FF                  A:10 X:00 Y:F0 P:25 SP:FA CYC: 14 SL:21
837B  10 FB     BPL $8378                       A:10 X:00 Y:F0 P:25 SP:FA CYC: 26 SL:21
8378  AD 02 20  LDA $2002 = FF                  A:10 X:00 Y:F0 P:25 SP:FA CYC: 35 SL:21
837B  10 FB     BPL $8378                       A:10 X:00 Y:F0 P:25 SP:FA CYC: 47 SL:21
8378  AD 02 20  LDA $2002 = FF                  A:10 X:00 Y:F0 P:25 SP:FA CYC: 56 SL:21
837B  10 FB     BPL $8378                       A:10 X:00 Y:F0 P:25 SP:FA CYC: 68 SL:21
8378  AD 02 20  LDA $2002 = FF                  A:10 X:00 Y:F0 P:25 SP:FA CYC: 77 SL:21
837B  10 FB     BPL $8378                       A:10 X:00 Y:F0 P:25 SP:FA CYC: 89 SL:21
8378  AD 02 20  LDA $2002 = FF                  A:10 X:00 Y:F0 P:25 SP:FA CYC: 98 SL:21
837B  10 FB     BPL $8378                       A:10 X:00 Y:F0 P:25 SP:FA CYC:110 SL:21
8378  AD 02 20  LDA $2002 = FF                  A:10 X:00 Y:F0 P:25 SP:FA CYC:119 SL:21
837B  10 FB     BPL $8378                       A:10 X:00 Y:F0 P:25 SP:FA CYC:131 SL:21
8378  AD 02 20  LDA $2002 = FF                  A:10 X:00 Y:F0 P:25 SP:FA CYC:140 SL:21
837B  10 FB     BPL $8378                       A:10 X:00 Y:F0 P:25 SP:FA CYC:152 SL:21
8378  AD 02 20  LDA $2002 = FF                  A:10 X:00 Y:F0 P:25 SP:FA CYC:161 SL:21
837B  10 FB     BPL $8378                       A:10 X:00 Y:F0 P:25 SP:FA CYC:173 SL:21
8378  AD 02 20  LDA $2002 = FF                  A:10 X:00 Y:F0 P:25 SP:FA CYC:182 SL:21
837B  10 FB     BPL $8378                       A:10 X:00 Y:F0 P:25 SP:FA CYC:194 SL:21
8378  AD 02 20  LDA $2002 = FF                  A:10 X:00 Y:F0 P:25 SP:FA CYC:203 SL:21
837B  10 FB     BPL $8378                       A:10 X:00 Y:F0 P:25 SP:FA CYC:215 SL:21
8378  AD 02 20  LDA $2002 = FF                  A:10 X:00 Y:F0 P:25 SP:FA CYC:224 SL:21
837B  10 FB     BPL $8378                       A:10 X:00 Y:F0 P:25 SP:FA CYC:236 SL:21
8378  AD 02 20  LDA $2002 = FF                  A:10 X:00 Y:F0 P:25 SP:FA CYC:245 SL:21
837B  10 FB     BPL $8378                       A:10 X:00 Y:F0 P:25 SP:FA CYC:257 SL:21
8378  AD 02 20  LDA $2002 = FF                  A:10 X:00 Y:F0 P:25 SP:FA CYC:266 SL:21
837B  10 FB     BPL $8378                       A:10 X:00 Y:F0 P:25 SP:FA CYC:278 SL:21
8378  AD 02 20  LDA $2002 = FF                  A:10 X:00 Y:F0 P:25 SP:FA CYC:287 SL:21
837B  10 FB     BPL $8378                       A:10 X:00 Y:F0 P:25 SP:FA CYC:299 SL:21
8378  AD 02 20  LDA $2002 = FF                  A:10 X:00 Y:F0 P:25 SP:FA CYC:308 SL:21
837B  10 FB     BPL $8378                       A:10 X:00 Y:F0 P:25 SP:FA CYC:320 SL:21
8378  AD 02 20  LDA $2002 = FF                  A:10 X:00 Y:F0 P:25 SP:FA CYC:329 SL:21
837B  10 FB     BPL $8378                       A:10 X:00 Y:F0 P:25 SP:FA CYC:  0 SL:22
8378  AD 02 20  LDA $2002 = FF                  A:10 X:00 Y:F0 P:25 SP:FA CYC:  9 SL:22
837B  10 FB     BPL $8378                       A:10 X:00 Y:F0 P:25 SP:FA CYC: 21 SL:22
8378  AD 02 20  LDA $2002 = FF                  A:10 X:00 Y:F0 P:25 SP:FA CYC: 30 SL:22
837B  10 FB     BPL $8378                       A:10 X:00 Y:F0 P:25 SP:FA CYC: 42 SL:22
8378  AD 02 20  LDA $2002 = FF                  A:10 X:00 Y:F0 P:25 SP:FA CYC: 51 SL:22
837B  10 FB     BPL $8378                       A:10 X:00 Y:F0 P:25 SP:FA CYC: 63 SL:22
8378  AD 02 20  LDA $2002 = FF                  A:10 X:00 Y:F0 P:25 SP:FA CYC: 72 SL:22
837B  10 FB     BPL $8378                       A:10 X:00 Y:F0 P:25 SP:FA CYC: 84 SL:22
8378  AD 02 20  LDA $2002 = FF                  A:10 X:00 Y:F0 P:25 SP:FA CYC: 93 SL:22
837B  10 FB     BPL $8378                       A:10 X:00 Y:F0 P:25 SP:FA CYC:105 SL:22
8378  AD 02 20  LDA $2002 = FF                  A:10 X:00 Y:F0 P:25 SP:FA CYC:114 SL:22
837B  10 FB     BPL $8378                       A:10 X:00 Y:F0 P:25 SP:FA CYC:126 SL:22
8378  AD 02 20  LDA $2002 = FF                  A:10 X:00 Y:F0 P:25 SP:FA CYC:135 SL:22
837B  10 FB     BPL $8378                       A:10 X:00 Y:F0 P:25 SP:FA CYC:147 SL:22
8378  AD 02 20  LDA $2002 = FF                  A:10 X:00 Y:F0 P:25 SP:FA CYC:156 SL:22
837B  10 FB     BPL $8378                       A:10 X:00 Y:F0 P:25 SP:FA CYC:168 SL:22
8378  AD 02 20  LDA $2002 = FF                  A:10 X:00 Y:F0 P:25 SP:FA CYC:177 SL:22
837B  10 FB     BPL $8378                       A:10 X:00 Y:F0 P:25 SP:FA CYC:189 SL:22
8378  AD 02 20  LDA $2002 = FF                  A:10 X:00 Y:F0 P:25 SP:FA CYC:198 SL:22
837B  10 FB     BPL $8378                       A:10 X:00 Y:F0 P:25 SP:FA CYC:210 SL:22
8378  AD 02 20  LDA $2002 = FF                  A:10 X:00 Y:F0 P:25 SP:FA CYC:219 SL:22
837B  10 FB     BPL $8378                       A:10 X:00 Y:F0 P:25 SP:FA CYC:231 SL:22
8378  AD 02 20  LDA $2002 = FF                  A:10 X:00 Y:F0 P:25 SP:FA CYC:240 SL:22
837B  10 FB     BPL $8378                       A:10 X:00 Y:F0 P:25 SP:FA CYC:252 SL:22
8378  AD 02 20  LDA $2002 = FF                  A:10 X:00 Y:F0 P:25 SP:FA CYC:261 SL:22
837B  10 FB     BPL $8378                       A:10 X:00 Y:F0 P:25 SP:FA CYC:273 SL:22
8378  AD 02 20  LDA $2002 = FF                  A:10 X:00 Y:F0 P:25 SP:FA CYC:282 SL:22
837B  10 FB     BPL $8378                       A:10 X:00 Y:F0 P:25 SP:FA CYC:294 SL:22
8378  AD 02 20  LDA $2002 = FF                  A:10 X:00 Y:F0 P:25 SP:FA CYC:303 SL:22
837B  10 FB     BPL $8378                       A:10 X:00 Y:F0 P:25 SP:FA CYC:315 SL:22
8378  AD 02 20  LDA $2002 = FF                  A:10 X:00 Y:F0 P:25 SP:FA CYC:324 SL:22
837B  10 FB     BPL $8378                       A:10 X:00 Y:F0 P:25 SP:FA CYC:336 SL:22
8378  AD 02 20  LDA $2002 = FF                  A:10 X:00 Y:F0 P:25 SP:FA CYC:  4 SL:23
837B  10 FB     BPL $8378                       A:10 X:00 Y:F0 P:25 SP:FA CYC: 16 SL:23
8378  AD 02 20  LDA $2002 = FF                  A:10 X:00 Y:F0 P:25 SP:FA CYC: 25 SL:23
837B  10 FB     BPL $8378                       A:10 X:00 Y:F0 P:25 SP:FA CYC: 37 SL:23
8378  AD 02 20  LDA $2002 = FF                  A:10 X:00 Y:F0 P:25 SP:FA CYC: 46 SL:23
837B  10 FB     BPL $8378                       A:10 X:00 Y:F0 P:25 SP:FA CYC: 58 SL:23
8378  AD 02 20  LDA $2002 = FF                  A:10 X:00 Y:F0 P:25 SP:FA CYC: 67 SL:23
837B  10 FB     BPL $8378                       A:10 X:00 Y:F0 P:25 SP:FA CYC: 79 SL:23
8378  AD 02 20  LDA $2002 = FF                  A:10 X:00 Y:F0 P:25 SP:FA CYC: 88 SL:23
837B  10 FB     BPL $8378                       A:10 X:00 Y:F0 P:25 SP:FA CYC:100 SL:23
8378  AD 02 20  LDA $2002 = FF                  A:10 X:00 Y:F0 P:25 SP:FA CYC:109 SL:23
837B  10 FB     BPL $8378                       A:10 X:00 Y:F0 P:25 SP:FA CYC:121 SL:23
8378  AD 02 20  LDA $2002 = FF                  A:10 X:00 Y:F0 P:25 SP:FA CYC:130 SL:23
837B  10 FB     BPL $8378                       A:10 X:00 Y:F0 P:25 SP:FA CYC:142 SL:23
8378  AD 02 20  LDA $2002 = FF                  A:10 X:00 Y:F0 P:25 SP:FA CYC:151 SL:23
837B  10 FB     BPL $8378                       A:10 X:00 Y:F0 P:25 SP:FA CYC:163 SL:23
8378  AD 02 20  LDA $2002 = FF                  A:10 X:00 Y:F0 P:25 SP:FA CYC:172 SL:23
837B  10 FB     BPL $8378                       A:10 X:00 Y:F0 P:25 SP:FA CYC:184 SL:23
8378  AD 02 20  LDA $2002 = FF                  A:10 X:00 Y:F0 P:25 SP:FA CYC:193 SL:23
837B  10 FB     BPL $8378                       A:10 X:00 Y:F0 P:25 SP:FA CYC:205 SL:23
8378  AD 02 20  LDA $2002 = FF                  A:10 X:00 Y:F0 P:25 SP:FA CYC:214 SL:23
837B  10 FB     BPL $8378                       A:10 X:00 Y:F0 P:25 SP:FA CYC:226 SL:23
8378  AD 02 20  LDA $2002 = FF                  A:10 X:00 Y:F0 P:25 SP:FA CYC:235 SL:23
837B  10 FB     BPL $8378                       A:10 X:00 Y:F0 P:25 SP:FA CYC:247 SL:23
8378  AD 02 20  LDA $2002 = FF                  A:10 X:00 Y:F0 P:25 SP:FA CYC:256 SL:23
837B  10 FB     BPL $8378                       A:10 X:00 Y:F0 P:25 SP:FA CYC:268 SL:23
8378  AD 02 20  LDA $2002 = FF                  A:10 X:00 Y:F0 P:25 SP:FA CYC:277 SL:23
837B  10 FB     BPL $8378                       A:10 X:00 Y:F0 P:25 SP:FA CYC:289 SL:23
8378  AD 02 20  LDA $2002 = FF                  A:10 X:00 Y:F0 P:25 SP:FA CYC:298 SL:23
837B  10 FB     BPL $8378                       A:10 X:00 Y:F0 P:25 SP:FA CYC:310 SL:23
8378  AD 02 20  LDA $2002 = FF                  A:10 X:00 Y:F0 P:25 SP:FA CYC:319 SL:23
837B  10 FB     BPL $8378                       A:10 X:00 Y:F0 P:25 SP:FA CYC:331 SL:23
8378  AD 02 20  LDA $2002 = FF                  A:10 X:00 Y:F0 P:25 SP:FA CYC:340 SL:23
837B  10 FB     BPL $8378                       A:10 X:00 Y:F0 P:25 SP:FA CYC: 11 SL:24
8378  AD 02 20  LDA $2002 = FF                  A:10 X:00 Y:F0 P:25 SP:FA CYC: 20 SL:24
837B  10 FB     BPL $8378                       A:10 X:00 Y:F0 P:25 SP:FA CYC: 32 SL:24
8378  AD 02 20  LDA $2002 = FF                  A:10 X:00 Y:F0 P:25 SP:FA CYC: 41 SL:24
837B  10 FB     BPL $8378                       A:10 X:00 Y:F0 P:25 SP:FA CYC: 53 SL:24
8378  AD 02 20  LDA $2002 = FF                  A:10 X:00 Y:F0 P:25 SP:FA CYC: 62 SL:24
837B  10 FB     BPL $8378                       A:10 X:00 Y:F0 P:25 SP:FA CYC: 74 SL:24
8378  AD 02 20  LDA $2002 = FF                  A:10 X:00 Y:F0 P:25 SP:FA CYC: 83 SL:24
837B  10 FB     BPL $8378                       A:10 X:00 Y:F0 P:25 SP:FA CYC: 95 SL:24
8378  AD 02 20  LDA $2002 = FF                  A:10 X:00 Y:F0 P:25 SP:FA CYC:104 SL:24
837B  10 FB     BPL $8378                       A:10 X:00 Y:F0 P:25 SP:FA CYC:116 SL:24
8378  AD 02 20  LDA $2002 = FF                  A:10 X:00 Y:F0 P:25 SP:FA CYC:125 SL:24
837B  10 FB     BPL $8378                       A:10 X:00 Y:F0 P:25 SP:FA CYC:137 SL:24
8378  AD 02 20  LDA $2002 = FF                  A:10 X:00 Y:F0 P:25 SP:FA CYC:146 SL:24
837B  10 FB     BPL $8378                       A:10 X:00 Y:F0 P:25 SP:FA CYC:158 SL:24
8378  AD 02 20  LDA $2002 = FF                  A:10 X:00 Y:F0 P:25 SP:FA CYC:167 SL:24
837B  10 FB     BPL $8378                       A:10 X:00 Y:F0 P:25 SP:FA CYC:179 SL:24
8378  AD 02 20  LDA $2002 = FF                  A:10 X:00 Y:F0 P:25 SP:FA CYC:188 SL:24
837B  10 FB     BPL $8378                       A:10 X:00 Y:F0 P:25 SP:FA CYC:200 SL:24
8378  AD 02 20  LDA $2002 = FF                  A:10 X:00 Y:F0 P:25 SP:FA CYC:209 SL:24
837B  10 FB     BPL $8378                       A:10 X:00 Y:F0 P:25 SP:FA CYC:221 SL:24
8378  AD 02 20  LDA $2002 = FF                  A:10 X:00 Y:F0 P:25 SP:FA CYC:230 SL:24
837B  10 FB     BPL $8378                       A:10 X:00 Y:F0 P:25 SP:FA CYC:242 SL:24
8378  AD 02 20  LDA $2002 = FF                  A:10 X:00 Y:F0 P:25 SP:FA CYC:251 SL:24
837B  10 FB     BPL $8378                       A:10 X:00 Y:F0 P:25 SP:FA CYC:263 SL:24
8378  AD 02 20  LDA $2002 = FF                  A:10 X:00 Y:F0 P:25 SP:FA CYC:272 SL:24
837B  10 FB     BPL $8378                       A:10 X:00 Y:F0 P:25 SP:FA CYC:284 SL:24
8378  AD 02 20  LDA $2002 = FF                  A:10 X:00 Y:F0 P:25 SP:FA CYC:293 SL:24
837B  10 FB     BPL $8378                       A:10 X:00 Y:F0 P:25 SP:FA CYC:305 SL:24
8378  AD 02 20  LDA $2002 = FF                  A:10 X:00 Y:F0 P:25 SP:FA CYC:314 SL:24
837B  10 FB     BPL $8378                       A:10 X:00 Y:F0 P:25 SP:FA CYC:326 SL:24
8378  AD 02 20  LDA $2002 = FF                  A:10 X:00 Y:F0 P:25 SP:FA CYC:335 SL:24
837B  10 FB     BPL $8378                       A:10 X:00 Y:F0 P:25 SP:FA CYC:  6 SL:25
8378  AD 02 20  LDA $2002 = FF                  A:10 X:00 Y:F0 P:25 SP:FA CYC: 15 SL:25
837B  10 FB     BPL $8378                       A:10 X:00 Y:F0 P:25 SP:FA CYC: 27 SL:25
8378  AD 02 20  LDA $2002 = FF                  A:10 X:00 Y:F0 P:25 SP:FA CYC: 36 SL:25
837B  10 FB     BPL $8378                       A:10 X:00 Y:F0 P:25 SP:FA CYC: 48 SL:25
8378  AD 02 20  LDA $2002 = FF                  A:10 X:00 Y:F0 P:25 SP:FA CYC: 57 SL:25
837B  10 FB     BPL $8378                       A:10 X:00 Y:F0 P:25 SP:FA CYC: 69 SL:25
8378  AD 02 20  LDA $2002 = FF                  A:10 X:00 Y:F0 P:25 SP:FA CYC: 78 SL:25
837B  10 FB     BPL $8378                       A:10 X:00 Y:F0 P:25 SP:FA CYC: 90 SL:25
8378  AD 02 20  LDA $2002 = FF                  A:10 X:00 Y:F0 P:25 SP:FA CYC: 99 SL:25
837B  10 FB     BPL $8378                       A:10 X:00 Y:F0 P:25 SP:FA CYC:111 SL:25
8378  AD 02 20  LDA $2002 = FF                  A:10 X:00 Y:F0 P:25 SP:FA CYC:120 SL:25
837B  10 FB     BPL $8378                       A:10 X:00 Y:F0 P:25 SP:FA CYC:132 SL:25
8378  AD 02 20  LDA $2002 = FF                  A:10 X:00 Y:F0 P:25 SP:FA CYC:141 SL:25
837B  10 FB     BPL $8378                       A:10 X:00 Y:F0 P:25 SP:FA CYC:153 SL:25
8378  AD 02 20  LDA $2002 = FF                  A:10 X:00 Y:F0 P:25 SP:FA CYC:162 SL:25
837B  10 FB     BPL $8378                       A:10 X:00 Y:F0 P:25 SP:FA CYC:174 SL:25
8378  AD 02 20  LDA $2002 = FF                  A:10 X:00 Y:F0 P:25 SP:FA CYC:183 SL:25
837B  10 FB     BPL $8378                       A:10 X:00 Y:F0 P:25 SP:FA CYC:195 SL:25
8378  AD 02 20  LDA $2002 = FF                  A:10 X:00 Y:F0 P:25 SP:FA CYC:204 SL:25
837B  10 FB     BPL $8378                       A:10 X:00 Y:F0 P:25 SP:FA CYC:216 SL:25
8378  AD 02 20  LDA $2002 = FF                  A:10 X:00 Y:F0 P:25 SP:FA CYC:225 SL:25
837B  10 FB     BPL $8378                       A:10 X:00 Y:F0 P:25 SP:FA CYC:237 SL:25
8378  AD 02 20  LDA $2002 = FF                  A:10 X:00 Y:F0 P:25 SP:FA CYC:246 SL:25
837B  10 FB     BPL $8378                       A:10 X:00 Y:F0 P:25 SP:FA CYC:258 SL:25
8378  AD 02 20  LDA $2002 = FF                  A:10 X:00 Y:F0 P:25 SP:FA CYC:267 SL:25
837B  10 FB     BPL $8378                       A:10 X:00 Y:F0 P:25 SP:FA CYC:279 SL:25
8378  AD 02 20  LDA $2002 = FF                  A:10 X:00 Y:F0 P:25 SP:FA CYC:288 SL:25
837B  10 FB     BPL $8378                       A:10 X:00 Y:F0 P:25 SP:FA CYC:300 SL:25
8378  AD 02 20  LDA $2002 = FF                  A:10 X:00 Y:F0 P:25 SP:FA CYC:309 SL:25
837B  10 FB     BPL $8378                       A:10 X:00 Y:F0 P:25 SP:FA CYC:321 SL:25
8378  AD 02 20  LDA $2002 = FF                  A:10 X:00 Y:F0 P:25 SP:FA CYC:330 SL:25
837B  10 FB     BPL $8378                       A:10 X:00 Y:F0 P:25 SP:FA CYC:  1 SL:26
8378  AD 02 20  LDA $2002 = FF                  A:10 X:00 Y:F0 P:25 SP:FA CYC: 10 SL:26
837B  10 FB     BPL $8378                       A:10 X:00 Y:F0 P:25 SP:FA CYC: 22 SL:26
8378  AD 02 20  LDA $2002 = FF                  A:10 X:00 Y:F0 P:25 SP:FA CYC: 31 SL:26
837B  10 FB     BPL $8378                       A:10 X:00 Y:F0 P:25 SP:FA CYC: 43 SL:26
8378  AD 02 20  LDA $2002 = FF                  A:10 X:00 Y:F0 P:25 SP:FA CYC: 52 SL:26
837B  10 FB     BPL $8378                       A:10 X:00 Y:F0 P:25 SP:FA CYC: 64 SL:26
8378  AD 02 20  LDA $2002 = FF                  A:10 X:00 Y:F0 P:25 SP:FA CYC: 73 SL:26
837B  10 FB     BPL $8378                       A:10 X:00 Y:F0 P:25 SP:FA CYC: 85 SL:26
8378  AD 02 20  LDA $2002 = FF                  A:10 X:00 Y:F0 P:25 SP:FA CYC: 94 SL:26
837B  10 FB     BPL $8378                       A:10 X:00 Y:F0 P:25 SP:FA CYC:106 SL:26
8378  AD 02 20  LDA $2002 = FF                  A:10 X:00 Y:F0 P:25 SP:FA CYC:115 SL:26
837B  10 FB     BPL $8378                       A:10 X:00 Y:F0 P:25 SP:FA CYC:127 SL:26
8378  AD 02 20  LDA $2002 = FF                  A:10 X:00 Y:F0 P:25 SP:FA CYC:136 SL:26
837B  10 FB     BPL $8378                       A:10 X:00 Y:F0 P:25 SP:FA CYC:148 SL:26
8378  AD 02 20  LDA $2002 = FF                  A:10 X:00 Y:F0 P:25 SP:FA CYC:157 SL:26
837B  10 FB     BPL $8378                       A:10 X:00 Y:F0 P:25 SP:FA CYC:169 SL:26
8378  AD 02 20  LDA $2002 = FF                  A:10 X:00 Y:F0 P:25 SP:FA CYC:178 SL:26
837B  10 FB     BPL $8378                       A:10 X:00 Y:F0 P:25 SP:FA CYC:190 SL:26
8378  AD 02 20  LDA $2002 = FF                  A:10 X:00 Y:F0 P:25 SP:FA CYC:199 SL:26
837B  10 FB     BPL $8378                       A:10 X:00 Y:F0 P:25 SP:FA CYC:211 SL:26
8378  AD 02 20  LDA $2002 = FF                  A:10 X:00 Y:F0 P:25 SP:FA CYC:220 SL:26
837B  10 FB     BPL $8378                       A:10 X:00 Y:F0 P:25 SP:FA CYC:232 SL:26
8378  AD 02 20  LDA $2002 = FF                  A:10 X:00 Y:F0 P:25 SP:FA CYC:241 SL:26
837B  10 FB     BPL $8378                       A:10 X:00 Y:F0 P:25 SP:FA CYC:253 SL:26
8378  AD 02 20  LDA $2002 = FF                  A:10 X:00 Y:F0 P:25 SP:FA CYC:262 SL:26
837B  10 FB     BPL $8378                       A:10 X:00 Y:F0 P:25 SP:FA CYC:274 SL:26
8378  AD 02 20  LDA $2002 = FF                  A:10 X:00 Y:F0 P:25 SP:FA CYC:283 SL:26
837B  10 FB     BPL $8378                       A:10 X:00 Y:F0 P:25 SP:FA CYC:295 SL:26
8378  AD 02 20  LDA $2002 = FF                  A:10 X:00 Y:F0 P:25 SP:FA CYC:304 SL:26
837B  10 FB     BPL $8378                       A:10 X:00 Y:F0 P:25 SP:FA CYC:316 SL:26
8378  AD 02 20  LDA $2002 = FF                  A:10 X:00 Y:F0 P:25 SP:FA CYC:325 SL:26
837B  10 FB     BPL $8378                       A:10 X:00 Y:F0 P:25 SP:FA CYC:337 SL:26
8378  AD 02 20  LDA $2002 = FF                  A:10 X:00 Y:F0 P:25 SP:FA CYC:  5 SL:27
837B  10 FB     BPL $8378                       A:10 X:00 Y:F0 P:25 SP:FA CYC: 17 SL:27
8378  AD 02 20  LDA $2002 = FF                  A:10 X:00 Y:F0 P:25 SP:FA CYC: 26 SL:27
837B  10 FB     BPL $8378                       A:10 X:00 Y:F0 P:25 SP:FA CYC: 38 SL:27
8378  AD 02 20  LDA $2002 = FF                  A:10 X:00 Y:F0 P:25 SP:FA CYC: 47 SL:27
837B  10 FB     BPL $8378                       A:10 X:00 Y:F0 P:25 SP:FA CYC: 59 SL:27
8378  AD 02 20  LDA $2002 = FF                  A:10 X:00 Y:F0 P:25 SP:FA CYC: 68 SL:27
837B  10 FB     BPL $8378                       A:10 X:00 Y:F0 P:25 SP:FA CYC: 80 SL:27
8378  AD 02 20  LDA $2002 = FF                  A:10 X:00 Y:F0 P:25 SP:FA CYC: 89 SL:27
837B  10 FB     BPL $8378                       A:10 X:00 Y:F0 P:25 SP:FA CYC:101 SL:27
8378  AD 02 20  LDA $2002 = FF                  A:10 X:00 Y:F0 P:25 SP:FA CYC:110 SL:27
837B  10 FB     BPL $8378                       A:10 X:00 Y:F0 P:25 SP:FA CYC:122 SL:27
8378  AD 02 20  LDA $2002 = FF                  A:10 X:00 Y:F0 P:25 SP:FA CYC:131 SL:27
837B  10 FB     BPL $8378                       A:10 X:00 Y:F0 P:25 SP:FA CYC:143 SL:27
8378  AD 02 20  LDA $2002 = FF                  A:10 X:00 Y:F0 P:25 SP:FA CYC:152 SL:27
837B  10 FB     BPL $8378                       A:10 X:00 Y:F0 P:25 SP:FA CYC:164 SL:27
8378  AD 02 20  LDA $2002 = FF                  A:10 X:00 Y:F0 P:25 SP:FA CYC:173 SL:27
837B  10 FB     BPL $8378                       A:10 X:00 Y:F0 P:25 SP:FA CYC:185 SL:27
8378  AD 02 20  LDA $2002 = FF                  A:10 X:00 Y:F0 P:25 SP:FA CYC:194 SL:27
837B  10 FB     BPL $8378                       A:10 X:00 Y:F0 P:25 SP:FA CYC:206 SL:27
8378  AD 02 20  LDA $2002 = FF                  A:10 X:00 Y:F0 P:25 SP:FA CYC:215 SL:27
837B  10 FB     BPL $8378                       A:10 X:00 Y:F0 P:25 SP:FA CYC:227 SL:27
8378  AD 02 20  LDA $2002 = FF                  A:10 X:00 Y:F0 P:25 SP:FA CYC:236 SL:27
837B  10 FB     BPL $8378                       A:10 X:00 Y:F0 P:25 SP:FA CYC:248 SL:27
8378  AD 02 20  LDA $2002 = FF                  A:10 X:00 Y:F0 P:25 SP:FA CYC:257 SL:27
837B  10 FB     BPL $8378                       A:10 X:00 Y:F0 P:25 SP:FA CYC:269 SL:27
8378  AD 02 20  LDA $2002 = FF                  A:10 X:00 Y:F0 P:25 SP:FA CYC:278 SL:27
837B  10 FB     BPL $8378                       A:10 X:00 Y:F0 P:25 SP:FA CYC:290 SL:27
8378  AD 02 20  LDA $2002 = FF                  A:10 X:00 Y:F0 P:25 SP:FA CYC:299 SL:27
837B  10 FB     BPL $8378                       A:10 X:00 Y:F0 P:25 SP:FA CYC:311 SL:27
8378  AD 02 20  LDA $2002 = FF                  A:10 X:00 Y:F0 P:25 SP:FA CYC:320 SL:27
837B  10 FB     BPL $8378                       A:10 X:00 Y:F0 P:25 SP:FA CYC:332 SL:27
8378  AD 02 20  LDA $2002 = FF                  A:10 X:00 Y:F0 P:25 SP:FA CYC:  0 SL:28
837B  10 FB     BPL $8378                       A:10 X:00 Y:F0 P:25 SP:FA CYC: 12 SL:28
8378  AD 02 20  LDA $2002 = FF                  A:10 X:00 Y:F0 P:25 SP:FA CYC: 21 SL:28
837B  10 FB     BPL $8378                       A:10 X:00 Y:F0 P:25 SP:FA CYC: 33 SL:28
8378  AD 02 20  LDA $2002 = FF                  A:10 X:00 Y:F0 P:25 SP:FA CYC: 42 SL:28
837B  10 FB     BPL $8378                       A:10 X:00 Y:F0 P:25 SP:FA CYC: 54 SL:28
8378  AD 02 20  LDA $2002 = FF                  A:10 X:00 Y:F0 P:25 SP:FA CYC: 63 SL:28
837B  10 FB     BPL $8378                       A:10 X:00 Y:F0 P:25 SP:FA CYC: 75 SL:28
8378  AD 02 20  LDA $2002 = FF                  A:10 X:00 Y:F0 P:25 SP:FA CYC: 84 SL:28
837B  10 FB     BPL $8378                       A:10 X:00 Y:F0 P:25 SP:FA CYC: 96 SL:28
8378  AD 02 20  LDA $2002 = FF                  A:10 X:00 Y:F0 P:25 SP:FA CYC:105 SL:28
837B  10 FB     BPL $8378                       A:10 X:00 Y:F0 P:25 SP:FA CYC:117 SL:28
8378  AD 02 20  LDA $2002 = FF                  A:10 X:00 Y:F0 P:25 SP:FA CYC:126 SL:28
837B  10 FB     BPL $8378                       A:10 X:00 Y:F0 P:25 SP:FA CYC:138 SL:28
8378  AD 02 20  LDA $2002 = FF                  A:10 X:00 Y:F0 P:25 SP:FA CYC:147 SL:28
837B  10 FB     BPL $8378                       A:10 X:00 Y:F0 P:25 SP:FA CYC:159 SL:28
8378  AD 02 20  LDA $2002 = FF                  A:10 X:00 Y:F0 P:25 SP:FA CYC:168 SL:28
837B  10 FB     BPL $8378                       A:10 X:00 Y:F0 P:25 SP:FA CYC:180 SL:28
8378  AD 02 20  LDA $2002 = FF                  A:10 X:00 Y:F0 P:25 SP:FA CYC:189 SL:28
837B  10 FB     BPL $8378                       A:10 X:00 Y:F0 P:25 SP:FA CYC:201 SL:28
8378  AD 02 20  LDA $2002 = FF                  A:10 X:00 Y:F0 P:25 SP:FA CYC:210 SL:28
837B  10 FB     BPL $8378                       A:10 X:00 Y:F0 P:25 SP:FA CYC:222 SL:28
8378  AD 02 20  LDA $2002 = FF                  A:10 X:00 Y:F0 P:25 SP:FA CYC:231 SL:28
837B  10 FB     BPL $8378                       A:10 X:00 Y:F0 P:25 SP:FA CYC:243 SL:28
8378  AD 02 20  LDA $2002 = FF                  A:10 X:00 Y:F0 P:25 SP:FA CYC:252 SL:28
837B  10 FB     BPL $8378                       A:10 X:00 Y:F0 P:25 SP:FA CYC:264 SL:28
8378  AD 02 20  LDA $2002 = FF                  A:10 X:00 Y:F0 P:25 SP:FA CYC:273 SL:28
837B  10 FB     BPL $8378                       A:10 X:00 Y:F0 P:25 SP:FA CYC:285 SL:28
8378  AD 02 20  LDA $2002 = FF                  A:10 X:00 Y:F0 P:25 SP:FA CYC:294 SL:28
837B  10 FB     BPL $8378                       A:10 X:00 Y:F0 P:25 SP:FA CYC:306 SL:28
8378  AD 02 20  LDA $2002 = FF                  A:10 X:00 Y:F0 P:25 SP:FA CYC:315 SL:28
837B  10 FB     BPL $8378                       A:10 X:00 Y:F0 P:25 SP:FA CYC:327 SL:28
8378  AD 02 20  LDA $2002 = FF                  A:10 X:00 Y:F0 P:25 SP:FA CYC:336 SL:28
837B  10 FB     BPL $8378                       A:10 X:00 Y:F0 P:25 SP:FA CYC:  7 SL:29
8378  AD 02 20  LDA $2002 = FF                  A:10 X:00 Y:F0 P:25 SP:FA CYC: 16 SL:29
837B  10 FB     BPL $8378                       A:10 X:00 Y:F0 P:25 SP:FA CYC: 28 SL:29
8378  AD 02 20  LDA $2002 = FF                  A:10 X:00 Y:F0 P:25 SP:FA CYC: 37 SL:29
837B  10 FB     BPL $8378                       A:10 X:00 Y:F0 P:25 SP:FA CYC: 49 SL:29
8378  AD 02 20  LDA $2002 = FF                  A:10 X:00 Y:F0 P:25 SP:FA CYC: 58 SL:29
837B  10 FB     BPL $8378                       A:10 X:00 Y:F0 P:25 SP:FA CYC: 70 SL:29
8378  AD 02 20  LDA $2002 = FF                  A:10 X:00 Y:F0 P:25 SP:FA CYC: 79 SL:29
837B  10 FB     BPL $8378                       A:10 X:00 Y:F0 P:25 SP:FA CYC: 91 SL:29
8378  AD 02 20  LDA $2002 = FF                  A:10 X:00 Y:F0 P:25 SP:FA CYC:100 SL:29
837B  10 FB     BPL $8378                       A:10 X:00 Y:F0 P:25 SP:FA CYC:112 SL:29
8378  AD 02 20  LDA $2002 = FF                  A:10 X:00 Y:F0 P:25 SP:FA CYC:121 SL:29
837B  10 FB     BPL $8378                       A:10 X:00 Y:F0 P:25 SP:FA CYC:133 SL:29
8378  AD 02 20  LDA $2002 = FF                  A:10 X:00 Y:F0 P:25 SP:FA CYC:142 SL:29
837B  10 FB     BPL $8378                       A:10 X:00 Y:F0 P:25 SP:FA CYC:154 SL:29
8378  AD 02 20  LDA $2002 = FF                  A:10 X:00 Y:F0 P:25 SP:FA CYC:163 SL:29
837B  10 FB     BPL $8378                       A:10 X:00 Y:F0 P:25 SP:FA CYC:175 SL:29
8378  AD 02 20  LDA $2002 = FF                  A:10 X:00 Y:F0 P:25 SP:FA CYC:184 SL:29
837B  10 FB     BPL $8378                       A:10 X:00 Y:F0 P:25 SP:FA CYC:196 SL:29
8378  AD 02 20  LDA $2002 = FF                  A:10 X:00 Y:F0 P:25 SP:FA CYC:205 SL:29
837B  10 FB     BPL $8378                       A:10 X:00 Y:F0 P:25 SP:FA CYC:217 SL:29
8378  AD 02 20  LDA $2002 = FF                  A:10 X:00 Y:F0 P:25 SP:FA CYC:226 SL:29
837B  10 FB     BPL $8378                       A:10 X:00 Y:F0 P:25 SP:FA CYC:238 SL:29
8378  AD 02 20  LDA $2002 = FF                  A:10 X:00 Y:F0 P:25 SP:FA CYC:247 SL:29
837B  10 FB     BPL $8378                       A:10 X:00 Y:F0 P:25 SP:FA CYC:259 SL:29
8378  AD 02 20  LDA $2002 = FF                  A:10 X:00 Y:F0 P:25 SP:FA CYC:268 SL:29
837B  10 FB     BPL $8378                       A:10 X:00 Y:F0 P:25 SP:FA CYC:280 SL:29
8378  AD 02 20  LDA $2002 = FF                  A:10 X:00 Y:F0 P:25 SP:FA CYC:289 SL:29
837B  10 FB     BPL $8378                       A:10 X:00 Y:F0 P:25 SP:FA CYC:301 SL:29
8378  AD 02 20  LDA $2002 = FF                  A:10 X:00 Y:F0 P:25 SP:FA CYC:310 SL:29
837B  10 FB     BPL $8378                       A:10 X:00 Y:F0 P:25 SP:FA CYC:322 SL:29
8378  AD 02 20  LDA $2002 = FF                  A:10 X:00 Y:F0 P:25 SP:FA CYC:331 SL:29
837B  10 FB     BPL $8378                       A:10 X:00 Y:F0 P:25 SP:FA CYC:  2 SL:30
8378  AD 02 20  LDA $2002 = FF                  A:10 X:00 Y:F0 P:25 SP:FA CYC: 11 SL:30
837B  10 FB     BPL $8378                       A:10 X:00 Y:F0 P:25 SP:FA CYC: 23 SL:30
8378  AD 02 20  LDA $2002 = FF                  A:10 X:00 Y:F0 P:25 SP:FA CYC: 32 SL:30
837B  10 FB     BPL $8378                       A:10 X:00 Y:F0 P:25 SP:FA CYC: 44 SL:30
8378  AD 02 20  LDA $2002 = FF                  A:10 X:00 Y:F0 P:25 SP:FA CYC: 53 SL:30
837B  10 FB     BPL $8378                       A:10 X:00 Y:F0 P:25 SP:FA CYC: 65 SL:30
8378  AD 02 20  LDA $2002 = FF                  A:10 X:00 Y:F0 P:25 SP:FA CYC: 74 SL:30
837B  10 FB     BPL $8378                       A:10 X:00 Y:F0 P:25 SP:FA CYC: 86 SL:30
8378  AD 02 20  LDA $2002 = FF                  A:10 X:00 Y:F0 P:25 SP:FA CYC: 95 SL:30
837B  10 FB     BPL $8378                       A:10 X:00 Y:F0 P:25 SP:FA CYC:107 SL:30
8378  AD 02 20  LDA $2002 = FF                  A:10 X:00 Y:F0 P:25 SP:FA CYC:116 SL:30
837B  10 FB     BPL $8378                       A:10 X:00 Y:F0 P:25 SP:FA CYC:128 SL:30
8378  AD 02 20  LDA $2002 = FF                  A:10 X:00 Y:F0 P:25 SP:FA CYC:137 SL:30
837B  10 FB     BPL $8378                       A:10 X:00 Y:F0 P:25 SP:FA CYC:149 SL:30
8378  AD 02 20  LDA $2002 = FF                  A:10 X:00 Y:F0 P:25 SP:FA CYC:158 SL:30
837B  10 FB     BPL $8378                       A:10 X:00 Y:F0 P:25 SP:FA CYC:170 SL:30
8378  AD 02 20  LDA $2002 = FF                  A:10 X:00 Y:F0 P:25 SP:FA CYC:179 SL:30
837B  10 FB     BPL $8378                       A:10 X:00 Y:F0 P:25 SP:FA CYC:191 SL:30
8378  AD 02 20  LDA $2002 = FF                  A:10 X:00 Y:F0 P:25 SP:FA CYC:200 SL:30
837B  10 FB     BPL $8378                       A:10 X:00 Y:F0 P:25 SP:FA CYC:212 SL:30
8378  AD 02 20  LDA $2002 = FF                  A:10 X:00 Y:F0 P:25 SP:FA CYC:221 SL:30
837B  10 FB     BPL $8378                       A:10 X:00 Y:F0 P:25 SP:FA CYC:233 SL:30
8378  AD 02 20  LDA $2002 = FF                  A:10 X:00 Y:F0 P:25 SP:FA CYC:242 SL:30
837B  10 FB     BPL $8378                       A:10 X:00 Y:F0 P:25 SP:FA CYC:254 SL:30
8378  AD 02 20  LDA $2002 = FF                  A:10 X:00 Y:F0 P:25 SP:FA CYC:263 SL:30
837B  10 FB     BPL $8378                       A:10 X:00 Y:F0 P:25 SP:FA CYC:275 SL:30
8378  AD 02 20  LDA $2002 = FF                  A:10 X:00 Y:F0 P:25 SP:FA CYC:284 SL:30
837B  10 FB     BPL $8378                       A:10 X:00 Y:F0 P:25 SP:FA CYC:296 SL:30
8378  AD 02 20  LDA $2002 = FF                  A:10 X:00 Y:F0 P:25 SP:FA CYC:305 SL:30
837B  10 FB     BPL $8378                       A:10 X:00 Y:F0 P:25 SP:FA CYC:317 SL:30
8378  AD 02 20  LDA $2002 = FF                  A:10 X:00 Y:F0 P:25 SP:FA CYC:326 SL:30
837B  10 FB     BPL $8378                       A:10 X:00 Y:F0 P:25 SP:FA CYC:338 SL:30
8378  AD 02 20  LDA $2002 = FF                  A:10 X:00 Y:F0 P:25 SP:FA CYC:  6 SL:31
837B  10 FB     BPL $8378                       A:10 X:00 Y:F0 P:25 SP:FA CYC: 18 SL:31
8378  AD 02 20  LDA $2002 = FF                  A:10 X:00 Y:F0 P:25 SP:FA CYC: 27 SL:31
837B  10 FB     BPL $8378                       A:10 X:00 Y:F0 P:25 SP:FA CYC: 39 SL:31
8378  AD 02 20  LDA $2002 = FF                  A:10 X:00 Y:F0 P:25 SP:FA CYC: 48 SL:31
837B  10 FB     BPL $8378                       A:10 X:00 Y:F0 P:25 SP:FA CYC: 60 SL:31
8378  AD 02 20  LDA $2002 = FF                  A:10 X:00 Y:F0 P:25 SP:FA CYC: 69 SL:31
837B  10 FB     BPL $8378                       A:10 X:00 Y:F0 P:25 SP:FA CYC: 81 SL:31
8378  AD 02 20  LDA $2002 = FF                  A:10 X:00 Y:F0 P:25 SP:FA CYC: 90 SL:31
837B  10 FB     BPL $8378                       A:10 X:00 Y:F0 P:25 SP:FA CYC:102 SL:31
8378  AD 02 20  LDA $2002 = FF                  A:10 X:00 Y:F0 P:25 SP:FA CYC:111 SL:31
837B  10 FB     BPL $8378                       A:10 X:00 Y:F0 P:25 SP:FA CYC:123 SL:31
8378  AD 02 20  LDA $2002 = FF                  A:10 X:00 Y:F0 P:25 SP:FA CYC:132 SL:31
837B  10 FB     BPL $8378                       A:10 X:00 Y:F0 P:25 SP:FA CYC:144 SL:31
8378  AD 02 20  LDA $2002 = FF                  A:10 X:00 Y:F0 P:25 SP:FA CYC:153 SL:31
837B  10 FB     BPL $8378                       A:10 X:00 Y:F0 P:25 SP:FA CYC:165 SL:31
8378  AD 02 20  LDA $2002 = FF                  A:10 X:00 Y:F0 P:25 SP:FA CYC:174 SL:31
837B  10 FB     BPL $8378                       A:10 X:00 Y:F0 P:25 SP:FA CYC:186 SL:31
8378  AD 02 20  LDA $2002 = FF                  A:10 X:00 Y:F0 P:25 SP:FA CYC:195 SL:31
837B  10 FB     BPL $8378                       A:10 X:00 Y:F0 P:25 SP:FA CYC:207 SL:31
8378  AD 02 20  LDA $2002 = FF                  A:10 X:00 Y:F0 P:25 SP:FA CYC:216 SL:31
837B  10 FB     BPL $8378                       A:10 X:00 Y:F0 P:25 SP:FA CYC:228 SL:31
8378  AD 02 20  LDA $2002 = FF                  A:10 X:00 Y:F0 P:25 SP:FA CYC:237 SL:31
837B  10 FB     BPL $8378                       A:10 X:00 Y:F0 P:25 SP:FA CYC:249 SL:31
8378  AD 02 20  LDA $2002 = FF                  A:10 X:00 Y:F0 P:25 SP:FA CYC:258 SL:31
837B  10 FB     BPL $8378                       A:10 X:00 Y:F0 P:25 SP:FA CYC:270 SL:31
8378  AD 02 20  LDA $2002 = FF                  A:10 X:00 Y:F0 P:25 SP:FA CYC:279 SL:31
837B  10 FB     BPL $8378                       A:10 X:00 Y:F0 P:25 SP:FA CYC:291 SL:31
8378  AD 02 20  LDA $2002 = FF                  A:10 X:00 Y:F0 P:25 SP:FA CYC:300 SL:31
837B  10 FB     BPL $8378                       A:10 X:00 Y:F0 P:25 SP:FA CYC:312 SL:31
8378  AD 02 20  LDA $2002 = FF                  A:10 X:00 Y:F0 P:25 SP:FA CYC:321 SL:31
837B  10 FB     BPL $8378                       A:10 X:00 Y:F0 P:25 SP:FA CYC:333 SL:31
8378  AD 02 20  LDA $2002 = FF                  A:10 X:00 Y:F0 P:25 SP:FA CYC:  1 SL:32
837B  10 FB     BPL $8378                       A:10 X:00 Y:F0 P:25 SP:FA CYC: 13 SL:32
8378  AD 02 20  LDA $2002 = FF                  A:10 X:00 Y:F0 P:25 SP:FA CYC: 22 SL:32
837B  10 FB     BPL $8378                       A:10 X:00 Y:F0 P:25 SP:FA CYC: 34 SL:32
8378  AD 02 20  LDA $2002 = FF                  A:10 X:00 Y:F0 P:25 SP:FA CYC: 43 SL:32
837B  10 FB     BPL $8378                       A:10 X:00 Y:F0 P:25 SP:FA CYC: 55 SL:32
8378  AD 02 20  LDA $2002 = FF                  A:10 X:00 Y:F0 P:25 SP:FA CYC: 64 SL:32
837B  10 FB     BPL $8378                       A:10 X:00 Y:F0 P:25 SP:FA CYC: 76 SL:32
8378  AD 02 20  LDA $2002 = FF                  A:10 X:00 Y:F0 P:25 SP:FA CYC: 85 SL:32
837B  10 FB     BPL $8378                       A:10 X:00 Y:F0 P:25 SP:FA CYC: 97 SL:32
8378  AD 02 20  LDA $2002 = FF                  A:10 X:00 Y:F0 P:25 SP:FA CYC:106 SL:32
837B  10 FB     BPL $8378                       A:10 X:00 Y:F0 P:25 SP:FA CYC:118 SL:32
8378  AD 02 20  LDA $2002 = FF                  A:10 X:00 Y:F0 P:25 SP:FA CYC:127 SL:32
837B  10 FB     BPL $8378                       A:10 X:00 Y:F0 P:25 SP:FA CYC:139 SL:32
8378  AD 02 20  LDA $2002 = FF                  A:10 X:00 Y:F0 P:25 SP:FA CYC:148 SL:32
837B  10 FB     BPL $8378                       A:10 X:00 Y:F0 P:25 SP:FA CYC:160 SL:32
8378  AD 02 20  LDA $2002 = FF                  A:10 X:00 Y:F0 P:25 SP:FA CYC:169 SL:32
837B  10 FB     BPL $8378                       A:10 X:00 Y:F0 P:25 SP:FA CYC:181 SL:32
8378  AD 02 20  LDA $2002 = FF                  A:10 X:00 Y:F0 P:25 SP:FA CYC:190 SL:32
837B  10 FB     BPL $8378                       A:10 X:00 Y:F0 P:25 SP:FA CYC:202 SL:32
8378  AD 02 20  LDA $2002 = FF                  A:10 X:00 Y:F0 P:25 SP:FA CYC:211 SL:32
837B  10 FB     BPL $8378                       A:10 X:00 Y:F0 P:25 SP:FA CYC:223 SL:32
8378  AD 02 20  LDA $2002 = FF                  A:10 X:00 Y:F0 P:25 SP:FA CYC:232 SL:32
837B  10 FB     BPL $8378                       A:10 X:00 Y:F0 P:25 SP:FA CYC:244 SL:32
8378  AD 02 20  LDA $2002 = FF                  A:10 X:00 Y:F0 P:25 SP:FA CYC:253 SL:32
837B  10 FB     BPL $8378                       A:10 X:00 Y:F0 P:25 SP:FA CYC:265 SL:32
8378  AD 02 20  LDA $2002 = FF                  A:10 X:00 Y:F0 P:25 SP:FA CYC:274 SL:32
837B  10 FB     BPL $8378                       A:10 X:00 Y:F0 P:25 SP:FA CYC:286 SL:32
8378  AD 02 20  LDA $2002 = FF                  A:10 X:00 Y:F0 P:25 SP:FA CYC:295 SL:32
837B  10 FB     BPL $8378                       A:10 X:00 Y:F0 P:25 SP:FA CYC:307 SL:32
8378  AD 02 20  LDA $2002 = FF                  A:10 X:00 Y:F0 P:25 SP:FA CYC:316 SL:32
837B  10 FB     BPL $8378                       A:10 X:00 Y:F0 P:25 SP:FA CYC:328 SL:32
8378  AD 02 20  LDA $2002 = FF                  A:10 X:00 Y:F0 P:25 SP:FA CYC:337 SL:32
837B  10 FB     BPL $8378                       A:10 X:00 Y:F0 P:25 SP:FA CYC:  8 SL:33
8378  AD 02 20  LDA $2002 = FF                  A:10 X:00 Y:F0 P:25 SP:FA CYC: 17 SL:33
837B  10 FB     BPL $8378                       A:10 X:00 Y:F0 P:25 SP:FA CYC: 29 SL:33
8378  AD 02 20  LDA $2002 = FF                  A:10 X:00 Y:F0 P:25 SP:FA CYC: 38 SL:33
837B  10 FB     BPL $8378                       A:10 X:00 Y:F0 P:25 SP:FA CYC: 50 SL:33
8378  AD 02 20  LDA $2002 = FF                  A:10 X:00 Y:F0 P:25 SP:FA CYC: 59 SL:33
837B  10 FB     BPL $8378                       A:10 X:00 Y:F0 P:25 SP:FA CYC: 71 SL:33
8378  AD 02 20  LDA $2002 = FF                  A:10 X:00 Y:F0 P:25 SP:FA CYC: 80 SL:33
837B  10 FB     BPL $8378                       A:10 X:00 Y:F0 P:25 SP:FA CYC: 92 SL:33
8378  AD 02 20  LDA $2002 = FF                  A:10 X:00 Y:F0 P:25 SP:FA CYC:101 SL:33
837B  10 FB     BPL $8378                       A:10 X:00 Y:F0 P:25 SP:FA CYC:113 SL:33
8378  AD 02 20  LDA $2002 = FF                  A:10 X:00 Y:F0 P:25 SP:FA CYC:122 SL:33
837B  10 FB     BPL $8378                       A:10 X:00 Y:F0 P:25 SP:FA CYC:134 SL:33
8378  AD 02 20  LDA $2002 = FF                  A:10 X:00 Y:F0 P:25 SP:FA CYC:143 SL:33
837B  10 FB     BPL $8378                       A:10 X:00 Y:F0 P:25 SP:FA CYC:155 SL:33
8378  AD 02 20  LDA $2002 = FF                  A:10 X:00 Y:F0 P:25 SP:FA CYC:164 SL:33
837B  10 FB     BPL $8378                       A:10 X:00 Y:F0 P:25 SP:FA CYC:176 SL:33
8378  AD 02 20  LDA $2002 = FF                  A:10 X:00 Y:F0 P:25 SP:FA CYC:185 SL:33
837B  10 FB     BPL $8378                       A:10 X:00 Y:F0 P:25 SP:FA CYC:197 SL:33
8378  AD 02 20  LDA $2002 = FF                  A:10 X:00 Y:F0 P:25 SP:FA CYC:206 SL:33
837B  10 FB     BPL $8378                       A:10 X:00 Y:F0 P:25 SP:FA CYC:218 SL:33
8378  AD 02 20  LDA $2002 = FF                  A:10 X:00 Y:F0 P:25 SP:FA CYC:227 SL:33
837B  10 FB     BPL $8378                       A:10 X:00 Y:F0 P:25 SP:FA CYC:239 SL:33
8378  AD 02 20  LDA $2002 = FF                  A:10 X:00 Y:F0 P:25 SP:FA CYC:248 SL:33
837B  10 FB     BPL $8378                       A:10 X:00 Y:F0 P:25 SP:FA CYC:260 SL:33
8378  AD 02 20  LDA $2002 = FF                  A:10 X:00 Y:F0 P:25 SP:FA CYC:269 SL:33
837B  10 FB     BPL $8378                       A:10 X:00 Y:F0 P:25 SP:FA CYC:281 SL:33
8378  AD 02 20  LDA $2002 = FF                  A:10 X:00 Y:F0 P:25 SP:FA CYC:290 SL:33
837B  10 FB     BPL $8378                       A:10 X:00 Y:F0 P:25 SP:FA CYC:302 SL:33
8378  AD 02 20  LDA $2002 = FF                  A:10 X:00 Y:F0 P:25 SP:FA CYC:311 SL:33
837B  10 FB     BPL $8378                       A:10 X:00 Y:F0 P:25 SP:FA CYC:323 SL:33
8378  AD 02 20  LDA $2002 = FF                  A:10 X:00 Y:F0 P:25 SP:FA CYC:332 SL:33
837B  10 FB     BPL $8378                       A:10 X:00 Y:F0 P:25 SP:FA CYC:  3 SL:34
8378  AD 02 20  LDA $2002 = FF                  A:10 X:00 Y:F0 P:25 SP:FA CYC: 12 SL:34
837B  10 FB     BPL $8378                       A:10 X:00 Y:F0 P:25 SP:FA CYC: 24 SL:34
8378  AD 02 20  LDA $2002 = FF                  A:10 X:00 Y:F0 P:25 SP:FA CYC: 33 SL:34
837B  10 FB     BPL $8378                       A:10 X:00 Y:F0 P:25 SP:FA CYC: 45 SL:34
8378  AD 02 20  LDA $2002 = FF                  A:10 X:00 Y:F0 P:25 SP:FA CYC: 54 SL:34
837B  10 FB     BPL $8378                       A:10 X:00 Y:F0 P:25 SP:FA CYC: 66 SL:34
8378  AD 02 20  LDA $2002 = FF                  A:10 X:00 Y:F0 P:25 SP:FA CYC: 75 SL:34
837B  10 FB     BPL $8378                       A:10 X:00 Y:F0 P:25 SP:FA CYC: 87 SL:34
8378  AD 02 20  LDA $2002 = FF                  A:10 X:00 Y:F0 P:25 SP:FA CYC: 96 SL:34
837B  10 FB     BPL $8378                       A:10 X:00 Y:F0 P:25 SP:FA CYC:108 SL:34
8378  AD 02 20  LDA $2002 = FF                  A:10 X:00 Y:F0 P:25 SP:FA CYC:117 SL:34
837B  10 FB     BPL $8378                       A:10 X:00 Y:F0 P:25 SP:FA CYC:129 SL:34
8378  AD 02 20  LDA $2002 = FF                  A:10 X:00 Y:F0 P:25 SP:FA CYC:138 SL:34
837B  10 FB     BPL $8378                       A:10 X:00 Y:F0 P:25 SP:FA CYC:150 SL:34
8378  AD 02 20  LDA $2002 = FF                  A:10 X:00 Y:F0 P:25 SP:FA CYC:159 SL:34
837B  10 FB     BPL $8378                       A:10 X:00 Y:F0 P:25 SP:FA CYC:171 SL:34
8378  AD 02 20  LDA $2002 = FF                  A:10 X:00 Y:F0 P:25 SP:FA CYC:180 SL:34
837B  10 FB     BPL $8378                       A:10 X:00 Y:F0 P:25 SP:FA CYC:192 SL:34
8378  AD 02 20  LDA $2002 = FF                  A:10 X:00 Y:F0 P:25 SP:FA CYC:201 SL:34
837B  10 FB     BPL $8378                       A:10 X:00 Y:F0 P:25 SP:FA CYC:213 SL:34
8378  AD 02 20  LDA $2002 = FF                  A:10 X:00 Y:F0 P:25 SP:FA CYC:222 SL:34
837B  10 FB     BPL $8378                       A:10 X:00 Y:F0 P:25 SP:FA CYC:234 SL:34
8378  AD 02 20  LDA $2002 = FF                  A:10 X:00 Y:F0 P:25 SP:FA CYC:243 SL:34
837B  10 FB     BPL $8378                       A:10 X:00 Y:F0 P:25 SP:FA CYC:255 SL:34
8378  AD 02 20  LDA $2002 = FF                  A:10 X:00 Y:F0 P:25 SP:FA CYC:264 SL:34
837B  10 FB     BPL $8378                       A:10 X:00 Y:F0 P:25 SP:FA CYC:276 SL:34
8378  AD 02 20  LDA $2002 = FF                  A:10 X:00 Y:F0 P:25 SP:FA CYC:285 SL:34
837B  10 FB     BPL $8378                       A:10 X:00 Y:F0 P:25 SP:FA CYC:297 SL:34
8378  AD 02 20  LDA $2002 = FF                  A:10 X:00 Y:F0 P:25 SP:FA CYC:306 SL:34
837B  10 FB     BPL $8378                       A:10 X:00 Y:F0 P:25 SP:FA CYC:318 SL:34
8378  AD 02 20  LDA $2002 = FF                  A:10 X:00 Y:F0 P:25 SP:FA CYC:327 SL:34
837B  10 FB     BPL $8378                       A:10 X:00 Y:F0 P:25 SP:FA CYC:339 SL:34
8378  AD 02 20  LDA $2002 = FF                  A:10 X:00 Y:F0 P:25 SP:FA CYC:  7 SL:35
837B  10 FB     BPL $8378                       A:10 X:00 Y:F0 P:25 SP:FA CYC: 19 SL:35
8378  AD 02 20  LDA $2002 = FF                  A:10 X:00 Y:F0 P:25 SP:FA CYC: 28 SL:35
837B  10 FB     BPL $8378                       A:10 X:00 Y:F0 P:25 SP:FA CYC: 40 SL:35
8378  AD 02 20  LDA $2002 = FF                  A:10 X:00 Y:F0 P:25 SP:FA CYC: 49 SL:35
837B  10 FB     BPL $8378                       A:10 X:00 Y:F0 P:25 SP:FA CYC: 61 SL:35
8378  AD 02 20  LDA $2002 = FF                  A:10 X:00 Y:F0 P:25 SP:FA CYC: 70 SL:35
837B  10 FB     BPL $8378                       A:10 X:00 Y:F0 P:25 SP:FA CYC: 82 SL:35
8378  AD 02 20  LDA $2002 = FF                  A:10 X:00 Y:F0 P:25 SP:FA CYC: 91 SL:35
837B  10 FB     BPL $8378                       A:10 X:00 Y:F0 P:25 SP:FA CYC:103 SL:35
8378  AD 02 20  LDA $2002 = FF                  A:10 X:00 Y:F0 P:25 SP:FA CYC:112 SL:35
837B  10 FB     BPL $8378                       A:10 X:00 Y:F0 P:25 SP:FA CYC:124 SL:35
8378  AD 02 20  LDA $2002 = FF                  A:10 X:00 Y:F0 P:25 SP:FA CYC:133 SL:35
837B  10 FB     BPL $8378                       A:10 X:00 Y:F0 P:25 SP:FA CYC:145 SL:35
8378  AD 02 20  LDA $2002 = FF                  A:10 X:00 Y:F0 P:25 SP:FA CYC:154 SL:35
837B  10 FB     BPL $8378                       A:10 X:00 Y:F0 P:25 SP:FA CYC:166 SL:35
8378  AD 02 20  LDA $2002 = FF                  A:10 X:00 Y:F0 P:25 SP:FA CYC:175 SL:35
837B  10 FB     BPL $8378                       A:10 X:00 Y:F0 P:25 SP:FA CYC:187 SL:35
8378  AD 02 20  LDA $2002 = FF                  A:10 X:00 Y:F0 P:25 SP:FA CYC:196 SL:35
837B  10 FB     BPL $8378                       A:10 X:00 Y:F0 P:25 SP:FA CYC:208 SL:35
8378  AD 02 20  LDA $2002 = FF                  A:10 X:00 Y:F0 P:25 SP:FA CYC:217 SL:35
837B  10 FB     BPL $8378                       A:10 X:00 Y:F0 P:25 SP:FA CYC:229 SL:35
8378  AD 02 20  LDA $2002 = FF                  A:10 X:00 Y:F0 P:25 SP:FA CYC:238 SL:35
837B  10 FB     BPL $8378                       A:10 X:00 Y:F0 P:25 SP:FA CYC:250 SL:35
8378  AD 02 20  LDA $2002 = FF                  A:10 X:00 Y:F0 P:25 SP:FA CYC:259 SL:35
837B  10 FB     BPL $8378                       A:10 X:00 Y:F0 P:25 SP:FA CYC:271 SL:35
8378  AD 02 20  LDA $2002 = FF                  A:10 X:00 Y:F0 P:25 SP:FA CYC:280 SL:35
837B  10 FB     BPL $8378                       A:10 X:00 Y:F0 P:25 SP:FA CYC:292 SL:35
8378  AD 02 20  LDA $2002 = FF                  A:10 X:00 Y:F0 P:25 SP:FA CYC:301 SL:35
837B  10 FB     BPL $8378                       A:10 X:00 Y:F0 P:25 SP:FA CYC:313 SL:35
8378  AD 02 20  LDA $2002 = FF                  A:10 X:00 Y:F0 P:25 SP:FA CYC:322 SL:35
837B  10 FB     BPL $8378                       A:10 X:00 Y:F0 P:25 SP:FA CYC:334 SL:35
8378  AD 02 20  LDA $2002 = FF                  A:10 X:00 Y:F0 P:25 SP:FA CYC:  2 SL:36
837B  10 FB     BPL $8378                       A:10 X:00 Y:F0 P:25 SP:FA CYC: 14 SL:36
8378  AD 02 20  LDA $2002 = FF                  A:10 X:00 Y:F0 P:25 SP:FA CYC: 23 SL:36
837B  10 FB     BPL $8378                       A:10 X:00 Y:F0 P:25 SP:FA CYC: 35 SL:36
8378  AD 02 20  LDA $2002 = FF                  A:10 X:00 Y:F0 P:25 SP:FA CYC: 44 SL:36
837B  10 FB     BPL $8378                       A:10 X:00 Y:F0 P:25 SP:FA CYC: 56 SL:36
8378  AD 02 20  LDA $2002 = FF                  A:10 X:00 Y:F0 P:25 SP:FA CYC: 65 SL:36
837B  10 FB     BPL $8378                       A:10 X:00 Y:F0 P:25 SP:FA CYC: 77 SL:36
8378  AD 02 20  LDA $2002 = FF                  A:10 X:00 Y:F0 P:25 SP:FA CYC: 86 SL:36
837B  10 FB     BPL $8378                       A:10 X:00 Y:F0 P:25 SP:FA CYC: 98 SL:36
8378  AD 02 20  LDA $2002 = FF                  A:10 X:00 Y:F0 P:25 SP:FA CYC:107 SL:36
837B  10 FB     BPL $8378                       A:10 X:00 Y:F0 P:25 SP:FA CYC:119 SL:36
8378  AD 02 20  LDA $2002 = FF                  A:10 X:00 Y:F0 P:25 SP:FA CYC:128 SL:36
837B  10 FB     BPL $8378                       A:10 X:00 Y:F0 P:25 SP:FA CYC:140 SL:36
8378  AD 02 20  LDA $2002 = FF                  A:10 X:00 Y:F0 P:25 SP:FA CYC:149 SL:36
837B  10 FB     BPL $8378                       A:10 X:00 Y:F0 P:25 SP:FA CYC:161 SL:36
8378  AD 02 20  LDA $2002 = FF                  A:10 X:00 Y:F0 P:25 SP:FA CYC:170 SL:36
837B  10 FB     BPL $8378                       A:10 X:00 Y:F0 P:25 SP:FA CYC:182 SL:36
8378  AD 02 20  LDA $2002 = FF                  A:10 X:00 Y:F0 P:25 SP:FA CYC:191 SL:36
837B  10 FB     BPL $8378                       A:10 X:00 Y:F0 P:25 SP:FA CYC:203 SL:36
8378  AD 02 20  LDA $2002 = FF                  A:10 X:00 Y:F0 P:25 SP:FA CYC:212 SL:36
837B  10 FB     BPL $8378                       A:10 X:00 Y:F0 P:25 SP:FA CYC:224 SL:36
8378  AD 02 20  LDA $2002 = FF                  A:10 X:00 Y:F0 P:25 SP:FA CYC:233 SL:36
837B  10 FB     BPL $8378                       A:10 X:00 Y:F0 P:25 SP:FA CYC:245 SL:36
8378  AD 02 20  LDA $2002 = FF                  A:10 X:00 Y:F0 P:25 SP:FA CYC:254 SL:36
837B  10 FB     BPL $8378                       A:10 X:00 Y:F0 P:25 SP:FA CYC:266 SL:36
8378  AD 02 20  LDA $2002 = FF                  A:10 X:00 Y:F0 P:25 SP:FA CYC:275 SL:36
837B  10 FB     BPL $8378                       A:10 X:00 Y:F0 P:25 SP:FA CYC:287 SL:36
8378  AD 02 20  LDA $2002 = FF                  A:10 X:00 Y:F0 P:25 SP:FA CYC:296 SL:36
837B  10 FB     BPL $8378                       A:10 X:00 Y:F0 P:25 SP:FA CYC:308 SL:36
8378  AD 02 20  LDA $2002 = FF                  A:10 X:00 Y:F0 P:25 SP:FA CYC:317 SL:36
837B  10 FB     BPL $8378                       A:10 X:00 Y:F0 P:25 SP:FA CYC:329 SL:36
8378  AD 02 20  LDA $2002 = FF                  A:10 X:00 Y:F0 P:25 SP:FA CYC:338 SL:36
837B  10 FB     BPL $8378                       A:10 X:00 Y:F0 P:25 SP:FA CYC:  9 SL:37
8378  AD 02 20  LDA $2002 = FF                  A:10 X:00 Y:F0 P:25 SP:FA CYC: 18 SL:37
837B  10 FB     BPL $8378                       A:10 X:00 Y:F0 P:25 SP:FA CYC: 30 SL:37
8378  AD 02 20  LDA $2002 = FF                  A:10 X:00 Y:F0 P:25 SP:FA CYC: 39 SL:37
837B  10 FB     BPL $8378                       A:10 X:00 Y:F0 P:25 SP:FA CYC: 51 SL:37
8378  AD 02 20  LDA $2002 = FF                  A:10 X:00 Y:F0 P:25 SP:FA CYC: 60 SL:37
837B  10 FB     BPL $8378                       A:10 X:00 Y:F0 P:25 SP:FA CYC: 72 SL:37
8378  AD 02 20  LDA $2002 = FF                  A:10 X:00 Y:F0 P:25 SP:FA CYC: 81 SL:37
837B  10 FB     BPL $8378                       A:10 X:00 Y:F0 P:25 SP:FA CYC: 93 SL:37
8378  AD 02 20  LDA $2002 = FF                  A:10 X:00 Y:F0 P:25 SP:FA CYC:102 SL:37
837B  10 FB     BPL $8378                       A:10 X:00 Y:F0 P:25 SP:FA CYC:114 SL:37
8378  AD 02 20  LDA $2002 = FF                  A:10 X:00 Y:F0 P:25 SP:FA CYC:123 SL:37
837B  10 FB     BPL $8378                       A:10 X:00 Y:F0 P:25 SP:FA CYC:135 SL:37
8378  AD 02 20  LDA $2002 = FF                  A:10 X:00 Y:F0 P:25 SP:FA CYC:144 SL:37
837B  10 FB     BPL $8378                       A:10 X:00 Y:F0 P:25 SP:FA CYC:156 SL:37
8378  AD 02 20  LDA $2002 = FF                  A:10 X:00 Y:F0 P:25 SP:FA CYC:165 SL:37
837B  10 FB     BPL $8378                       A:10 X:00 Y:F0 P:25 SP:FA CYC:177 SL:37
8378  AD 02 20  LDA $2002 = FF                  A:10 X:00 Y:F0 P:25 SP:FA CYC:186 SL:37
837B  10 FB     BPL $8378                       A:10 X:00 Y:F0 P:25 SP:FA CYC:198 SL:37
8378  AD 02 20  LDA $2002 = FF                  A:10 X:00 Y:F0 P:25 SP:FA CYC:207 SL:37
837B  10 FB     BPL $8378                       A:10 X:00 Y:F0 P:25 SP:FA CYC:219 SL:37
8378  AD 02 20  LDA $2002 = FF                  A:10 X:00 Y:F0 P:25 SP:FA CYC:228 SL:37
837B  10 FB     BPL $8378                       A:10 X:00 Y:F0 P:25 SP:FA CYC:240 SL:37
8378  AD 02 20  LDA $2002 = FF                  A:10 X:00 Y:F0 P:25 SP:FA CYC:249 SL:37
837B  10 FB     BPL $8378                       A:10 X:00 Y:F0 P:25 SP:FA CYC:261 SL:37
8378  AD 02 20  LDA $2002 = FF                  A:10 X:00 Y:F0 P:25 SP:FA CYC:270 SL:37
837B  10 FB     BPL $8378                       A:10 X:00 Y:F0 P:25 SP:FA CYC:282 SL:37
8378  AD 02 20  LDA $2002 = FF                  A:10 X:00 Y:F0 P:25 SP:FA CYC:291 SL:37
837B  10 FB     BPL $8378                       A:10 X:00 Y:F0 P:25 SP:FA CYC:303 SL:37
8378  AD 02 20  LDA $2002 = FF                  A:10 X:00 Y:F0 P:25 SP:FA CYC:312 SL:37
837B  10 FB     BPL $8378                       A:10 X:00 Y:F0 P:25 SP:FA CYC:324 SL:37
8378  AD 02 20  LDA $2002 = FF                  A:10 X:00 Y:F0 P:25 SP:FA CYC:333 SL:37
837B  10 FB     BPL $8378                       A:10 X:00 Y:F0 P:25 SP:FA CYC:  4 SL:38
8378  AD 02 20  LDA $2002 = FF                  A:10 X:00 Y:F0 P:25 SP:FA CYC: 13 SL:38
837B  10 FB     BPL $8378                       A:10 X:00 Y:F0 P:25 SP:FA CYC: 25 SL:38
8378  AD 02 20  LDA $2002 = FF                  A:10 X:00 Y:F0 P:25 SP:FA CYC: 34 SL:38
837B  10 FB     BPL $8378                       A:10 X:00 Y:F0 P:25 SP:FA CYC: 46 SL:38
8378  AD 02 20  LDA $2002 = FF                  A:10 X:00 Y:F0 P:25 SP:FA CYC: 55 SL:38
837B  10 FB     BPL $8378                       A:10 X:00 Y:F0 P:25 SP:FA CYC: 67 SL:38
8378  AD 02 20  LDA $2002 = FF                  A:10 X:00 Y:F0 P:25 SP:FA CYC: 76 SL:38
837B  10 FB     BPL $8378                       A:10 X:00 Y:F0 P:25 SP:FA CYC: 88 SL:38
8378  AD 02 20  LDA $2002 = FF                  A:10 X:00 Y:F0 P:25 SP:FA CYC: 97 SL:38
837B  10 FB     BPL $8378                       A:10 X:00 Y:F0 P:25 SP:FA CYC:109 SL:38
8378  AD 02 20  LDA $2002 = FF                  A:10 X:00 Y:F0 P:25 SP:FA CYC:118 SL:38
837B  10 FB     BPL $8378                       A:10 X:00 Y:F0 P:25 SP:FA CYC:130 SL:38
8378  AD 02 20  LDA $2002 = FF                  A:10 X:00 Y:F0 P:25 SP:FA CYC:139 SL:38
837B  10 FB     BPL $8378                       A:10 X:00 Y:F0 P:25 SP:FA CYC:151 SL:38
8378  AD 02 20  LDA $2002 = FF                  A:10 X:00 Y:F0 P:25 SP:FA CYC:160 SL:38
837B  10 FB     BPL $8378                       A:10 X:00 Y:F0 P:25 SP:FA CYC:172 SL:38
8378  AD 02 20  LDA $2002 = FF                  A:10 X:00 Y:F0 P:25 SP:FA CYC:181 SL:38
837B  10 FB     BPL $8378                       A:10 X:00 Y:F0 P:25 SP:FA CYC:193 SL:38
8378  AD 02 20  LDA $2002 = FF                  A:10 X:00 Y:F0 P:25 SP:FA CYC:202 SL:38
837B  10 FB     BPL $8378                       A:10 X:00 Y:F0 P:25 SP:FA CYC:214 SL:38
8378  AD 02 20  LDA $2002 = FF                  A:10 X:00 Y:F0 P:25 SP:FA CYC:223 SL:38
837B  10 FB     BPL $8378                       A:10 X:00 Y:F0 P:25 SP:FA CYC:235 SL:38
8378  AD 02 20  LDA $2002 = FF                  A:10 X:00 Y:F0 P:25 SP:FA CYC:244 SL:38
837B  10 FB     BPL $8378                       A:10 X:00 Y:F0 P:25 SP:FA CYC:256 SL:38
8378  AD 02 20  LDA $2002 = FF                  A:10 X:00 Y:F0 P:25 SP:FA CYC:265 SL:38
837B  10 FB     BPL $8378                       A:10 X:00 Y:F0 P:25 SP:FA CYC:277 SL:38
8378  AD 02 20  LDA $2002 = FF                  A:10 X:00 Y:F0 P:25 SP:FA CYC:286 SL:38
837B  10 FB     BPL $8378                       A:10 X:00 Y:F0 P:25 SP:FA CYC:298 SL:38
8378  AD 02 20  LDA $2002 = FF                  A:10 X:00 Y:F0 P:25 SP:FA CYC:307 SL:38
837B  10 FB     BPL $8378                       A:10 X:00 Y:F0 P:25 SP:FA CYC:319 SL:38
8378  AD 02 20  LDA $2002 = FF                  A:10 X:00 Y:F0 P:25 SP:FA CYC:328 SL:38
837B  10 FB     BPL $8378                       A:10 X:00 Y:F0 P:25 SP:FA CYC:340 SL:38
8378  AD 02 20  LDA $2002 = FF                  A:10 X:00 Y:F0 P:25 SP:FA CYC:  8 SL:39
837B  10 FB     BPL $8378                       A:10 X:00 Y:F0 P:25 SP:FA CYC: 20 SL:39
8378  AD 02 20  LDA $2002 = FF                  A:10 X:00 Y:F0 P:25 SP:FA CYC: 29 SL:39
837B  10 FB     BPL $8378                       A:10 X:00 Y:F0 P:25 SP:FA CYC: 41 SL:39
8378  AD 02 20  LDA $2002 = FF                  A:10 X:00 Y:F0 P:25 SP:FA CYC: 50 SL:39
837B  10 FB     BPL $8378                       A:10 X:00 Y:F0 P:25 SP:FA CYC: 62 SL:39
8378  AD 02 20  LDA $2002 = FF                  A:10 X:00 Y:F0 P:25 SP:FA CYC: 71 SL:39
837B  10 FB     BPL $8378                       A:10 X:00 Y:F0 P:25 SP:FA CYC: 83 SL:39
8378  AD 02 20  LDA $2002 = FF                  A:10 X:00 Y:F0 P:25 SP:FA CYC: 92 SL:39
837B  10 FB     BPL $8378                       A:10 X:00 Y:F0 P:25 SP:FA CYC:104 SL:39
8378  AD 02 20  LDA $2002 = FF                  A:10 X:00 Y:F0 P:25 SP:FA CYC:113 SL:39
837B  10 FB     BPL $8378                       A:10 X:00 Y:F0 P:25 SP:FA CYC:125 SL:39
8378  AD 02 20  LDA $2002 = FF                  A:10 X:00 Y:F0 P:25 SP:FA CYC:134 SL:39
837B  10 FB     BPL $8378                       A:10 X:00 Y:F0 P:25 SP:FA CYC:146 SL:39
8378  AD 02 20  LDA $2002 = FF                  A:10 X:00 Y:F0 P:25 SP:FA CYC:155 SL:39
837B  10 FB     BPL $8378                       A:10 X:00 Y:F0 P:25 SP:FA CYC:167 SL:39
8378  AD 02 20  LDA $2002 = FF                  A:10 X:00 Y:F0 P:25 SP:FA CYC:176 SL:39
837B  10 FB     BPL $8378                       A:10 X:00 Y:F0 P:25 SP:FA CYC:188 SL:39
8378  AD 02 20  LDA $2002 = FF                  A:10 X:00 Y:F0 P:25 SP:FA CYC:197 SL:39
837B  10 FB     BPL $8378                       A:10 X:00 Y:F0 P:25 SP:FA CYC:209 SL:39
8378  AD 02 20  LDA $2002 = FF                  A:10 X:00 Y:F0 P:25 SP:FA CYC:218 SL:39
837B  10 FB     BPL $8378                       A:10 X:00 Y:F0 P:25 SP:FA CYC:230 SL:39
8378  AD 02 20  LDA $2002 = FF                  A:10 X:00 Y:F0 P:25 SP:FA CYC:239 SL:39
837B  10 FB     BPL $8378                       A:10 X:00 Y:F0 P:25 SP:FA CYC:251 SL:39
8378  AD 02 20  LDA $2002 = FF                  A:10 X:00 Y:F0 P:25 SP:FA CYC:260 SL:39
837B  10 FB     BPL $8378                       A:10 X:00 Y:F0 P:25 SP:FA CYC:272 SL:39
8378  AD 02 20  LDA $2002 = FF                  A:10 X:00 Y:F0 P:25 SP:FA CYC:281 SL:39
837B  10 FB     BPL $8378                       A:10 X:00 Y:F0 P:25 SP:FA CYC:293 SL:39
8378  AD 02 20  LDA $2002 = FF                  A:10 X:00 Y:F0 P:25 SP:FA CYC:302 SL:39
837B  10 FB     BPL $8378                       A:10 X:00 Y:F0 P:25 SP:FA CYC:314 SL:39
8378  AD 02 20  LDA $2002 = FF                  A:10 X:00 Y:F0 P:25 SP:FA CYC:323 SL:39
837B  10 FB     BPL $8378                       A:10 X:00 Y:F0 P:25 SP:FA CYC:335 SL:39
8378  AD 02 20  LDA $2002 = FF                  A:10 X:00 Y:F0 P:25 SP:FA CYC:  3 SL:40
837B  10 FB     BPL $8378                       A:10 X:00 Y:F0 P:25 SP:FA CYC: 15 SL:40
8378  AD 02 20  LDA $2002 = FF                  A:10 X:00 Y:F0 P:25 SP:FA CYC: 24 SL:40
837B  10 FB     BPL $8378                       A:10 X:00 Y:F0 P:25 SP:FA CYC: 36 SL:40
8378  AD 02 20  LDA $2002 = FF                  A:10 X:00 Y:F0 P:25 SP:FA CYC: 45 SL:40
837B  10 FB     BPL $8378                       A:10 X:00 Y:F0 P:25 SP:FA CYC: 57 SL:40
8378  AD 02 20  LDA $2002 = FF                  A:10 X:00 Y:F0 P:25 SP:FA CYC: 66 SL:40
837B  10 FB     BPL $8378                       A:10 X:00 Y:F0 P:25 SP:FA CYC: 78 SL:40
8378  AD 02 20  LDA $2002 = FF                  A:10 X:00 Y:F0 P:25 SP:FA CYC: 87 SL:40
837B  10 FB     BPL $8378                       A:10 X:00 Y:F0 P:25 SP:FA CYC: 99 SL:40
8378  AD 02 20  LDA $2002 = FF                  A:10 X:00 Y:F0 P:25 SP:FA CYC:108 SL:40
837B  10 FB     BPL $8378                       A:10 X:00 Y:F0 P:25 SP:FA CYC:120 SL:40
8378  AD 02 20  LDA $2002 = FF                  A:10 X:00 Y:F0 P:25 SP:FA CYC:129 SL:40
837B  10 FB     BPL $8378                       A:10 X:00 Y:F0 P:25 SP:FA CYC:141 SL:40
8378  AD 02 20  LDA $2002 = FF                  A:10 X:00 Y:F0 P:25 SP:FA CYC:150 SL:40
837B  10 FB     BPL $8378                       A:10 X:00 Y:F0 P:25 SP:FA CYC:162 SL:40
8378  AD 02 20  LDA $2002 = FF                  A:10 X:00 Y:F0 P:25 SP:FA CYC:171 SL:40
837B  10 FB     BPL $8378                       A:10 X:00 Y:F0 P:25 SP:FA CYC:183 SL:40
8378  AD 02 20  LDA $2002 = FF                  A:10 X:00 Y:F0 P:25 SP:FA CYC:192 SL:40
837B  10 FB     BPL $8378                       A:10 X:00 Y:F0 P:25 SP:FA CYC:204 SL:40
8378  AD 02 20  LDA $2002 = FF                  A:10 X:00 Y:F0 P:25 SP:FA CYC:213 SL:40
837B  10 FB     BPL $8378                       A:10 X:00 Y:F0 P:25 SP:FA CYC:225 SL:40
8378  AD 02 20  LDA $2002 = FF                  A:10 X:00 Y:F0 P:25 SP:FA CYC:234 SL:40
837B  10 FB     BPL $8378                       A:10 X:00 Y:F0 P:25 SP:FA CYC:246 SL:40
8378  AD 02 20  LDA $2002 = FF                  A:10 X:00 Y:F0 P:25 SP:FA CYC:255 SL:40
837B  10 FB     BPL $8378                       A:10 X:00 Y:F0 P:25 SP:FA CYC:267 SL:40
8378  AD 02 20  LDA $2002 = FF                  A:10 X:00 Y:F0 P:25 SP:FA CYC:276 SL:40
837B  10 FB     BPL $8378                       A:10 X:00 Y:F0 P:25 SP:FA CYC:288 SL:40
8378  AD 02 20  LDA $2002 = FF                  A:10 X:00 Y:F0 P:25 SP:FA CYC:297 SL:40
837B  10 FB     BPL $8378                       A:10 X:00 Y:F0 P:25 SP:FA CYC:309 SL:40
8378  AD 02 20  LDA $2002 = FF                  A:10 X:00 Y:F0 P:25 SP:FA CYC:318 SL:40
837B  10 FB     BPL $8378                       A:10 X:00 Y:F0 P:25 SP:FA CYC:330 SL:40
8378  AD 02 20  LDA $2002 = FF                  A:10 X:00 Y:F0 P:25 SP:FA CYC:339 SL:40
837B  10 FB     BPL $8378                       A:10 X:00 Y:F0 P:25 SP:FA CYC: 10 SL:41
8378  AD 02 20  LDA $2002 = FF                  A:10 X:00 Y:F0 P:25 SP:FA CYC: 19 SL:41
837B  10 FB     BPL $8378                       A:10 X:00 Y:F0 P:25 SP:FA CYC: 31 SL:41
8378  AD 02 20  LDA $2002 = FF                  A:10 X:00 Y:F0 P:25 SP:FA CYC: 40 SL:41
837B  10 FB     BPL $8378                       A:10 X:00 Y:F0 P:25 SP:FA CYC: 52 SL:41
8378  AD 02 20  LDA $2002 = FF                  A:10 X:00 Y:F0 P:25 SP:FA CYC: 61 SL:41
837B  10 FB     BPL $8378                       A:10 X:00 Y:F0 P:25 SP:FA CYC: 73 SL:41
8378  AD 02 20  LDA $2002 = FF                  A:10 X:00 Y:F0 P:25 SP:FA CYC: 82 SL:41
837B  10 FB     BPL $8378                       A:10 X:00 Y:F0 P:25 SP:FA CYC: 94 SL:41
8378  AD 02 20  LDA $2002 = FF                  A:10 X:00 Y:F0 P:25 SP:FA CYC:103 SL:41
837B  10 FB     BPL $8378                       A:10 X:00 Y:F0 P:25 SP:FA CYC:115 SL:41
8378  AD 02 20  LDA $2002 = FF                  A:10 X:00 Y:F0 P:25 SP:FA CYC:124 SL:41
837B  10 FB     BPL $8378                       A:10 X:00 Y:F0 P:25 SP:FA CYC:136 SL:41
8378  AD 02 20  LDA $2002 = FF                  A:10 X:00 Y:F0 P:25 SP:FA CYC:145 SL:41
837B  10 FB     BPL $8378                       A:10 X:00 Y:F0 P:25 SP:FA CYC:157 SL:41
8378  AD 02 20  LDA $2002 = FF                  A:10 X:00 Y:F0 P:25 SP:FA CYC:166 SL:41
837B  10 FB     BPL $8378                       A:10 X:00 Y:F0 P:25 SP:FA CYC:178 SL:41
8378  AD 02 20  LDA $2002 = FF                  A:10 X:00 Y:F0 P:25 SP:FA CYC:187 SL:41
837B  10 FB     BPL $8378                       A:10 X:00 Y:F0 P:25 SP:FA CYC:199 SL:41
8378  AD 02 20  LDA $2002 = FF                  A:10 X:00 Y:F0 P:25 SP:FA CYC:208 SL:41
837B  10 FB     BPL $8378                       A:10 X:00 Y:F0 P:25 SP:FA CYC:220 SL:41
8378  AD 02 20  LDA $2002 = FF                  A:10 X:00 Y:F0 P:25 SP:FA CYC:229 SL:41
837B  10 FB     BPL $8378                       A:10 X:00 Y:F0 P:25 SP:FA CYC:241 SL:41
8378  AD 02 20  LDA $2002 = FF                  A:10 X:00 Y:F0 P:25 SP:FA CYC:250 SL:41
837B  10 FB     BPL $8378                       A:10 X:00 Y:F0 P:25 SP:FA CYC:262 SL:41
8378  AD 02 20  LDA $2002 = FF                  A:10 X:00 Y:F0 P:25 SP:FA CYC:271 SL:41
837B  10 FB     BPL $8378                       A:10 X:00 Y:F0 P:25 SP:FA CYC:283 SL:41
8378  AD 02 20  LDA $2002 = FF                  A:10 X:00 Y:F0 P:25 SP:FA CYC:292 SL:41
837B  10 FB     BPL $8378                       A:10 X:00 Y:F0 P:25 SP:FA CYC:304 SL:41
8378  AD 02 20  LDA $2002 = FF                  A:10 X:00 Y:F0 P:25 SP:FA CYC:313 SL:41
837B  10 FB     BPL $8378                       A:10 X:00 Y:F0 P:25 SP:FA CYC:325 SL:41
8378  AD 02 20  LDA $2002 = FF                  A:10 X:00 Y:F0 P:25 SP:FA CYC:334 SL:41
837B  10 FB     BPL $8378                       A:10 X:00 Y:F0 P:25 SP:FA CYC:  5 SL:42
8378  AD 02 20  LDA $2002 = FF                  A:10 X:00 Y:F0 P:25 SP:FA CYC: 14 SL:42
837B  10 FB     BPL $8378                       A:10 X:00 Y:F0 P:25 SP:FA CYC: 26 SL:42
8378  AD 02 20  LDA $2002 = FF                  A:10 X:00 Y:F0 P:25 SP:FA CYC: 35 SL:42
837B  10 FB     BPL $8378                       A:10 X:00 Y:F0 P:25 SP:FA CYC: 47 SL:42
8378  AD 02 20  LDA $2002 = FF                  A:10 X:00 Y:F0 P:25 SP:FA CYC: 56 SL:42
837B  10 FB     BPL $8378                       A:10 X:00 Y:F0 P:25 SP:FA CYC: 68 SL:42
8378  AD 02 20  LDA $2002 = FF                  A:10 X:00 Y:F0 P:25 SP:FA CYC: 77 SL:42
837B  10 FB     BPL $8378                       A:10 X:00 Y:F0 P:25 SP:FA CYC: 89 SL:42
8378  AD 02 20  LDA $2002 = FF                  A:10 X:00 Y:F0 P:25 SP:FA CYC: 98 SL:42
837B  10 FB     BPL $8378                       A:10 X:00 Y:F0 P:25 SP:FA CYC:110 SL:42
8378  AD 02 20  LDA $2002 = FF                  A:10 X:00 Y:F0 P:25 SP:FA CYC:119 SL:42
837B  10 FB     BPL $8378                       A:10 X:00 Y:F0 P:25 SP:FA CYC:131 SL:42
8378  AD 02 20  LDA $2002 = FF                  A:10 X:00 Y:F0 P:25 SP:FA CYC:140 SL:42
837B  10 FB     BPL $8378                       A:10 X:00 Y:F0 P:25 SP:FA CYC:152 SL:42
8378  AD 02 20  LDA $2002 = FF                  A:10 X:00 Y:F0 P:25 SP:FA CYC:161 SL:42
837B  10 FB     BPL $8378                       A:10 X:00 Y:F0 P:25 SP:FA CYC:173 SL:42
8378  AD 02 20  LDA $2002 = FF                  A:10 X:00 Y:F0 P:25 SP:FA CYC:182 SL:42
837B  10 FB     BPL $8378                       A:10 X:00 Y:F0 P:25 SP:FA CYC:194 SL:42
8378  AD 02 20  LDA $2002 = FF                  A:10 X:00 Y:F0 P:25 SP:FA CYC:203 SL:42
837B  10 FB     BPL $8378                       A:10 X:00 Y:F0 P:25 SP:FA CYC:215 SL:42
8378  AD 02 20  LDA $2002 = FF                  A:10 X:00 Y:F0 P:25 SP:FA CYC:224 SL:42
837B  10 FB     BPL $8378                       A:10 X:00 Y:F0 P:25 SP:FA CYC:236 SL:42
8378  AD 02 20  LDA $2002 = FF                  A:10 X:00 Y:F0 P:25 SP:FA CYC:245 SL:42
837B  10 FB     BPL $8378                       A:10 X:00 Y:F0 P:25 SP:FA CYC:257 SL:42
8378  AD 02 20  LDA $2002 = FF                  A:10 X:00 Y:F0 P:25 SP:FA CYC:266 SL:42
837B  10 FB     BPL $8378                       A:10 X:00 Y:F0 P:25 SP:FA CYC:278 SL:42
8378  AD 02 20  LDA $2002 = FF                  A:10 X:00 Y:F0 P:25 SP:FA CYC:287 SL:42
837B  10 FB     BPL $8378                       A:10 X:00 Y:F0 P:25 SP:FA CYC:299 SL:42
8378  AD 02 20  LDA $2002 = FF                  A:10 X:00 Y:F0 P:25 SP:FA CYC:308 SL:42
837B  10 FB     BPL $8378                       A:10 X:00 Y:F0 P:25 SP:FA CYC:320 SL:42
8378  AD 02 20  LDA $2002 = FF                  A:10 X:00 Y:F0 P:25 SP:FA CYC:329 SL:42
837B  10 FB     BPL $8378                       A:10 X:00 Y:F0 P:25 SP:FA CYC:  0 SL:43
8378  AD 02 20  LDA $2002 = FF                  A:10 X:00 Y:F0 P:25 SP:FA CYC:  9 SL:43
837B  10 FB     BPL $8378                       A:10 X:00 Y:F0 P:25 SP:FA CYC: 21 SL:43
8378  AD 02 20  LDA $2002 = FF                  A:10 X:00 Y:F0 P:25 SP:FA CYC: 30 SL:43
837B  10 FB     BPL $8378                       A:10 X:00 Y:F0 P:25 SP:FA CYC: 42 SL:43
8378  AD 02 20  LDA $2002 = FF                  A:10 X:00 Y:F0 P:25 SP:FA CYC: 51 SL:43
837B  10 FB     BPL $8378                       A:10 X:00 Y:F0 P:25 SP:FA CYC: 63 SL:43
8378  AD 02 20  LDA $2002 = FF                  A:10 X:00 Y:F0 P:25 SP:FA CYC: 72 SL:43
837B  10 FB     BPL $8378                       A:10 X:00 Y:F0 P:25 SP:FA CYC: 84 SL:43
8378  AD 02 20  LDA $2002 = FF                  A:10 X:00 Y:F0 P:25 SP:FA CYC: 93 SL:43
837B  10 FB     BPL $8378                       A:10 X:00 Y:F0 P:25 SP:FA CYC:105 SL:43
8378  AD 02 20  LDA $2002 = FF                  A:10 X:00 Y:F0 P:25 SP:FA CYC:114 SL:43
837B  10 FB     BPL $8378                       A:10 X:00 Y:F0 P:25 SP:FA CYC:126 SL:43
8378  AD 02 20  LDA $2002 = FF                  A:10 X:00 Y:F0 P:25 SP:FA CYC:135 SL:43
837B  10 FB     BPL $8378                       A:10 X:00 Y:F0 P:25 SP:FA CYC:147 SL:43
8378  AD 02 20  LDA $2002 = FF                  A:10 X:00 Y:F0 P:25 SP:FA CYC:156 SL:43
837B  10 FB     BPL $8378                       A:10 X:00 Y:F0 P:25 SP:FA CYC:168 SL:43
8378  AD 02 20  LDA $2002 = FF                  A:10 X:00 Y:F0 P:25 SP:FA CYC:177 SL:43
837B  10 FB     BPL $8378                       A:10 X:00 Y:F0 P:25 SP:FA CYC:189 SL:43
8378  AD 02 20  LDA $2002 = FF                  A:10 X:00 Y:F0 P:25 SP:FA CYC:198 SL:43
837B  10 FB     BPL $8378                       A:10 X:00 Y:F0 P:25 SP:FA CYC:210 SL:43
8378  AD 02 20  LDA $2002 = FF                  A:10 X:00 Y:F0 P:25 SP:FA CYC:219 SL:43
837B  10 FB     BPL $8378                       A:10 X:00 Y:F0 P:25 SP:FA CYC:231 SL:43
8378  AD 02 20  LDA $2002 = FF                  A:10 X:00 Y:F0 P:25 SP:FA CYC:240 SL:43
837B  10 FB     BPL $8378                       A:10 X:00 Y:F0 P:25 SP:FA CYC:252 SL:43
8378  AD 02 20  LDA $2002 = FF                  A:10 X:00 Y:F0 P:25 SP:FA CYC:261 SL:43
837B  10 FB     BPL $8378                       A:10 X:00 Y:F0 P:25 SP:FA CYC:273 SL:43
8378  AD 02 20  LDA $2002 = FF                  A:10 X:00 Y:F0 P:25 SP:FA CYC:282 SL:43
837B  10 FB     BPL $8378                       A:10 X:00 Y:F0 P:25 SP:FA CYC:294 SL:43
8378  AD 02 20  LDA $2002 = FF                  A:10 X:00 Y:F0 P:25 SP:FA CYC:303 SL:43
837B  10 FB     BPL $8378                       A:10 X:00 Y:F0 P:25 SP:FA CYC:315 SL:43
8378  AD 02 20  LDA $2002 = FF                  A:10 X:00 Y:F0 P:25 SP:FA CYC:324 SL:43
837B  10 FB     BPL $8378                       A:10 X:00 Y:F0 P:25 SP:FA CYC:336 SL:43
8378  AD 02 20  LDA $2002 = FF                  A:10 X:00 Y:F0 P:25 SP:FA CYC:  4 SL:44
837B  10 FB     BPL $8378                       A:10 X:00 Y:F0 P:25 SP:FA CYC: 16 SL:44
8378  AD 02 20  LDA $2002 = FF                  A:10 X:00 Y:F0 P:25 SP:FA CYC: 25 SL:44
837B  10 FB     BPL $8378                       A:10 X:00 Y:F0 P:25 SP:FA CYC: 37 SL:44
8378  AD 02 20  LDA $2002 = FF                  A:10 X:00 Y:F0 P:25 SP:FA CYC: 46 SL:44
837B  10 FB     BPL $8378                       A:10 X:00 Y:F0 P:25 SP:FA CYC: 58 SL:44
8378  AD 02 20  LDA $2002 = FF                  A:10 X:00 Y:F0 P:25 SP:FA CYC: 67 SL:44
837B  10 FB     BPL $8378                       A:10 X:00 Y:F0 P:25 SP:FA CYC: 79 SL:44
8378  AD 02 20  LDA $2002 = FF                  A:10 X:00 Y:F0 P:25 SP:FA CYC: 88 SL:44
837B  10 FB     BPL $8378                       A:10 X:00 Y:F0 P:25 SP:FA CYC:100 SL:44
8378  AD 02 20  LDA $2002 = FF                  A:10 X:00 Y:F0 P:25 SP:FA CYC:109 SL:44
837B  10 FB     BPL $8378                       A:10 X:00 Y:F0 P:25 SP:FA CYC:121 SL:44
8378  AD 02 20  LDA $2002 = FF                  A:10 X:00 Y:F0 P:25 SP:FA CYC:130 SL:44
837B  10 FB     BPL $8378                       A:10 X:00 Y:F0 P:25 SP:FA CYC:142 SL:44
8378  AD 02 20  LDA $2002 = FF                  A:10 X:00 Y:F0 P:25 SP:FA CYC:151 SL:44
837B  10 FB     BPL $8378                       A:10 X:00 Y:F0 P:25 SP:FA CYC:163 SL:44
8378  AD 02 20  LDA $2002 = FF                  A:10 X:00 Y:F0 P:25 SP:FA CYC:172 SL:44
837B  10 FB     BPL $8378                       A:10 X:00 Y:F0 P:25 SP:FA CYC:184 SL:44
8378  AD 02 20  LDA $2002 = FF                  A:10 X:00 Y:F0 P:25 SP:FA CYC:193 SL:44
837B  10 FB     BPL $8378                       A:10 X:00 Y:F0 P:25 SP:FA CYC:205 SL:44
8378  AD 02 20  LDA $2002 = FF                  A:10 X:00 Y:F0 P:25 SP:FA CYC:214 SL:44
837B  10 FB     BPL $8378                       A:10 X:00 Y:F0 P:25 SP:FA CYC:226 SL:44
8378  AD 02 20  LDA $2002 = FF                  A:10 X:00 Y:F0 P:25 SP:FA CYC:235 SL:44
837B  10 FB     BPL $8378                       A:10 X:00 Y:F0 P:25 SP:FA CYC:247 SL:44
8378  AD 02 20  LDA $2002 = FF                  A:10 X:00 Y:F0 P:25 SP:FA CYC:256 SL:44
837B  10 FB     BPL $8378                       A:10 X:00 Y:F0 P:25 SP:FA CYC:268 SL:44
8378  AD 02 20  LDA $2002 = FF                  A:10 X:00 Y:F0 P:25 SP:FA CYC:277 SL:44
837B  10 FB     BPL $8378                       A:10 X:00 Y:F0 P:25 SP:FA CYC:289 SL:44
8378  AD 02 20  LDA $2002 = FF                  A:10 X:00 Y:F0 P:25 SP:FA CYC:298 SL:44
837B  10 FB     BPL $8378                       A:10 X:00 Y:F0 P:25 SP:FA CYC:310 SL:44
8378  AD 02 20  LDA $2002 = FF                  A:10 X:00 Y:F0 P:25 SP:FA CYC:319 SL:44
837B  10 FB     BPL $8378                       A:10 X:00 Y:F0 P:25 SP:FA CYC:331 SL:44
8378  AD 02 20  LDA $2002 = FF                  A:10 X:00 Y:F0 P:25 SP:FA CYC:340 SL:44
837B  10 FB     BPL $8378                       A:10 X:00 Y:F0 P:25 SP:FA CYC: 11 SL:45
8378  AD 02 20  LDA $2002 = FF                  A:10 X:00 Y:F0 P:25 SP:FA CYC: 20 SL:45
837B  10 FB     BPL $8378                       A:10 X:00 Y:F0 P:25 SP:FA CYC: 32 SL:45
8378  AD 02 20  LDA $2002 = FF                  A:10 X:00 Y:F0 P:25 SP:FA CYC: 41 SL:45
837B  10 FB     BPL $8378                       A:10 X:00 Y:F0 P:25 SP:FA CYC: 53 SL:45
8378  AD 02 20  LDA $2002 = FF                  A:10 X:00 Y:F0 P:25 SP:FA CYC: 62 SL:45
837B  10 FB     BPL $8378                       A:10 X:00 Y:F0 P:25 SP:FA CYC: 74 SL:45
8378  AD 02 20  LDA $2002 = FF                  A:10 X:00 Y:F0 P:25 SP:FA CYC: 83 SL:45
837B  10 FB     BPL $8378                       A:10 X:00 Y:F0 P:25 SP:FA CYC: 95 SL:45
8378  AD 02 20  LDA $2002 = FF                  A:10 X:00 Y:F0 P:25 SP:FA CYC:104 SL:45
837B  10 FB     BPL $8378                       A:10 X:00 Y:F0 P:25 SP:FA CYC:116 SL:45
8378  AD 02 20  LDA $2002 = FF                  A:10 X:00 Y:F0 P:25 SP:FA CYC:125 SL:45
837B  10 FB     BPL $8378                       A:10 X:00 Y:F0 P:25 SP:FA CYC:137 SL:45
8378  AD 02 20  LDA $2002 = FF                  A:10 X:00 Y:F0 P:25 SP:FA CYC:146 SL:45
837B  10 FB     BPL $8378                       A:10 X:00 Y:F0 P:25 SP:FA CYC:158 SL:45
8378  AD 02 20  LDA $2002 = FF                  A:10 X:00 Y:F0 P:25 SP:FA CYC:167 SL:45
837B  10 FB     BPL $8378                       A:10 X:00 Y:F0 P:25 SP:FA CYC:179 SL:45
8378  AD 02 20  LDA $2002 = FF                  A:10 X:00 Y:F0 P:25 SP:FA CYC:188 SL:45
837B  10 FB     BPL $8378                       A:10 X:00 Y:F0 P:25 SP:FA CYC:200 SL:45
8378  AD 02 20  LDA $2002 = FF                  A:10 X:00 Y:F0 P:25 SP:FA CYC:209 SL:45
837B  10 FB     BPL $8378                       A:10 X:00 Y:F0 P:25 SP:FA CYC:221 SL:45
8378  AD 02 20  LDA $2002 = FF                  A:10 X:00 Y:F0 P:25 SP:FA CYC:230 SL:45
837B  10 FB     BPL $8378                       A:10 X:00 Y:F0 P:25 SP:FA CYC:242 SL:45
8378  AD 02 20  LDA $2002 = FF                  A:10 X:00 Y:F0 P:25 SP:FA CYC:251 SL:45
837B  10 FB     BPL $8378                       A:10 X:00 Y:F0 P:25 SP:FA CYC:263 SL:45
8378  AD 02 20  LDA $2002 = FF                  A:10 X:00 Y:F0 P:25 SP:FA CYC:272 SL:45
837B  10 FB     BPL $8378                       A:10 X:00 Y:F0 P:25 SP:FA CYC:284 SL:45
8378  AD 02 20  LDA $2002 = FF                  A:10 X:00 Y:F0 P:25 SP:FA CYC:293 SL:45
837B  10 FB     BPL $8378                       A:10 X:00 Y:F0 P:25 SP:FA CYC:305 SL:45
8378  AD 02 20  LDA $2002 = FF                  A:10 X:00 Y:F0 P:25 SP:FA CYC:314 SL:45
837B  10 FB     BPL $8378                       A:10 X:00 Y:F0 P:25 SP:FA CYC:326 SL:45
8378  AD 02 20  LDA $2002 = FF                  A:10 X:00 Y:F0 P:25 SP:FA CYC:335 SL:45
837B  10 FB     BPL $8378                       A:10 X:00 Y:F0 P:25 SP:FA CYC:  6 SL:46
8378  AD 02 20  LDA $2002 = FF                  A:10 X:00 Y:F0 P:25 SP:FA CYC: 15 SL:46
837B  10 FB     BPL $8378                       A:10 X:00 Y:F0 P:25 SP:FA CYC: 27 SL:46
8378  AD 02 20  LDA $2002 = FF                  A:10 X:00 Y:F0 P:25 SP:FA CYC: 36 SL:46
837B  10 FB     BPL $8378                       A:10 X:00 Y:F0 P:25 SP:FA CYC: 48 SL:46
8378  AD 02 20  LDA $2002 = FF                  A:10 X:00 Y:F0 P:25 SP:FA CYC: 57 SL:46
837B  10 FB     BPL $8378                       A:10 X:00 Y:F0 P:25 SP:FA CYC: 69 SL:46
8378  AD 02 20  LDA $2002 = FF                  A:10 X:00 Y:F0 P:25 SP:FA CYC: 78 SL:46
837B  10 FB     BPL $8378                       A:10 X:00 Y:F0 P:25 SP:FA CYC: 90 SL:46
8378  AD 02 20  LDA $2002 = FF                  A:10 X:00 Y:F0 P:25 SP:FA CYC: 99 SL:46
837B  10 FB     BPL $8378                       A:10 X:00 Y:F0 P:25 SP:FA CYC:111 SL:46
8378  AD 02 20  LDA $2002 = FF                  A:10 X:00 Y:F0 P:25 SP:FA CYC:120 SL:46
837B  10 FB     BPL $8378                       A:10 X:00 Y:F0 P:25 SP:FA CYC:132 SL:46
8378  AD 02 20  LDA $2002 = FF                  A:10 X:00 Y:F0 P:25 SP:FA CYC:141 SL:46
837B  10 FB     BPL $8378                       A:10 X:00 Y:F0 P:25 SP:FA CYC:153 SL:46
8378  AD 02 20  LDA $2002 = FF                  A:10 X:00 Y:F0 P:25 SP:FA CYC:162 SL:46
837B  10 FB     BPL $8378                       A:10 X:00 Y:F0 P:25 SP:FA CYC:174 SL:46
8378  AD 02 20  LDA $2002 = FF                  A:10 X:00 Y:F0 P:25 SP:FA CYC:183 SL:46
837B  10 FB     BPL $8378                       A:10 X:00 Y:F0 P:25 SP:FA CYC:195 SL:46
8378  AD 02 20  LDA $2002 = FF                  A:10 X:00 Y:F0 P:25 SP:FA CYC:204 SL:46
837B  10 FB     BPL $8378                       A:10 X:00 Y:F0 P:25 SP:FA CYC:216 SL:46
8378  AD 02 20  LDA $2002 = FF                  A:10 X:00 Y:F0 P:25 SP:FA CYC:225 SL:46
837B  10 FB     BPL $8378                       A:10 X:00 Y:F0 P:25 SP:FA CYC:237 SL:46
8378  AD 02 20  LDA $2002 = FF                  A:10 X:00 Y:F0 P:25 SP:FA CYC:246 SL:46
837B  10 FB     BPL $8378                       A:10 X:00 Y:F0 P:25 SP:FA CYC:258 SL:46
8378  AD 02 20  LDA $2002 = FF                  A:10 X:00 Y:F0 P:25 SP:FA CYC:267 SL:46
837B  10 FB     BPL $8378                       A:10 X:00 Y:F0 P:25 SP:FA CYC:279 SL:46
8378  AD 02 20  LDA $2002 = FF                  A:10 X:00 Y:F0 P:25 SP:FA CYC:288 SL:46
837B  10 FB     BPL $8378                       A:10 X:00 Y:F0 P:25 SP:FA CYC:300 SL:46
8378  AD 02 20  LDA $2002 = FF                  A:10 X:00 Y:F0 P:25 SP:FA CYC:309 SL:46
837B  10 FB     BPL $8378                       A:10 X:00 Y:F0 P:25 SP:FA CYC:321 SL:46
8378  AD 02 20  LDA $2002 = FF                  A:10 X:00 Y:F0 P:25 SP:FA CYC:330 SL:46
837B  10 FB     BPL $8378                       A:10 X:00 Y:F0 P:25 SP:FA CYC:  1 SL:47
8378  AD 02 20  LDA $2002 = FF                  A:10 X:00 Y:F0 P:25 SP:FA CYC: 10 SL:47
837B  10 FB     BPL $8378                       A:10 X:00 Y:F0 P:25 SP:FA CYC: 22 SL:47
8378  AD 02 20  LDA $2002 = FF                  A:10 X:00 Y:F0 P:25 SP:FA CYC: 31 SL:47
837B  10 FB     BPL $8378                       A:10 X:00 Y:F0 P:25 SP:FA CYC: 43 SL:47
8378  AD 02 20  LDA $2002 = FF                  A:10 X:00 Y:F0 P:25 SP:FA CYC: 52 SL:47
837B  10 FB     BPL $8378                       A:10 X:00 Y:F0 P:25 SP:FA CYC: 64 SL:47
8378  AD 02 20  LDA $2002 = FF                  A:10 X:00 Y:F0 P:25 SP:FA CYC: 73 SL:47
837B  10 FB     BPL $8378                       A:10 X:00 Y:F0 P:25 SP:FA CYC: 85 SL:47
8378  AD 02 20  LDA $2002 = FF                  A:10 X:00 Y:F0 P:25 SP:FA CYC: 94 SL:47
837B  10 FB     BPL $8378                       A:10 X:00 Y:F0 P:25 SP:FA CYC:106 SL:47
8378  AD 02 20  LDA $2002 = FF                  A:10 X:00 Y:F0 P:25 SP:FA CYC:115 SL:47
837B  10 FB     BPL $8378                       A:10 X:00 Y:F0 P:25 SP:FA CYC:127 SL:47
8378  AD 02 20  LDA $2002 = FF                  A:10 X:00 Y:F0 P:25 SP:FA CYC:136 SL:47
837B  10 FB     BPL $8378                       A:10 X:00 Y:F0 P:25 SP:FA CYC:148 SL:47
8378  AD 02 20  LDA $2002 = FF                  A:10 X:00 Y:F0 P:25 SP:FA CYC:157 SL:47
837B  10 FB     BPL $8378                       A:10 X:00 Y:F0 P:25 SP:FA CYC:169 SL:47
8378  AD 02 20  LDA $2002 = FF                  A:10 X:00 Y:F0 P:25 SP:FA CYC:178 SL:47
837B  10 FB     BPL $8378                       A:10 X:00 Y:F0 P:25 SP:FA CYC:190 SL:47
8378  AD 02 20  LDA $2002 = FF                  A:10 X:00 Y:F0 P:25 SP:FA CYC:199 SL:47
837B  10 FB     BPL $8378                       A:10 X:00 Y:F0 P:25 SP:FA CYC:211 SL:47
8378  AD 02 20  LDA $2002 = FF                  A:10 X:00 Y:F0 P:25 SP:FA CYC:220 SL:47
837B  10 FB     BPL $8378                       A:10 X:00 Y:F0 P:25 SP:FA CYC:232 SL:47
8378  AD 02 20  LDA $2002 = FF                  A:10 X:00 Y:F0 P:25 SP:FA CYC:241 SL:47
837B  10 FB     BPL $8378                       A:10 X:00 Y:F0 P:25 SP:FA CYC:253 SL:47
8378  AD 02 20  LDA $2002 = FF                  A:10 X:00 Y:F0 P:25 SP:FA CYC:262 SL:47
837B  10 FB     BPL $8378                       A:10 X:00 Y:F0 P:25 SP:FA CYC:274 SL:47
8378  AD 02 20  LDA $2002 = FF                  A:10 X:00 Y:F0 P:25 SP:FA CYC:283 SL:47
837B  10 FB     BPL $8378                       A:10 X:00 Y:F0 P:25 SP:FA CYC:295 SL:47
8378  AD 02 20  LDA $2002 = FF                  A:10 X:00 Y:F0 P:25 SP:FA CYC:304 SL:47
837B  10 FB     BPL $8378                       A:10 X:00 Y:F0 P:25 SP:FA CYC:316 SL:47
8378  AD 02 20  LDA $2002 = FF                  A:10 X:00 Y:F0 P:25 SP:FA CYC:325 SL:47
837B  10 FB     BPL $8378                       A:10 X:00 Y:F0 P:25 SP:FA CYC:337 SL:47
8378  AD 02 20  LDA $2002 = FF                  A:10 X:00 Y:F0 P:25 SP:FA CYC:  5 SL:48
837B  10 FB     BPL $8378                       A:10 X:00 Y:F0 P:25 SP:FA CYC: 17 SL:48
8378  AD 02 20  LDA $2002 = FF                  A:10 X:00 Y:F0 P:25 SP:FA CYC: 26 SL:48
837B  10 FB     BPL $8378                       A:10 X:00 Y:F0 P:25 SP:FA CYC: 38 SL:48
8378  AD 02 20  LDA $2002 = FF                  A:10 X:00 Y:F0 P:25 SP:FA CYC: 47 SL:48
837B  10 FB     BPL $8378                       A:10 X:00 Y:F0 P:25 SP:FA CYC: 59 SL:48
8378  AD 02 20  LDA $2002 = FF                  A:10 X:00 Y:F0 P:25 SP:FA CYC: 68 SL:48
837B  10 FB     BPL $8378                       A:10 X:00 Y:F0 P:25 SP:FA CYC: 80 SL:48
8378  AD 02 20  LDA $2002 = FF                  A:10 X:00 Y:F0 P:25 SP:FA CYC: 89 SL:48
837B  10 FB     BPL $8378                       A:10 X:00 Y:F0 P:25 SP:FA CYC:101 SL:48
8378  AD 02 20  LDA $2002 = FF                  A:10 X:00 Y:F0 P:25 SP:FA CYC:110 SL:48
837B  10 FB     BPL $8378                       A:10 X:00 Y:F0 P:25 SP:FA CYC:122 SL:48
8378  AD 02 20  LDA $2002 = FF                  A:10 X:00 Y:F0 P:25 SP:FA CYC:131 SL:48
837B  10 FB     BPL $8378                       A:10 X:00 Y:F0 P:25 SP:FA CYC:143 SL:48
8378  AD 02 20  LDA $2002 = FF                  A:10 X:00 Y:F0 P:25 SP:FA CYC:152 SL:48
837B  10 FB     BPL $8378                       A:10 X:00 Y:F0 P:25 SP:FA CYC:164 SL:48
8378  AD 02 20  LDA $2002 = FF                  A:10 X:00 Y:F0 P:25 SP:FA CYC:173 SL:48
837B  10 FB     BPL $8378                       A:10 X:00 Y:F0 P:25 SP:FA CYC:185 SL:48
8378  AD 02 20  LDA $2002 = FF                  A:10 X:00 Y:F0 P:25 SP:FA CYC:194 SL:48
837B  10 FB     BPL $8378                       A:10 X:00 Y:F0 P:25 SP:FA CYC:206 SL:48
8378  AD 02 20  LDA $2002 = FF                  A:10 X:00 Y:F0 P:25 SP:FA CYC:215 SL:48
837B  10 FB     BPL $8378                       A:10 X:00 Y:F0 P:25 SP:FA CYC:227 SL:48
8378  AD 02 20  LDA $2002 = FF                  A:10 X:00 Y:F0 P:25 SP:FA CYC:236 SL:48
837B  10 FB     BPL $8378                       A:10 X:00 Y:F0 P:25 SP:FA CYC:248 SL:48
8378  AD 02 20  LDA $2002 = FF                  A:10 X:00 Y:F0 P:25 SP:FA CYC:257 SL:48
837B  10 FB     BPL $8378                       A:10 X:00 Y:F0 P:25 SP:FA CYC:269 SL:48
8378  AD 02 20  LDA $2002 = FF                  A:10 X:00 Y:F0 P:25 SP:FA CYC:278 SL:48
837B  10 FB     BPL $8378                       A:10 X:00 Y:F0 P:25 SP:FA CYC:290 SL:48
8378  AD 02 20  LDA $2002 = FF                  A:10 X:00 Y:F0 P:25 SP:FA CYC:299 SL:48
837B  10 FB     BPL $8378                       A:10 X:00 Y:F0 P:25 SP:FA CYC:311 SL:48
8378  AD 02 20  LDA $2002 = FF                  A:10 X:00 Y:F0 P:25 SP:FA CYC:320 SL:48
837B  10 FB     BPL $8378                       A:10 X:00 Y:F0 P:25 SP:FA CYC:332 SL:48
8378  AD 02 20  LDA $2002 = FF                  A:10 X:00 Y:F0 P:25 SP:FA CYC:  0 SL:49
837B  10 FB     BPL $8378                       A:10 X:00 Y:F0 P:25 SP:FA CYC: 12 SL:49
8378  AD 02 20  LDA $2002 = FF                  A:10 X:00 Y:F0 P:25 SP:FA CYC: 21 SL:49
837B  10 FB     BPL $8378                       A:10 X:00 Y:F0 P:25 SP:FA CYC: 33 SL:49
8378  AD 02 20  LDA $2002 = FF                  A:10 X:00 Y:F0 P:25 SP:FA CYC: 42 SL:49
837B  10 FB     BPL $8378                       A:10 X:00 Y:F0 P:25 SP:FA CYC: 54 SL:49
8378  AD 02 20  LDA $2002 = FF                  A:10 X:00 Y:F0 P:25 SP:FA CYC: 63 SL:49
837B  10 FB     BPL $8378                       A:10 X:00 Y:F0 P:25 SP:FA CYC: 75 SL:49
8378  AD 02 20  LDA $2002 = FF                  A:10 X:00 Y:F0 P:25 SP:FA CYC: 84 SL:49
837B  10 FB     BPL $8378                       A:10 X:00 Y:F0 P:25 SP:FA CYC: 96 SL:49
8378  AD 02 20  LDA $2002 = FF                  A:10 X:00 Y:F0 P:25 SP:FA CYC:105 SL:49
837B  10 FB     BPL $8378                       A:10 X:00 Y:F0 P:25 SP:FA CYC:117 SL:49
8378  AD 02 20  LDA $2002 = FF                  A:10 X:00 Y:F0 P:25 SP:FA CYC:126 SL:49
837B  10 FB     BPL $8378                       A:10 X:00 Y:F0 P:25 SP:FA CYC:138 SL:49
8378  AD 02 20  LDA $2002 = FF                  A:10 X:00 Y:F0 P:25 SP:FA CYC:147 SL:49
837B  10 FB     BPL $8378                       A:10 X:00 Y:F0 P:25 SP:FA CYC:159 SL:49
8378  AD 02 20  LDA $2002 = FF                  A:10 X:00 Y:F0 P:25 SP:FA CYC:168 SL:49
837B  10 FB     BPL $8378                       A:10 X:00 Y:F0 P:25 SP:FA CYC:180 SL:49
8378  AD 02 20  LDA $2002 = FF                  A:10 X:00 Y:F0 P:25 SP:FA CYC:189 SL:49
837B  10 FB     BPL $8378                       A:10 X:00 Y:F0 P:25 SP:FA CYC:201 SL:49
8378  AD 02 20  LDA $2002 = FF                  A:10 X:00 Y:F0 P:25 SP:FA CYC:210 SL:49
837B  10 FB     BPL $8378                       A:10 X:00 Y:F0 P:25 SP:FA CYC:222 SL:49
8378  AD 02 20  LDA $2002 = FF                  A:10 X:00 Y:F0 P:25 SP:FA CYC:231 SL:49
837B  10 FB     BPL $8378                       A:10 X:00 Y:F0 P:25 SP:FA CYC:243 SL:49
8378  AD 02 20  LDA $2002 = FF                  A:10 X:00 Y:F0 P:25 SP:FA CYC:252 SL:49
837B  10 FB     BPL $8378                       A:10 X:00 Y:F0 P:25 SP:FA CYC:264 SL:49
8378  AD 02 20  LDA $2002 = FF                  A:10 X:00 Y:F0 P:25 SP:FA CYC:273 SL:49
837B  10 FB     BPL $8378                       A:10 X:00 Y:F0 P:25 SP:FA CYC:285 SL:49
8378  AD 02 20  LDA $2002 = FF                  A:10 X:00 Y:F0 P:25 SP:FA CYC:294 SL:49
837B  10 FB     BPL $8378                       A:10 X:00 Y:F0 P:25 SP:FA CYC:306 SL:49
8378  AD 02 20  LDA $2002 = FF                  A:10 X:00 Y:F0 P:25 SP:FA CYC:315 SL:49
837B  10 FB     BPL $8378                       A:10 X:00 Y:F0 P:25 SP:FA CYC:327 SL:49
8378  AD 02 20  LDA $2002 = FF                  A:10 X:00 Y:F0 P:25 SP:FA CYC:336 SL:49
837B  10 FB     BPL $8378                       A:10 X:00 Y:F0 P:25 SP:FA CYC:  7 SL:50
8378  AD 02 20  LDA $2002 = FF                  A:10 X:00 Y:F0 P:25 SP:FA CYC: 16 SL:50
837B  10 FB     BPL $8378                       A:10 X:00 Y:F0 P:25 SP:FA CYC: 28 SL:50
8378  AD 02 20  LDA $2002 = FF                  A:10 X:00 Y:F0 P:25 SP:FA CYC: 37 SL:50
837B  10 FB     BPL $8378                       A:10 X:00 Y:F0 P:25 SP:FA CYC: 49 SL:50
8378  AD 02 20  LDA $2002 = FF                  A:10 X:00 Y:F0 P:25 SP:FA CYC: 58 SL:50
837B  10 FB     BPL $8378                       A:10 X:00 Y:F0 P:25 SP:FA CYC: 70 SL:50
8378  AD 02 20  LDA $2002 = FF                  A:10 X:00 Y:F0 P:25 SP:FA CYC: 79 SL:50
837B  10 FB     BPL $8378                       A:10 X:00 Y:F0 P:25 SP:FA CYC: 91 SL:50
8378  AD 02 20  LDA $2002 = FF                  A:10 X:00 Y:F0 P:25 SP:FA CYC:100 SL:50
837B  10 FB     BPL $8378                       A:10 X:00 Y:F0 P:25 SP:FA CYC:112 SL:50
8378  AD 02 20  LDA $2002 = FF                  A:10 X:00 Y:F0 P:25 SP:FA CYC:121 SL:50
837B  10 FB     BPL $8378                       A:10 X:00 Y:F0 P:25 SP:FA CYC:133 SL:50
8378  AD 02 20  LDA $2002 = FF                  A:10 X:00 Y:F0 P:25 SP:FA CYC:142 SL:50
837B  10 FB     BPL $8378                       A:10 X:00 Y:F0 P:25 SP:FA CYC:154 SL:50
8378  AD 02 20  LDA $2002 = FF                  A:10 X:00 Y:F0 P:25 SP:FA CYC:163 SL:50
837B  10 FB     BPL $8378                       A:10 X:00 Y:F0 P:25 SP:FA CYC:175 SL:50
8378  AD 02 20  LDA $2002 = FF                  A:10 X:00 Y:F0 P:25 SP:FA CYC:184 SL:50
837B  10 FB     BPL $8378                       A:10 X:00 Y:F0 P:25 SP:FA CYC:196 SL:50
8378  AD 02 20  LDA $2002 = FF                  A:10 X:00 Y:F0 P:25 SP:FA CYC:205 SL:50
837B  10 FB     BPL $8378                       A:10 X:00 Y:F0 P:25 SP:FA CYC:217 SL:50
8378  AD 02 20  LDA $2002 = FF                  A:10 X:00 Y:F0 P:25 SP:FA CYC:226 SL:50
837B  10 FB     BPL $8378                       A:10 X:00 Y:F0 P:25 SP:FA CYC:238 SL:50
8378  AD 02 20  LDA $2002 = FF                  A:10 X:00 Y:F0 P:25 SP:FA CYC:247 SL:50
837B  10 FB     BPL $8378                       A:10 X:00 Y:F0 P:25 SP:FA CYC:259 SL:50
8378  AD 02 20  LDA $2002 = FF                  A:10 X:00 Y:F0 P:25 SP:FA CYC:268 SL:50
837B  10 FB     BPL $8378                       A:10 X:00 Y:F0 P:25 SP:FA CYC:280 SL:50
8378  AD 02 20  LDA $2002 = FF                  A:10 X:00 Y:F0 P:25 SP:FA CYC:289 SL:50
837B  10 FB     BPL $8378                       A:10 X:00 Y:F0 P:25 SP:FA CYC:301 SL:50
8378  AD 02 20  LDA $2002 = FF                  A:10 X:00 Y:F0 P:25 SP:FA CYC:310 SL:50
837B  10 FB     BPL $8378                       A:10 X:00 Y:F0 P:25 SP:FA CYC:322 SL:50
8378  AD 02 20  LDA $2002 = FF                  A:10 X:00 Y:F0 P:25 SP:FA CYC:331 SL:50
837B  10 FB     BPL $8378                       A:10 X:00 Y:F0 P:25 SP:FA CYC:  2 SL:51
8378  AD 02 20  LDA $2002 = FF                  A:10 X:00 Y:F0 P:25 SP:FA CYC: 11 SL:51
837B  10 FB     BPL $8378                       A:10 X:00 Y:F0 P:25 SP:FA CYC: 23 SL:51
8378  AD 02 20  LDA $2002 = FF                  A:10 X:00 Y:F0 P:25 SP:FA CYC: 32 SL:51
837B  10 FB     BPL $8378                       A:10 X:00 Y:F0 P:25 SP:FA CYC: 44 SL:51
8378  AD 02 20  LDA $2002 = FF                  A:10 X:00 Y:F0 P:25 SP:FA CYC: 53 SL:51
837B  10 FB     BPL $8378                       A:10 X:00 Y:F0 P:25 SP:FA CYC: 65 SL:51
8378  AD 02 20  LDA $2002 = FF                  A:10 X:00 Y:F0 P:25 SP:FA CYC: 74 SL:51
837B  10 FB     BPL $8378                       A:10 X:00 Y:F0 P:25 SP:FA CYC: 86 SL:51
8378  AD 02 20  LDA $2002 = FF                  A:10 X:00 Y:F0 P:25 SP:FA CYC: 95 SL:51
837B  10 FB     BPL $8378                       A:10 X:00 Y:F0 P:25 SP:FA CYC:107 SL:51
8378  AD 02 20  LDA $2002 = FF                  A:10 X:00 Y:F0 P:25 SP:FA CYC:116 SL:51
837B  10 FB     BPL $8378                       A:10 X:00 Y:F0 P:25 SP:FA CYC:128 SL:51
8378  AD 02 20  LDA $2002 = FF                  A:10 X:00 Y:F0 P:25 SP:FA CYC:137 SL:51
837B  10 FB     BPL $8378                       A:10 X:00 Y:F0 P:25 SP:FA CYC:149 SL:51
8378  AD 02 20  LDA $2002 = FF                  A:10 X:00 Y:F0 P:25 SP:FA CYC:158 SL:51
837B  10 FB     BPL $8378                       A:10 X:00 Y:F0 P:25 SP:FA CYC:170 SL:51
8378  AD 02 20  LDA $2002 = FF                  A:10 X:00 Y:F0 P:25 SP:FA CYC:179 SL:51
837B  10 FB     BPL $8378                       A:10 X:00 Y:F0 P:25 SP:FA CYC:191 SL:51
8378  AD 02 20  LDA $2002 = FF                  A:10 X:00 Y:F0 P:25 SP:FA CYC:200 SL:51
837B  10 FB     BPL $8378                       A:10 X:00 Y:F0 P:25 SP:FA CYC:212 SL:51
8378  AD 02 20  LDA $2002 = FF                  A:10 X:00 Y:F0 P:25 SP:FA CYC:221 SL:51
837B  10 FB     BPL $8378                       A:10 X:00 Y:F0 P:25 SP:FA CYC:233 SL:51
8378  AD 02 20  LDA $2002 = FF                  A:10 X:00 Y:F0 P:25 SP:FA CYC:242 SL:51
837B  10 FB     BPL $8378                       A:10 X:00 Y:F0 P:25 SP:FA CYC:254 SL:51
8378  AD 02 20  LDA $2002 = FF                  A:10 X:00 Y:F0 P:25 SP:FA CYC:263 SL:51
837B  10 FB     BPL $8378                       A:10 X:00 Y:F0 P:25 SP:FA CYC:275 SL:51
8378  AD 02 20  LDA $2002 = FF                  A:10 X:00 Y:F0 P:25 SP:FA CYC:284 SL:51
837B  10 FB     BPL $8378                       A:10 X:00 Y:F0 P:25 SP:FA CYC:296 SL:51
8378  AD 02 20  LDA $2002 = FF                  A:10 X:00 Y:F0 P:25 SP:FA CYC:305 SL:51
837B  10 FB     BPL $8378                       A:10 X:00 Y:F0 P:25 SP:FA CYC:317 SL:51
8378  AD 02 20  LDA $2002 = FF                  A:10 X:00 Y:F0 P:25 SP:FA CYC:326 SL:51
837B  10 FB     BPL $8378                       A:10 X:00 Y:F0 P:25 SP:FA CYC:338 SL:51
8378  AD 02 20  LDA $2002 = FF                  A:10 X:00 Y:F0 P:25 SP:FA CYC:  6 SL:52
837B  10 FB     BPL $8378                       A:10 X:00 Y:F0 P:25 SP:FA CYC: 18 SL:52
8378  AD 02 20  LDA $2002 = FF                  A:10 X:00 Y:F0 P:25 SP:FA CYC: 27 SL:52
837B  10 FB     BPL $8378                       A:10 X:00 Y:F0 P:25 SP:FA CYC: 39 SL:52
8378  AD 02 20  LDA $2002 = FF                  A:10 X:00 Y:F0 P:25 SP:FA CYC: 48 SL:52
837B  10 FB     BPL $8378                       A:10 X:00 Y:F0 P:25 SP:FA CYC: 60 SL:52
8378  AD 02 20  LDA $2002 = FF                  A:10 X:00 Y:F0 P:25 SP:FA CYC: 69 SL:52
837B  10 FB     BPL $8378                       A:10 X:00 Y:F0 P:25 SP:FA CYC: 81 SL:52
8378  AD 02 20  LDA $2002 = FF                  A:10 X:00 Y:F0 P:25 SP:FA CYC: 90 SL:52
837B  10 FB     BPL $8378                       A:10 X:00 Y:F0 P:25 SP:FA CYC:102 SL:52
8378  AD 02 20  LDA $2002 = FF                  A:10 X:00 Y:F0 P:25 SP:FA CYC:111 SL:52
837B  10 FB     BPL $8378                       A:10 X:00 Y:F0 P:25 SP:FA CYC:123 SL:52
8378  AD 02 20  LDA $2002 = FF                  A:10 X:00 Y:F0 P:25 SP:FA CYC:132 SL:52
837B  10 FB     BPL $8378                       A:10 X:00 Y:F0 P:25 SP:FA CYC:144 SL:52
8378  AD 02 20  LDA $2002 = FF                  A:10 X:00 Y:F0 P:25 SP:FA CYC:153 SL:52
837B  10 FB     BPL $8378                       A:10 X:00 Y:F0 P:25 SP:FA CYC:165 SL:52
8378  AD 02 20  LDA $2002 = FF                  A:10 X:00 Y:F0 P:25 SP:FA CYC:174 SL:52
837B  10 FB     BPL $8378                       A:10 X:00 Y:F0 P:25 SP:FA CYC:186 SL:52
8378  AD 02 20  LDA $2002 = FF                  A:10 X:00 Y:F0 P:25 SP:FA CYC:195 SL:52
837B  10 FB     BPL $8378                       A:10 X:00 Y:F0 P:25 SP:FA CYC:207 SL:52
8378  AD 02 20  LDA $2002 = FF                  A:10 X:00 Y:F0 P:25 SP:FA CYC:216 SL:52
837B  10 FB     BPL $8378                       A:10 X:00 Y:F0 P:25 SP:FA CYC:228 SL:52
8378  AD 02 20  LDA $2002 = FF                  A:10 X:00 Y:F0 P:25 SP:FA CYC:237 SL:52
837B  10 FB     BPL $8378                       A:10 X:00 Y:F0 P:25 SP:FA CYC:249 SL:52
8378  AD 02 20  LDA $2002 = FF                  A:10 X:00 Y:F0 P:25 SP:FA CYC:258 SL:52
837B  10 FB     BPL $8378                       A:10 X:00 Y:F0 P:25 SP:FA CYC:270 SL:52
8378  AD 02 20  LDA $2002 = FF                  A:10 X:00 Y:F0 P:25 SP:FA CYC:279 SL:52
837B  10 FB     BPL $8378                       A:10 X:00 Y:F0 P:25 SP:FA CYC:291 SL:52
8378  AD 02 20  LDA $2002 = FF                  A:10 X:00 Y:F0 P:25 SP:FA CYC:300 SL:52
837B  10 FB     BPL $8378                       A:10 X:00 Y:F0 P:25 SP:FA CYC:312 SL:52
8378  AD 02 20  LDA $2002 = FF                  A:10 X:00 Y:F0 P:25 SP:FA CYC:321 SL:52
837B  10 FB     BPL $8378                       A:10 X:00 Y:F0 P:25 SP:FA CYC:333 SL:52
8378  AD 02 20  LDA $2002 = FF                  A:10 X:00 Y:F0 P:25 SP:FA CYC:  1 SL:53
837B  10 FB     BPL $8378                       A:10 X:00 Y:F0 P:25 SP:FA CYC: 13 SL:53
8378  AD 02 20  LDA $2002 = FF                  A:10 X:00 Y:F0 P:25 SP:FA CYC: 22 SL:53
837B  10 FB     BPL $8378                       A:10 X:00 Y:F0 P:25 SP:FA CYC: 34 SL:53
8378  AD 02 20  LDA $2002 = FF                  A:10 X:00 Y:F0 P:25 SP:FA CYC: 43 SL:53
837B  10 FB     BPL $8378                       A:10 X:00 Y:F0 P:25 SP:FA CYC: 55 SL:53
8378  AD 02 20  LDA $2002 = FF                  A:10 X:00 Y:F0 P:25 SP:FA CYC: 64 SL:53
837B  10 FB     BPL $8378                       A:10 X:00 Y:F0 P:25 SP:FA CYC: 76 SL:53
8378  AD 02 20  LDA $2002 = FF                  A:10 X:00 Y:F0 P:25 SP:FA CYC: 85 SL:53
837B  10 FB     BPL $8378                       A:10 X:00 Y:F0 P:25 SP:FA CYC: 97 SL:53
8378  AD 02 20  LDA $2002 = FF                  A:10 X:00 Y:F0 P:25 SP:FA CYC:106 SL:53
837B  10 FB     BPL $8378                       A:10 X:00 Y:F0 P:25 SP:FA CYC:118 SL:53
8378  AD 02 20  LDA $2002 = FF                  A:10 X:00 Y:F0 P:25 SP:FA CYC:127 SL:53
837B  10 FB     BPL $8378                       A:10 X:00 Y:F0 P:25 SP:FA CYC:139 SL:53
8378  AD 02 20  LDA $2002 = FF                  A:10 X:00 Y:F0 P:25 SP:FA CYC:148 SL:53
837B  10 FB     BPL $8378                       A:10 X:00 Y:F0 P:25 SP:FA CYC:160 SL:53
8378  AD 02 20  LDA $2002 = FF                  A:10 X:00 Y:F0 P:25 SP:FA CYC:169 SL:53
837B  10 FB     BPL $8378                       A:10 X:00 Y:F0 P:25 SP:FA CYC:181 SL:53
8378  AD 02 20  LDA $2002 = FF                  A:10 X:00 Y:F0 P:25 SP:FA CYC:190 SL:53
837B  10 FB     BPL $8378                       A:10 X:00 Y:F0 P:25 SP:FA CYC:202 SL:53
8378  AD 02 20  LDA $2002 = FF                  A:10 X:00 Y:F0 P:25 SP:FA CYC:211 SL:53
837B  10 FB     BPL $8378                       A:10 X:00 Y:F0 P:25 SP:FA CYC:223 SL:53
8378  AD 02 20  LDA $2002 = FF                  A:10 X:00 Y:F0 P:25 SP:FA CYC:232 SL:53
837B  10 FB     BPL $8378                       A:10 X:00 Y:F0 P:25 SP:FA CYC:244 SL:53
8378  AD 02 20  LDA $2002 = FF                  A:10 X:00 Y:F0 P:25 SP:FA CYC:253 SL:53
837B  10 FB     BPL $8378                       A:10 X:00 Y:F0 P:25 SP:FA CYC:265 SL:53
8378  AD 02 20  LDA $2002 = FF                  A:10 X:00 Y:F0 P:25 SP:FA CYC:274 SL:53
837B  10 FB     BPL $8378                       A:10 X:00 Y:F0 P:25 SP:FA CYC:286 SL:53
8378  AD 02 20  LDA $2002 = FF                  A:10 X:00 Y:F0 P:25 SP:FA CYC:295 SL:53
837B  10 FB     BPL $8378                       A:10 X:00 Y:F0 P:25 SP:FA CYC:307 SL:53
8378  AD 02 20  LDA $2002 = FF                  A:10 X:00 Y:F0 P:25 SP:FA CYC:316 SL:53
837B  10 FB     BPL $8378                       A:10 X:00 Y:F0 P:25 SP:FA CYC:328 SL:53
8378  AD 02 20  LDA $2002 = FF                  A:10 X:00 Y:F0 P:25 SP:FA CYC:337 SL:53
837B  10 FB     BPL $8378                       A:10 X:00 Y:F0 P:25 SP:FA CYC:  8 SL:54
8378  AD 02 20  LDA $2002 = FF                  A:10 X:00 Y:F0 P:25 SP:FA CYC: 17 SL:54
837B  10 FB     BPL $8378                       A:10 X:00 Y:F0 P:25 SP:FA CYC: 29 SL:54
8378  AD 02 20  LDA $2002 = FF                  A:10 X:00 Y:F0 P:25 SP:FA CYC: 38 SL:54
837B  10 FB     BPL $8378                       A:10 X:00 Y:F0 P:25 SP:FA CYC: 50 SL:54
8378  AD 02 20  LDA $2002 = FF                  A:10 X:00 Y:F0 P:25 SP:FA CYC: 59 SL:54
837B  10 FB     BPL $8378                       A:10 X:00 Y:F0 P:25 SP:FA CYC: 71 SL:54
8378  AD 02 20  LDA $2002 = FF                  A:10 X:00 Y:F0 P:25 SP:FA CYC: 80 SL:54
837B  10 FB     BPL $8378                       A:10 X:00 Y:F0 P:25 SP:FA CYC: 92 SL:54
8378  AD 02 20  LDA $2002 = FF                  A:10 X:00 Y:F0 P:25 SP:FA CYC:101 SL:54
837B  10 FB     BPL $8378                       A:10 X:00 Y:F0 P:25 SP:FA CYC:113 SL:54
8378  AD 02 20  LDA $2002 = FF                  A:10 X:00 Y:F0 P:25 SP:FA CYC:122 SL:54
837B  10 FB     BPL $8378                       A:10 X:00 Y:F0 P:25 SP:FA CYC:134 SL:54
8378  AD 02 20  LDA $2002 = FF                  A:10 X:00 Y:F0 P:25 SP:FA CYC:143 SL:54
837B  10 FB     BPL $8378                       A:10 X:00 Y:F0 P:25 SP:FA CYC:155 SL:54
8378  AD 02 20  LDA $2002 = FF                  A:10 X:00 Y:F0 P:25 SP:FA CYC:164 SL:54
837B  10 FB     BPL $8378                       A:10 X:00 Y:F0 P:25 SP:FA CYC:176 SL:54
8378  AD 02 20  LDA $2002 = FF                  A:10 X:00 Y:F0 P:25 SP:FA CYC:185 SL:54
837B  10 FB     BPL $8378                       A:10 X:00 Y:F0 P:25 SP:FA CYC:197 SL:54
8378  AD 02 20  LDA $2002 = FF                  A:10 X:00 Y:F0 P:25 SP:FA CYC:206 SL:54
837B  10 FB     BPL $8378                       A:10 X:00 Y:F0 P:25 SP:FA CYC:218 SL:54
8378  AD 02 20  LDA $2002 = FF                  A:10 X:00 Y:F0 P:25 SP:FA CYC:227 SL:54
837B  10 FB     BPL $8378                       A:10 X:00 Y:F0 P:25 SP:FA CYC:239 SL:54
8378  AD 02 20  LDA $2002 = FF                  A:10 X:00 Y:F0 P:25 SP:FA CYC:248 SL:54
837B  10 FB     BPL $8378                       A:10 X:00 Y:F0 P:25 SP:FA CYC:260 SL:54
8378  AD 02 20  LDA $2002 = FF                  A:10 X:00 Y:F0 P:25 SP:FA CYC:269 SL:54
837B  10 FB     BPL $8378                       A:10 X:00 Y:F0 P:25 SP:FA CYC:281 SL:54
8378  AD 02 20  LDA $2002 = FF                  A:10 X:00 Y:F0 P:25 SP:FA CYC:290 SL:54
837B  10 FB     BPL $8378                       A:10 X:00 Y:F0 P:25 SP:FA CYC:302 SL:54
8378  AD 02 20  LDA $2002 = FF                  A:10 X:00 Y:F0 P:25 SP:FA CYC:311 SL:54
837B  10 FB     BPL $8378                       A:10 X:00 Y:F0 P:25 SP:FA CYC:323 SL:54
8378  AD 02 20  LDA $2002 = FF                  A:10 X:00 Y:F0 P:25 SP:FA CYC:332 SL:54
837B  10 FB     BPL $8378                       A:10 X:00 Y:F0 P:25 SP:FA CYC:  3 SL:55
8378  AD 02 20  LDA $2002 = FF                  A:10 X:00 Y:F0 P:25 SP:FA CYC: 12 SL:55
837B  10 FB     BPL $8378                       A:10 X:00 Y:F0 P:25 SP:FA CYC: 24 SL:55
8378  AD 02 20  LDA $2002 = FF                  A:10 X:00 Y:F0 P:25 SP:FA CYC: 33 SL:55
837B  10 FB     BPL $8378                       A:10 X:00 Y:F0 P:25 SP:FA CYC: 45 SL:55
8378  AD 02 20  LDA $2002 = FF                  A:10 X:00 Y:F0 P:25 SP:FA CYC: 54 SL:55
837B  10 FB     BPL $8378                       A:10 X:00 Y:F0 P:25 SP:FA CYC: 66 SL:55
8378  AD 02 20  LDA $2002 = FF                  A:10 X:00 Y:F0 P:25 SP:FA CYC: 75 SL:55
837B  10 FB     BPL $8378                       A:10 X:00 Y:F0 P:25 SP:FA CYC: 87 SL:55
8378  AD 02 20  LDA $2002 = FF                  A:10 X:00 Y:F0 P:25 SP:FA CYC: 96 SL:55
837B  10 FB     BPL $8378                       A:10 X:00 Y:F0 P:25 SP:FA CYC:108 SL:55
8378  AD 02 20  LDA $2002 = FF                  A:10 X:00 Y:F0 P:25 SP:FA CYC:117 SL:55
837B  10 FB     BPL $8378                       A:10 X:00 Y:F0 P:25 SP:FA CYC:129 SL:55
8378  AD 02 20  LDA $2002 = FF                  A:10 X:00 Y:F0 P:25 SP:FA CYC:138 SL:55
837B  10 FB     BPL $8378                       A:10 X:00 Y:F0 P:25 SP:FA CYC:150 SL:55
8378  AD 02 20  LDA $2002 = FF                  A:10 X:00 Y:F0 P:25 SP:FA CYC:159 SL:55
837B  10 FB     BPL $8378                       A:10 X:00 Y:F0 P:25 SP:FA CYC:171 SL:55
8378  AD 02 20  LDA $2002 = FF                  A:10 X:00 Y:F0 P:25 SP:FA CYC:180 SL:55
837B  10 FB     BPL $8378                       A:10 X:00 Y:F0 P:25 SP:FA CYC:192 SL:55
8378  AD 02 20  LDA $2002 = FF                  A:10 X:00 Y:F0 P:25 SP:FA CYC:201 SL:55
837B  10 FB     BPL $8378                       A:10 X:00 Y:F0 P:25 SP:FA CYC:213 SL:55
8378  AD 02 20  LDA $2002 = FF                  A:10 X:00 Y:F0 P:25 SP:FA CYC:222 SL:55
837B  10 FB     BPL $8378                       A:10 X:00 Y:F0 P:25 SP:FA CYC:234 SL:55
8378  AD 02 20  LDA $2002 = FF                  A:10 X:00 Y:F0 P:25 SP:FA CYC:243 SL:55
837B  10 FB     BPL $8378                       A:10 X:00 Y:F0 P:25 SP:FA CYC:255 SL:55
8378  AD 02 20  LDA $2002 = FF                  A:10 X:00 Y:F0 P:25 SP:FA CYC:264 SL:55
837B  10 FB     BPL $8378                       A:10 X:00 Y:F0 P:25 SP:FA CYC:276 SL:55
8378  AD 02 20  LDA $2002 = FF                  A:10 X:00 Y:F0 P:25 SP:FA CYC:285 SL:55
837B  10 FB     BPL $8378                       A:10 X:00 Y:F0 P:25 SP:FA CYC:297 SL:55
8378  AD 02 20  LDA $2002 = FF                  A:10 X:00 Y:F0 P:25 SP:FA CYC:306 SL:55
837B  10 FB     BPL $8378                       A:10 X:00 Y:F0 P:25 SP:FA CYC:318 SL:55
8378  AD 02 20  LDA $2002 = FF                  A:10 X:00 Y:F0 P:25 SP:FA CYC:327 SL:55
837B  10 FB     BPL $8378                       A:10 X:00 Y:F0 P:25 SP:FA CYC:339 SL:55
8378  AD 02 20  LDA $2002 = FF                  A:10 X:00 Y:F0 P:25 SP:FA CYC:  7 SL:56
837B  10 FB     BPL $8378                       A:10 X:00 Y:F0 P:25 SP:FA CYC: 19 SL:56
8378  AD 02 20  LDA $2002 = FF                  A:10 X:00 Y:F0 P:25 SP:FA CYC: 28 SL:56
837B  10 FB     BPL $8378                       A:10 X:00 Y:F0 P:25 SP:FA CYC: 40 SL:56
8378  AD 02 20  LDA $2002 = FF                  A:10 X:00 Y:F0 P:25 SP:FA CYC: 49 SL:56
837B  10 FB     BPL $8378                       A:10 X:00 Y:F0 P:25 SP:FA CYC: 61 SL:56
8378  AD 02 20  LDA $2002 = FF                  A:10 X:00 Y:F0 P:25 SP:FA CYC: 70 SL:56
837B  10 FB     BPL $8378                       A:10 X:00 Y:F0 P:25 SP:FA CYC: 82 SL:56
8378  AD 02 20  LDA $2002 = FF                  A:10 X:00 Y:F0 P:25 SP:FA CYC: 91 SL:56
837B  10 FB     BPL $8378                       A:10 X:00 Y:F0 P:25 SP:FA CYC:103 SL:56
8378  AD 02 20  LDA $2002 = FF                  A:10 X:00 Y:F0 P:25 SP:FA CYC:112 SL:56
837B  10 FB     BPL $8378                       A:10 X:00 Y:F0 P:25 SP:FA CYC:124 SL:56
8378  AD 02 20  LDA $2002 = FF                  A:10 X:00 Y:F0 P:25 SP:FA CYC:133 SL:56
837B  10 FB     BPL $8378                       A:10 X:00 Y:F0 P:25 SP:FA CYC:145 SL:56
8378  AD 02 20  LDA $2002 = FF                  A:10 X:00 Y:F0 P:25 SP:FA CYC:154 SL:56
837B  10 FB     BPL $8378                       A:10 X:00 Y:F0 P:25 SP:FA CYC:166 SL:56
8378  AD 02 20  LDA $2002 = FF                  A:10 X:00 Y:F0 P:25 SP:FA CYC:175 SL:56
837B  10 FB     BPL $8378                       A:10 X:00 Y:F0 P:25 SP:FA CYC:187 SL:56
8378  AD 02 20  LDA $2002 = FF                  A:10 X:00 Y:F0 P:25 SP:FA CYC:196 SL:56
837B  10 FB     BPL $8378                       A:10 X:00 Y:F0 P:25 SP:FA CYC:208 SL:56
8378  AD 02 20  LDA $2002 = FF                  A:10 X:00 Y:F0 P:25 SP:FA CYC:217 SL:56
837B  10 FB     BPL $8378                       A:10 X:00 Y:F0 P:25 SP:FA CYC:229 SL:56
8378  AD 02 20  LDA $2002 = FF                  A:10 X:00 Y:F0 P:25 SP:FA CYC:238 SL:56
837B  10 FB     BPL $8378                       A:10 X:00 Y:F0 P:25 SP:FA CYC:250 SL:56
8378  AD 02 20  LDA $2002 = FF                  A:10 X:00 Y:F0 P:25 SP:FA CYC:259 SL:56
837B  10 FB     BPL $8378                       A:10 X:00 Y:F0 P:25 SP:FA CYC:271 SL:56
8378  AD 02 20  LDA $2002 = FF                  A:10 X:00 Y:F0 P:25 SP:FA CYC:280 SL:56
837B  10 FB     BPL $8378                       A:10 X:00 Y:F0 P:25 SP:FA CYC:292 SL:56
8378  AD 02 20  LDA $2002 = FF                  A:10 X:00 Y:F0 P:25 SP:FA CYC:301 SL:56
837B  10 FB     BPL $8378                       A:10 X:00 Y:F0 P:25 SP:FA CYC:313 SL:56
8378  AD 02 20  LDA $2002 = FF                  A:10 X:00 Y:F0 P:25 SP:FA CYC:322 SL:56
837B  10 FB     BPL $8378                       A:10 X:00 Y:F0 P:25 SP:FA CYC:334 SL:56
8378  AD 02 20  LDA $2002 = FF                  A:10 X:00 Y:F0 P:25 SP:FA CYC:  2 SL:57
837B  10 FB     BPL $8378                       A:10 X:00 Y:F0 P:25 SP:FA CYC: 14 SL:57
8378  AD 02 20  LDA $2002 = FF                  A:10 X:00 Y:F0 P:25 SP:FA CYC: 23 SL:57
837B  10 FB     BPL $8378                       A:10 X:00 Y:F0 P:25 SP:FA CYC: 35 SL:57
8378  AD 02 20  LDA $2002 = FF                  A:10 X:00 Y:F0 P:25 SP:FA CYC: 44 SL:57
837B  10 FB     BPL $8378                       A:10 X:00 Y:F0 P:25 SP:FA CYC: 56 SL:57
8378  AD 02 20  LDA $2002 = FF                  A:10 X:00 Y:F0 P:25 SP:FA CYC: 65 SL:57
837B  10 FB     BPL $8378                       A:10 X:00 Y:F0 P:25 SP:FA CYC: 77 SL:57
8378  AD 02 20  LDA $2002 = FF                  A:10 X:00 Y:F0 P:25 SP:FA CYC: 86 SL:57
837B  10 FB     BPL $8378                       A:10 X:00 Y:F0 P:25 SP:FA CYC: 98 SL:57
8378  AD 02 20  LDA $2002 = FF                  A:10 X:00 Y:F0 P:25 SP:FA CYC:107 SL:57
837B  10 FB     BPL $8378                       A:10 X:00 Y:F0 P:25 SP:FA CYC:119 SL:57
8378  AD 02 20  LDA $2002 = FF                  A:10 X:00 Y:F0 P:25 SP:FA CYC:128 SL:57
837B  10 FB     BPL $8378                       A:10 X:00 Y:F0 P:25 SP:FA CYC:140 SL:57
8378  AD 02 20  LDA $2002 = FF                  A:10 X:00 Y:F0 P:25 SP:FA CYC:149 SL:57
837B  10 FB     BPL $8378                       A:10 X:00 Y:F0 P:25 SP:FA CYC:161 SL:57
8378  AD 02 20  LDA $2002 = FF                  A:10 X:00 Y:F0 P:25 SP:FA CYC:170 SL:57
837B  10 FB     BPL $8378                       A:10 X:00 Y:F0 P:25 SP:FA CYC:182 SL:57
8378  AD 02 20  LDA $2002 = FF                  A:10 X:00 Y:F0 P:25 SP:FA CYC:191 SL:57
837B  10 FB     BPL $8378                       A:10 X:00 Y:F0 P:25 SP:FA CYC:203 SL:57
8378  AD 02 20  LDA $2002 = FF                  A:10 X:00 Y:F0 P:25 SP:FA CYC:212 SL:57
837B  10 FB     BPL $8378                       A:10 X:00 Y:F0 P:25 SP:FA CYC:224 SL:57
8378  AD 02 20  LDA $2002 = FF                  A:10 X:00 Y:F0 P:25 SP:FA CYC:233 SL:57
837B  10 FB     BPL $8378                       A:10 X:00 Y:F0 P:25 SP:FA CYC:245 SL:57
8378  AD 02 20  LDA $2002 = FF                  A:10 X:00 Y:F0 P:25 SP:FA CYC:254 SL:57
837B  10 FB     BPL $8378                       A:10 X:00 Y:F0 P:25 SP:FA CYC:266 SL:57
8378  AD 02 20  LDA $2002 = FF                  A:10 X:00 Y:F0 P:25 SP:FA CYC:275 SL:57
837B  10 FB     BPL $8378                       A:10 X:00 Y:F0 P:25 SP:FA CYC:287 SL:57
8378  AD 02 20  LDA $2002 = FF                  A:10 X:00 Y:F0 P:25 SP:FA CYC:296 SL:57
837B  10 FB     BPL $8378                       A:10 X:00 Y:F0 P:25 SP:FA CYC:308 SL:57
8378  AD 02 20  LDA $2002 = FF                  A:10 X:00 Y:F0 P:25 SP:FA CYC:317 SL:57
837B  10 FB     BPL $8378                       A:10 X:00 Y:F0 P:25 SP:FA CYC:329 SL:57
8378  AD 02 20  LDA $2002 = FF                  A:10 X:00 Y:F0 P:25 SP:FA CYC:338 SL:57
837B  10 FB     BPL $8378                       A:10 X:00 Y:F0 P:25 SP:FA CYC:  9 SL:58
8378  AD 02 20  LDA $2002 = FF                  A:10 X:00 Y:F0 P:25 SP:FA CYC: 18 SL:58
837B  10 FB     BPL $8378                       A:10 X:00 Y:F0 P:25 SP:FA CYC: 30 SL:58
8378  AD 02 20  LDA $2002 = FF                  A:10 X:00 Y:F0 P:25 SP:FA CYC: 39 SL:58
837B  10 FB     BPL $8378                       A:10 X:00 Y:F0 P:25 SP:FA CYC: 51 SL:58
8378  AD 02 20  LDA $2002 = FF                  A:10 X:00 Y:F0 P:25 SP:FA CYC: 60 SL:58
837B  10 FB     BPL $8378                       A:10 X:00 Y:F0 P:25 SP:FA CYC: 72 SL:58
8378  AD 02 20  LDA $2002 = FF                  A:10 X:00 Y:F0 P:25 SP:FA CYC: 81 SL:58
837B  10 FB     BPL $8378                       A:10 X:00 Y:F0 P:25 SP:FA CYC: 93 SL:58
8378  AD 02 20  LDA $2002 = FF                  A:10 X:00 Y:F0 P:25 SP:FA CYC:102 SL:58
837B  10 FB     BPL $8378                       A:10 X:00 Y:F0 P:25 SP:FA CYC:114 SL:58
8378  AD 02 20  LDA $2002 = FF                  A:10 X:00 Y:F0 P:25 SP:FA CYC:123 SL:58
837B  10 FB     BPL $8378                       A:10 X:00 Y:F0 P:25 SP:FA CYC:135 SL:58
8378  AD 02 20  LDA $2002 = FF                  A:10 X:00 Y:F0 P:25 SP:FA CYC:144 SL:58
837B  10 FB     BPL $8378                       A:10 X:00 Y:F0 P:25 SP:FA CYC:156 SL:58
8378  AD 02 20  LDA $2002 = FF                  A:10 X:00 Y:F0 P:25 SP:FA CYC:165 SL:58
837B  10 FB     BPL $8378                       A:10 X:00 Y:F0 P:25 SP:FA CYC:177 SL:58
8378  AD 02 20  LDA $2002 = FF                  A:10 X:00 Y:F0 P:25 SP:FA CYC:186 SL:58
837B  10 FB     BPL $8378                       A:10 X:00 Y:F0 P:25 SP:FA CYC:198 SL:58
8378  AD 02 20  LDA $2002 = FF                  A:10 X:00 Y:F0 P:25 SP:FA CYC:207 SL:58
837B  10 FB     BPL $8378                       A:10 X:00 Y:F0 P:25 SP:FA CYC:219 SL:58
8378  AD 02 20  LDA $2002 = FF                  A:10 X:00 Y:F0 P:25 SP:FA CYC:228 SL:58
837B  10 FB     BPL $8378                       A:10 X:00 Y:F0 P:25 SP:FA CYC:240 SL:58
8378  AD 02 20  LDA $2002 = FF                  A:10 X:00 Y:F0 P:25 SP:FA CYC:249 SL:58
837B  10 FB     BPL $8378                       A:10 X:00 Y:F0 P:25 SP:FA CYC:261 SL:58
8378  AD 02 20  LDA $2002 = FF                  A:10 X:00 Y:F0 P:25 SP:FA CYC:270 SL:58
837B  10 FB     BPL $8378                       A:10 X:00 Y:F0 P:25 SP:FA CYC:282 SL:58
8378  AD 02 20  LDA $2002 = FF                  A:10 X:00 Y:F0 P:25 SP:FA CYC:291 SL:58
837B  10 FB     BPL $8378                       A:10 X:00 Y:F0 P:25 SP:FA CYC:303 SL:58
8378  AD 02 20  LDA $2002 = FF                  A:10 X:00 Y:F0 P:25 SP:FA CYC:312 SL:58
837B  10 FB     BPL $8378                       A:10 X:00 Y:F0 P:25 SP:FA CYC:324 SL:58
8378  AD 02 20  LDA $2002 = FF                  A:10 X:00 Y:F0 P:25 SP:FA CYC:333 SL:58
837B  10 FB     BPL $8378                       A:10 X:00 Y:F0 P:25 SP:FA CYC:  4 SL:59
8378  AD 02 20  LDA $2002 = FF                  A:10 X:00 Y:F0 P:25 SP:FA CYC: 13 SL:59
837B  10 FB     BPL $8378                       A:10 X:00 Y:F0 P:25 SP:FA CYC: 25 SL:59
8378  AD 02 20  LDA $2002 = FF                  A:10 X:00 Y:F0 P:25 SP:FA CYC: 34 SL:59
837B  10 FB     BPL $8378                       A:10 X:00 Y:F0 P:25 SP:FA CYC: 46 SL:59
8378  AD 02 20  LDA $2002 = FF                  A:10 X:00 Y:F0 P:25 SP:FA CYC: 55 SL:59
837B  10 FB     BPL $8378                       A:10 X:00 Y:F0 P:25 SP:FA CYC: 67 SL:59
8378  AD 02 20  LDA $2002 = FF                  A:10 X:00 Y:F0 P:25 SP:FA CYC: 76 SL:59
837B  10 FB     BPL $8378                       A:10 X:00 Y:F0 P:25 SP:FA CYC: 88 SL:59
8378  AD 02 20  LDA $2002 = FF                  A:10 X:00 Y:F0 P:25 SP:FA CYC: 97 SL:59
837B  10 FB     BPL $8378                       A:10 X:00 Y:F0 P:25 SP:FA CYC:109 SL:59
8378  AD 02 20  LDA $2002 = FF                  A:10 X:00 Y:F0 P:25 SP:FA CYC:118 SL:59
837B  10 FB     BPL $8378                       A:10 X:00 Y:F0 P:25 SP:FA CYC:130 SL:59
8378  AD 02 20  LDA $2002 = FF                  A:10 X:00 Y:F0 P:25 SP:FA CYC:139 SL:59
837B  10 FB     BPL $8378                       A:10 X:00 Y:F0 P:25 SP:FA CYC:151 SL:59
8378  AD 02 20  LDA $2002 = FF                  A:10 X:00 Y:F0 P:25 SP:FA CYC:160 SL:59
837B  10 FB     BPL $8378                       A:10 X:00 Y:F0 P:25 SP:FA CYC:172 SL:59
8378  AD 02 20  LDA $2002 = FF                  A:10 X:00 Y:F0 P:25 SP:FA CYC:181 SL:59
837B  10 FB     BPL $8378                       A:10 X:00 Y:F0 P:25 SP:FA CYC:193 SL:59
8378  AD 02 20  LDA $2002 = FF                  A:10 X:00 Y:F0 P:25 SP:FA CYC:202 SL:59
837B  10 FB     BPL $8378                       A:10 X:00 Y:F0 P:25 SP:FA CYC:214 SL:59
8378  AD 02 20  LDA $2002 = FF                  A:10 X:00 Y:F0 P:25 SP:FA CYC:223 SL:59
837B  10 FB     BPL $8378                       A:10 X:00 Y:F0 P:25 SP:FA CYC:235 SL:59
8378  AD 02 20  LDA $2002 = FF                  A:10 X:00 Y:F0 P:25 SP:FA CYC:244 SL:59
837B  10 FB     BPL $8378                       A:10 X:00 Y:F0 P:25 SP:FA CYC:256 SL:59
8378  AD 02 20  LDA $2002 = FF                  A:10 X:00 Y:F0 P:25 SP:FA CYC:265 SL:59
837B  10 FB     BPL $8378                       A:10 X:00 Y:F0 P:25 SP:FA CYC:277 SL:59
8378  AD 02 20  LDA $2002 = FF                  A:10 X:00 Y:F0 P:25 SP:FA CYC:286 SL:59
837B  10 FB     BPL $8378                       A:10 X:00 Y:F0 P:25 SP:FA CYC:298 SL:59
8378  AD 02 20  LDA $2002 = FF                  A:10 X:00 Y:F0 P:25 SP:FA CYC:307 SL:59
837B  10 FB     BPL $8378                       A:10 X:00 Y:F0 P:25 SP:FA CYC:319 SL:59
8378  AD 02 20  LDA $2002 = FF                  A:10 X:00 Y:F0 P:25 SP:FA CYC:328 SL:59
837B  10 FB     BPL $8378                       A:10 X:00 Y:F0 P:25 SP:FA CYC:340 SL:59
8378  AD 02 20  LDA $2002 = FF                  A:10 X:00 Y:F0 P:25 SP:FA CYC:  8 SL:60
837B  10 FB     BPL $8378                       A:10 X:00 Y:F0 P:25 SP:FA CYC: 20 SL:60
8378  AD 02 20  LDA $2002 = FF                  A:10 X:00 Y:F0 P:25 SP:FA CYC: 29 SL:60
837B  10 FB     BPL $8378                       A:10 X:00 Y:F0 P:25 SP:FA CYC: 41 SL:60
8378  AD 02 20  LDA $2002 = FF                  A:10 X:00 Y:F0 P:25 SP:FA CYC: 50 SL:60
837B  10 FB     BPL $8378                       A:10 X:00 Y:F0 P:25 SP:FA CYC: 62 SL:60
8378  AD 02 20  LDA $2002 = FF                  A:10 X:00 Y:F0 P:25 SP:FA CYC: 71 SL:60
837B  10 FB     BPL $8378                       A:10 X:00 Y:F0 P:25 SP:FA CYC: 83 SL:60
8378  AD 02 20  LDA $2002 = FF                  A:10 X:00 Y:F0 P:25 SP:FA CYC: 92 SL:60
837B  10 FB     BPL $8378                       A:10 X:00 Y:F0 P:25 SP:FA CYC:104 SL:60
8378  AD 02 20  LDA $2002 = FF                  A:10 X:00 Y:F0 P:25 SP:FA CYC:113 SL:60
837B  10 FB     BPL $8378                       A:10 X:00 Y:F0 P:25 SP:FA CYC:125 SL:60
8378  AD 02 20  LDA $2002 = FF                  A:10 X:00 Y:F0 P:25 SP:FA CYC:134 SL:60
837B  10 FB     BPL $8378                       A:10 X:00 Y:F0 P:25 SP:FA CYC:146 SL:60
8378  AD 02 20  LDA $2002 = FF                  A:10 X:00 Y:F0 P:25 SP:FA CYC:155 SL:60
837B  10 FB     BPL $8378                       A:10 X:00 Y:F0 P:25 SP:FA CYC:167 SL:60
8378  AD 02 20  LDA $2002 = FF                  A:10 X:00 Y:F0 P:25 SP:FA CYC:176 SL:60
837B  10 FB     BPL $8378                       A:10 X:00 Y:F0 P:25 SP:FA CYC:188 SL:60
8378  AD 02 20  LDA $2002 = FF                  A:10 X:00 Y:F0 P:25 SP:FA CYC:197 SL:60
837B  10 FB     BPL $8378                       A:10 X:00 Y:F0 P:25 SP:FA CYC:209 SL:60
8378  AD 02 20  LDA $2002 = FF                  A:10 X:00 Y:F0 P:25 SP:FA CYC:218 SL:60
837B  10 FB     BPL $8378                       A:10 X:00 Y:F0 P:25 SP:FA CYC:230 SL:60
8378  AD 02 20  LDA $2002 = FF                  A:10 X:00 Y:F0 P:25 SP:FA CYC:239 SL:60
837B  10 FB     BPL $8378                       A:10 X:00 Y:F0 P:25 SP:FA CYC:251 SL:60
8378  AD 02 20  LDA $2002 = FF                  A:10 X:00 Y:F0 P:25 SP:FA CYC:260 SL:60
837B  10 FB     BPL $8378                       A:10 X:00 Y:F0 P:25 SP:FA CYC:272 SL:60
8378  AD 02 20  LDA $2002 = FF                  A:10 X:00 Y:F0 P:25 SP:FA CYC:281 SL:60
837B  10 FB     BPL $8378                       A:10 X:00 Y:F0 P:25 SP:FA CYC:293 SL:60
8378  AD 02 20  LDA $2002 = FF                  A:10 X:00 Y:F0 P:25 SP:FA CYC:302 SL:60
837B  10 FB     BPL $8378                       A:10 X:00 Y:F0 P:25 SP:FA CYC:314 SL:60
8378  AD 02 20  LDA $2002 = FF                  A:10 X:00 Y:F0 P:25 SP:FA CYC:323 SL:60
837B  10 FB     BPL $8378                       A:10 X:00 Y:F0 P:25 SP:FA CYC:335 SL:60
8378  AD 02 20  LDA $2002 = FF                  A:10 X:00 Y:F0 P:25 SP:FA CYC:  3 SL:61
837B  10 FB     BPL $8378                       A:10 X:00 Y:F0 P:25 SP:FA CYC: 15 SL:61
8378  AD 02 20  LDA $2002 = FF                  A:10 X:00 Y:F0 P:25 SP:FA CYC: 24 SL:61
837B  10 FB     BPL $8378                       A:10 X:00 Y:F0 P:25 SP:FA CYC: 36 SL:61
8378  AD 02 20  LDA $2002 = FF                  A:10 X:00 Y:F0 P:25 SP:FA CYC: 45 SL:61
837B  10 FB     BPL $8378                       A:10 X:00 Y:F0 P:25 SP:FA CYC: 57 SL:61
8378  AD 02 20  LDA $2002 = FF                  A:10 X:00 Y:F0 P:25 SP:FA CYC: 66 SL:61
837B  10 FB     BPL $8378                       A:10 X:00 Y:F0 P:25 SP:FA CYC: 78 SL:61
8378  AD 02 20  LDA $2002 = FF                  A:10 X:00 Y:F0 P:25 SP:FA CYC: 87 SL:61
837B  10 FB     BPL $8378                       A:10 X:00 Y:F0 P:25 SP:FA CYC: 99 SL:61
8378  AD 02 20  LDA $2002 = FF                  A:10 X:00 Y:F0 P:25 SP:FA CYC:108 SL:61
837B  10 FB     BPL $8378                       A:10 X:00 Y:F0 P:25 SP:FA CYC:120 SL:61
8378  AD 02 20  LDA $2002 = FF                  A:10 X:00 Y:F0 P:25 SP:FA CYC:129 SL:61
837B  10 FB     BPL $8378                       A:10 X:00 Y:F0 P:25 SP:FA CYC:141 SL:61
8378  AD 02 20  LDA $2002 = FF                  A:10 X:00 Y:F0 P:25 SP:FA CYC:150 SL:61
837B  10 FB     BPL $8378                       A:10 X:00 Y:F0 P:25 SP:FA CYC:162 SL:61
8378  AD 02 20  LDA $2002 = FF                  A:10 X:00 Y:F0 P:25 SP:FA CYC:171 SL:61
837B  10 FB     BPL $8378                       A:10 X:00 Y:F0 P:25 SP:FA CYC:183 SL:61
8378  AD 02 20  LDA $2002 = FF                  A:10 X:00 Y:F0 P:25 SP:FA CYC:192 SL:61
837B  10 FB     BPL $8378                       A:10 X:00 Y:F0 P:25 SP:FA CYC:204 SL:61
8378  AD 02 20  LDA $2002 = FF                  A:10 X:00 Y:F0 P:25 SP:FA CYC:213 SL:61
837B  10 FB     BPL $8378                       A:10 X:00 Y:F0 P:25 SP:FA CYC:225 SL:61
8378  AD 02 20  LDA $2002 = FF                  A:10 X:00 Y:F0 P:25 SP:FA CYC:234 SL:61
837B  10 FB     BPL $8378                       A:10 X:00 Y:F0 P:25 SP:FA CYC:246 SL:61
8378  AD 02 20  LDA $2002 = FF                  A:10 X:00 Y:F0 P:25 SP:FA CYC:255 SL:61
837B  10 FB     BPL $8378                       A:10 X:00 Y:F0 P:25 SP:FA CYC:267 SL:61
8378  AD 02 20  LDA $2002 = FF                  A:10 X:00 Y:F0 P:25 SP:FA CYC:276 SL:61
837B  10 FB     BPL $8378                       A:10 X:00 Y:F0 P:25 SP:FA CYC:288 SL:61
8378  AD 02 20  LDA $2002 = FF                  A:10 X:00 Y:F0 P:25 SP:FA CYC:297 SL:61
837B  10 FB     BPL $8378                       A:10 X:00 Y:F0 P:25 SP:FA CYC:309 SL:61
8378  AD 02 20  LDA $2002 = FF                  A:10 X:00 Y:F0 P:25 SP:FA CYC:318 SL:61
837B  10 FB     BPL $8378                       A:10 X:00 Y:F0 P:25 SP:FA CYC:330 SL:61
8378  AD 02 20  LDA $2002 = FF                  A:10 X:00 Y:F0 P:25 SP:FA CYC:339 SL:61
837B  10 FB     BPL $8378                       A:10 X:00 Y:F0 P:25 SP:FA CYC: 10 SL:62
8378  AD 02 20  LDA $2002 = FF                  A:10 X:00 Y:F0 P:25 SP:FA CYC: 19 SL:62
837B  10 FB     BPL $8378                       A:10 X:00 Y:F0 P:25 SP:FA CYC: 31 SL:62
8378  AD 02 20  LDA $2002 = FF                  A:10 X:00 Y:F0 P:25 SP:FA CYC: 40 SL:62
837B  10 FB     BPL $8378                       A:10 X:00 Y:F0 P:25 SP:FA CYC: 52 SL:62
8378  AD 02 20  LDA $2002 = FF                  A:10 X:00 Y:F0 P:25 SP:FA CYC: 61 SL:62
837B  10 FB     BPL $8378                       A:10 X:00 Y:F0 P:25 SP:FA CYC: 73 SL:62
8378  AD 02 20  LDA $2002 = FF                  A:10 X:00 Y:F0 P:25 SP:FA CYC: 82 SL:62
837B  10 FB     BPL $8378                       A:10 X:00 Y:F0 P:25 SP:FA CYC: 94 SL:62
8378  AD 02 20  LDA $2002 = FF                  A:10 X:00 Y:F0 P:25 SP:FA CYC:103 SL:62
837B  10 FB     BPL $8378                       A:10 X:00 Y:F0 P:25 SP:FA CYC:115 SL:62
8378  AD 02 20  LDA $2002 = FF                  A:10 X:00 Y:F0 P:25 SP:FA CYC:124 SL:62
837B  10 FB     BPL $8378                       A:10 X:00 Y:F0 P:25 SP:FA CYC:136 SL:62
8378  AD 02 20  LDA $2002 = FF                  A:10 X:00 Y:F0 P:25 SP:FA CYC:145 SL:62
837B  10 FB     BPL $8378                       A:10 X:00 Y:F0 P:25 SP:FA CYC:157 SL:62
8378  AD 02 20  LDA $2002 = FF                  A:10 X:00 Y:F0 P:25 SP:FA CYC:166 SL:62
837B  10 FB     BPL $8378                       A:10 X:00 Y:F0 P:25 SP:FA CYC:178 SL:62
8378  AD 02 20  LDA $2002 = FF                  A:10 X:00 Y:F0 P:25 SP:FA CYC:187 SL:62
837B  10 FB     BPL $8378                       A:10 X:00 Y:F0 P:25 SP:FA CYC:199 SL:62
8378  AD 02 20  LDA $2002 = FF                  A:10 X:00 Y:F0 P:25 SP:FA CYC:208 SL:62
837B  10 FB     BPL $8378                       A:10 X:00 Y:F0 P:25 SP:FA CYC:220 SL:62
8378  AD 02 20  LDA $2002 = FF                  A:10 X:00 Y:F0 P:25 SP:FA CYC:229 SL:62
837B  10 FB     BPL $8378                       A:10 X:00 Y:F0 P:25 SP:FA CYC:241 SL:62
8378  AD 02 20  LDA $2002 = FF                  A:10 X:00 Y:F0 P:25 SP:FA CYC:250 SL:62
837B  10 FB     BPL $8378                       A:10 X:00 Y:F0 P:25 SP:FA CYC:262 SL:62
8378  AD 02 20  LDA $2002 = FF                  A:10 X:00 Y:F0 P:25 SP:FA CYC:271 SL:62
837B  10 FB     BPL $8378                       A:10 X:00 Y:F0 P:25 SP:FA CYC:283 SL:62
8378  AD 02 20  LDA $2002 = FF                  A:10 X:00 Y:F0 P:25 SP:FA CYC:292 SL:62
837B  10 FB     BPL $8378                       A:10 X:00 Y:F0 P:25 SP:FA CYC:304 SL:62
8378  AD 02 20  LDA $2002 = FF                  A:10 X:00 Y:F0 P:25 SP:FA CYC:313 SL:62
837B  10 FB     BPL $8378                       A:10 X:00 Y:F0 P:25 SP:FA CYC:325 SL:62
8378  AD 02 20  LDA $2002 = FF                  A:10 X:00 Y:F0 P:25 SP:FA CYC:334 SL:62
837B  10 FB     BPL $8378                       A:10 X:00 Y:F0 P:25 SP:FA CYC:  5 SL:63
8378  AD 02 20  LDA $2002 = FF                  A:10 X:00 Y:F0 P:25 SP:FA CYC: 14 SL:63
837B  10 FB     BPL $8378                       A:10 X:00 Y:F0 P:25 SP:FA CYC: 26 SL:63
8378  AD 02 20  LDA $2002 = FF                  A:10 X:00 Y:F0 P:25 SP:FA CYC: 35 SL:63
837B  10 FB     BPL $8378                       A:10 X:00 Y:F0 P:25 SP:FA CYC: 47 SL:63
8378  AD 02 20  LDA $2002 = FF                  A:10 X:00 Y:F0 P:25 SP:FA CYC: 56 SL:63
837B  10 FB     BPL $8378                       A:10 X:00 Y:F0 P:25 SP:FA CYC: 68 SL:63
8378  AD 02 20  LDA $2002 = FF                  A:10 X:00 Y:F0 P:25 SP:FA CYC: 77 SL:63
837B  10 FB     BPL $8378                       A:10 X:00 Y:F0 P:25 SP:FA CYC: 89 SL:63
8378  AD 02 20  LDA $2002 = FF                  A:10 X:00 Y:F0 P:25 SP:FA CYC: 98 SL:63
837B  10 FB     BPL $8378                       A:10 X:00 Y:F0 P:25 SP:FA CYC:110 SL:63
8378  AD 02 20  LDA $2002 = FF                  A:10 X:00 Y:F0 P:25 SP:FA CYC:119 SL:63
837B  10 FB     BPL $8378                       A:10 X:00 Y:F0 P:25 SP:FA CYC:131 SL:63
8378  AD 02 20  LDA $2002 = FF                  A:10 X:00 Y:F0 P:25 SP:FA CYC:140 SL:63
837B  10 FB     BPL $8378                       A:10 X:00 Y:F0 P:25 SP:FA CYC:152 SL:63
8378  AD 02 20  LDA $2002 = FF                  A:10 X:00 Y:F0 P:25 SP:FA CYC:161 SL:63
837B  10 FB     BPL $8378                       A:10 X:00 Y:F0 P:25 SP:FA CYC:173 SL:63
8378  AD 02 20  LDA $2002 = FF                  A:10 X:00 Y:F0 P:25 SP:FA CYC:182 SL:63
837B  10 FB     BPL $8378                       A:10 X:00 Y:F0 P:25 SP:FA CYC:194 SL:63
8378  AD 02 20  LDA $2002 = FF                  A:10 X:00 Y:F0 P:25 SP:FA CYC:203 SL:63
837B  10 FB     BPL $8378                       A:10 X:00 Y:F0 P:25 SP:FA CYC:215 SL:63
8378  AD 02 20  LDA $2002 = FF                  A:10 X:00 Y:F0 P:25 SP:FA CYC:224 SL:63
837B  10 FB     BPL $8378                       A:10 X:00 Y:F0 P:25 SP:FA CYC:236 SL:63
8378  AD 02 20  LDA $2002 = FF                  A:10 X:00 Y:F0 P:25 SP:FA CYC:245 SL:63
837B  10 FB     BPL $8378                       A:10 X:00 Y:F0 P:25 SP:FA CYC:257 SL:63
8378  AD 02 20  LDA $2002 = FF                  A:10 X:00 Y:F0 P:25 SP:FA CYC:266 SL:63
837B  10 FB     BPL $8378                       A:10 X:00 Y:F0 P:25 SP:FA CYC:278 SL:63
8378  AD 02 20  LDA $2002 = FF                  A:10 X:00 Y:F0 P:25 SP:FA CYC:287 SL:63
837B  10 FB     BPL $8378                       A:10 X:00 Y:F0 P:25 SP:FA CYC:299 SL:63
8378  AD 02 20  LDA $2002 = FF                  A:10 X:00 Y:F0 P:25 SP:FA CYC:308 SL:63
837B  10 FB     BPL $8378                       A:10 X:00 Y:F0 P:25 SP:FA CYC:320 SL:63
8378  AD 02 20  LDA $2002 = FF                  A:10 X:00 Y:F0 P:25 SP:FA CYC:329 SL:63
837B  10 FB     BPL $8378                       A:10 X:00 Y:F0 P:25 SP:FA CYC:  0 SL:64
8378  AD 02 20  LDA $2002 = FF                  A:10 X:00 Y:F0 P:25 SP:FA CYC:  9 SL:64
837B  10 FB     BPL $8378                       A:10 X:00 Y:F0 P:25 SP:FA CYC: 21 SL:64
8378  AD 02 20  LDA $2002 = FF                  A:10 X:00 Y:F0 P:25 SP:FA CYC: 30 SL:64
837B  10 FB     BPL $8378                       A:10 X:00 Y:F0 P:25 SP:FA CYC: 42 SL:64
8378  AD 02 20  LDA $2002 = FF                  A:10 X:00 Y:F0 P:25 SP:FA CYC: 51 SL:64
837B  10 FB     BPL $8378                       A:10 X:00 Y:F0 P:25 SP:FA CYC: 63 SL:64
8378  AD 02 20  LDA $2002 = FF                  A:10 X:00 Y:F0 P:25 SP:FA CYC: 72 SL:64
837B  10 FB     BPL $8378                       A:10 X:00 Y:F0 P:25 SP:FA CYC: 84 SL:64
8378  AD 02 20  LDA $2002 = FF                  A:10 X:00 Y:F0 P:25 SP:FA CYC: 93 SL:64
837B  10 FB     BPL $8378                       A:10 X:00 Y:F0 P:25 SP:FA CYC:105 SL:64
8378  AD 02 20  LDA $2002 = FF                  A:10 X:00 Y:F0 P:25 SP:FA CYC:114 SL:64
837B  10 FB     BPL $8378                       A:10 X:00 Y:F0 P:25 SP:FA CYC:126 SL:64
8378  AD 02 20  LDA $2002 = FF                  A:10 X:00 Y:F0 P:25 SP:FA CYC:135 SL:64
837B  10 FB     BPL $8378                       A:10 X:00 Y:F0 P:25 SP:FA CYC:147 SL:64
8378  AD 02 20  LDA $2002 = FF                  A:10 X:00 Y:F0 P:25 SP:FA CYC:156 SL:64
837B  10 FB     BPL $8378                       A:10 X:00 Y:F0 P:25 SP:FA CYC:168 SL:64
8378  AD 02 20  LDA $2002 = FF                  A:10 X:00 Y:F0 P:25 SP:FA CYC:177 SL:64
837B  10 FB     BPL $8378                       A:10 X:00 Y:F0 P:25 SP:FA CYC:189 SL:64
8378  AD 02 20  LDA $2002 = FF                  A:10 X:00 Y:F0 P:25 SP:FA CYC:198 SL:64
837B  10 FB     BPL $8378                       A:10 X:00 Y:F0 P:25 SP:FA CYC:210 SL:64
8378  AD 02 20  LDA $2002 = FF                  A:10 X:00 Y:F0 P:25 SP:FA CYC:219 SL:64
837B  10 FB     BPL $8378                       A:10 X:00 Y:F0 P:25 SP:FA CYC:231 SL:64
8378  AD 02 20  LDA $2002 = FF                  A:10 X:00 Y:F0 P:25 SP:FA CYC:240 SL:64
837B  10 FB     BPL $8378                       A:10 X:00 Y:F0 P:25 SP:FA CYC:252 SL:64
8378  AD 02 20  LDA $2002 = FF                  A:10 X:00 Y:F0 P:25 SP:FA CYC:261 SL:64
837B  10 FB     BPL $8378                       A:10 X:00 Y:F0 P:25 SP:FA CYC:273 SL:64
8378  AD 02 20  LDA $2002 = FF                  A:10 X:00 Y:F0 P:25 SP:FA CYC:282 SL:64
837B  10 FB     BPL $8378                       A:10 X:00 Y:F0 P:25 SP:FA CYC:294 SL:64
8378  AD 02 20  LDA $2002 = FF                  A:10 X:00 Y:F0 P:25 SP:FA CYC:303 SL:64
837B  10 FB     BPL $8378                       A:10 X:00 Y:F0 P:25 SP:FA CYC:315 SL:64
8378  AD 02 20  LDA $2002 = FF                  A:10 X:00 Y:F0 P:25 SP:FA CYC:324 SL:64
837B  10 FB     BPL $8378                       A:10 X:00 Y:F0 P:25 SP:FA CYC:336 SL:64
8378  AD 02 20  LDA $2002 = FF                  A:10 X:00 Y:F0 P:25 SP:FA CYC:  4 SL:65
837B  10 FB     BPL $8378                       A:10 X:00 Y:F0 P:25 SP:FA CYC: 16 SL:65
8378  AD 02 20  LDA $2002 = FF                  A:10 X:00 Y:F0 P:25 SP:FA CYC: 25 SL:65
837B  10 FB     BPL $8378                       A:10 X:00 Y:F0 P:25 SP:FA CYC: 37 SL:65
8378  AD 02 20  LDA $2002 = FF                  A:10 X:00 Y:F0 P:25 SP:FA CYC: 46 SL:65
837B  10 FB     BPL $8378                       A:10 X:00 Y:F0 P:25 SP:FA CYC: 58 SL:65
8378  AD 02 20  LDA $2002 = FF                  A:10 X:00 Y:F0 P:25 SP:FA CYC: 67 SL:65
837B  10 FB     BPL $8378                       A:10 X:00 Y:F0 P:25 SP:FA CYC: 79 SL:65
8378  AD 02 20  LDA $2002 = FF                  A:10 X:00 Y:F0 P:25 SP:FA CYC: 88 SL:65
837B  10 FB     BPL $8378                       A:10 X:00 Y:F0 P:25 SP:FA CYC:100 SL:65
8378  AD 02 20  LDA $2002 = FF                  A:10 X:00 Y:F0 P:25 SP:FA CYC:109 SL:65
837B  10 FB     BPL $8378                       A:10 X:00 Y:F0 P:25 SP:FA CYC:121 SL:65
8378  AD 02 20  LDA $2002 = FF                  A:10 X:00 Y:F0 P:25 SP:FA CYC:130 SL:65
837B  10 FB     BPL $8378                       A:10 X:00 Y:F0 P:25 SP:FA CYC:142 SL:65
8378  AD 02 20  LDA $2002 = FF                  A:10 X:00 Y:F0 P:25 SP:FA CYC:151 SL:65
837B  10 FB     BPL $8378                       A:10 X:00 Y:F0 P:25 SP:FA CYC:163 SL:65
8378  AD 02 20  LDA $2002 = FF                  A:10 X:00 Y:F0 P:25 SP:FA CYC:172 SL:65
837B  10 FB     BPL $8378                       A:10 X:00 Y:F0 P:25 SP:FA CYC:184 SL:65
8378  AD 02 20  LDA $2002 = FF                  A:10 X:00 Y:F0 P:25 SP:FA CYC:193 SL:65
837B  10 FB     BPL $8378                       A:10 X:00 Y:F0 P:25 SP:FA CYC:205 SL:65
8378  AD 02 20  LDA $2002 = FF                  A:10 X:00 Y:F0 P:25 SP:FA CYC:214 SL:65
837B  10 FB     BPL $8378                       A:10 X:00 Y:F0 P:25 SP:FA CYC:226 SL:65
8378  AD 02 20  LDA $2002 = FF                  A:10 X:00 Y:F0 P:25 SP:FA CYC:235 SL:65
837B  10 FB     BPL $8378                       A:10 X:00 Y:F0 P:25 SP:FA CYC:247 SL:65
8378  AD 02 20  LDA $2002 = FF                  A:10 X:00 Y:F0 P:25 SP:FA CYC:256 SL:65
837B  10 FB     BPL $8378                       A:10 X:00 Y:F0 P:25 SP:FA CYC:268 SL:65
8378  AD 02 20  LDA $2002 = FF                  A:10 X:00 Y:F0 P:25 SP:FA CYC:277 SL:65
837B  10 FB     BPL $8378                       A:10 X:00 Y:F0 P:25 SP:FA CYC:289 SL:65
8378  AD 02 20  LDA $2002 = FF                  A:10 X:00 Y:F0 P:25 SP:FA CYC:298 SL:65
837B  10 FB     BPL $8378                       A:10 X:00 Y:F0 P:25 SP:FA CYC:310 SL:65
8378  AD 02 20  LDA $2002 = FF                  A:10 X:00 Y:F0 P:25 SP:FA CYC:319 SL:65
837B  10 FB     BPL $8378                       A:10 X:00 Y:F0 P:25 SP:FA CYC:331 SL:65
8378  AD 02 20  LDA $2002 = FF                  A:10 X:00 Y:F0 P:25 SP:FA CYC:340 SL:65
837B  10 FB     BPL $8378                       A:10 X:00 Y:F0 P:25 SP:FA CYC: 11 SL:66
8378  AD 02 20  LDA $2002 = FF                  A:10 X:00 Y:F0 P:25 SP:FA CYC: 20 SL:66
837B  10 FB     BPL $8378                       A:10 X:00 Y:F0 P:25 SP:FA CYC: 32 SL:66
8378  AD 02 20  LDA $2002 = FF                  A:10 X:00 Y:F0 P:25 SP:FA CYC: 41 SL:66
837B  10 FB     BPL $8378                       A:10 X:00 Y:F0 P:25 SP:FA CYC: 53 SL:66
8378  AD 02 20  LDA $2002 = FF                  A:10 X:00 Y:F0 P:25 SP:FA CYC: 62 SL:66
837B  10 FB     BPL $8378                       A:10 X:00 Y:F0 P:25 SP:FA CYC: 74 SL:66
8378  AD 02 20  LDA $2002 = FF                  A:10 X:00 Y:F0 P:25 SP:FA CYC: 83 SL:66
837B  10 FB     BPL $8378                       A:10 X:00 Y:F0 P:25 SP:FA CYC: 95 SL:66
8378  AD 02 20  LDA $2002 = FF                  A:10 X:00 Y:F0 P:25 SP:FA CYC:104 SL:66
837B  10 FB     BPL $8378                       A:10 X:00 Y:F0 P:25 SP:FA CYC:116 SL:66
8378  AD 02 20  LDA $2002 = FF                  A:10 X:00 Y:F0 P:25 SP:FA CYC:125 SL:66
837B  10 FB     BPL $8378                       A:10 X:00 Y:F0 P:25 SP:FA CYC:137 SL:66
8378  AD 02 20  LDA $2002 = FF                  A:10 X:00 Y:F0 P:25 SP:FA CYC:146 SL:66
837B  10 FB     BPL $8378                       A:10 X:00 Y:F0 P:25 SP:FA CYC:158 SL:66
8378  AD 02 20  LDA $2002 = FF                  A:10 X:00 Y:F0 P:25 SP:FA CYC:167 SL:66
837B  10 FB     BPL $8378                       A:10 X:00 Y:F0 P:25 SP:FA CYC:179 SL:66
8378  AD 02 20  LDA $2002 = FF                  A:10 X:00 Y:F0 P:25 SP:FA CYC:188 SL:66
837B  10 FB     BPL $8378                       A:10 X:00 Y:F0 P:25 SP:FA CYC:200 SL:66
8378  AD 02 20  LDA $2002 = FF                  A:10 X:00 Y:F0 P:25 SP:FA CYC:209 SL:66
837B  10 FB     BPL $8378                       A:10 X:00 Y:F0 P:25 SP:FA CYC:221 SL:66
8378  AD 02 20  LDA $2002 = FF                  A:10 X:00 Y:F0 P:25 SP:FA CYC:230 SL:66
837B  10 FB     BPL $8378                       A:10 X:00 Y:F0 P:25 SP:FA CYC:242 SL:66
8378  AD 02 20  LDA $2002 = FF                  A:10 X:00 Y:F0 P:25 SP:FA CYC:251 SL:66
837B  10 FB     BPL $8378                       A:10 X:00 Y:F0 P:25 SP:FA CYC:263 SL:66
8378  AD 02 20  LDA $2002 = FF                  A:10 X:00 Y:F0 P:25 SP:FA CYC:272 SL:66
837B  10 FB     BPL $8378                       A:10 X:00 Y:F0 P:25 SP:FA CYC:284 SL:66
8378  AD 02 20  LDA $2002 = FF                  A:10 X:00 Y:F0 P:25 SP:FA CYC:293 SL:66
837B  10 FB     BPL $8378                       A:10 X:00 Y:F0 P:25 SP:FA CYC:305 SL:66
8378  AD 02 20  LDA $2002 = FF                  A:10 X:00 Y:F0 P:25 SP:FA CYC:314 SL:66
837B  10 FB     BPL $8378                       A:10 X:00 Y:F0 P:25 SP:FA CYC:326 SL:66
8378  AD 02 20  LDA $2002 = FF                  A:10 X:00 Y:F0 P:25 SP:FA CYC:335 SL:66
837B  10 FB     BPL $8378                       A:10 X:00 Y:F0 P:25 SP:FA CYC:  6 SL:67
8378  AD 02 20  LDA $2002 = FF                  A:10 X:00 Y:F0 P:25 SP:FA CYC: 15 SL:67
837B  10 FB     BPL $8378                       A:10 X:00 Y:F0 P:25 SP:FA CYC: 27 SL:67
8378  AD 02 20  LDA $2002 = FF                  A:10 X:00 Y:F0 P:25 SP:FA CYC: 36 SL:67
837B  10 FB     BPL $8378                       A:10 X:00 Y:F0 P:25 SP:FA CYC: 48 SL:67
8378  AD 02 20  LDA $2002 = FF                  A:10 X:00 Y:F0 P:25 SP:FA CYC: 57 SL:67
837B  10 FB     BPL $8378                       A:10 X:00 Y:F0 P:25 SP:FA CYC: 69 SL:67
8378  AD 02 20  LDA $2002 = FF                  A:10 X:00 Y:F0 P:25 SP:FA CYC: 78 SL:67
837B  10 FB     BPL $8378                       A:10 X:00 Y:F0 P:25 SP:FA CYC: 90 SL:67
8378  AD 02 20  LDA $2002 = FF                  A:10 X:00 Y:F0 P:25 SP:FA CYC: 99 SL:67
837B  10 FB     BPL $8378                       A:10 X:00 Y:F0 P:25 SP:FA CYC:111 SL:67
8378  AD 02 20  LDA $2002 = FF                  A:10 X:00 Y:F0 P:25 SP:FA CYC:120 SL:67
837B  10 FB     BPL $8378                       A:10 X:00 Y:F0 P:25 SP:FA CYC:132 SL:67
8378  AD 02 20  LDA $2002 = FF                  A:10 X:00 Y:F0 P:25 SP:FA CYC:141 SL:67
837B  10 FB     BPL $8378                       A:10 X:00 Y:F0 P:25 SP:FA CYC:153 SL:67
8378  AD 02 20  LDA $2002 = FF                  A:10 X:00 Y:F0 P:25 SP:FA CYC:162 SL:67
837B  10 FB     BPL $8378                       A:10 X:00 Y:F0 P:25 SP:FA CYC:174 SL:67
8378  AD 02 20  LDA $2002 = FF                  A:10 X:00 Y:F0 P:25 SP:FA CYC:183 SL:67
837B  10 FB     BPL $8378                       A:10 X:00 Y:F0 P:25 SP:FA CYC:195 SL:67
8378  AD 02 20  LDA $2002 = FF                  A:10 X:00 Y:F0 P:25 SP:FA CYC:204 SL:67
837B  10 FB     BPL $8378                       A:10 X:00 Y:F0 P:25 SP:FA CYC:216 SL:67
8378  AD 02 20  LDA $2002 = FF                  A:10 X:00 Y:F0 P:25 SP:FA CYC:225 SL:67
837B  10 FB     BPL $8378                       A:10 X:00 Y:F0 P:25 SP:FA CYC:237 SL:67
8378  AD 02 20  LDA $2002 = FF                  A:10 X:00 Y:F0 P:25 SP:FA CYC:246 SL:67
837B  10 FB     BPL $8378                       A:10 X:00 Y:F0 P:25 SP:FA CYC:258 SL:67
8378  AD 02 20  LDA $2002 = FF                  A:10 X:00 Y:F0 P:25 SP:FA CYC:267 SL:67
837B  10 FB     BPL $8378                       A:10 X:00 Y:F0 P:25 SP:FA CYC:279 SL:67
8378  AD 02 20  LDA $2002 = FF                  A:10 X:00 Y:F0 P:25 SP:FA CYC:288 SL:67
837B  10 FB     BPL $8378                       A:10 X:00 Y:F0 P:25 SP:FA CYC:300 SL:67
8378  AD 02 20  LDA $2002 = FF                  A:10 X:00 Y:F0 P:25 SP:FA CYC:309 SL:67
837B  10 FB     BPL $8378                       A:10 X:00 Y:F0 P:25 SP:FA CYC:321 SL:67
8378  AD 02 20  LDA $2002 = FF                  A:10 X:00 Y:F0 P:25 SP:FA CYC:330 SL:67
837B  10 FB     BPL $8378                       A:10 X:00 Y:F0 P:25 SP:FA CYC:  1 SL:68
8378  AD 02 20  LDA $2002 = FF                  A:10 X:00 Y:F0 P:25 SP:FA CYC: 10 SL:68
837B  10 FB     BPL $8378                       A:10 X:00 Y:F0 P:25 SP:FA CYC: 22 SL:68
8378  AD 02 20  LDA $2002 = FF                  A:10 X:00 Y:F0 P:25 SP:FA CYC: 31 SL:68
837B  10 FB     BPL $8378                       A:10 X:00 Y:F0 P:25 SP:FA CYC: 43 SL:68
8378  AD 02 20  LDA $2002 = FF                  A:10 X:00 Y:F0 P:25 SP:FA CYC: 52 SL:68
837B  10 FB     BPL $8378                       A:10 X:00 Y:F0 P:25 SP:FA CYC: 64 SL:68
8378  AD 02 20  LDA $2002 = FF                  A:10 X:00 Y:F0 P:25 SP:FA CYC: 73 SL:68
837B  10 FB     BPL $8378                       A:10 X:00 Y:F0 P:25 SP:FA CYC: 85 SL:68
8378  AD 02 20  LDA $2002 = FF                  A:10 X:00 Y:F0 P:25 SP:FA CYC: 94 SL:68
837B  10 FB     BPL $8378                       A:10 X:00 Y:F0 P:25 SP:FA CYC:106 SL:68
8378  AD 02 20  LDA $2002 = FF                  A:10 X:00 Y:F0 P:25 SP:FA CYC:115 SL:68
837B  10 FB     BPL $8378                       A:10 X:00 Y:F0 P:25 SP:FA CYC:127 SL:68
8378  AD 02 20  LDA $2002 = FF                  A:10 X:00 Y:F0 P:25 SP:FA CYC:136 SL:68
837B  10 FB     BPL $8378                       A:10 X:00 Y:F0 P:25 SP:FA CYC:148 SL:68
8378  AD 02 20  LDA $2002 = FF                  A:10 X:00 Y:F0 P:25 SP:FA CYC:157 SL:68
837B  10 FB     BPL $8378                       A:10 X:00 Y:F0 P:25 SP:FA CYC:169 SL:68
8378  AD 02 20  LDA $2002 = FF                  A:10 X:00 Y:F0 P:25 SP:FA CYC:178 SL:68
837B  10 FB     BPL $8378                       A:10 X:00 Y:F0 P:25 SP:FA CYC:190 SL:68
8378  AD 02 20  LDA $2002 = FF                  A:10 X:00 Y:F0 P:25 SP:FA CYC:199 SL:68
837B  10 FB     BPL $8378                       A:10 X:00 Y:F0 P:25 SP:FA CYC:211 SL:68
8378  AD 02 20  LDA $2002 = FF                  A:10 X:00 Y:F0 P:25 SP:FA CYC:220 SL:68
837B  10 FB     BPL $8378                       A:10 X:00 Y:F0 P:25 SP:FA CYC:232 SL:68
8378  AD 02 20  LDA $2002 = FF                  A:10 X:00 Y:F0 P:25 SP:FA CYC:241 SL:68
837B  10 FB     BPL $8378                       A:10 X:00 Y:F0 P:25 SP:FA CYC:253 SL:68
8378  AD 02 20  LDA $2002 = FF                  A:10 X:00 Y:F0 P:25 SP:FA CYC:262 SL:68
837B  10 FB     BPL $8378                       A:10 X:00 Y:F0 P:25 SP:FA CYC:274 SL:68
8378  AD 02 20  LDA $2002 = FF                  A:10 X:00 Y:F0 P:25 SP:FA CYC:283 SL:68
837B  10 FB     BPL $8378                       A:10 X:00 Y:F0 P:25 SP:FA CYC:295 SL:68
8378  AD 02 20  LDA $2002 = FF                  A:10 X:00 Y:F0 P:25 SP:FA CYC:304 SL:68
837B  10 FB     BPL $8378                       A:10 X:00 Y:F0 P:25 SP:FA CYC:316 SL:68
8378  AD 02 20  LDA $2002 = FF                  A:10 X:00 Y:F0 P:25 SP:FA CYC:325 SL:68
837B  10 FB     BPL $8378                       A:10 X:00 Y:F0 P:25 SP:FA CYC:337 SL:68
8378  AD 02 20  LDA $2002 = FF                  A:10 X:00 Y:F0 P:25 SP:FA CYC:  5 SL:69
837B  10 FB     BPL $8378                       A:10 X:00 Y:F0 P:25 SP:FA CYC: 17 SL:69
8378  AD 02 20  LDA $2002 = FF                  A:10 X:00 Y:F0 P:25 SP:FA CYC: 26 SL:69
837B  10 FB     BPL $8378                       A:10 X:00 Y:F0 P:25 SP:FA CYC: 38 SL:69
8378  AD 02 20  LDA $2002 = FF                  A:10 X:00 Y:F0 P:25 SP:FA CYC: 47 SL:69
837B  10 FB     BPL $8378                       A:10 X:00 Y:F0 P:25 SP:FA CYC: 59 SL:69
8378  AD 02 20  LDA $2002 = FF                  A:10 X:00 Y:F0 P:25 SP:FA CYC: 68 SL:69
837B  10 FB     BPL $8378                       A:10 X:00 Y:F0 P:25 SP:FA CYC: 80 SL:69
8378  AD 02 20  LDA $2002 = FF                  A:10 X:00 Y:F0 P:25 SP:FA CYC: 89 SL:69
837B  10 FB     BPL $8378                       A:10 X:00 Y:F0 P:25 SP:FA CYC:101 SL:69
8378  AD 02 20  LDA $2002 = FF                  A:10 X:00 Y:F0 P:25 SP:FA CYC:110 SL:69
837B  10 FB     BPL $8378                       A:10 X:00 Y:F0 P:25 SP:FA CYC:122 SL:69
8378  AD 02 20  LDA $2002 = FF                  A:10 X:00 Y:F0 P:25 SP:FA CYC:131 SL:69
837B  10 FB     BPL $8378                       A:10 X:00 Y:F0 P:25 SP:FA CYC:143 SL:69
8378  AD 02 20  LDA $2002 = FF                  A:10 X:00 Y:F0 P:25 SP:FA CYC:152 SL:69
837B  10 FB     BPL $8378                       A:10 X:00 Y:F0 P:25 SP:FA CYC:164 SL:69
8378  AD 02 20  LDA $2002 = FF                  A:10 X:00 Y:F0 P:25 SP:FA CYC:173 SL:69
837B  10 FB     BPL $8378                       A:10 X:00 Y:F0 P:25 SP:FA CYC:185 SL:69
8378  AD 02 20  LDA $2002 = FF                  A:10 X:00 Y:F0 P:25 SP:FA CYC:194 SL:69
837B  10 FB     BPL $8378                       A:10 X:00 Y:F0 P:25 SP:FA CYC:206 SL:69
8378  AD 02 20  LDA $2002 = FF                  A:10 X:00 Y:F0 P:25 SP:FA CYC:215 SL:69
837B  10 FB     BPL $8378                       A:10 X:00 Y:F0 P:25 SP:FA CYC:227 SL:69
8378  AD 02 20  LDA $2002 = FF                  A:10 X:00 Y:F0 P:25 SP:FA CYC:236 SL:69
837B  10 FB     BPL $8378                       A:10 X:00 Y:F0 P:25 SP:FA CYC:248 SL:69
8378  AD 02 20  LDA $2002 = FF                  A:10 X:00 Y:F0 P:25 SP:FA CYC:257 SL:69
837B  10 FB     BPL $8378                       A:10 X:00 Y:F0 P:25 SP:FA CYC:269 SL:69
8378  AD 02 20  LDA $2002 = FF                  A:10 X:00 Y:F0 P:25 SP:FA CYC:278 SL:69
837B  10 FB     BPL $8378                       A:10 X:00 Y:F0 P:25 SP:FA CYC:290 SL:69
8378  AD 02 20  LDA $2002 = FF                  A:10 X:00 Y:F0 P:25 SP:FA CYC:299 SL:69
837B  10 FB     BPL $8378                       A:10 X:00 Y:F0 P:25 SP:FA CYC:311 SL:69
8378  AD 02 20  LDA $2002 = FF                  A:10 X:00 Y:F0 P:25 SP:FA CYC:320 SL:69
837B  10 FB     BPL $8378                       A:10 X:00 Y:F0 P:25 SP:FA CYC:332 SL:69
8378  AD 02 20  LDA $2002 = FF                  A:10 X:00 Y:F0 P:25 SP:FA CYC:  0 SL:70
837B  10 FB     BPL $8378                       A:10 X:00 Y:F0 P:25 SP:FA CYC: 12 SL:70
8378  AD 02 20  LDA $2002 = FF                  A:10 X:00 Y:F0 P:25 SP:FA CYC: 21 SL:70
837B  10 FB     BPL $8378                       A:10 X:00 Y:F0 P:25 SP:FA CYC: 33 SL:70
8378  AD 02 20  LDA $2002 = FF                  A:10 X:00 Y:F0 P:25 SP:FA CYC: 42 SL:70
837B  10 FB     BPL $8378                       A:10 X:00 Y:F0 P:25 SP:FA CYC: 54 SL:70
8378  AD 02 20  LDA $2002 = FF                  A:10 X:00 Y:F0 P:25 SP:FA CYC: 63 SL:70
837B  10 FB     BPL $8378                       A:10 X:00 Y:F0 P:25 SP:FA CYC: 75 SL:70
8378  AD 02 20  LDA $2002 = FF                  A:10 X:00 Y:F0 P:25 SP:FA CYC: 84 SL:70
837B  10 FB     BPL $8378                       A:10 X:00 Y:F0 P:25 SP:FA CYC: 96 SL:70
8378  AD 02 20  LDA $2002 = FF                  A:10 X:00 Y:F0 P:25 SP:FA CYC:105 SL:70
837B  10 FB     BPL $8378                       A:10 X:00 Y:F0 P:25 SP:FA CYC:117 SL:70
8378  AD 02 20  LDA $2002 = FF                  A:10 X:00 Y:F0 P:25 SP:FA CYC:126 SL:70
837B  10 FB     BPL $8378                       A:10 X:00 Y:F0 P:25 SP:FA CYC:138 SL:70
8378  AD 02 20  LDA $2002 = FF                  A:10 X:00 Y:F0 P:25 SP:FA CYC:147 SL:70
837B  10 FB     BPL $8378                       A:10 X:00 Y:F0 P:25 SP:FA CYC:159 SL:70
8378  AD 02 20  LDA $2002 = FF                  A:10 X:00 Y:F0 P:25 SP:FA CYC:168 SL:70
837B  10 FB     BPL $8378                       A:10 X:00 Y:F0 P:25 SP:FA CYC:180 SL:70
8378  AD 02 20  LDA $2002 = FF                  A:10 X:00 Y:F0 P:25 SP:FA CYC:189 SL:70
837B  10 FB     BPL $8378                       A:10 X:00 Y:F0 P:25 SP:FA CYC:201 SL:70
8378  AD 02 20  LDA $2002 = FF                  A:10 X:00 Y:F0 P:25 SP:FA CYC:210 SL:70
837B  10 FB     BPL $8378                       A:10 X:00 Y:F0 P:25 SP:FA CYC:222 SL:70
8378  AD 02 20  LDA $2002 = FF                  A:10 X:00 Y:F0 P:25 SP:FA CYC:231 SL:70
837B  10 FB     BPL $8378                       A:10 X:00 Y:F0 P:25 SP:FA CYC:243 SL:70
8378  AD 02 20  LDA $2002 = FF                  A:10 X:00 Y:F0 P:25 SP:FA CYC:252 SL:70
837B  10 FB     BPL $8378                       A:10 X:00 Y:F0 P:25 SP:FA CYC:264 SL:70
8378  AD 02 20  LDA $2002 = FF                  A:10 X:00 Y:F0 P:25 SP:FA CYC:273 SL:70
837B  10 FB     BPL $8378                       A:10 X:00 Y:F0 P:25 SP:FA CYC:285 SL:70
8378  AD 02 20  LDA $2002 = FF                  A:10 X:00 Y:F0 P:25 SP:FA CYC:294 SL:70
837B  10 FB     BPL $8378                       A:10 X:00 Y:F0 P:25 SP:FA CYC:306 SL:70
8378  AD 02 20  LDA $2002 = FF                  A:10 X:00 Y:F0 P:25 SP:FA CYC:315 SL:70
837B  10 FB     BPL $8378                       A:10 X:00 Y:F0 P:25 SP:FA CYC:327 SL:70
8378  AD 02 20  LDA $2002 = FF                  A:10 X:00 Y:F0 P:25 SP:FA CYC:336 SL:70
837B  10 FB     BPL $8378                       A:10 X:00 Y:F0 P:25 SP:FA CYC:  7 SL:71
8378  AD 02 20  LDA $2002 = FF                  A:10 X:00 Y:F0 P:25 SP:FA CYC: 16 SL:71
837B  10 FB     BPL $8378                       A:10 X:00 Y:F0 P:25 SP:FA CYC: 28 SL:71
8378  AD 02 20  LDA $2002 = FF                  A:10 X:00 Y:F0 P:25 SP:FA CYC: 37 SL:71
837B  10 FB     BPL $8378                       A:10 X:00 Y:F0 P:25 SP:FA CYC: 49 SL:71
8378  AD 02 20  LDA $2002 = FF                  A:10 X:00 Y:F0 P:25 SP:FA CYC: 58 SL:71
837B  10 FB     BPL $8378                       A:10 X:00 Y:F0 P:25 SP:FA CYC: 70 SL:71
8378  AD 02 20  LDA $2002 = FF                  A:10 X:00 Y:F0 P:25 SP:FA CYC: 79 SL:71
837B  10 FB     BPL $8378                       A:10 X:00 Y:F0 P:25 SP:FA CYC: 91 SL:71
8378  AD 02 20  LDA $2002 = FF                  A:10 X:00 Y:F0 P:25 SP:FA CYC:100 SL:71
837B  10 FB     BPL $8378                       A:10 X:00 Y:F0 P:25 SP:FA CYC:112 SL:71
8378  AD 02 20  LDA $2002 = FF                  A:10 X:00 Y:F0 P:25 SP:FA CYC:121 SL:71
837B  10 FB     BPL $8378                       A:10 X:00 Y:F0 P:25 SP:FA CYC:133 SL:71
8378  AD 02 20  LDA $2002 = FF                  A:10 X:00 Y:F0 P:25 SP:FA CYC:142 SL:71
837B  10 FB     BPL $8378                       A:10 X:00 Y:F0 P:25 SP:FA CYC:154 SL:71
8378  AD 02 20  LDA $2002 = FF                  A:10 X:00 Y:F0 P:25 SP:FA CYC:163 SL:71
837B  10 FB     BPL $8378                       A:10 X:00 Y:F0 P:25 SP:FA CYC:175 SL:71
8378  AD 02 20  LDA $2002 = FF                  A:10 X:00 Y:F0 P:25 SP:FA CYC:184 SL:71
837B  10 FB     BPL $8378                       A:10 X:00 Y:F0 P:25 SP:FA CYC:196 SL:71
8378  AD 02 20  LDA $2002 = FF                  A:10 X:00 Y:F0 P:25 SP:FA CYC:205 SL:71
837B  10 FB     BPL $8378                       A:10 X:00 Y:F0 P:25 SP:FA CYC:217 SL:71
8378  AD 02 20  LDA $2002 = FF                  A:10 X:00 Y:F0 P:25 SP:FA CYC:226 SL:71
837B  10 FB     BPL $8378                       A:10 X:00 Y:F0 P:25 SP:FA CYC:238 SL:71
8378  AD 02 20  LDA $2002 = FF                  A:10 X:00 Y:F0 P:25 SP:FA CYC:247 SL:71
837B  10 FB     BPL $8378                       A:10 X:00 Y:F0 P:25 SP:FA CYC:259 SL:71
8378  AD 02 20  LDA $2002 = FF                  A:10 X:00 Y:F0 P:25 SP:FA CYC:268 SL:71
837B  10 FB     BPL $8378                       A:10 X:00 Y:F0 P:25 SP:FA CYC:280 SL:71
8378  AD 02 20  LDA $2002 = FF                  A:10 X:00 Y:F0 P:25 SP:FA CYC:289 SL:71
837B  10 FB     BPL $8378                       A:10 X:00 Y:F0 P:25 SP:FA CYC:301 SL:71
8378  AD 02 20  LDA $2002 = FF                  A:10 X:00 Y:F0 P:25 SP:FA CYC:310 SL:71
837B  10 FB     BPL $8378                       A:10 X:00 Y:F0 P:25 SP:FA CYC:322 SL:71
8378  AD 02 20  LDA $2002 = FF                  A:10 X:00 Y:F0 P:25 SP:FA CYC:331 SL:71
837B  10 FB     BPL $8378                       A:10 X:00 Y:F0 P:25 SP:FA CYC:  2 SL:72
8378  AD 02 20  LDA $2002 = FF                  A:10 X:00 Y:F0 P:25 SP:FA CYC: 11 SL:72
837B  10 FB     BPL $8378                       A:10 X:00 Y:F0 P:25 SP:FA CYC: 23 SL:72
8378  AD 02 20  LDA $2002 = FF                  A:10 X:00 Y:F0 P:25 SP:FA CYC: 32 SL:72
837B  10 FB     BPL $8378                       A:10 X:00 Y:F0 P:25 SP:FA CYC: 44 SL:72
8378  AD 02 20  LDA $2002 = FF                  A:10 X:00 Y:F0 P:25 SP:FA CYC: 53 SL:72
837B  10 FB     BPL $8378                       A:10 X:00 Y:F0 P:25 SP:FA CYC: 65 SL:72
8378  AD 02 20  LDA $2002 = FF                  A:10 X:00 Y:F0 P:25 SP:FA CYC: 74 SL:72
837B  10 FB     BPL $8378                       A:10 X:00 Y:F0 P:25 SP:FA CYC: 86 SL:72
8378  AD 02 20  LDA $2002 = FF                  A:10 X:00 Y:F0 P:25 SP:FA CYC: 95 SL:72
837B  10 FB     BPL $8378                       A:10 X:00 Y:F0 P:25 SP:FA CYC:107 SL:72
8378  AD 02 20  LDA $2002 = FF                  A:10 X:00 Y:F0 P:25 SP:FA CYC:116 SL:72
837B  10 FB     BPL $8378                       A:10 X:00 Y:F0 P:25 SP:FA CYC:128 SL:72
8378  AD 02 20  LDA $2002 = FF                  A:10 X:00 Y:F0 P:25 SP:FA CYC:137 SL:72
837B  10 FB     BPL $8378                       A:10 X:00 Y:F0 P:25 SP:FA CYC:149 SL:72
8378  AD 02 20  LDA $2002 = FF                  A:10 X:00 Y:F0 P:25 SP:FA CYC:158 SL:72
837B  10 FB     BPL $8378                       A:10 X:00 Y:F0 P:25 SP:FA CYC:170 SL:72
8378  AD 02 20  LDA $2002 = FF                  A:10 X:00 Y:F0 P:25 SP:FA CYC:179 SL:72
837B  10 FB     BPL $8378                       A:10 X:00 Y:F0 P:25 SP:FA CYC:191 SL:72
8378  AD 02 20  LDA $2002 = FF                  A:10 X:00 Y:F0 P:25 SP:FA CYC:200 SL:72
837B  10 FB     BPL $8378                       A:10 X:00 Y:F0 P:25 SP:FA CYC:212 SL:72
8378  AD 02 20  LDA $2002 = FF                  A:10 X:00 Y:F0 P:25 SP:FA CYC:221 SL:72
837B  10 FB     BPL $8378                       A:10 X:00 Y:F0 P:25 SP:FA CYC:233 SL:72
8378  AD 02 20  LDA $2002 = FF                  A:10 X:00 Y:F0 P:25 SP:FA CYC:242 SL:72
837B  10 FB     BPL $8378                       A:10 X:00 Y:F0 P:25 SP:FA CYC:254 SL:72
8378  AD 02 20  LDA $2002 = FF                  A:10 X:00 Y:F0 P:25 SP:FA CYC:263 SL:72
837B  10 FB     BPL $8378                       A:10 X:00 Y:F0 P:25 SP:FA CYC:275 SL:72
8378  AD 02 20  LDA $2002 = FF                  A:10 X:00 Y:F0 P:25 SP:FA CYC:284 SL:72
837B  10 FB     BPL $8378                       A:10 X:00 Y:F0 P:25 SP:FA CYC:296 SL:72
8378  AD 02 20  LDA $2002 = FF                  A:10 X:00 Y:F0 P:25 SP:FA CYC:305 SL:72
837B  10 FB     BPL $8378                       A:10 X:00 Y:F0 P:25 SP:FA CYC:317 SL:72
8378  AD 02 20  LDA $2002 = FF                  A:10 X:00 Y:F0 P:25 SP:FA CYC:326 SL:72
837B  10 FB     BPL $8378                       A:10 X:00 Y:F0 P:25 SP:FA CYC:338 SL:72
8378  AD 02 20  LDA $2002 = FF                  A:10 X:00 Y:F0 P:25 SP:FA CYC:  6 SL:73
837B  10 FB     BPL $8378                       A:10 X:00 Y:F0 P:25 SP:FA CYC: 18 SL:73
8378  AD 02 20  LDA $2002 = FF                  A:10 X:00 Y:F0 P:25 SP:FA CYC: 27 SL:73
837B  10 FB     BPL $8378                       A:10 X:00 Y:F0 P:25 SP:FA CYC: 39 SL:73
8378  AD 02 20  LDA $2002 = FF                  A:10 X:00 Y:F0 P:25 SP:FA CYC: 48 SL:73
837B  10 FB     BPL $8378                       A:10 X:00 Y:F0 P:25 SP:FA CYC: 60 SL:73
8378  AD 02 20  LDA $2002 = FF                  A:10 X:00 Y:F0 P:25 SP:FA CYC: 69 SL:73
837B  10 FB     BPL $8378                       A:10 X:00 Y:F0 P:25 SP:FA CYC: 81 SL:73
8378  AD 02 20  LDA $2002 = FF                  A:10 X:00 Y:F0 P:25 SP:FA CYC: 90 SL:73
837B  10 FB     BPL $8378                       A:10 X:00 Y:F0 P:25 SP:FA CYC:102 SL:73
8378  AD 02 20  LDA $2002 = FF                  A:10 X:00 Y:F0 P:25 SP:FA CYC:111 SL:73
837B  10 FB     BPL $8378                       A:10 X:00 Y:F0 P:25 SP:FA CYC:123 SL:73
8378  AD 02 20  LDA $2002 = FF                  A:10 X:00 Y:F0 P:25 SP:FA CYC:132 SL:73
837B  10 FB     BPL $8378                       A:10 X:00 Y:F0 P:25 SP:FA CYC:144 SL:73
8378  AD 02 20  LDA $2002 = FF                  A:10 X:00 Y:F0 P:25 SP:FA CYC:153 SL:73
837B  10 FB     BPL $8378                       A:10 X:00 Y:F0 P:25 SP:FA CYC:165 SL:73
8378  AD 02 20  LDA $2002 = FF                  A:10 X:00 Y:F0 P:25 SP:FA CYC:174 SL:73
837B  10 FB     BPL $8378                       A:10 X:00 Y:F0 P:25 SP:FA CYC:186 SL:73
8378  AD 02 20  LDA $2002 = FF                  A:10 X:00 Y:F0 P:25 SP:FA CYC:195 SL:73
837B  10 FB     BPL $8378                       A:10 X:00 Y:F0 P:25 SP:FA CYC:207 SL:73
8378  AD 02 20  LDA $2002 = FF                  A:10 X:00 Y:F0 P:25 SP:FA CYC:216 SL:73
837B  10 FB     BPL $8378                       A:10 X:00 Y:F0 P:25 SP:FA CYC:228 SL:73
8378  AD 02 20  LDA $2002 = FF                  A:10 X:00 Y:F0 P:25 SP:FA CYC:237 SL:73
837B  10 FB     BPL $8378                       A:10 X:00 Y:F0 P:25 SP:FA CYC:249 SL:73
8378  AD 02 20  LDA $2002 = FF                  A:10 X:00 Y:F0 P:25 SP:FA CYC:258 SL:73
837B  10 FB     BPL $8378                       A:10 X:00 Y:F0 P:25 SP:FA CYC:270 SL:73
8378  AD 02 20  LDA $2002 = FF                  A:10 X:00 Y:F0 P:25 SP:FA CYC:279 SL:73
837B  10 FB     BPL $8378                       A:10 X:00 Y:F0 P:25 SP:FA CYC:291 SL:73
8378  AD 02 20  LDA $2002 = FF                  A:10 X:00 Y:F0 P:25 SP:FA CYC:300 SL:73
837B  10 FB     BPL $8378                       A:10 X:00 Y:F0 P:25 SP:FA CYC:312 SL:73
8378  AD 02 20  LDA $2002 = FF                  A:10 X:00 Y:F0 P:25 SP:FA CYC:321 SL:73
837B  10 FB     BPL $8378                       A:10 X:00 Y:F0 P:25 SP:FA CYC:333 SL:73
8378  AD 02 20  LDA $2002 = FF                  A:10 X:00 Y:F0 P:25 SP:FA CYC:  1 SL:74
837B  10 FB     BPL $8378                       A:10 X:00 Y:F0 P:25 SP:FA CYC: 13 SL:74
8378  AD 02 20  LDA $2002 = FF                  A:10 X:00 Y:F0 P:25 SP:FA CYC: 22 SL:74
837B  10 FB     BPL $8378                       A:10 X:00 Y:F0 P:25 SP:FA CYC: 34 SL:74
8378  AD 02 20  LDA $2002 = FF                  A:10 X:00 Y:F0 P:25 SP:FA CYC: 43 SL:74
837B  10 FB     BPL $8378                       A:10 X:00 Y:F0 P:25 SP:FA CYC: 55 SL:74
8378  AD 02 20  LDA $2002 = FF                  A:10 X:00 Y:F0 P:25 SP:FA CYC: 64 SL:74
837B  10 FB     BPL $8378                       A:10 X:00 Y:F0 P:25 SP:FA CYC: 76 SL:74
8378  AD 02 20  LDA $2002 = FF                  A:10 X:00 Y:F0 P:25 SP:FA CYC: 85 SL:74
837B  10 FB     BPL $8378                       A:10 X:00 Y:F0 P:25 SP:FA CYC: 97 SL:74
8378  AD 02 20  LDA $2002 = FF                  A:10 X:00 Y:F0 P:25 SP:FA CYC:106 SL:74
837B  10 FB     BPL $8378                       A:10 X:00 Y:F0 P:25 SP:FA CYC:118 SL:74
8378  AD 02 20  LDA $2002 = FF                  A:10 X:00 Y:F0 P:25 SP:FA CYC:127 SL:74
837B  10 FB     BPL $8378                       A:10 X:00 Y:F0 P:25 SP:FA CYC:139 SL:74
8378  AD 02 20  LDA $2002 = FF                  A:10 X:00 Y:F0 P:25 SP:FA CYC:148 SL:74
837B  10 FB     BPL $8378                       A:10 X:00 Y:F0 P:25 SP:FA CYC:160 SL:74
8378  AD 02 20  LDA $2002 = FF                  A:10 X:00 Y:F0 P:25 SP:FA CYC:169 SL:74
837B  10 FB     BPL $8378                       A:10 X:00 Y:F0 P:25 SP:FA CYC:181 SL:74
8378  AD 02 20  LDA $2002 = FF                  A:10 X:00 Y:F0 P:25 SP:FA CYC:190 SL:74
837B  10 FB     BPL $8378                       A:10 X:00 Y:F0 P:25 SP:FA CYC:202 SL:74
8378  AD 02 20  LDA $2002 = FF                  A:10 X:00 Y:F0 P:25 SP:FA CYC:211 SL:74
837B  10 FB     BPL $8378                       A:10 X:00 Y:F0 P:25 SP:FA CYC:223 SL:74
8378  AD 02 20  LDA $2002 = FF                  A:10 X:00 Y:F0 P:25 SP:FA CYC:232 SL:74
837B  10 FB     BPL $8378                       A:10 X:00 Y:F0 P:25 SP:FA CYC:244 SL:74
8378  AD 02 20  LDA $2002 = FF                  A:10 X:00 Y:F0 P:25 SP:FA CYC:253 SL:74
837B  10 FB     BPL $8378                       A:10 X:00 Y:F0 P:25 SP:FA CYC:265 SL:74
8378  AD 02 20  LDA $2002 = FF                  A:10 X:00 Y:F0 P:25 SP:FA CYC:274 SL:74
837B  10 FB     BPL $8378                       A:10 X:00 Y:F0 P:25 SP:FA CYC:286 SL:74
8378  AD 02 20  LDA $2002 = FF                  A:10 X:00 Y:F0 P:25 SP:FA CYC:295 SL:74
837B  10 FB     BPL $8378                       A:10 X:00 Y:F0 P:25 SP:FA CYC:307 SL:74
8378  AD 02 20  LDA $2002 = FF                  A:10 X:00 Y:F0 P:25 SP:FA CYC:316 SL:74
837B  10 FB     BPL $8378                       A:10 X:00 Y:F0 P:25 SP:FA CYC:328 SL:74
8378  AD 02 20  LDA $2002 = FF                  A:10 X:00 Y:F0 P:25 SP:FA CYC:337 SL:74
837B  10 FB     BPL $8378                       A:10 X:00 Y:F0 P:25 SP:FA CYC:  8 SL:75
8378  AD 02 20  LDA $2002 = FF                  A:10 X:00 Y:F0 P:25 SP:FA CYC: 17 SL:75
837B  10 FB     BPL $8378                       A:10 X:00 Y:F0 P:25 SP:FA CYC: 29 SL:75
8378  AD 02 20  LDA $2002 = FF                  A:10 X:00 Y:F0 P:25 SP:FA CYC: 38 SL:75
837B  10 FB     BPL $8378                       A:10 X:00 Y:F0 P:25 SP:FA CYC: 50 SL:75
8378  AD 02 20  LDA $2002 = FF                  A:10 X:00 Y:F0 P:25 SP:FA CYC: 59 SL:75
837B  10 FB     BPL $8378                       A:10 X:00 Y:F0 P:25 SP:FA CYC: 71 SL:75
8378  AD 02 20  LDA $2002 = FF                  A:10 X:00 Y:F0 P:25 SP:FA CYC: 80 SL:75
837B  10 FB     BPL $8378                       A:10 X:00 Y:F0 P:25 SP:FA CYC: 92 SL:75
8378  AD 02 20  LDA $2002 = FF                  A:10 X:00 Y:F0 P:25 SP:FA CYC:101 SL:75
837B  10 FB     BPL $8378                       A:10 X:00 Y:F0 P:25 SP:FA CYC:113 SL:75
8378  AD 02 20  LDA $2002 = FF                  A:10 X:00 Y:F0 P:25 SP:FA CYC:122 SL:75
837B  10 FB     BPL $8378                       A:10 X:00 Y:F0 P:25 SP:FA CYC:134 SL:75
8378  AD 02 20  LDA $2002 = FF                  A:10 X:00 Y:F0 P:25 SP:FA CYC:143 SL:75
837B  10 FB     BPL $8378                       A:10 X:00 Y:F0 P:25 SP:FA CYC:155 SL:75
8378  AD 02 20  LDA $2002 = FF                  A:10 X:00 Y:F0 P:25 SP:FA CYC:164 SL:75
837B  10 FB     BPL $8378                       A:10 X:00 Y:F0 P:25 SP:FA CYC:176 SL:75
8378  AD 02 20  LDA $2002 = FF                  A:10 X:00 Y:F0 P:25 SP:FA CYC:185 SL:75
837B  10 FB     BPL $8378                       A:10 X:00 Y:F0 P:25 SP:FA CYC:197 SL:75
8378  AD 02 20  LDA $2002 = FF                  A:10 X:00 Y:F0 P:25 SP:FA CYC:206 SL:75
837B  10 FB     BPL $8378                       A:10 X:00 Y:F0 P:25 SP:FA CYC:218 SL:75
8378  AD 02 20  LDA $2002 = FF                  A:10 X:00 Y:F0 P:25 SP:FA CYC:227 SL:75
837B  10 FB     BPL $8378                       A:10 X:00 Y:F0 P:25 SP:FA CYC:239 SL:75
8378  AD 02 20  LDA $2002 = FF                  A:10 X:00 Y:F0 P:25 SP:FA CYC:248 SL:75
837B  10 FB     BPL $8378                       A:10 X:00 Y:F0 P:25 SP:FA CYC:260 SL:75
8378  AD 02 20  LDA $2002 = FF                  A:10 X:00 Y:F0 P:25 SP:FA CYC:269 SL:75
837B  10 FB     BPL $8378                       A:10 X:00 Y:F0 P:25 SP:FA CYC:281 SL:75
8378  AD 02 20  LDA $2002 = FF                  A:10 X:00 Y:F0 P:25 SP:FA CYC:290 SL:75
837B  10 FB     BPL $8378                       A:10 X:00 Y:F0 P:25 SP:FA CYC:302 SL:75
8378  AD 02 20  LDA $2002 = FF                  A:10 X:00 Y:F0 P:25 SP:FA CYC:311 SL:75
837B  10 FB     BPL $8378                       A:10 X:00 Y:F0 P:25 SP:FA CYC:323 SL:75
8378  AD 02 20  LDA $2002 = FF                  A:10 X:00 Y:F0 P:25 SP:FA CYC:332 SL:75
837B  10 FB     BPL $8378                       A:10 X:00 Y:F0 P:25 SP:FA CYC:  3 SL:76
8378  AD 02 20  LDA $2002 = FF                  A:10 X:00 Y:F0 P:25 SP:FA CYC: 12 SL:76
837B  10 FB     BPL $8378                       A:10 X:00 Y:F0 P:25 SP:FA CYC: 24 SL:76
8378  AD 02 20  LDA $2002 = FF                  A:10 X:00 Y:F0 P:25 SP:FA CYC: 33 SL:76
837B  10 FB     BPL $8378                       A:10 X:00 Y:F0 P:25 SP:FA CYC: 45 SL:76
8378  AD 02 20  LDA $2002 = FF                  A:10 X:00 Y:F0 P:25 SP:FA CYC: 54 SL:76
837B  10 FB     BPL $8378                       A:10 X:00 Y:F0 P:25 SP:FA CYC: 66 SL:76
8378  AD 02 20  LDA $2002 = FF                  A:10 X:00 Y:F0 P:25 SP:FA CYC: 75 SL:76
837B  10 FB     BPL $8378                       A:10 X:00 Y:F0 P:25 SP:FA CYC: 87 SL:76
8378  AD 02 20  LDA $2002 = FF                  A:10 X:00 Y:F0 P:25 SP:FA CYC: 96 SL:76
837B  10 FB     BPL $8378                       A:10 X:00 Y:F0 P:25 SP:FA CYC:108 SL:76
8378  AD 02 20  LDA $2002 = FF                  A:10 X:00 Y:F0 P:25 SP:FA CYC:117 SL:76
837B  10 FB     BPL $8378                       A:10 X:00 Y:F0 P:25 SP:FA CYC:129 SL:76
8378  AD 02 20  LDA $2002 = FF                  A:10 X:00 Y:F0 P:25 SP:FA CYC:138 SL:76
837B  10 FB     BPL $8378                       A:10 X:00 Y:F0 P:25 SP:FA CYC:150 SL:76
8378  AD 02 20  LDA $2002 = FF                  A:10 X:00 Y:F0 P:25 SP:FA CYC:159 SL:76
837B  10 FB     BPL $8378                       A:10 X:00 Y:F0 P:25 SP:FA CYC:171 SL:76
8378  AD 02 20  LDA $2002 = FF                  A:10 X:00 Y:F0 P:25 SP:FA CYC:180 SL:76
837B  10 FB     BPL $8378                       A:10 X:00 Y:F0 P:25 SP:FA CYC:192 SL:76
8378  AD 02 20  LDA $2002 = FF                  A:10 X:00 Y:F0 P:25 SP:FA CYC:201 SL:76
837B  10 FB     BPL $8378                       A:10 X:00 Y:F0 P:25 SP:FA CYC:213 SL:76
8378  AD 02 20  LDA $2002 = FF                  A:10 X:00 Y:F0 P:25 SP:FA CYC:222 SL:76
837B  10 FB     BPL $8378                       A:10 X:00 Y:F0 P:25 SP:FA CYC:234 SL:76
8378  AD 02 20  LDA $2002 = FF                  A:10 X:00 Y:F0 P:25 SP:FA CYC:243 SL:76
837B  10 FB     BPL $8378                       A:10 X:00 Y:F0 P:25 SP:FA CYC:255 SL:76
8378  AD 02 20  LDA $2002 = FF                  A:10 X:00 Y:F0 P:25 SP:FA CYC:264 SL:76
837B  10 FB     BPL $8378                       A:10 X:00 Y:F0 P:25 SP:FA CYC:276 SL:76
8378  AD 02 20  LDA $2002 = FF                  A:10 X:00 Y:F0 P:25 SP:FA CYC:285 SL:76
837B  10 FB     BPL $8378                       A:10 X:00 Y:F0 P:25 SP:FA CYC:297 SL:76
8378  AD 02 20  LDA $2002 = FF                  A:10 X:00 Y:F0 P:25 SP:FA CYC:306 SL:76
837B  10 FB     BPL $8378                       A:10 X:00 Y:F0 P:25 SP:FA CYC:318 SL:76
8378  AD 02 20  LDA $2002 = FF                  A:10 X:00 Y:F0 P:25 SP:FA CYC:327 SL:76
837B  10 FB     BPL $8378                       A:10 X:00 Y:F0 P:25 SP:FA CYC:339 SL:76
8378  AD 02 20  LDA $2002 = FF                  A:10 X:00 Y:F0 P:25 SP:FA CYC:  7 SL:77
837B  10 FB     BPL $8378                       A:10 X:00 Y:F0 P:25 SP:FA CYC: 19 SL:77
8378  AD 02 20  LDA $2002 = FF                  A:10 X:00 Y:F0 P:25 SP:FA CYC: 28 SL:77
837B  10 FB     BPL $8378                       A:10 X:00 Y:F0 P:25 SP:FA CYC: 40 SL:77
8378  AD 02 20  LDA $2002 = FF                  A:10 X:00 Y:F0 P:25 SP:FA CYC: 49 SL:77
837B  10 FB     BPL $8378                       A:10 X:00 Y:F0 P:25 SP:FA CYC: 61 SL:77
8378  AD 02 20  LDA $2002 = FF                  A:10 X:00 Y:F0 P:25 SP:FA CYC: 70 SL:77
837B  10 FB     BPL $8378                       A:10 X:00 Y:F0 P:25 SP:FA CYC: 82 SL:77
8378  AD 02 20  LDA $2002 = FF                  A:10 X:00 Y:F0 P:25 SP:FA CYC: 91 SL:77
837B  10 FB     BPL $8378                       A:10 X:00 Y:F0 P:25 SP:FA CYC:103 SL:77
8378  AD 02 20  LDA $2002 = FF                  A:10 X:00 Y:F0 P:25 SP:FA CYC:112 SL:77
837B  10 FB     BPL $8378                       A:10 X:00 Y:F0 P:25 SP:FA CYC:124 SL:77
8378  AD 02 20  LDA $2002 = FF                  A:10 X:00 Y:F0 P:25 SP:FA CYC:133 SL:77
837B  10 FB     BPL $8378                       A:10 X:00 Y:F0 P:25 SP:FA CYC:145 SL:77
8378  AD 02 20  LDA $2002 = FF                  A:10 X:00 Y:F0 P:25 SP:FA CYC:154 SL:77
837B  10 FB     BPL $8378                       A:10 X:00 Y:F0 P:25 SP:FA CYC:166 SL:77
8378  AD 02 20  LDA $2002 = FF                  A:10 X:00 Y:F0 P:25 SP:FA CYC:175 SL:77
837B  10 FB     BPL $8378                       A:10 X:00 Y:F0 P:25 SP:FA CYC:187 SL:77
8378  AD 02 20  LDA $2002 = FF                  A:10 X:00 Y:F0 P:25 SP:FA CYC:196 SL:77
837B  10 FB     BPL $8378                       A:10 X:00 Y:F0 P:25 SP:FA CYC:208 SL:77
8378  AD 02 20  LDA $2002 = FF                  A:10 X:00 Y:F0 P:25 SP:FA CYC:217 SL:77
837B  10 FB     BPL $8378                       A:10 X:00 Y:F0 P:25 SP:FA CYC:229 SL:77
8378  AD 02 20  LDA $2002 = FF                  A:10 X:00 Y:F0 P:25 SP:FA CYC:238 SL:77
837B  10 FB     BPL $8378                       A:10 X:00 Y:F0 P:25 SP:FA CYC:250 SL:77
8378  AD 02 20  LDA $2002 = FF                  A:10 X:00 Y:F0 P:25 SP:FA CYC:259 SL:77
837B  10 FB     BPL $8378                       A:10 X:00 Y:F0 P:25 SP:FA CYC:271 SL:77
8378  AD 02 20  LDA $2002 = FF                  A:10 X:00 Y:F0 P:25 SP:FA CYC:280 SL:77
837B  10 FB     BPL $8378                       A:10 X:00 Y:F0 P:25 SP:FA CYC:292 SL:77
8378  AD 02 20  LDA $2002 = FF                  A:10 X:00 Y:F0 P:25 SP:FA CYC:301 SL:77
837B  10 FB     BPL $8378                       A:10 X:00 Y:F0 P:25 SP:FA CYC:313 SL:77
8378  AD 02 20  LDA $2002 = FF                  A:10 X:00 Y:F0 P:25 SP:FA CYC:322 SL:77
837B  10 FB     BPL $8378                       A:10 X:00 Y:F0 P:25 SP:FA CYC:334 SL:77
8378  AD 02 20  LDA $2002 = FF                  A:10 X:00 Y:F0 P:25 SP:FA CYC:  2 SL:78
837B  10 FB     BPL $8378                       A:10 X:00 Y:F0 P:25 SP:FA CYC: 14 SL:78
8378  AD 02 20  LDA $2002 = FF                  A:10 X:00 Y:F0 P:25 SP:FA CYC: 23 SL:78
837B  10 FB     BPL $8378                       A:10 X:00 Y:F0 P:25 SP:FA CYC: 35 SL:78
8378  AD 02 20  LDA $2002 = FF                  A:10 X:00 Y:F0 P:25 SP:FA CYC: 44 SL:78
837B  10 FB     BPL $8378                       A:10 X:00 Y:F0 P:25 SP:FA CYC: 56 SL:78
8378  AD 02 20  LDA $2002 = FF                  A:10 X:00 Y:F0 P:25 SP:FA CYC: 65 SL:78
837B  10 FB     BPL $8378                       A:10 X:00 Y:F0 P:25 SP:FA CYC: 77 SL:78
8378  AD 02 20  LDA $2002 = FF                  A:10 X:00 Y:F0 P:25 SP:FA CYC: 86 SL:78
837B  10 FB     BPL $8378                       A:10 X:00 Y:F0 P:25 SP:FA CYC: 98 SL:78
8378  AD 02 20  LDA $2002 = FF                  A:10 X:00 Y:F0 P:25 SP:FA CYC:107 SL:78
837B  10 FB     BPL $8378                       A:10 X:00 Y:F0 P:25 SP:FA CYC:119 SL:78
8378  AD 02 20  LDA $2002 = FF                  A:10 X:00 Y:F0 P:25 SP:FA CYC:128 SL:78
837B  10 FB     BPL $8378                       A:10 X:00 Y:F0 P:25 SP:FA CYC:140 SL:78
8378  AD 02 20  LDA $2002 = FF                  A:10 X:00 Y:F0 P:25 SP:FA CYC:149 SL:78
837B  10 FB     BPL $8378                       A:10 X:00 Y:F0 P:25 SP:FA CYC:161 SL:78
8378  AD 02 20  LDA $2002 = FF                  A:10 X:00 Y:F0 P:25 SP:FA CYC:170 SL:78
837B  10 FB     BPL $8378                       A:10 X:00 Y:F0 P:25 SP:FA CYC:182 SL:78
8378  AD 02 20  LDA $2002 = FF                  A:10 X:00 Y:F0 P:25 SP:FA CYC:191 SL:78
837B  10 FB     BPL $8378                       A:10 X:00 Y:F0 P:25 SP:FA CYC:203 SL:78
8378  AD 02 20  LDA $2002 = FF                  A:10 X:00 Y:F0 P:25 SP:FA CYC:212 SL:78
837B  10 FB     BPL $8378                       A:10 X:00 Y:F0 P:25 SP:FA CYC:224 SL:78
8378  AD 02 20  LDA $2002 = FF                  A:10 X:00 Y:F0 P:25 SP:FA CYC:233 SL:78
837B  10 FB     BPL $8378                       A:10 X:00 Y:F0 P:25 SP:FA CYC:245 SL:78
8378  AD 02 20  LDA $2002 = FF                  A:10 X:00 Y:F0 P:25 SP:FA CYC:254 SL:78
837B  10 FB     BPL $8378                       A:10 X:00 Y:F0 P:25 SP:FA CYC:266 SL:78
8378  AD 02 20  LDA $2002 = FF                  A:10 X:00 Y:F0 P:25 SP:FA CYC:275 SL:78
837B  10 FB     BPL $8378                       A:10 X:00 Y:F0 P:25 SP:FA CYC:287 SL:78
8378  AD 02 20  LDA $2002 = FF                  A:10 X:00 Y:F0 P:25 SP:FA CYC:296 SL:78
837B  10 FB     BPL $8378                       A:10 X:00 Y:F0 P:25 SP:FA CYC:308 SL:78
8378  AD 02 20  LDA $2002 = FF                  A:10 X:00 Y:F0 P:25 SP:FA CYC:317 SL:78
837B  10 FB     BPL $8378                       A:10 X:00 Y:F0 P:25 SP:FA CYC:329 SL:78
8378  AD 02 20  LDA $2002 = FF                  A:10 X:00 Y:F0 P:25 SP:FA CYC:338 SL:78
837B  10 FB     BPL $8378                       A:10 X:00 Y:F0 P:25 SP:FA CYC:  9 SL:79
8378  AD 02 20  LDA $2002 = FF                  A:10 X:00 Y:F0 P:25 SP:FA CYC: 18 SL:79
837B  10 FB     BPL $8378                       A:10 X:00 Y:F0 P:25 SP:FA CYC: 30 SL:79
8378  AD 02 20  LDA $2002 = FF                  A:10 X:00 Y:F0 P:25 SP:FA CYC: 39 SL:79
837B  10 FB     BPL $8378                       A:10 X:00 Y:F0 P:25 SP:FA CYC: 51 SL:79
8378  AD 02 20  LDA $2002 = FF                  A:10 X:00 Y:F0 P:25 SP:FA CYC: 60 SL:79
837B  10 FB     BPL $8378                       A:10 X:00 Y:F0 P:25 SP:FA CYC: 72 SL:79
8378  AD 02 20  LDA $2002 = FF                  A:10 X:00 Y:F0 P:25 SP:FA CYC: 81 SL:79
837B  10 FB     BPL $8378                       A:10 X:00 Y:F0 P:25 SP:FA CYC: 93 SL:79
8378  AD 02 20  LDA $2002 = FF                  A:10 X:00 Y:F0 P:25 SP:FA CYC:102 SL:79
837B  10 FB     BPL $8378                       A:10 X:00 Y:F0 P:25 SP:FA CYC:114 SL:79
8378  AD 02 20  LDA $2002 = FF                  A:10 X:00 Y:F0 P:25 SP:FA CYC:123 SL:79
837B  10 FB     BPL $8378                       A:10 X:00 Y:F0 P:25 SP:FA CYC:135 SL:79
8378  AD 02 20  LDA $2002 = FF                  A:10 X:00 Y:F0 P:25 SP:FA CYC:144 SL:79
837B  10 FB     BPL $8378                       A:10 X:00 Y:F0 P:25 SP:FA CYC:156 SL:79
8378  AD 02 20  LDA $2002 = FF                  A:10 X:00 Y:F0 P:25 SP:FA CYC:165 SL:79
837B  10 FB     BPL $8378                       A:10 X:00 Y:F0 P:25 SP:FA CYC:177 SL:79
8378  AD 02 20  LDA $2002 = FF                  A:10 X:00 Y:F0 P:25 SP:FA CYC:186 SL:79
837B  10 FB     BPL $8378                       A:10 X:00 Y:F0 P:25 SP:FA CYC:198 SL:79
8378  AD 02 20  LDA $2002 = FF                  A:10 X:00 Y:F0 P:25 SP:FA CYC:207 SL:79
837B  10 FB     BPL $8378                       A:10 X:00 Y:F0 P:25 SP:FA CYC:219 SL:79
8378  AD 02 20  LDA $2002 = FF                  A:10 X:00 Y:F0 P:25 SP:FA CYC:228 SL:79
837B  10 FB     BPL $8378                       A:10 X:00 Y:F0 P:25 SP:FA CYC:240 SL:79
8378  AD 02 20  LDA $2002 = FF                  A:10 X:00 Y:F0 P:25 SP:FA CYC:249 SL:79
837B  10 FB     BPL $8378                       A:10 X:00 Y:F0 P:25 SP:FA CYC:261 SL:79
8378  AD 02 20  LDA $2002 = FF                  A:10 X:00 Y:F0 P:25 SP:FA CYC:270 SL:79
837B  10 FB     BPL $8378                       A:10 X:00 Y:F0 P:25 SP:FA CYC:282 SL:79
8378  AD 02 20  LDA $2002 = FF                  A:10 X:00 Y:F0 P:25 SP:FA CYC:291 SL:79
837B  10 FB     BPL $8378                       A:10 X:00 Y:F0 P:25 SP:FA CYC:303 SL:79
8378  AD 02 20  LDA $2002 = FF                  A:10 X:00 Y:F0 P:25 SP:FA CYC:312 SL:79
837B  10 FB     BPL $8378                       A:10 X:00 Y:F0 P:25 SP:FA CYC:324 SL:79
8378  AD 02 20  LDA $2002 = FF                  A:10 X:00 Y:F0 P:25 SP:FA CYC:333 SL:79
837B  10 FB     BPL $8378                       A:10 X:00 Y:F0 P:25 SP:FA CYC:  4 SL:80
8378  AD 02 20  LDA $2002 = FF                  A:10 X:00 Y:F0 P:25 SP:FA CYC: 13 SL:80
837B  10 FB     BPL $8378                       A:10 X:00 Y:F0 P:25 SP:FA CYC: 25 SL:80
8378  AD 02 20  LDA $2002 = FF                  A:10 X:00 Y:F0 P:25 SP:FA CYC: 34 SL:80
837B  10 FB     BPL $8378                       A:10 X:00 Y:F0 P:25 SP:FA CYC: 46 SL:80
8378  AD 02 20  LDA $2002 = FF                  A:10 X:00 Y:F0 P:25 SP:FA CYC: 55 SL:80
837B  10 FB     BPL $8378                       A:10 X:00 Y:F0 P:25 SP:FA CYC: 67 SL:80
8378  AD 02 20  LDA $2002 = FF                  A:10 X:00 Y:F0 P:25 SP:FA CYC: 76 SL:80
837B  10 FB     BPL $8378                       A:10 X:00 Y:F0 P:25 SP:FA CYC: 88 SL:80
8378  AD 02 20  LDA $2002 = FF                  A:10 X:00 Y:F0 P:25 SP:FA CYC: 97 SL:80
837B  10 FB     BPL $8378                       A:10 X:00 Y:F0 P:25 SP:FA CYC:109 SL:80
8378  AD 02 20  LDA $2002 = FF                  A:10 X:00 Y:F0 P:25 SP:FA CYC:118 SL:80
837B  10 FB     BPL $8378                       A:10 X:00 Y:F0 P:25 SP:FA CYC:130 SL:80
8378  AD 02 20  LDA $2002 = FF                  A:10 X:00 Y:F0 P:25 SP:FA CYC:139 SL:80
837B  10 FB     BPL $8378                       A:10 X:00 Y:F0 P:25 SP:FA CYC:151 SL:80
8378  AD 02 20  LDA $2002 = FF                  A:10 X:00 Y:F0 P:25 SP:FA CYC:160 SL:80
837B  10 FB     BPL $8378                       A:10 X:00 Y:F0 P:25 SP:FA CYC:172 SL:80
8378  AD 02 20  LDA $2002 = FF                  A:10 X:00 Y:F0 P:25 SP:FA CYC:181 SL:80
837B  10 FB     BPL $8378                       A:10 X:00 Y:F0 P:25 SP:FA CYC:193 SL:80
8378  AD 02 20  LDA $2002 = FF                  A:10 X:00 Y:F0 P:25 SP:FA CYC:202 SL:80
837B  10 FB     BPL $8378                       A:10 X:00 Y:F0 P:25 SP:FA CYC:214 SL:80
8378  AD 02 20  LDA $2002 = FF                  A:10 X:00 Y:F0 P:25 SP:FA CYC:223 SL:80
837B  10 FB     BPL $8378                       A:10 X:00 Y:F0 P:25 SP:FA CYC:235 SL:80
8378  AD 02 20  LDA $2002 = FF                  A:10 X:00 Y:F0 P:25 SP:FA CYC:244 SL:80
837B  10 FB     BPL $8378                       A:10 X:00 Y:F0 P:25 SP:FA CYC:256 SL:80
8378  AD 02 20  LDA $2002 = FF                  A:10 X:00 Y:F0 P:25 SP:FA CYC:265 SL:80
837B  10 FB     BPL $8378                       A:10 X:00 Y:F0 P:25 SP:FA CYC:277 SL:80
8378  AD 02 20  LDA $2002 = FF                  A:10 X:00 Y:F0 P:25 SP:FA CYC:286 SL:80
837B  10 FB     BPL $8378                       A:10 X:00 Y:F0 P:25 SP:FA CYC:298 SL:80
8378  AD 02 20  LDA $2002 = FF                  A:10 X:00 Y:F0 P:25 SP:FA CYC:307 SL:80
837B  10 FB     BPL $8378                       A:10 X:00 Y:F0 P:25 SP:FA CYC:319 SL:80
8378  AD 02 20  LDA $2002 = FF                  A:10 X:00 Y:F0 P:25 SP:FA CYC:328 SL:80
837B  10 FB     BPL $8378                       A:10 X:00 Y:F0 P:25 SP:FA CYC:340 SL:80
8378  AD 02 20  LDA $2002 = FF                  A:10 X:00 Y:F0 P:25 SP:FA CYC:  8 SL:81
837B  10 FB     BPL $8378                       A:10 X:00 Y:F0 P:25 SP:FA CYC: 20 SL:81
8378  AD 02 20  LDA $2002 = FF                  A:10 X:00 Y:F0 P:25 SP:FA CYC: 29 SL:81
837B  10 FB     BPL $8378                       A:10 X:00 Y:F0 P:25 SP:FA CYC: 41 SL:81
8378  AD 02 20  LDA $2002 = FF                  A:10 X:00 Y:F0 P:25 SP:FA CYC: 50 SL:81
837B  10 FB     BPL $8378                       A:10 X:00 Y:F0 P:25 SP:FA CYC: 62 SL:81
8378  AD 02 20  LDA $2002 = FF                  A:10 X:00 Y:F0 P:25 SP:FA CYC: 71 SL:81
837B  10 FB     BPL $8378                       A:10 X:00 Y:F0 P:25 SP:FA CYC: 83 SL:81
8378  AD 02 20  LDA $2002 = FF                  A:10 X:00 Y:F0 P:25 SP:FA CYC: 92 SL:81
837B  10 FB     BPL $8378                       A:10 X:00 Y:F0 P:25 SP:FA CYC:104 SL:81
8378  AD 02 20  LDA $2002 = FF                  A:10 X:00 Y:F0 P:25 SP:FA CYC:113 SL:81
837B  10 FB     BPL $8378                       A:10 X:00 Y:F0 P:25 SP:FA CYC:125 SL:81
8378  AD 02 20  LDA $2002 = FF                  A:10 X:00 Y:F0 P:25 SP:FA CYC:134 SL:81
837B  10 FB     BPL $8378                       A:10 X:00 Y:F0 P:25 SP:FA CYC:146 SL:81
8378  AD 02 20  LDA $2002 = FF                  A:10 X:00 Y:F0 P:25 SP:FA CYC:155 SL:81
837B  10 FB     BPL $8378                       A:10 X:00 Y:F0 P:25 SP:FA CYC:167 SL:81
8378  AD 02 20  LDA $2002 = FF                  A:10 X:00 Y:F0 P:25 SP:FA CYC:176 SL:81
837B  10 FB     BPL $8378                       A:10 X:00 Y:F0 P:25 SP:FA CYC:188 SL:81
8378  AD 02 20  LDA $2002 = FF                  A:10 X:00 Y:F0 P:25 SP:FA CYC:197 SL:81
837B  10 FB     BPL $8378                       A:10 X:00 Y:F0 P:25 SP:FA CYC:209 SL:81
8378  AD 02 20  LDA $2002 = FF                  A:10 X:00 Y:F0 P:25 SP:FA CYC:218 SL:81
837B  10 FB     BPL $8378                       A:10 X:00 Y:F0 P:25 SP:FA CYC:230 SL:81
8378  AD 02 20  LDA $2002 = FF                  A:10 X:00 Y:F0 P:25 SP:FA CYC:239 SL:81
837B  10 FB     BPL $8378                       A:10 X:00 Y:F0 P:25 SP:FA CYC:251 SL:81
8378  AD 02 20  LDA $2002 = FF                  A:10 X:00 Y:F0 P:25 SP:FA CYC:260 SL:81
837B  10 FB     BPL $8378                       A:10 X:00 Y:F0 P:25 SP:FA CYC:272 SL:81
8378  AD 02 20  LDA $2002 = FF                  A:10 X:00 Y:F0 P:25 SP:FA CYC:281 SL:81
837B  10 FB     BPL $8378                       A:10 X:00 Y:F0 P:25 SP:FA CYC:293 SL:81
8378  AD 02 20  LDA $2002 = FF                  A:10 X:00 Y:F0 P:25 SP:FA CYC:302 SL:81
837B  10 FB     BPL $8378                       A:10 X:00 Y:F0 P:25 SP:FA CYC:314 SL:81
8378  AD 02 20  LDA $2002 = FF                  A:10 X:00 Y:F0 P:25 SP:FA CYC:323 SL:81
837B  10 FB     BPL $8378                       A:10 X:00 Y:F0 P:25 SP:FA CYC:335 SL:81
8378  AD 02 20  LDA $2002 = FF                  A:10 X:00 Y:F0 P:25 SP:FA CYC:  3 SL:82
837B  10 FB     BPL $8378                       A:10 X:00 Y:F0 P:25 SP:FA CYC: 15 SL:82
8378  AD 02 20  LDA $2002 = FF                  A:10 X:00 Y:F0 P:25 SP:FA CYC: 24 SL:82
837B  10 FB     BPL $8378                       A:10 X:00 Y:F0 P:25 SP:FA CYC: 36 SL:82
8378  AD 02 20  LDA $2002 = FF                  A:10 X:00 Y:F0 P:25 SP:FA CYC: 45 SL:82
837B  10 FB     BPL $8378                       A:10 X:00 Y:F0 P:25 SP:FA CYC: 57 SL:82
8378  AD 02 20  LDA $2002 = FF                  A:10 X:00 Y:F0 P:25 SP:FA CYC: 66 SL:82
837B  10 FB     BPL $8378                       A:10 X:00 Y:F0 P:25 SP:FA CYC: 78 SL:82
8378  AD 02 20  LDA $2002 = FF                  A:10 X:00 Y:F0 P:25 SP:FA CYC: 87 SL:82
837B  10 FB     BPL $8378                       A:10 X:00 Y:F0 P:25 SP:FA CYC: 99 SL:82
8378  AD 02 20  LDA $2002 = FF                  A:10 X:00 Y:F0 P:25 SP:FA CYC:108 SL:82
837B  10 FB     BPL $8378                       A:10 X:00 Y:F0 P:25 SP:FA CYC:120 SL:82
8378  AD 02 20  LDA $2002 = FF                  A:10 X:00 Y:F0 P:25 SP:FA CYC:129 SL:82
837B  10 FB     BPL $8378                       A:10 X:00 Y:F0 P:25 SP:FA CYC:141 SL:82
8378  AD 02 20  LDA $2002 = FF                  A:10 X:00 Y:F0 P:25 SP:FA CYC:150 SL:82
837B  10 FB     BPL $8378                       A:10 X:00 Y:F0 P:25 SP:FA CYC:162 SL:82
8378  AD 02 20  LDA $2002 = FF                  A:10 X:00 Y:F0 P:25 SP:FA CYC:171 SL:82
837B  10 FB     BPL $8378                       A:10 X:00 Y:F0 P:25 SP:FA CYC:183 SL:82
8378  AD 02 20  LDA $2002 = FF                  A:10 X:00 Y:F0 P:25 SP:FA CYC:192 SL:82
837B  10 FB     BPL $8378                       A:10 X:00 Y:F0 P:25 SP:FA CYC:204 SL:82
8378  AD 02 20  LDA $2002 = FF                  A:10 X:00 Y:F0 P:25 SP:FA CYC:213 SL:82
837B  10 FB     BPL $8378                       A:10 X:00 Y:F0 P:25 SP:FA CYC:225 SL:82
8378  AD 02 20  LDA $2002 = FF                  A:10 X:00 Y:F0 P:25 SP:FA CYC:234 SL:82
837B  10 FB     BPL $8378                       A:10 X:00 Y:F0 P:25 SP:FA CYC:246 SL:82
8378  AD 02 20  LDA $2002 = FF                  A:10 X:00 Y:F0 P:25 SP:FA CYC:255 SL:82
837B  10 FB     BPL $8378                       A:10 X:00 Y:F0 P:25 SP:FA CYC:267 SL:82
8378  AD 02 20  LDA $2002 = FF                  A:10 X:00 Y:F0 P:25 SP:FA CYC:276 SL:82
837B  10 FB     BPL $8378                       A:10 X:00 Y:F0 P:25 SP:FA CYC:288 SL:82
8378  AD 02 20  LDA $2002 = FF                  A:10 X:00 Y:F0 P:25 SP:FA CYC:297 SL:82
837B  10 FB     BPL $8378                       A:10 X:00 Y:F0 P:25 SP:FA CYC:309 SL:82
8378  AD 02 20  LDA $2002 = FF                  A:10 X:00 Y:F0 P:25 SP:FA CYC:318 SL:82
837B  10 FB     BPL $8378                       A:10 X:00 Y:F0 P:25 SP:FA CYC:330 SL:82
8378  AD 02 20  LDA $2002 = FF                  A:10 X:00 Y:F0 P:25 SP:FA CYC:339 SL:82
837B  10 FB     BPL $8378                       A:10 X:00 Y:F0 P:25 SP:FA CYC: 10 SL:83
8378  AD 02 20  LDA $2002 = FF                  A:10 X:00 Y:F0 P:25 SP:FA CYC: 19 SL:83
837B  10 FB     BPL $8378                       A:10 X:00 Y:F0 P:25 SP:FA CYC: 31 SL:83
8378  AD 02 20  LDA $2002 = FF                  A:10 X:00 Y:F0 P:25 SP:FA CYC: 40 SL:83
837B  10 FB     BPL $8378                       A:10 X:00 Y:F0 P:25 SP:FA CYC: 52 SL:83
8378  AD 02 20  LDA $2002 = FF                  A:10 X:00 Y:F0 P:25 SP:FA CYC: 61 SL:83
837B  10 FB     BPL $8378                       A:10 X:00 Y:F0 P:25 SP:FA CYC: 73 SL:83
8378  AD 02 20  LDA $2002 = FF                  A:10 X:00 Y:F0 P:25 SP:FA CYC: 82 SL:83
837B  10 FB     BPL $8378                       A:10 X:00 Y:F0 P:25 SP:FA CYC: 94 SL:83
8378  AD 02 20  LDA $2002 = FF                  A:10 X:00 Y:F0 P:25 SP:FA CYC:103 SL:83
837B  10 FB     BPL $8378                       A:10 X:00 Y:F0 P:25 SP:FA CYC:115 SL:83
8378  AD 02 20  LDA $2002 = FF                  A:10 X:00 Y:F0 P:25 SP:FA CYC:124 SL:83
837B  10 FB     BPL $8378                       A:10 X:00 Y:F0 P:25 SP:FA CYC:136 SL:83
8378  AD 02 20  LDA $2002 = FF                  A:10 X:00 Y:F0 P:25 SP:FA CYC:145 SL:83
837B  10 FB     BPL $8378                       A:10 X:00 Y:F0 P:25 SP:FA CYC:157 SL:83
8378  AD 02 20  LDA $2002 = FF                  A:10 X:00 Y:F0 P:25 SP:FA CYC:166 SL:83
837B  10 FB     BPL $8378                       A:10 X:00 Y:F0 P:25 SP:FA CYC:178 SL:83
8378  AD 02 20  LDA $2002 = FF                  A:10 X:00 Y:F0 P:25 SP:FA CYC:187 SL:83
837B  10 FB     BPL $8378                       A:10 X:00 Y:F0 P:25 SP:FA CYC:199 SL:83
8378  AD 02 20  LDA $2002 = FF                  A:10 X:00 Y:F0 P:25 SP:FA CYC:208 SL:83
837B  10 FB     BPL $8378                       A:10 X:00 Y:F0 P:25 SP:FA CYC:220 SL:83
8378  AD 02 20  LDA $2002 = FF                  A:10 X:00 Y:F0 P:25 SP:FA CYC:229 SL:83
837B  10 FB     BPL $8378                       A:10 X:00 Y:F0 P:25 SP:FA CYC:241 SL:83
8378  AD 02 20  LDA $2002 = FF                  A:10 X:00 Y:F0 P:25 SP:FA CYC:250 SL:83
837B  10 FB     BPL $8378                       A:10 X:00 Y:F0 P:25 SP:FA CYC:262 SL:83
8378  AD 02 20  LDA $2002 = FF                  A:10 X:00 Y:F0 P:25 SP:FA CYC:271 SL:83
837B  10 FB     BPL $8378                       A:10 X:00 Y:F0 P:25 SP:FA CYC:283 SL:83
8378  AD 02 20  LDA $2002 = FF                  A:10 X:00 Y:F0 P:25 SP:FA CYC:292 SL:83
837B  10 FB     BPL $8378                       A:10 X:00 Y:F0 P:25 SP:FA CYC:304 SL:83
8378  AD 02 20  LDA $2002 = FF                  A:10 X:00 Y:F0 P:25 SP:FA CYC:313 SL:83
837B  10 FB     BPL $8378                       A:10 X:00 Y:F0 P:25 SP:FA CYC:325 SL:83
8378  AD 02 20  LDA $2002 = FF                  A:10 X:00 Y:F0 P:25 SP:FA CYC:334 SL:83
837B  10 FB     BPL $8378                       A:10 X:00 Y:F0 P:25 SP:FA CYC:  5 SL:84
8378  AD 02 20  LDA $2002 = FF                  A:10 X:00 Y:F0 P:25 SP:FA CYC: 14 SL:84
837B  10 FB     BPL $8378                       A:10 X:00 Y:F0 P:25 SP:FA CYC: 26 SL:84
8378  AD 02 20  LDA $2002 = FF                  A:10 X:00 Y:F0 P:25 SP:FA CYC: 35 SL:84
837B  10 FB     BPL $8378                       A:10 X:00 Y:F0 P:25 SP:FA CYC: 47 SL:84
8378  AD 02 20  LDA $2002 = FF                  A:10 X:00 Y:F0 P:25 SP:FA CYC: 56 SL:84
837B  10 FB     BPL $8378                       A:10 X:00 Y:F0 P:25 SP:FA CYC: 68 SL:84
8378  AD 02 20  LDA $2002 = FF                  A:10 X:00 Y:F0 P:25 SP:FA CYC: 77 SL:84
837B  10 FB     BPL $8378                       A:10 X:00 Y:F0 P:25 SP:FA CYC: 89 SL:84
8378  AD 02 20  LDA $2002 = FF                  A:10 X:00 Y:F0 P:25 SP:FA CYC: 98 SL:84
837B  10 FB     BPL $8378                       A:10 X:00 Y:F0 P:25 SP:FA CYC:110 SL:84
8378  AD 02 20  LDA $2002 = FF                  A:10 X:00 Y:F0 P:25 SP:FA CYC:119 SL:84
837B  10 FB     BPL $8378                       A:10 X:00 Y:F0 P:25 SP:FA CYC:131 SL:84
8378  AD 02 20  LDA $2002 = FF                  A:10 X:00 Y:F0 P:25 SP:FA CYC:140 SL:84
837B  10 FB     BPL $8378                       A:10 X:00 Y:F0 P:25 SP:FA CYC:152 SL:84
8378  AD 02 20  LDA $2002 = FF                  A:10 X:00 Y:F0 P:25 SP:FA CYC:161 SL:84
837B  10 FB     BPL $8378                       A:10 X:00 Y:F0 P:25 SP:FA CYC:173 SL:84
8378  AD 02 20  LDA $2002 = FF                  A:10 X:00 Y:F0 P:25 SP:FA CYC:182 SL:84
837B  10 FB     BPL $8378                       A:10 X:00 Y:F0 P:25 SP:FA CYC:194 SL:84
8378  AD 02 20  LDA $2002 = FF                  A:10 X:00 Y:F0 P:25 SP:FA CYC:203 SL:84
837B  10 FB     BPL $8378                       A:10 X:00 Y:F0 P:25 SP:FA CYC:215 SL:84
8378  AD 02 20  LDA $2002 = FF                  A:10 X:00 Y:F0 P:25 SP:FA CYC:224 SL:84
837B  10 FB     BPL $8378                       A:10 X:00 Y:F0 P:25 SP:FA CYC:236 SL:84
8378  AD 02 20  LDA $2002 = FF                  A:10 X:00 Y:F0 P:25 SP:FA CYC:245 SL:84
837B  10 FB     BPL $8378                       A:10 X:00 Y:F0 P:25 SP:FA CYC:257 SL:84
8378  AD 02 20  LDA $2002 = FF                  A:10 X:00 Y:F0 P:25 SP:FA CYC:266 SL:84
837B  10 FB     BPL $8378                       A:10 X:00 Y:F0 P:25 SP:FA CYC:278 SL:84
8378  AD 02 20  LDA $2002 = FF                  A:10 X:00 Y:F0 P:25 SP:FA CYC:287 SL:84
837B  10 FB     BPL $8378                       A:10 X:00 Y:F0 P:25 SP:FA CYC:299 SL:84
8378  AD 02 20  LDA $2002 = FF                  A:10 X:00 Y:F0 P:25 SP:FA CYC:308 SL:84
837B  10 FB     BPL $8378                       A:10 X:00 Y:F0 P:25 SP:FA CYC:320 SL:84
8378  AD 02 20  LDA $2002 = FF                  A:10 X:00 Y:F0 P:25 SP:FA CYC:329 SL:84
837B  10 FB     BPL $8378                       A:10 X:00 Y:F0 P:25 SP:FA CYC:  0 SL:85
8378  AD 02 20  LDA $2002 = FF                  A:10 X:00 Y:F0 P:25 SP:FA CYC:  9 SL:85
837B  10 FB     BPL $8378                       A:10 X:00 Y:F0 P:25 SP:FA CYC: 21 SL:85
8378  AD 02 20  LDA $2002 = FF                  A:10 X:00 Y:F0 P:25 SP:FA CYC: 30 SL:85
837B  10 FB     BPL $8378                       A:10 X:00 Y:F0 P:25 SP:FA CYC: 42 SL:85
8378  AD 02 20  LDA $2002 = FF                  A:10 X:00 Y:F0 P:25 SP:FA CYC: 51 SL:85
837B  10 FB     BPL $8378                       A:10 X:00 Y:F0 P:25 SP:FA CYC: 63 SL:85
8378  AD 02 20  LDA $2002 = FF                  A:10 X:00 Y:F0 P:25 SP:FA CYC: 72 SL:85
837B  10 FB     BPL $8378                       A:10 X:00 Y:F0 P:25 SP:FA CYC: 84 SL:85
8378  AD 02 20  LDA $2002 = FF                  A:10 X:00 Y:F0 P:25 SP:FA CYC: 93 SL:85
837B  10 FB     BPL $8378                       A:10 X:00 Y:F0 P:25 SP:FA CYC:105 SL:85
8378  AD 02 20  LDA $2002 = FF                  A:10 X:00 Y:F0 P:25 SP:FA CYC:114 SL:85
837B  10 FB     BPL $8378                       A:10 X:00 Y:F0 P:25 SP:FA CYC:126 SL:85
8378  AD 02 20  LDA $2002 = FF                  A:10 X:00 Y:F0 P:25 SP:FA CYC:135 SL:85
837B  10 FB     BPL $8378                       A:10 X:00 Y:F0 P:25 SP:FA CYC:147 SL:85
8378  AD 02 20  LDA $2002 = FF                  A:10 X:00 Y:F0 P:25 SP:FA CYC:156 SL:85
837B  10 FB     BPL $8378                       A:10 X:00 Y:F0 P:25 SP:FA CYC:168 SL:85
8378  AD 02 20  LDA $2002 = FF                  A:10 X:00 Y:F0 P:25 SP:FA CYC:177 SL:85
837B  10 FB     BPL $8378                       A:10 X:00 Y:F0 P:25 SP:FA CYC:189 SL:85
8378  AD 02 20  LDA $2002 = FF                  A:10 X:00 Y:F0 P:25 SP:FA CYC:198 SL:85
837B  10 FB     BPL $8378                       A:10 X:00 Y:F0 P:25 SP:FA CYC:210 SL:85
8378  AD 02 20  LDA $2002 = FF                  A:10 X:00 Y:F0 P:25 SP:FA CYC:219 SL:85
837B  10 FB     BPL $8378                       A:10 X:00 Y:F0 P:25 SP:FA CYC:231 SL:85
8378  AD 02 20  LDA $2002 = FF                  A:10 X:00 Y:F0 P:25 SP:FA CYC:240 SL:85
837B  10 FB     BPL $8378                       A:10 X:00 Y:F0 P:25 SP:FA CYC:252 SL:85
8378  AD 02 20  LDA $2002 = FF                  A:10 X:00 Y:F0 P:25 SP:FA CYC:261 SL:85
837B  10 FB     BPL $8378                       A:10 X:00 Y:F0 P:25 SP:FA CYC:273 SL:85
8378  AD 02 20  LDA $2002 = FF                  A:10 X:00 Y:F0 P:25 SP:FA CYC:282 SL:85
837B  10 FB     BPL $8378                       A:10 X:00 Y:F0 P:25 SP:FA CYC:294 SL:85
8378  AD 02 20  LDA $2002 = FF                  A:10 X:00 Y:F0 P:25 SP:FA CYC:303 SL:85
837B  10 FB     BPL $8378                       A:10 X:00 Y:F0 P:25 SP:FA CYC:315 SL:85
8378  AD 02 20  LDA $2002 = FF                  A:10 X:00 Y:F0 P:25 SP:FA CYC:324 SL:85
837B  10 FB     BPL $8378                       A:10 X:00 Y:F0 P:25 SP:FA CYC:336 SL:85
8378  AD 02 20  LDA $2002 = FF                  A:10 X:00 Y:F0 P:25 SP:FA CYC:  4 SL:86
837B  10 FB     BPL $8378                       A:10 X:00 Y:F0 P:25 SP:FA CYC: 16 SL:86
8378  AD 02 20  LDA $2002 = FF                  A:10 X:00 Y:F0 P:25 SP:FA CYC: 25 SL:86
837B  10 FB     BPL $8378                       A:10 X:00 Y:F0 P:25 SP:FA CYC: 37 SL:86
8378  AD 02 20  LDA $2002 = FF                  A:10 X:00 Y:F0 P:25 SP:FA CYC: 46 SL:86
837B  10 FB     BPL $8378                       A:10 X:00 Y:F0 P:25 SP:FA CYC: 58 SL:86
8378  AD 02 20  LDA $2002 = FF                  A:10 X:00 Y:F0 P:25 SP:FA CYC: 67 SL:86
837B  10 FB     BPL $8378                       A:10 X:00 Y:F0 P:25 SP:FA CYC: 79 SL:86
8378  AD 02 20  LDA $2002 = FF                  A:10 X:00 Y:F0 P:25 SP:FA CYC: 88 SL:86
837B  10 FB     BPL $8378                       A:10 X:00 Y:F0 P:25 SP:FA CYC:100 SL:86
8378  AD 02 20  LDA $2002 = FF                  A:10 X:00 Y:F0 P:25 SP:FA CYC:109 SL:86
837B  10 FB     BPL $8378                       A:10 X:00 Y:F0 P:25 SP:FA CYC:121 SL:86
8378  AD 02 20  LDA $2002 = FF                  A:10 X:00 Y:F0 P:25 SP:FA CYC:130 SL:86
837B  10 FB     BPL $8378                       A:10 X:00 Y:F0 P:25 SP:FA CYC:142 SL:86
8378  AD 02 20  LDA $2002 = FF                  A:10 X:00 Y:F0 P:25 SP:FA CYC:151 SL:86
837B  10 FB     BPL $8378                       A:10 X:00 Y:F0 P:25 SP:FA CYC:163 SL:86
8378  AD 02 20  LDA $2002 = FF                  A:10 X:00 Y:F0 P:25 SP:FA CYC:172 SL:86
837B  10 FB     BPL $8378                       A:10 X:00 Y:F0 P:25 SP:FA CYC:184 SL:86
8378  AD 02 20  LDA $2002 = FF                  A:10 X:00 Y:F0 P:25 SP:FA CYC:193 SL:86
837B  10 FB     BPL $8378                       A:10 X:00 Y:F0 P:25 SP:FA CYC:205 SL:86
8378  AD 02 20  LDA $2002 = FF                  A:10 X:00 Y:F0 P:25 SP:FA CYC:214 SL:86
837B  10 FB     BPL $8378                       A:10 X:00 Y:F0 P:25 SP:FA CYC:226 SL:86
8378  AD 02 20  LDA $2002 = FF                  A:10 X:00 Y:F0 P:25 SP:FA CYC:235 SL:86
837B  10 FB     BPL $8378                       A:10 X:00 Y:F0 P:25 SP:FA CYC:247 SL:86
8378  AD 02 20  LDA $2002 = FF                  A:10 X:00 Y:F0 P:25 SP:FA CYC:256 SL:86
837B  10 FB     BPL $8378                       A:10 X:00 Y:F0 P:25 SP:FA CYC:268 SL:86
8378  AD 02 20  LDA $2002 = FF                  A:10 X:00 Y:F0 P:25 SP:FA CYC:277 SL:86
837B  10 FB     BPL $8378                       A:10 X:00 Y:F0 P:25 SP:FA CYC:289 SL:86
8378  AD 02 20  LDA $2002 = FF                  A:10 X:00 Y:F0 P:25 SP:FA CYC:298 SL:86
837B  10 FB     BPL $8378                       A:10 X:00 Y:F0 P:25 SP:FA CYC:310 SL:86
8378  AD 02 20  LDA $2002 = FF                  A:10 X:00 Y:F0 P:25 SP:FA CYC:319 SL:86
837B  10 FB     BPL $8378                       A:10 X:00 Y:F0 P:25 SP:FA CYC:331 SL:86
8378  AD 02 20  LDA $2002 = FF                  A:10 X:00 Y:F0 P:25 SP:FA CYC:340 SL:86
837B  10 FB     BPL $8378                       A:10 X:00 Y:F0 P:25 SP:FA CYC: 11 SL:87
8378  AD 02 20  LDA $2002 = FF                  A:10 X:00 Y:F0 P:25 SP:FA CYC: 20 SL:87
837B  10 FB     BPL $8378                       A:10 X:00 Y:F0 P:25 SP:FA CYC: 32 SL:87
8378  AD 02 20  LDA $2002 = FF                  A:10 X:00 Y:F0 P:25 SP:FA CYC: 41 SL:87
837B  10 FB     BPL $8378                       A:10 X:00 Y:F0 P:25 SP:FA CYC: 53 SL:87
8378  AD 02 20  LDA $2002 = FF                  A:10 X:00 Y:F0 P:25 SP:FA CYC: 62 SL:87
837B  10 FB     BPL $8378                       A:10 X:00 Y:F0 P:25 SP:FA CYC: 74 SL:87
8378  AD 02 20  LDA $2002 = FF                  A:10 X:00 Y:F0 P:25 SP:FA CYC: 83 SL:87
837B  10 FB     BPL $8378                       A:10 X:00 Y:F0 P:25 SP:FA CYC: 95 SL:87
8378  AD 02 20  LDA $2002 = FF                  A:10 X:00 Y:F0 P:25 SP:FA CYC:104 SL:87
837B  10 FB     BPL $8378                       A:10 X:00 Y:F0 P:25 SP:FA CYC:116 SL:87
8378  AD 02 20  LDA $2002 = FF                  A:10 X:00 Y:F0 P:25 SP:FA CYC:125 SL:87
837B  10 FB     BPL $8378                       A:10 X:00 Y:F0 P:25 SP:FA CYC:137 SL:87
8378  AD 02 20  LDA $2002 = FF                  A:10 X:00 Y:F0 P:25 SP:FA CYC:146 SL:87
837B  10 FB     BPL $8378                       A:10 X:00 Y:F0 P:25 SP:FA CYC:158 SL:87
8378  AD 02 20  LDA $2002 = FF                  A:10 X:00 Y:F0 P:25 SP:FA CYC:167 SL:87
837B  10 FB     BPL $8378                       A:10 X:00 Y:F0 P:25 SP:FA CYC:179 SL:87
8378  AD 02 20  LDA $2002 = FF                  A:10 X:00 Y:F0 P:25 SP:FA CYC:188 SL:87
837B  10 FB     BPL $8378                       A:10 X:00 Y:F0 P:25 SP:FA CYC:200 SL:87
8378  AD 02 20  LDA $2002 = FF                  A:10 X:00 Y:F0 P:25 SP:FA CYC:209 SL:87
837B  10 FB     BPL $8378                       A:10 X:00 Y:F0 P:25 SP:FA CYC:221 SL:87
8378  AD 02 20  LDA $2002 = FF                  A:10 X:00 Y:F0 P:25 SP:FA CYC:230 SL:87
837B  10 FB     BPL $8378                       A:10 X:00 Y:F0 P:25 SP:FA CYC:242 SL:87
8378  AD 02 20  LDA $2002 = FF                  A:10 X:00 Y:F0 P:25 SP:FA CYC:251 SL:87
837B  10 FB     BPL $8378                       A:10 X:00 Y:F0 P:25 SP:FA CYC:263 SL:87
8378  AD 02 20  LDA $2002 = FF                  A:10 X:00 Y:F0 P:25 SP:FA CYC:272 SL:87
837B  10 FB     BPL $8378                       A:10 X:00 Y:F0 P:25 SP:FA CYC:284 SL:87
8378  AD 02 20  LDA $2002 = FF                  A:10 X:00 Y:F0 P:25 SP:FA CYC:293 SL:87
837B  10 FB     BPL $8378                       A:10 X:00 Y:F0 P:25 SP:FA CYC:305 SL:87
8378  AD 02 20  LDA $2002 = FF                  A:10 X:00 Y:F0 P:25 SP:FA CYC:314 SL:87
837B  10 FB     BPL $8378                       A:10 X:00 Y:F0 P:25 SP:FA CYC:326 SL:87
8378  AD 02 20  LDA $2002 = FF                  A:10 X:00 Y:F0 P:25 SP:FA CYC:335 SL:87
837B  10 FB     BPL $8378                       A:10 X:00 Y:F0 P:25 SP:FA CYC:  6 SL:88
8378  AD 02 20  LDA $2002 = FF                  A:10 X:00 Y:F0 P:25 SP:FA CYC: 15 SL:88
837B  10 FB     BPL $8378                       A:10 X:00 Y:F0 P:25 SP:FA CYC: 27 SL:88
8378  AD 02 20  LDA $2002 = FF                  A:10 X:00 Y:F0 P:25 SP:FA CYC: 36 SL:88
837B  10 FB     BPL $8378                       A:10 X:00 Y:F0 P:25 SP:FA CYC: 48 SL:88
8378  AD 02 20  LDA $2002 = FF                  A:10 X:00 Y:F0 P:25 SP:FA CYC: 57 SL:88
837B  10 FB     BPL $8378                       A:10 X:00 Y:F0 P:25 SP:FA CYC: 69 SL:88
8378  AD 02 20  LDA $2002 = FF                  A:10 X:00 Y:F0 P:25 SP:FA CYC: 78 SL:88
837B  10 FB     BPL $8378                       A:10 X:00 Y:F0 P:25 SP:FA CYC: 90 SL:88
8378  AD 02 20  LDA $2002 = FF                  A:10 X:00 Y:F0 P:25 SP:FA CYC: 99 SL:88
837B  10 FB     BPL $8378                       A:10 X:00 Y:F0 P:25 SP:FA CYC:111 SL:88
8378  AD 02 20  LDA $2002 = FF                  A:10 X:00 Y:F0 P:25 SP:FA CYC:120 SL:88
837B  10 FB     BPL $8378                       A:10 X:00 Y:F0 P:25 SP:FA CYC:132 SL:88
8378  AD 02 20  LDA $2002 = FF                  A:10 X:00 Y:F0 P:25 SP:FA CYC:141 SL:88
837B  10 FB     BPL $8378                       A:10 X:00 Y:F0 P:25 SP:FA CYC:153 SL:88
8378  AD 02 20  LDA $2002 = FF                  A:10 X:00 Y:F0 P:25 SP:FA CYC:162 SL:88
837B  10 FB     BPL $8378                       A:10 X:00 Y:F0 P:25 SP:FA CYC:174 SL:88
8378  AD 02 20  LDA $2002 = FF                  A:10 X:00 Y:F0 P:25 SP:FA CYC:183 SL:88
837B  10 FB     BPL $8378                       A:10 X:00 Y:F0 P:25 SP:FA CYC:195 SL:88
8378  AD 02 20  LDA $2002 = FF                  A:10 X:00 Y:F0 P:25 SP:FA CYC:204 SL:88
837B  10 FB     BPL $8378                       A:10 X:00 Y:F0 P:25 SP:FA CYC:216 SL:88
8378  AD 02 20  LDA $2002 = FF                  A:10 X:00 Y:F0 P:25 SP:FA CYC:225 SL:88
837B  10 FB     BPL $8378                       A:10 X:00 Y:F0 P:25 SP:FA CYC:237 SL:88
8378  AD 02 20  LDA $2002 = FF                  A:10 X:00 Y:F0 P:25 SP:FA CYC:246 SL:88
837B  10 FB     BPL $8378                       A:10 X:00 Y:F0 P:25 SP:FA CYC:258 SL:88
8378  AD 02 20  LDA $2002 = FF                  A:10 X:00 Y:F0 P:25 SP:FA CYC:267 SL:88
837B  10 FB     BPL $8378                       A:10 X:00 Y:F0 P:25 SP:FA CYC:279 SL:88
8378  AD 02 20  LDA $2002 = FF                  A:10 X:00 Y:F0 P:25 SP:FA CYC:288 SL:88
837B  10 FB     BPL $8378                       A:10 X:00 Y:F0 P:25 SP:FA CYC:300 SL:88
8378  AD 02 20  LDA $2002 = FF                  A:10 X:00 Y:F0 P:25 SP:FA CYC:309 SL:88
837B  10 FB     BPL $8378                       A:10 X:00 Y:F0 P:25 SP:FA CYC:321 SL:88
8378  AD 02 20  LDA $2002 = FF                  A:10 X:00 Y:F0 P:25 SP:FA CYC:330 SL:88
837B  10 FB     BPL $8378                       A:10 X:00 Y:F0 P:25 SP:FA CYC:  1 SL:89
8378  AD 02 20  LDA $2002 = FF                  A:10 X:00 Y:F0 P:25 SP:FA CYC: 10 SL:89
837B  10 FB     BPL $8378                       A:10 X:00 Y:F0 P:25 SP:FA CYC: 22 SL:89
8378  AD 02 20  LDA $2002 = FF                  A:10 X:00 Y:F0 P:25 SP:FA CYC: 31 SL:89
837B  10 FB     BPL $8378                       A:10 X:00 Y:F0 P:25 SP:FA CYC: 43 SL:89
8378  AD 02 20  LDA $2002 = FF                  A:10 X:00 Y:F0 P:25 SP:FA CYC: 52 SL:89
837B  10 FB     BPL $8378                       A:10 X:00 Y:F0 P:25 SP:FA CYC: 64 SL:89
8378  AD 02 20  LDA $2002 = FF                  A:10 X:00 Y:F0 P:25 SP:FA CYC: 73 SL:89
837B  10 FB     BPL $8378                       A:10 X:00 Y:F0 P:25 SP:FA CYC: 85 SL:89
8378  AD 02 20  LDA $2002 = FF                  A:10 X:00 Y:F0 P:25 SP:FA CYC: 94 SL:89
837B  10 FB     BPL $8378                       A:10 X:00 Y:F0 P:25 SP:FA CYC:106 SL:89
8378  AD 02 20  LDA $2002 = FF                  A:10 X:00 Y:F0 P:25 SP:FA CYC:115 SL:89
837B  10 FB     BPL $8378                       A:10 X:00 Y:F0 P:25 SP:FA CYC:127 SL:89
8378  AD 02 20  LDA $2002 = FF                  A:10 X:00 Y:F0 P:25 SP:FA CYC:136 SL:89
837B  10 FB     BPL $8378                       A:10 X:00 Y:F0 P:25 SP:FA CYC:148 SL:89
8378  AD 02 20  LDA $2002 = FF                  A:10 X:00 Y:F0 P:25 SP:FA CYC:157 SL:89
837B  10 FB     BPL $8378                       A:10 X:00 Y:F0 P:25 SP:FA CYC:169 SL:89
8378  AD 02 20  LDA $2002 = FF                  A:10 X:00 Y:F0 P:25 SP:FA CYC:178 SL:89
837B  10 FB     BPL $8378                       A:10 X:00 Y:F0 P:25 SP:FA CYC:190 SL:89
8378  AD 02 20  LDA $2002 = FF                  A:10 X:00 Y:F0 P:25 SP:FA CYC:199 SL:89
837B  10 FB     BPL $8378                       A:10 X:00 Y:F0 P:25 SP:FA CYC:211 SL:89
8378  AD 02 20  LDA $2002 = FF                  A:10 X:00 Y:F0 P:25 SP:FA CYC:220 SL:89
837B  10 FB     BPL $8378                       A:10 X:00 Y:F0 P:25 SP:FA CYC:232 SL:89
8378  AD 02 20  LDA $2002 = FF                  A:10 X:00 Y:F0 P:25 SP:FA CYC:241 SL:89
837B  10 FB     BPL $8378                       A:10 X:00 Y:F0 P:25 SP:FA CYC:253 SL:89
8378  AD 02 20  LDA $2002 = FF                  A:10 X:00 Y:F0 P:25 SP:FA CYC:262 SL:89
837B  10 FB     BPL $8378                       A:10 X:00 Y:F0 P:25 SP:FA CYC:274 SL:89
8378  AD 02 20  LDA $2002 = FF                  A:10 X:00 Y:F0 P:25 SP:FA CYC:283 SL:89
837B  10 FB     BPL $8378                       A:10 X:00 Y:F0 P:25 SP:FA CYC:295 SL:89
8378  AD 02 20  LDA $2002 = FF                  A:10 X:00 Y:F0 P:25 SP:FA CYC:304 SL:89
837B  10 FB     BPL $8378                       A:10 X:00 Y:F0 P:25 SP:FA CYC:316 SL:89
8378  AD 02 20  LDA $2002 = FF                  A:10 X:00 Y:F0 P:25 SP:FA CYC:325 SL:89
837B  10 FB     BPL $8378                       A:10 X:00 Y:F0 P:25 SP:FA CYC:337 SL:89
8378  AD 02 20  LDA $2002 = FF                  A:10 X:00 Y:F0 P:25 SP:FA CYC:  5 SL:90
837B  10 FB     BPL $8378                       A:10 X:00 Y:F0 P:25 SP:FA CYC: 17 SL:90
8378  AD 02 20  LDA $2002 = FF                  A:10 X:00 Y:F0 P:25 SP:FA CYC: 26 SL:90
837B  10 FB     BPL $8378                       A:10 X:00 Y:F0 P:25 SP:FA CYC: 38 SL:90
8378  AD 02 20  LDA $2002 = FF                  A:10 X:00 Y:F0 P:25 SP:FA CYC: 47 SL:90
837B  10 FB     BPL $8378                       A:10 X:00 Y:F0 P:25 SP:FA CYC: 59 SL:90
8378  AD 02 20  LDA $2002 = FF                  A:10 X:00 Y:F0 P:25 SP:FA CYC: 68 SL:90
837B  10 FB     BPL $8378                       A:10 X:00 Y:F0 P:25 SP:FA CYC: 80 SL:90
8378  AD 02 20  LDA $2002 = FF                  A:10 X:00 Y:F0 P:25 SP:FA CYC: 89 SL:90
837B  10 FB     BPL $8378                       A:10 X:00 Y:F0 P:25 SP:FA CYC:101 SL:90
8378  AD 02 20  LDA $2002 = FF                  A:10 X:00 Y:F0 P:25 SP:FA CYC:110 SL:90
837B  10 FB     BPL $8378                       A:10 X:00 Y:F0 P:25 SP:FA CYC:122 SL:90
8378  AD 02 20  LDA $2002 = FF                  A:10 X:00 Y:F0 P:25 SP:FA CYC:131 SL:90
837B  10 FB     BPL $8378                       A:10 X:00 Y:F0 P:25 SP:FA CYC:143 SL:90
8378  AD 02 20  LDA $2002 = FF                  A:10 X:00 Y:F0 P:25 SP:FA CYC:152 SL:90
837B  10 FB     BPL $8378                       A:10 X:00 Y:F0 P:25 SP:FA CYC:164 SL:90
8378  AD 02 20  LDA $2002 = FF                  A:10 X:00 Y:F0 P:25 SP:FA CYC:173 SL:90
837B  10 FB     BPL $8378                       A:10 X:00 Y:F0 P:25 SP:FA CYC:185 SL:90
8378  AD 02 20  LDA $2002 = FF                  A:10 X:00 Y:F0 P:25 SP:FA CYC:194 SL:90
837B  10 FB     BPL $8378                       A:10 X:00 Y:F0 P:25 SP:FA CYC:206 SL:90
8378  AD 02 20  LDA $2002 = FF                  A:10 X:00 Y:F0 P:25 SP:FA CYC:215 SL:90
837B  10 FB     BPL $8378                       A:10 X:00 Y:F0 P:25 SP:FA CYC:227 SL:90
8378  AD 02 20  LDA $2002 = FF                  A:10 X:00 Y:F0 P:25 SP:FA CYC:236 SL:90
837B  10 FB     BPL $8378                       A:10 X:00 Y:F0 P:25 SP:FA CYC:248 SL:90
8378  AD 02 20  LDA $2002 = FF                  A:10 X:00 Y:F0 P:25 SP:FA CYC:257 SL:90
837B  10 FB     BPL $8378                       A:10 X:00 Y:F0 P:25 SP:FA CYC:269 SL:90
8378  AD 02 20  LDA $2002 = FF                  A:10 X:00 Y:F0 P:25 SP:FA CYC:278 SL:90
837B  10 FB     BPL $8378                       A:10 X:00 Y:F0 P:25 SP:FA CYC:290 SL:90
8378  AD 02 20  LDA $2002 = FF                  A:10 X:00 Y:F0 P:25 SP:FA CYC:299 SL:90
837B  10 FB     BPL $8378                       A:10 X:00 Y:F0 P:25 SP:FA CYC:311 SL:90
8378  AD 02 20  LDA $2002 = FF                  A:10 X:00 Y:F0 P:25 SP:FA CYC:320 SL:90
837B  10 FB     BPL $8378                       A:10 X:00 Y:F0 P:25 SP:FA CYC:332 SL:90
8378  AD 02 20  LDA $2002 = FF                  A:10 X:00 Y:F0 P:25 SP:FA CYC:  0 SL:91
837B  10 FB     BPL $8378                       A:10 X:00 Y:F0 P:25 SP:FA CYC: 12 SL:91
8378  AD 02 20  LDA $2002 = FF                  A:10 X:00 Y:F0 P:25 SP:FA CYC: 21 SL:91
837B  10 FB     BPL $8378                       A:10 X:00 Y:F0 P:25 SP:FA CYC: 33 SL:91
8378  AD 02 20  LDA $2002 = FF                  A:10 X:00 Y:F0 P:25 SP:FA CYC: 42 SL:91
837B  10 FB     BPL $8378                       A:10 X:00 Y:F0 P:25 SP:FA CYC: 54 SL:91
8378  AD 02 20  LDA $2002 = FF                  A:10 X:00 Y:F0 P:25 SP:FA CYC: 63 SL:91
837B  10 FB     BPL $8378                       A:10 X:00 Y:F0 P:25 SP:FA CYC: 75 SL:91
8378  AD 02 20  LDA $2002 = FF                  A:10 X:00 Y:F0 P:25 SP:FA CYC: 84 SL:91
837B  10 FB     BPL $8378                       A:10 X:00 Y:F0 P:25 SP:FA CYC: 96 SL:91
8378  AD 02 20  LDA $2002 = FF                  A:10 X:00 Y:F0 P:25 SP:FA CYC:105 SL:91
837B  10 FB     BPL $8378                       A:10 X:00 Y:F0 P:25 SP:FA CYC:117 SL:91
8378  AD 02 20  LDA $2002 = FF                  A:10 X:00 Y:F0 P:25 SP:FA CYC:126 SL:91
837B  10 FB     BPL $8378                       A:10 X:00 Y:F0 P:25 SP:FA CYC:138 SL:91
8378  AD 02 20  LDA $2002 = FF                  A:10 X:00 Y:F0 P:25 SP:FA CYC:147 SL:91
837B  10 FB     BPL $8378                       A:10 X:00 Y:F0 P:25 SP:FA CYC:159 SL:91
8378  AD 02 20  LDA $2002 = FF                  A:10 X:00 Y:F0 P:25 SP:FA CYC:168 SL:91
837B  10 FB     BPL $8378                       A:10 X:00 Y:F0 P:25 SP:FA CYC:180 SL:91
8378  AD 02 20  LDA $2002 = FF                  A:10 X:00 Y:F0 P:25 SP:FA CYC:189 SL:91
837B  10 FB     BPL $8378                       A:10 X:00 Y:F0 P:25 SP:FA CYC:201 SL:91
8378  AD 02 20  LDA $2002 = FF                  A:10 X:00 Y:F0 P:25 SP:FA CYC:210 SL:91
837B  10 FB     BPL $8378                       A:10 X:00 Y:F0 P:25 SP:FA CYC:222 SL:91
8378  AD 02 20  LDA $2002 = FF                  A:10 X:00 Y:F0 P:25 SP:FA CYC:231 SL:91
837B  10 FB     BPL $8378                       A:10 X:00 Y:F0 P:25 SP:FA CYC:243 SL:91
8378  AD 02 20  LDA $2002 = FF                  A:10 X:00 Y:F0 P:25 SP:FA CYC:252 SL:91
837B  10 FB     BPL $8378                       A:10 X:00 Y:F0 P:25 SP:FA CYC:264 SL:91
8378  AD 02 20  LDA $2002 = FF                  A:10 X:00 Y:F0 P:25 SP:FA CYC:273 SL:91
837B  10 FB     BPL $8378                       A:10 X:00 Y:F0 P:25 SP:FA CYC:285 SL:91
8378  AD 02 20  LDA $2002 = FF                  A:10 X:00 Y:F0 P:25 SP:FA CYC:294 SL:91
837B  10 FB     BPL $8378                       A:10 X:00 Y:F0 P:25 SP:FA CYC:306 SL:91
8378  AD 02 20  LDA $2002 = FF                  A:10 X:00 Y:F0 P:25 SP:FA CYC:315 SL:91
837B  10 FB     BPL $8378                       A:10 X:00 Y:F0 P:25 SP:FA CYC:327 SL:91
8378  AD 02 20  LDA $2002 = FF                  A:10 X:00 Y:F0 P:25 SP:FA CYC:336 SL:91
837B  10 FB     BPL $8378                       A:10 X:00 Y:F0 P:25 SP:FA CYC:  7 SL:92
8378  AD 02 20  LDA $2002 = FF                  A:10 X:00 Y:F0 P:25 SP:FA CYC: 16 SL:92
837B  10 FB     BPL $8378                       A:10 X:00 Y:F0 P:25 SP:FA CYC: 28 SL:92
8378  AD 02 20  LDA $2002 = FF                  A:10 X:00 Y:F0 P:25 SP:FA CYC: 37 SL:92
837B  10 FB     BPL $8378                       A:10 X:00 Y:F0 P:25 SP:FA CYC: 49 SL:92
8378  AD 02 20  LDA $2002 = FF                  A:10 X:00 Y:F0 P:25 SP:FA CYC: 58 SL:92
837B  10 FB     BPL $8378                       A:10 X:00 Y:F0 P:25 SP:FA CYC: 70 SL:92
8378  AD 02 20  LDA $2002 = FF                  A:10 X:00 Y:F0 P:25 SP:FA CYC: 79 SL:92
837B  10 FB     BPL $8378                       A:10 X:00 Y:F0 P:25 SP:FA CYC: 91 SL:92
8378  AD 02 20  LDA $2002 = FF                  A:10 X:00 Y:F0 P:25 SP:FA CYC:100 SL:92
837B  10 FB     BPL $8378                       A:10 X:00 Y:F0 P:25 SP:FA CYC:112 SL:92
8378  AD 02 20  LDA $2002 = FF                  A:10 X:00 Y:F0 P:25 SP:FA CYC:121 SL:92
837B  10 FB     BPL $8378                       A:10 X:00 Y:F0 P:25 SP:FA CYC:133 SL:92
8378  AD 02 20  LDA $2002 = FF                  A:10 X:00 Y:F0 P:25 SP:FA CYC:142 SL:92
837B  10 FB     BPL $8378                       A:10 X:00 Y:F0 P:25 SP:FA CYC:154 SL:92
8378  AD 02 20  LDA $2002 = FF                  A:10 X:00 Y:F0 P:25 SP:FA CYC:163 SL:92
837B  10 FB     BPL $8378                       A:10 X:00 Y:F0 P:25 SP:FA CYC:175 SL:92
8378  AD 02 20  LDA $2002 = FF                  A:10 X:00 Y:F0 P:25 SP:FA CYC:184 SL:92
837B  10 FB     BPL $8378                       A:10 X:00 Y:F0 P:25 SP:FA CYC:196 SL:92
8378  AD 02 20  LDA $2002 = FF                  A:10 X:00 Y:F0 P:25 SP:FA CYC:205 SL:92
837B  10 FB     BPL $8378                       A:10 X:00 Y:F0 P:25 SP:FA CYC:217 SL:92
8378  AD 02 20  LDA $2002 = FF                  A:10 X:00 Y:F0 P:25 SP:FA CYC:226 SL:92
837B  10 FB     BPL $8378                       A:10 X:00 Y:F0 P:25 SP:FA CYC:238 SL:92
8378  AD 02 20  LDA $2002 = FF                  A:10 X:00 Y:F0 P:25 SP:FA CYC:247 SL:92
837B  10 FB     BPL $8378                       A:10 X:00 Y:F0 P:25 SP:FA CYC:259 SL:92
8378  AD 02 20  LDA $2002 = FF                  A:10 X:00 Y:F0 P:25 SP:FA CYC:268 SL:92
837B  10 FB     BPL $8378                       A:10 X:00 Y:F0 P:25 SP:FA CYC:280 SL:92
8378  AD 02 20  LDA $2002 = FF                  A:10 X:00 Y:F0 P:25 SP:FA CYC:289 SL:92
837B  10 FB     BPL $8378                       A:10 X:00 Y:F0 P:25 SP:FA CYC:301 SL:92
8378  AD 02 20  LDA $2002 = FF                  A:10 X:00 Y:F0 P:25 SP:FA CYC:310 SL:92
837B  10 FB     BPL $8378                       A:10 X:00 Y:F0 P:25 SP:FA CYC:322 SL:92
8378  AD 02 20  LDA $2002 = FF                  A:10 X:00 Y:F0 P:25 SP:FA CYC:331 SL:92
837B  10 FB     BPL $8378                       A:10 X:00 Y:F0 P:25 SP:FA CYC:  2 SL:93
8378  AD 02 20  LDA $2002 = FF                  A:10 X:00 Y:F0 P:25 SP:FA CYC: 11 SL:93
837B  10 FB     BPL $8378                       A:10 X:00 Y:F0 P:25 SP:FA CYC: 23 SL:93
8378  AD 02 20  LDA $2002 = FF                  A:10 X:00 Y:F0 P:25 SP:FA CYC: 32 SL:93
837B  10 FB     BPL $8378                       A:10 X:00 Y:F0 P:25 SP:FA CYC: 44 SL:93
8378  AD 02 20  LDA $2002 = FF                  A:10 X:00 Y:F0 P:25 SP:FA CYC: 53 SL:93
837B  10 FB     BPL $8378                       A:10 X:00 Y:F0 P:25 SP:FA CYC: 65 SL:93
8378  AD 02 20  LDA $2002 = FF                  A:10 X:00 Y:F0 P:25 SP:FA CYC: 74 SL:93
837B  10 FB     BPL $8378                       A:10 X:00 Y:F0 P:25 SP:FA CYC: 86 SL:93
8378  AD 02 20  LDA $2002 = FF                  A:10 X:00 Y:F0 P:25 SP:FA CYC: 95 SL:93
837B  10 FB     BPL $8378                       A:10 X:00 Y:F0 P:25 SP:FA CYC:107 SL:93
8378  AD 02 20  LDA $2002 = FF                  A:10 X:00 Y:F0 P:25 SP:FA CYC:116 SL:93
837B  10 FB     BPL $8378                       A:10 X:00 Y:F0 P:25 SP:FA CYC:128 SL:93
8378  AD 02 20  LDA $2002 = FF                  A:10 X:00 Y:F0 P:25 SP:FA CYC:137 SL:93
837B  10 FB     BPL $8378                       A:10 X:00 Y:F0 P:25 SP:FA CYC:149 SL:93
8378  AD 02 20  LDA $2002 = FF                  A:10 X:00 Y:F0 P:25 SP:FA CYC:158 SL:93
837B  10 FB     BPL $8378                       A:10 X:00 Y:F0 P:25 SP:FA CYC:170 SL:93
8378  AD 02 20  LDA $2002 = FF                  A:10 X:00 Y:F0 P:25 SP:FA CYC:179 SL:93
837B  10 FB     BPL $8378                       A:10 X:00 Y:F0 P:25 SP:FA CYC:191 SL:93
8378  AD 02 20  LDA $2002 = FF                  A:10 X:00 Y:F0 P:25 SP:FA CYC:200 SL:93
837B  10 FB     BPL $8378                       A:10 X:00 Y:F0 P:25 SP:FA CYC:212 SL:93
8378  AD 02 20  LDA $2002 = FF                  A:10 X:00 Y:F0 P:25 SP:FA CYC:221 SL:93
837B  10 FB     BPL $8378                       A:10 X:00 Y:F0 P:25 SP:FA CYC:233 SL:93
8378  AD 02 20  LDA $2002 = FF                  A:10 X:00 Y:F0 P:25 SP:FA CYC:242 SL:93
837B  10 FB     BPL $8378                       A:10 X:00 Y:F0 P:25 SP:FA CYC:254 SL:93
8378  AD 02 20  LDA $2002 = FF                  A:10 X:00 Y:F0 P:25 SP:FA CYC:263 SL:93
837B  10 FB     BPL $8378                       A:10 X:00 Y:F0 P:25 SP:FA CYC:275 SL:93
8378  AD 02 20  LDA $2002 = FF                  A:10 X:00 Y:F0 P:25 SP:FA CYC:284 SL:93
837B  10 FB     BPL $8378                       A:10 X:00 Y:F0 P:25 SP:FA CYC:296 SL:93
8378  AD 02 20  LDA $2002 = FF                  A:10 X:00 Y:F0 P:25 SP:FA CYC:305 SL:93
837B  10 FB     BPL $8378                       A:10 X:00 Y:F0 P:25 SP:FA CYC:317 SL:93
8378  AD 02 20  LDA $2002 = FF                  A:10 X:00 Y:F0 P:25 SP:FA CYC:326 SL:93
837B  10 FB     BPL $8378                       A:10 X:00 Y:F0 P:25 SP:FA CYC:338 SL:93
8378  AD 02 20  LDA $2002 = FF                  A:10 X:00 Y:F0 P:25 SP:FA CYC:  6 SL:94
837B  10 FB     BPL $8378                       A:10 X:00 Y:F0 P:25 SP:FA CYC: 18 SL:94
8378  AD 02 20  LDA $2002 = FF                  A:10 X:00 Y:F0 P:25 SP:FA CYC: 27 SL:94
837B  10 FB     BPL $8378                       A:10 X:00 Y:F0 P:25 SP:FA CYC: 39 SL:94
8378  AD 02 20  LDA $2002 = FF                  A:10 X:00 Y:F0 P:25 SP:FA CYC: 48 SL:94
837B  10 FB     BPL $8378                       A:10 X:00 Y:F0 P:25 SP:FA CYC: 60 SL:94
8378  AD 02 20  LDA $2002 = FF                  A:10 X:00 Y:F0 P:25 SP:FA CYC: 69 SL:94
837B  10 FB     BPL $8378                       A:10 X:00 Y:F0 P:25 SP:FA CYC: 81 SL:94
8378  AD 02 20  LDA $2002 = FF                  A:10 X:00 Y:F0 P:25 SP:FA CYC: 90 SL:94
837B  10 FB     BPL $8378                       A:10 X:00 Y:F0 P:25 SP:FA CYC:102 SL:94
8378  AD 02 20  LDA $2002 = FF                  A:10 X:00 Y:F0 P:25 SP:FA CYC:111 SL:94
837B  10 FB     BPL $8378                       A:10 X:00 Y:F0 P:25 SP:FA CYC:123 SL:94
8378  AD 02 20  LDA $2002 = FF                  A:10 X:00 Y:F0 P:25 SP:FA CYC:132 SL:94
837B  10 FB     BPL $8378                       A:10 X:00 Y:F0 P:25 SP:FA CYC:144 SL:94
8378  AD 02 20  LDA $2002 = FF                  A:10 X:00 Y:F0 P:25 SP:FA CYC:153 SL:94
837B  10 FB     BPL $8378                       A:10 X:00 Y:F0 P:25 SP:FA CYC:165 SL:94
8378  AD 02 20  LDA $2002 = FF                  A:10 X:00 Y:F0 P:25 SP:FA CYC:174 SL:94
837B  10 FB     BPL $8378                       A:10 X:00 Y:F0 P:25 SP:FA CYC:186 SL:94
8378  AD 02 20  LDA $2002 = FF                  A:10 X:00 Y:F0 P:25 SP:FA CYC:195 SL:94
837B  10 FB     BPL $8378                       A:10 X:00 Y:F0 P:25 SP:FA CYC:207 SL:94
8378  AD 02 20  LDA $2002 = FF                  A:10 X:00 Y:F0 P:25 SP:FA CYC:216 SL:94
837B  10 FB     BPL $8378                       A:10 X:00 Y:F0 P:25 SP:FA CYC:228 SL:94
8378  AD 02 20  LDA $2002 = FF                  A:10 X:00 Y:F0 P:25 SP:FA CYC:237 SL:94
837B  10 FB     BPL $8378                       A:10 X:00 Y:F0 P:25 SP:FA CYC:249 SL:94
8378  AD 02 20  LDA $2002 = FF                  A:10 X:00 Y:F0 P:25 SP:FA CYC:258 SL:94
837B  10 FB     BPL $8378                       A:10 X:00 Y:F0 P:25 SP:FA CYC:270 SL:94
8378  AD 02 20  LDA $2002 = FF                  A:10 X:00 Y:F0 P:25 SP:FA CYC:279 SL:94
837B  10 FB     BPL $8378                       A:10 X:00 Y:F0 P:25 SP:FA CYC:291 SL:94
8378  AD 02 20  LDA $2002 = FF                  A:10 X:00 Y:F0 P:25 SP:FA CYC:300 SL:94
837B  10 FB     BPL $8378                       A:10 X:00 Y:F0 P:25 SP:FA CYC:312 SL:94
8378  AD 02 20  LDA $2002 = FF                  A:10 X:00 Y:F0 P:25 SP:FA CYC:321 SL:94
837B  10 FB     BPL $8378                       A:10 X:00 Y:F0 P:25 SP:FA CYC:333 SL:94
8378  AD 02 20  LDA $2002 = FF                  A:10 X:00 Y:F0 P:25 SP:FA CYC:  1 SL:95
837B  10 FB     BPL $8378                       A:10 X:00 Y:F0 P:25 SP:FA CYC: 13 SL:95
8378  AD 02 20  LDA $2002 = FF                  A:10 X:00 Y:F0 P:25 SP:FA CYC: 22 SL:95
837B  10 FB     BPL $8378                       A:10 X:00 Y:F0 P:25 SP:FA CYC: 34 SL:95
8378  AD 02 20  LDA $2002 = FF                  A:10 X:00 Y:F0 P:25 SP:FA CYC: 43 SL:95
837B  10 FB     BPL $8378                       A:10 X:00 Y:F0 P:25 SP:FA CYC: 55 SL:95
8378  AD 02 20  LDA $2002 = FF                  A:10 X:00 Y:F0 P:25 SP:FA CYC: 64 SL:95
837B  10 FB     BPL $8378                       A:10 X:00 Y:F0 P:25 SP:FA CYC: 76 SL:95
8378  AD 02 20  LDA $2002 = FF                  A:10 X:00 Y:F0 P:25 SP:FA CYC: 85 SL:95
837B  10 FB     BPL $8378                       A:10 X:00 Y:F0 P:25 SP:FA CYC: 97 SL:95
8378  AD 02 20  LDA $2002 = FF                  A:10 X:00 Y:F0 P:25 SP:FA CYC:106 SL:95
837B  10 FB     BPL $8378                       A:10 X:00 Y:F0 P:25 SP:FA CYC:118 SL:95
8378  AD 02 20  LDA $2002 = FF                  A:10 X:00 Y:F0 P:25 SP:FA CYC:127 SL:95
837B  10 FB     BPL $8378                       A:10 X:00 Y:F0 P:25 SP:FA CYC:139 SL:95
8378  AD 02 20  LDA $2002 = FF                  A:10 X:00 Y:F0 P:25 SP:FA CYC:148 SL:95
837B  10 FB     BPL $8378                       A:10 X:00 Y:F0 P:25 SP:FA CYC:160 SL:95
8378  AD 02 20  LDA $2002 = FF                  A:10 X:00 Y:F0 P:25 SP:FA CYC:169 SL:95
837B  10 FB     BPL $8378                       A:10 X:00 Y:F0 P:25 SP:FA CYC:181 SL:95
8378  AD 02 20  LDA $2002 = FF                  A:10 X:00 Y:F0 P:25 SP:FA CYC:190 SL:95
837B  10 FB     BPL $8378                       A:10 X:00 Y:F0 P:25 SP:FA CYC:202 SL:95
8378  AD 02 20  LDA $2002 = FF                  A:10 X:00 Y:F0 P:25 SP:FA CYC:211 SL:95
837B  10 FB     BPL $8378                       A:10 X:00 Y:F0 P:25 SP:FA CYC:223 SL:95
8378  AD 02 20  LDA $2002 = FF                  A:10 X:00 Y:F0 P:25 SP:FA CYC:232 SL:95
837B  10 FB     BPL $8378                       A:10 X:00 Y:F0 P:25 SP:FA CYC:244 SL:95
8378  AD 02 20  LDA $2002 = FF                  A:10 X:00 Y:F0 P:25 SP:FA CYC:253 SL:95
837B  10 FB     BPL $8378                       A:10 X:00 Y:F0 P:25 SP:FA CYC:265 SL:95
8378  AD 02 20  LDA $2002 = FF                  A:10 X:00 Y:F0 P:25 SP:FA CYC:274 SL:95
837B  10 FB     BPL $8378                       A:10 X:00 Y:F0 P:25 SP:FA CYC:286 SL:95
8378  AD 02 20  LDA $2002 = FF                  A:10 X:00 Y:F0 P:25 SP:FA CYC:295 SL:95
837B  10 FB     BPL $8378                       A:10 X:00 Y:F0 P:25 SP:FA CYC:307 SL:95
8378  AD 02 20  LDA $2002 = FF                  A:10 X:00 Y:F0 P:25 SP:FA CYC:316 SL:95
837B  10 FB     BPL $8378                       A:10 X:00 Y:F0 P:25 SP:FA CYC:328 SL:95
8378  AD 02 20  LDA $2002 = FF                  A:10 X:00 Y:F0 P:25 SP:FA CYC:337 SL:95
837B  10 FB     BPL $8378                       A:10 X:00 Y:F0 P:25 SP:FA CYC:  8 SL:96
8378  AD 02 20  LDA $2002 = FF                  A:10 X:00 Y:F0 P:25 SP:FA CYC: 17 SL:96
837B  10 FB     BPL $8378                       A:10 X:00 Y:F0 P:25 SP:FA CYC: 29 SL:96
8378  AD 02 20  LDA $2002 = FF                  A:10 X:00 Y:F0 P:25 SP:FA CYC: 38 SL:96
837B  10 FB     BPL $8378                       A:10 X:00 Y:F0 P:25 SP:FA CYC: 50 SL:96
8378  AD 02 20  LDA $2002 = FF                  A:10 X:00 Y:F0 P:25 SP:FA CYC: 59 SL:96
837B  10 FB     BPL $8378                       A:10 X:00 Y:F0 P:25 SP:FA CYC: 71 SL:96
8378  AD 02 20  LDA $2002 = FF                  A:10 X:00 Y:F0 P:25 SP:FA CYC: 80 SL:96
837B  10 FB     BPL $8378                       A:10 X:00 Y:F0 P:25 SP:FA CYC: 92 SL:96
8378  AD 02 20  LDA $2002 = FF                  A:10 X:00 Y:F0 P:25 SP:FA CYC:101 SL:96
837B  10 FB     BPL $8378                       A:10 X:00 Y:F0 P:25 SP:FA CYC:113 SL:96
8378  AD 02 20  LDA $2002 = FF                  A:10 X:00 Y:F0 P:25 SP:FA CYC:122 SL:96
837B  10 FB     BPL $8378                       A:10 X:00 Y:F0 P:25 SP:FA CYC:134 SL:96
8378  AD 02 20  LDA $2002 = FF                  A:10 X:00 Y:F0 P:25 SP:FA CYC:143 SL:96
837B  10 FB     BPL $8378                       A:10 X:00 Y:F0 P:25 SP:FA CYC:155 SL:96
8378  AD 02 20  LDA $2002 = FF                  A:10 X:00 Y:F0 P:25 SP:FA CYC:164 SL:96
837B  10 FB     BPL $8378                       A:10 X:00 Y:F0 P:25 SP:FA CYC:176 SL:96
8378  AD 02 20  LDA $2002 = FF                  A:10 X:00 Y:F0 P:25 SP:FA CYC:185 SL:96
837B  10 FB     BPL $8378                       A:10 X:00 Y:F0 P:25 SP:FA CYC:197 SL:96
8378  AD 02 20  LDA $2002 = FF                  A:10 X:00 Y:F0 P:25 SP:FA CYC:206 SL:96
837B  10 FB     BPL $8378                       A:10 X:00 Y:F0 P:25 SP:FA CYC:218 SL:96
8378  AD 02 20  LDA $2002 = FF                  A:10 X:00 Y:F0 P:25 SP:FA CYC:227 SL:96
837B  10 FB     BPL $8378                       A:10 X:00 Y:F0 P:25 SP:FA CYC:239 SL:96
8378  AD 02 20  LDA $2002 = FF                  A:10 X:00 Y:F0 P:25 SP:FA CYC:248 SL:96
837B  10 FB     BPL $8378                       A:10 X:00 Y:F0 P:25 SP:FA CYC:260 SL:96
8378  AD 02 20  LDA $2002 = FF                  A:10 X:00 Y:F0 P:25 SP:FA CYC:269 SL:96
837B  10 FB     BPL $8378                       A:10 X:00 Y:F0 P:25 SP:FA CYC:281 SL:96
8378  AD 02 20  LDA $2002 = FF                  A:10 X:00 Y:F0 P:25 SP:FA CYC:290 SL:96
837B  10 FB     BPL $8378                       A:10 X:00 Y:F0 P:25 SP:FA CYC:302 SL:96
8378  AD 02 20  LDA $2002 = FF                  A:10 X:00 Y:F0 P:25 SP:FA CYC:311 SL:96
837B  10 FB     BPL $8378                       A:10 X:00 Y:F0 P:25 SP:FA CYC:323 SL:96
8378  AD 02 20  LDA $2002 = FF                  A:10 X:00 Y:F0 P:25 SP:FA CYC:332 SL:96
837B  10 FB     BPL $8378                       A:10 X:00 Y:F0 P:25 SP:FA CYC:  3 SL:97
8378  AD 02 20  LDA $2002 = FF                  A:10 X:00 Y:F0 P:25 SP:FA CYC: 12 SL:97
837B  10 FB     BPL $8378                       A:10 X:00 Y:F0 P:25 SP:FA CYC: 24 SL:97
8378  AD 02 20  LDA $2002 = FF                  A:10 X:00 Y:F0 P:25 SP:FA CYC: 33 SL:97
837B  10 FB     BPL $8378                       A:10 X:00 Y:F0 P:25 SP:FA CYC: 45 SL:97
8378  AD 02 20  LDA $2002 = FF                  A:10 X:00 Y:F0 P:25 SP:FA CYC: 54 SL:97
837B  10 FB     BPL $8378                       A:10 X:00 Y:F0 P:25 SP:FA CYC: 66 SL:97
8378  AD 02 20  LDA $2002 = FF                  A:10 X:00 Y:F0 P:25 SP:FA CYC: 75 SL:97
837B  10 FB     BPL $8378                       A:10 X:00 Y:F0 P:25 SP:FA CYC: 87 SL:97
8378  AD 02 20  LDA $2002 = FF                  A:10 X:00 Y:F0 P:25 SP:FA CYC: 96 SL:97
837B  10 FB     BPL $8378                       A:10 X:00 Y:F0 P:25 SP:FA CYC:108 SL:97
8378  AD 02 20  LDA $2002 = FF                  A:10 X:00 Y:F0 P:25 SP:FA CYC:117 SL:97
837B  10 FB     BPL $8378                       A:10 X:00 Y:F0 P:25 SP:FA CYC:129 SL:97
8378  AD 02 20  LDA $2002 = FF                  A:10 X:00 Y:F0 P:25 SP:FA CYC:138 SL:97
837B  10 FB     BPL $8378                       A:10 X:00 Y:F0 P:25 SP:FA CYC:150 SL:97
8378  AD 02 20  LDA $2002 = FF                  A:10 X:00 Y:F0 P:25 SP:FA CYC:159 SL:97
837B  10 FB     BPL $8378                       A:10 X:00 Y:F0 P:25 SP:FA CYC:171 SL:97
8378  AD 02 20  LDA $2002 = FF                  A:10 X:00 Y:F0 P:25 SP:FA CYC:180 SL:97
837B  10 FB     BPL $8378                       A:10 X:00 Y:F0 P:25 SP:FA CYC:192 SL:97
8378  AD 02 20  LDA $2002 = FF                  A:10 X:00 Y:F0 P:25 SP:FA CYC:201 SL:97
837B  10 FB     BPL $8378                       A:10 X:00 Y:F0 P:25 SP:FA CYC:213 SL:97
8378  AD 02 20  LDA $2002 = FF                  A:10 X:00 Y:F0 P:25 SP:FA CYC:222 SL:97
837B  10 FB     BPL $8378                       A:10 X:00 Y:F0 P:25 SP:FA CYC:234 SL:97
8378  AD 02 20  LDA $2002 = FF                  A:10 X:00 Y:F0 P:25 SP:FA CYC:243 SL:97
837B  10 FB     BPL $8378                       A:10 X:00 Y:F0 P:25 SP:FA CYC:255 SL:97
8378  AD 02 20  LDA $2002 = FF                  A:10 X:00 Y:F0 P:25 SP:FA CYC:264 SL:97
837B  10 FB     BPL $8378                       A:10 X:00 Y:F0 P:25 SP:FA CYC:276 SL:97
8378  AD 02 20  LDA $2002 = FF                  A:10 X:00 Y:F0 P:25 SP:FA CYC:285 SL:97
837B  10 FB     BPL $8378                       A:10 X:00 Y:F0 P:25 SP:FA CYC:297 SL:97
8378  AD 02 20  LDA $2002 = FF                  A:10 X:00 Y:F0 P:25 SP:FA CYC:306 SL:97
837B  10 FB     BPL $8378                       A:10 X:00 Y:F0 P:25 SP:FA CYC:318 SL:97
8378  AD 02 20  LDA $2002 = FF                  A:10 X:00 Y:F0 P:25 SP:FA CYC:327 SL:97
837B  10 FB     BPL $8378                       A:10 X:00 Y:F0 P:25 SP:FA CYC:339 SL:97
8378  AD 02 20  LDA $2002 = FF                  A:10 X:00 Y:F0 P:25 SP:FA CYC:  7 SL:98
837B  10 FB     BPL $8378                       A:10 X:00 Y:F0 P:25 SP:FA CYC: 19 SL:98
8378  AD 02 20  LDA $2002 = FF                  A:10 X:00 Y:F0 P:25 SP:FA CYC: 28 SL:98
837B  10 FB     BPL $8378                       A:10 X:00 Y:F0 P:25 SP:FA CYC: 40 SL:98
8378  AD 02 20  LDA $2002 = FF                  A:10 X:00 Y:F0 P:25 SP:FA CYC: 49 SL:98
837B  10 FB     BPL $8378                       A:10 X:00 Y:F0 P:25 SP:FA CYC: 61 SL:98
8378  AD 02 20  LDA $2002 = FF                  A:10 X:00 Y:F0 P:25 SP:FA CYC: 70 SL:98
837B  10 FB     BPL $8378                       A:10 X:00 Y:F0 P:25 SP:FA CYC: 82 SL:98
8378  AD 02 20  LDA $2002 = FF                  A:10 X:00 Y:F0 P:25 SP:FA CYC: 91 SL:98
837B  10 FB     BPL $8378                       A:10 X:00 Y:F0 P:25 SP:FA CYC:103 SL:98
8378  AD 02 20  LDA $2002 = FF                  A:10 X:00 Y:F0 P:25 SP:FA CYC:112 SL:98
837B  10 FB     BPL $8378                       A:10 X:00 Y:F0 P:25 SP:FA CYC:124 SL:98
8378  AD 02 20  LDA $2002 = FF                  A:10 X:00 Y:F0 P:25 SP:FA CYC:133 SL:98
837B  10 FB     BPL $8378                       A:10 X:00 Y:F0 P:25 SP:FA CYC:145 SL:98
8378  AD 02 20  LDA $2002 = FF                  A:10 X:00 Y:F0 P:25 SP:FA CYC:154 SL:98
837B  10 FB     BPL $8378                       A:10 X:00 Y:F0 P:25 SP:FA CYC:166 SL:98
8378  AD 02 20  LDA $2002 = FF                  A:10 X:00 Y:F0 P:25 SP:FA CYC:175 SL:98
837B  10 FB     BPL $8378                       A:10 X:00 Y:F0 P:25 SP:FA CYC:187 SL:98
8378  AD 02 20  LDA $2002 = FF                  A:10 X:00 Y:F0 P:25 SP:FA CYC:196 SL:98
837B  10 FB     BPL $8378                       A:10 X:00 Y:F0 P:25 SP:FA CYC:208 SL:98
8378  AD 02 20  LDA $2002 = FF                  A:10 X:00 Y:F0 P:25 SP:FA CYC:217 SL:98
837B  10 FB     BPL $8378                       A:10 X:00 Y:F0 P:25 SP:FA CYC:229 SL:98
8378  AD 02 20  LDA $2002 = FF                  A:10 X:00 Y:F0 P:25 SP:FA CYC:238 SL:98
837B  10 FB     BPL $8378                       A:10 X:00 Y:F0 P:25 SP:FA CYC:250 SL:98
8378  AD 02 20  LDA $2002 = FF                  A:10 X:00 Y:F0 P:25 SP:FA CYC:259 SL:98
837B  10 FB     BPL $8378                       A:10 X:00 Y:F0 P:25 SP:FA CYC:271 SL:98
8378  AD 02 20  LDA $2002 = FF                  A:10 X:00 Y:F0 P:25 SP:FA CYC:280 SL:98
837B  10 FB     BPL $8378                       A:10 X:00 Y:F0 P:25 SP:FA CYC:292 SL:98
8378  AD 02 20  LDA $2002 = FF                  A:10 X:00 Y:F0 P:25 SP:FA CYC:301 SL:98
837B  10 FB     BPL $8378                       A:10 X:00 Y:F0 P:25 SP:FA CYC:313 SL:98
8378  AD 02 20  LDA $2002 = FF                  A:10 X:00 Y:F0 P:25 SP:FA CYC:322 SL:98
837B  10 FB     BPL $8378                       A:10 X:00 Y:F0 P:25 SP:FA CYC:334 SL:98
8378  AD 02 20  LDA $2002 = FF                  A:10 X:00 Y:F0 P:25 SP:FA CYC:  2 SL:99
837B  10 FB     BPL $8378                       A:10 X:00 Y:F0 P:25 SP:FA CYC: 14 SL:99
8378  AD 02 20  LDA $2002 = FF                  A:10 X:00 Y:F0 P:25 SP:FA CYC: 23 SL:99
837B  10 FB     BPL $8378                       A:10 X:00 Y:F0 P:25 SP:FA CYC: 35 SL:99
8378  AD 02 20  LDA $2002 = FF                  A:10 X:00 Y:F0 P:25 SP:FA CYC: 44 SL:99
837B  10 FB     BPL $8378                       A:10 X:00 Y:F0 P:25 SP:FA CYC: 56 SL:99
8378  AD 02 20  LDA $2002 = FF                  A:10 X:00 Y:F0 P:25 SP:FA CYC: 65 SL:99
837B  10 FB     BPL $8378                       A:10 X:00 Y:F0 P:25 SP:FA CYC: 77 SL:99
8378  AD 02 20  LDA $2002 = FF                  A:10 X:00 Y:F0 P:25 SP:FA CYC: 86 SL:99
837B  10 FB     BPL $8378                       A:10 X:00 Y:F0 P:25 SP:FA CYC: 98 SL:99
8378  AD 02 20  LDA $2002 = FF                  A:10 X:00 Y:F0 P:25 SP:FA CYC:107 SL:99
837B  10 FB     BPL $8378                       A:10 X:00 Y:F0 P:25 SP:FA CYC:119 SL:99
8378  AD 02 20  LDA $2002 = FF                  A:10 X:00 Y:F0 P:25 SP:FA CYC:128 SL:99
837B  10 FB     BPL $8378                       A:10 X:00 Y:F0 P:25 SP:FA CYC:140 SL:99
8378  AD 02 20  LDA $2002 = FF                  A:10 X:00 Y:F0 P:25 SP:FA CYC:149 SL:99
837B  10 FB     BPL $8378                       A:10 X:00 Y:F0 P:25 SP:FA CYC:161 SL:99
8378  AD 02 20  LDA $2002 = FF                  A:10 X:00 Y:F0 P:25 SP:FA CYC:170 SL:99
837B  10 FB     BPL $8378                       A:10 X:00 Y:F0 P:25 SP:FA CYC:182 SL:99
8378  AD 02 20  LDA $2002 = FF                  A:10 X:00 Y:F0 P:25 SP:FA CYC:191 SL:99
837B  10 FB     BPL $8378                       A:10 X:00 Y:F0 P:25 SP:FA CYC:203 SL:99
8378  AD 02 20  LDA $2002 = FF                  A:10 X:00 Y:F0 P:25 SP:FA CYC:212 SL:99
837B  10 FB     BPL $8378                       A:10 X:00 Y:F0 P:25 SP:FA CYC:224 SL:99
8378  AD 02 20  LDA $2002 = FF                  A:10 X:00 Y:F0 P:25 SP:FA CYC:233 SL:99
837B  10 FB     BPL $8378                       A:10 X:00 Y:F0 P:25 SP:FA CYC:245 SL:99
8378  AD 02 20  LDA $2002 = FF                  A:10 X:00 Y:F0 P:25 SP:FA CYC:254 SL:99
837B  10 FB     BPL $8378                       A:10 X:00 Y:F0 P:25 SP:FA CYC:266 SL:99
8378  AD 02 20  LDA $2002 = FF                  A:10 X:00 Y:F0 P:25 SP:FA CYC:275 SL:99
837B  10 FB     BPL $8378                       A:10 X:00 Y:F0 P:25 SP:FA CYC:287 SL:99
8378  AD 02 20  LDA $2002 = FF                  A:10 X:00 Y:F0 P:25 SP:FA CYC:296 SL:99
837B  10 FB     BPL $8378                       A:10 X:00 Y:F0 P:25 SP:FA CYC:308 SL:99
8378  AD 02 20  LDA $2002 = FF                  A:10 X:00 Y:F0 P:25 SP:FA CYC:317 SL:99
837B  10 FB     BPL $8378                       A:10 X:00 Y:F0 P:25 SP:FA CYC:329 SL:99
8378  AD 02 20  LDA $2002 = FF                  A:10 X:00 Y:F0 P:25 SP:FA CYC:338 SL:99
837B  10 FB     BPL $8378                       A:10 X:00 Y:F0 P:25 SP:FA CYC:  9 SL:100
8378  AD 02 20  LDA $2002 = FF                  A:10 X:00 Y:F0 P:25 SP:FA CYC: 18 SL:100
837B  10 FB     BPL $8378                       A:10 X:00 Y:F0 P:25 SP:FA CYC: 30 SL:100
8378  AD 02 20  LDA $2002 = FF                  A:10 X:00 Y:F0 P:25 SP:FA CYC: 39 SL:100
837B  10 FB     BPL $8378                       A:10 X:00 Y:F0 P:25 SP:FA CYC: 51 SL:100
8378  AD 02 20  LDA $2002 = FF                  A:10 X:00 Y:F0 P:25 SP:FA CYC: 60 SL:100
837B  10 FB     BPL $8378                       A:10 X:00 Y:F0 P:25 SP:FA CYC: 72 SL:100
8378  AD 02 20  LDA $2002 = FF                  A:10 X:00 Y:F0 P:25 SP:FA CYC: 81 SL:100
837B  10 FB     BPL $8378                       A:10 X:00 Y:F0 P:25 SP:FA CYC: 93 SL:100
8378  AD 02 20  LDA $2002 = FF                  A:10 X:00 Y:F0 P:25 SP:FA CYC:102 SL:100
837B  10 FB     BPL $8378                       A:10 X:00 Y:F0 P:25 SP:FA CYC:114 SL:100
8378  AD 02 20  LDA $2002 = FF                  A:10 X:00 Y:F0 P:25 SP:FA CYC:123 SL:100
837B  10 FB     BPL $8378                       A:10 X:00 Y:F0 P:25 SP:FA CYC:135 SL:100
8378  AD 02 20  LDA $2002 = FF                  A:10 X:00 Y:F0 P:25 SP:FA CYC:144 SL:100
837B  10 FB     BPL $8378                       A:10 X:00 Y:F0 P:25 SP:FA CYC:156 SL:100
8378  AD 02 20  LDA $2002 = FF                  A:10 X:00 Y:F0 P:25 SP:FA CYC:165 SL:100
837B  10 FB     BPL $8378                       A:10 X:00 Y:F0 P:25 SP:FA CYC:177 SL:100
8378  AD 02 20  LDA $2002 = FF                  A:10 X:00 Y:F0 P:25 SP:FA CYC:186 SL:100
837B  10 FB     BPL $8378                       A:10 X:00 Y:F0 P:25 SP:FA CYC:198 SL:100
8378  AD 02 20  LDA $2002 = FF                  A:10 X:00 Y:F0 P:25 SP:FA CYC:207 SL:100
837B  10 FB     BPL $8378                       A:10 X:00 Y:F0 P:25 SP:FA CYC:219 SL:100
8378  AD 02 20  LDA $2002 = FF                  A:10 X:00 Y:F0 P:25 SP:FA CYC:228 SL:100
837B  10 FB     BPL $8378                       A:10 X:00 Y:F0 P:25 SP:FA CYC:240 SL:100
8378  AD 02 20  LDA $2002 = FF                  A:10 X:00 Y:F0 P:25 SP:FA CYC:249 SL:100
837B  10 FB     BPL $8378                       A:10 X:00 Y:F0 P:25 SP:FA CYC:261 SL:100
8378  AD 02 20  LDA $2002 = FF                  A:10 X:00 Y:F0 P:25 SP:FA CYC:270 SL:100
837B  10 FB     BPL $8378                       A:10 X:00 Y:F0 P:25 SP:FA CYC:282 SL:100
8378  AD 02 20  LDA $2002 = FF                  A:10 X:00 Y:F0 P:25 SP:FA CYC:291 SL:100
837B  10 FB     BPL $8378                       A:10 X:00 Y:F0 P:25 SP:FA CYC:303 SL:100
8378  AD 02 20  LDA $2002 = FF                  A:10 X:00 Y:F0 P:25 SP:FA CYC:312 SL:100
837B  10 FB     BPL $8378                       A:10 X:00 Y:F0 P:25 SP:FA CYC:324 SL:100
8378  AD 02 20  LDA $2002 = FF                  A:10 X:00 Y:F0 P:25 SP:FA CYC:333 SL:100
837B  10 FB     BPL $8378                       A:10 X:00 Y:F0 P:25 SP:FA CYC:  4 SL:101
8378  AD 02 20  LDA $2002 = FF                  A:10 X:00 Y:F0 P:25 SP:FA CYC: 13 SL:101
837B  10 FB     BPL $8378                       A:10 X:00 Y:F0 P:25 SP:FA CYC: 25 SL:101
8378  AD 02 20  LDA $2002 = FF                  A:10 X:00 Y:F0 P:25 SP:FA CYC: 34 SL:101
837B  10 FB     BPL $8378                       A:10 X:00 Y:F0 P:25 SP:FA CYC: 46 SL:101
8378  AD 02 20  LDA $2002 = FF                  A:10 X:00 Y:F0 P:25 SP:FA CYC: 55 SL:101
837B  10 FB     BPL $8378                       A:10 X:00 Y:F0 P:25 SP:FA CYC: 67 SL:101
8378  AD 02 20  LDA $2002 = FF                  A:10 X:00 Y:F0 P:25 SP:FA CYC: 76 SL:101
837B  10 FB     BPL $8378                       A:10 X:00 Y:F0 P:25 SP:FA CYC: 88 SL:101
8378  AD 02 20  LDA $2002 = FF                  A:10 X:00 Y:F0 P:25 SP:FA CYC: 97 SL:101
837B  10 FB     BPL $8378                       A:10 X:00 Y:F0 P:25 SP:FA CYC:109 SL:101
8378  AD 02 20  LDA $2002 = FF                  A:10 X:00 Y:F0 P:25 SP:FA CYC:118 SL:101
837B  10 FB     BPL $8378                       A:10 X:00 Y:F0 P:25 SP:FA CYC:130 SL:101
8378  AD 02 20  LDA $2002 = FF                  A:10 X:00 Y:F0 P:25 SP:FA CYC:139 SL:101
837B  10 FB     BPL $8378                       A:10 X:00 Y:F0 P:25 SP:FA CYC:151 SL:101
8378  AD 02 20  LDA $2002 = FF                  A:10 X:00 Y:F0 P:25 SP:FA CYC:160 SL:101
837B  10 FB     BPL $8378                       A:10 X:00 Y:F0 P:25 SP:FA CYC:172 SL:101
8378  AD 02 20  LDA $2002 = FF                  A:10 X:00 Y:F0 P:25 SP:FA CYC:181 SL:101
837B  10 FB     BPL $8378                       A:10 X:00 Y:F0 P:25 SP:FA CYC:193 SL:101
8378  AD 02 20  LDA $2002 = FF                  A:10 X:00 Y:F0 P:25 SP:FA CYC:202 SL:101
837B  10 FB     BPL $8378                       A:10 X:00 Y:F0 P:25 SP:FA CYC:214 SL:101
8378  AD 02 20  LDA $2002 = FF                  A:10 X:00 Y:F0 P:25 SP:FA CYC:223 SL:101
837B  10 FB     BPL $8378                       A:10 X:00 Y:F0 P:25 SP:FA CYC:235 SL:101
8378  AD 02 20  LDA $2002 = FF                  A:10 X:00 Y:F0 P:25 SP:FA CYC:244 SL:101
837B  10 FB     BPL $8378                       A:10 X:00 Y:F0 P:25 SP:FA CYC:256 SL:101
8378  AD 02 20  LDA $2002 = FF                  A:10 X:00 Y:F0 P:25 SP:FA CYC:265 SL:101
837B  10 FB     BPL $8378                       A:10 X:00 Y:F0 P:25 SP:FA CYC:277 SL:101
8378  AD 02 20  LDA $2002 = FF                  A:10 X:00 Y:F0 P:25 SP:FA CYC:286 SL:101
837B  10 FB     BPL $8378                       A:10 X:00 Y:F0 P:25 SP:FA CYC:298 SL:101
8378  AD 02 20  LDA $2002 = FF                  A:10 X:00 Y:F0 P:25 SP:FA CYC:307 SL:101
837B  10 FB     BPL $8378                       A:10 X:00 Y:F0 P:25 SP:FA CYC:319 SL:101
8378  AD 02 20  LDA $2002 = FF                  A:10 X:00 Y:F0 P:25 SP:FA CYC:328 SL:101
837B  10 FB     BPL $8378                       A:10 X:00 Y:F0 P:25 SP:FA CYC:340 SL:101
8378  AD 02 20  LDA $2002 = FF                  A:10 X:00 Y:F0 P:25 SP:FA CYC:  8 SL:102
837B  10 FB     BPL $8378                       A:10 X:00 Y:F0 P:25 SP:FA CYC: 20 SL:102
8378  AD 02 20  LDA $2002 = FF                  A:10 X:00 Y:F0 P:25 SP:FA CYC: 29 SL:102
837B  10 FB     BPL $8378                       A:10 X:00 Y:F0 P:25 SP:FA CYC: 41 SL:102
8378  AD 02 20  LDA $2002 = FF                  A:10 X:00 Y:F0 P:25 SP:FA CYC: 50 SL:102
837B  10 FB     BPL $8378                       A:10 X:00 Y:F0 P:25 SP:FA CYC: 62 SL:102
8378  AD 02 20  LDA $2002 = FF                  A:10 X:00 Y:F0 P:25 SP:FA CYC: 71 SL:102
837B  10 FB     BPL $8378                       A:10 X:00 Y:F0 P:25 SP:FA CYC: 83 SL:102
8378  AD 02 20  LDA $2002 = FF                  A:10 X:00 Y:F0 P:25 SP:FA CYC: 92 SL:102
837B  10 FB     BPL $8378                       A:10 X:00 Y:F0 P:25 SP:FA CYC:104 SL:102
8378  AD 02 20  LDA $2002 = FF                  A:10 X:00 Y:F0 P:25 SP:FA CYC:113 SL:102
837B  10 FB     BPL $8378                       A:10 X:00 Y:F0 P:25 SP:FA CYC:125 SL:102
8378  AD 02 20  LDA $2002 = FF                  A:10 X:00 Y:F0 P:25 SP:FA CYC:134 SL:102
837B  10 FB     BPL $8378                       A:10 X:00 Y:F0 P:25 SP:FA CYC:146 SL:102
8378  AD 02 20  LDA $2002 = FF                  A:10 X:00 Y:F0 P:25 SP:FA CYC:155 SL:102
837B  10 FB     BPL $8378                       A:10 X:00 Y:F0 P:25 SP:FA CYC:167 SL:102
8378  AD 02 20  LDA $2002 = FF                  A:10 X:00 Y:F0 P:25 SP:FA CYC:176 SL:102
837B  10 FB     BPL $8378                       A:10 X:00 Y:F0 P:25 SP:FA CYC:188 SL:102
8378  AD 02 20  LDA $2002 = FF                  A:10 X:00 Y:F0 P:25 SP:FA CYC:197 SL:102
837B  10 FB     BPL $8378                       A:10 X:00 Y:F0 P:25 SP:FA CYC:209 SL:102
8378  AD 02 20  LDA $2002 = FF                  A:10 X:00 Y:F0 P:25 SP:FA CYC:218 SL:102
837B  10 FB     BPL $8378                       A:10 X:00 Y:F0 P:25 SP:FA CYC:230 SL:102
8378  AD 02 20  LDA $2002 = FF                  A:10 X:00 Y:F0 P:25 SP:FA CYC:239 SL:102
837B  10 FB     BPL $8378                       A:10 X:00 Y:F0 P:25 SP:FA CYC:251 SL:102
8378  AD 02 20  LDA $2002 = FF                  A:10 X:00 Y:F0 P:25 SP:FA CYC:260 SL:102
837B  10 FB     BPL $8378                       A:10 X:00 Y:F0 P:25 SP:FA CYC:272 SL:102
8378  AD 02 20  LDA $2002 = FF                  A:10 X:00 Y:F0 P:25 SP:FA CYC:281 SL:102
837B  10 FB     BPL $8378                       A:10 X:00 Y:F0 P:25 SP:FA CYC:293 SL:102
8378  AD 02 20  LDA $2002 = FF                  A:10 X:00 Y:F0 P:25 SP:FA CYC:302 SL:102
837B  10 FB     BPL $8378                       A:10 X:00 Y:F0 P:25 SP:FA CYC:314 SL:102
8378  AD 02 20  LDA $2002 = FF                  A:10 X:00 Y:F0 P:25 SP:FA CYC:323 SL:102
837B  10 FB     BPL $8378                       A:10 X:00 Y:F0 P:25 SP:FA CYC:335 SL:102
8378  AD 02 20  LDA $2002 = FF                  A:10 X:00 Y:F0 P:25 SP:FA CYC:  3 SL:103
837B  10 FB     BPL $8378                       A:10 X:00 Y:F0 P:25 SP:FA CYC: 15 SL:103
8378  AD 02 20  LDA $2002 = FF                  A:10 X:00 Y:F0 P:25 SP:FA CYC: 24 SL:103
837B  10 FB     BPL $8378                       A:10 X:00 Y:F0 P:25 SP:FA CYC: 36 SL:103
8378  AD 02 20  LDA $2002 = FF                  A:10 X:00 Y:F0 P:25 SP:FA CYC: 45 SL:103
837B  10 FB     BPL $8378                       A:10 X:00 Y:F0 P:25 SP:FA CYC: 57 SL:103
8378  AD 02 20  LDA $2002 = FF                  A:10 X:00 Y:F0 P:25 SP:FA CYC: 66 SL:103
837B  10 FB     BPL $8378                       A:10 X:00 Y:F0 P:25 SP:FA CYC: 78 SL:103
8378  AD 02 20  LDA $2002 = FF                  A:10 X:00 Y:F0 P:25 SP:FA CYC: 87 SL:103
837B  10 FB     BPL $8378                       A:10 X:00 Y:F0 P:25 SP:FA CYC: 99 SL:103
8378  AD 02 20  LDA $2002 = FF                  A:10 X:00 Y:F0 P:25 SP:FA CYC:108 SL:103
837B  10 FB     BPL $8378                       A:10 X:00 Y:F0 P:25 SP:FA CYC:120 SL:103
8378  AD 02 20  LDA $2002 = FF                  A:10 X:00 Y:F0 P:25 SP:FA CYC:129 SL:103
837B  10 FB     BPL $8378                       A:10 X:00 Y:F0 P:25 SP:FA CYC:141 SL:103
8378  AD 02 20  LDA $2002 = FF                  A:10 X:00 Y:F0 P:25 SP:FA CYC:150 SL:103
837B  10 FB     BPL $8378                       A:10 X:00 Y:F0 P:25 SP:FA CYC:162 SL:103
8378  AD 02 20  LDA $2002 = FF                  A:10 X:00 Y:F0 P:25 SP:FA CYC:171 SL:103
837B  10 FB     BPL $8378                       A:10 X:00 Y:F0 P:25 SP:FA CYC:183 SL:103
8378  AD 02 20  LDA $2002 = FF                  A:10 X:00 Y:F0 P:25 SP:FA CYC:192 SL:103
837B  10 FB     BPL $8378                       A:10 X:00 Y:F0 P:25 SP:FA CYC:204 SL:103
8378  AD 02 20  LDA $2002 = FF                  A:10 X:00 Y:F0 P:25 SP:FA CYC:213 SL:103
837B  10 FB     BPL $8378                       A:10 X:00 Y:F0 P:25 SP:FA CYC:225 SL:103
8378  AD 02 20  LDA $2002 = FF                  A:10 X:00 Y:F0 P:25 SP:FA CYC:234 SL:103
837B  10 FB     BPL $8378                       A:10 X:00 Y:F0 P:25 SP:FA CYC:246 SL:103
8378  AD 02 20  LDA $2002 = FF                  A:10 X:00 Y:F0 P:25 SP:FA CYC:255 SL:103
837B  10 FB     BPL $8378                       A:10 X:00 Y:F0 P:25 SP:FA CYC:267 SL:103
8378  AD 02 20  LDA $2002 = FF                  A:10 X:00 Y:F0 P:25 SP:FA CYC:276 SL:103
837B  10 FB     BPL $8378                       A:10 X:00 Y:F0 P:25 SP:FA CYC:288 SL:103
8378  AD 02 20  LDA $2002 = FF                  A:10 X:00 Y:F0 P:25 SP:FA CYC:297 SL:103
837B  10 FB     BPL $8378                       A:10 X:00 Y:F0 P:25 SP:FA CYC:309 SL:103
8378  AD 02 20  LDA $2002 = FF                  A:10 X:00 Y:F0 P:25 SP:FA CYC:318 SL:103
837B  10 FB     BPL $8378                       A:10 X:00 Y:F0 P:25 SP:FA CYC:330 SL:103
8378  AD 02 20  LDA $2002 = FF                  A:10 X:00 Y:F0 P:25 SP:FA CYC:339 SL:103
837B  10 FB     BPL $8378                       A:10 X:00 Y:F0 P:25 SP:FA CYC: 10 SL:104
8378  AD 02 20  LDA $2002 = FF                  A:10 X:00 Y:F0 P:25 SP:FA CYC: 19 SL:104
837B  10 FB     BPL $8378                       A:10 X:00 Y:F0 P:25 SP:FA CYC: 31 SL:104
8378  AD 02 20  LDA $2002 = FF                  A:10 X:00 Y:F0 P:25 SP:FA CYC: 40 SL:104
837B  10 FB     BPL $8378                       A:10 X:00 Y:F0 P:25 SP:FA CYC: 52 SL:104
8378  AD 02 20  LDA $2002 = FF                  A:10 X:00 Y:F0 P:25 SP:FA CYC: 61 SL:104
837B  10 FB     BPL $8378                       A:10 X:00 Y:F0 P:25 SP:FA CYC: 73 SL:104
8378  AD 02 20  LDA $2002 = FF                  A:10 X:00 Y:F0 P:25 SP:FA CYC: 82 SL:104
837B  10 FB     BPL $8378                       A:10 X:00 Y:F0 P:25 SP:FA CYC: 94 SL:104
8378  AD 02 20  LDA $2002 = FF                  A:10 X:00 Y:F0 P:25 SP:FA CYC:103 SL:104
837B  10 FB     BPL $8378                       A:10 X:00 Y:F0 P:25 SP:FA CYC:115 SL:104
8378  AD 02 20  LDA $2002 = FF                  A:10 X:00 Y:F0 P:25 SP:FA CYC:124 SL:104
837B  10 FB     BPL $8378                       A:10 X:00 Y:F0 P:25 SP:FA CYC:136 SL:104
8378  AD 02 20  LDA $2002 = FF                  A:10 X:00 Y:F0 P:25 SP:FA CYC:145 SL:104
837B  10 FB     BPL $8378                       A:10 X:00 Y:F0 P:25 SP:FA CYC:157 SL:104
8378  AD 02 20  LDA $2002 = FF                  A:10 X:00 Y:F0 P:25 SP:FA CYC:166 SL:104
837B  10 FB     BPL $8378                       A:10 X:00 Y:F0 P:25 SP:FA CYC:178 SL:104
8378  AD 02 20  LDA $2002 = FF                  A:10 X:00 Y:F0 P:25 SP:FA CYC:187 SL:104
837B  10 FB     BPL $8378                       A:10 X:00 Y:F0 P:25 SP:FA CYC:199 SL:104
8378  AD 02 20  LDA $2002 = FF                  A:10 X:00 Y:F0 P:25 SP:FA CYC:208 SL:104
837B  10 FB     BPL $8378                       A:10 X:00 Y:F0 P:25 SP:FA CYC:220 SL:104
8378  AD 02 20  LDA $2002 = FF                  A:10 X:00 Y:F0 P:25 SP:FA CYC:229 SL:104
837B  10 FB     BPL $8378                       A:10 X:00 Y:F0 P:25 SP:FA CYC:241 SL:104
8378  AD 02 20  LDA $2002 = FF                  A:10 X:00 Y:F0 P:25 SP:FA CYC:250 SL:104
837B  10 FB     BPL $8378                       A:10 X:00 Y:F0 P:25 SP:FA CYC:262 SL:104
8378  AD 02 20  LDA $2002 = FF                  A:10 X:00 Y:F0 P:25 SP:FA CYC:271 SL:104
837B  10 FB     BPL $8378                       A:10 X:00 Y:F0 P:25 SP:FA CYC:283 SL:104
8378  AD 02 20  LDA $2002 = FF                  A:10 X:00 Y:F0 P:25 SP:FA CYC:292 SL:104
837B  10 FB     BPL $8378                       A:10 X:00 Y:F0 P:25 SP:FA CYC:304 SL:104
8378  AD 02 20  LDA $2002 = FF                  A:10 X:00 Y:F0 P:25 SP:FA CYC:313 SL:104
837B  10 FB     BPL $8378                       A:10 X:00 Y:F0 P:25 SP:FA CYC:325 SL:104
8378  AD 02 20  LDA $2002 = FF                  A:10 X:00 Y:F0 P:25 SP:FA CYC:334 SL:104
837B  10 FB     BPL $8378                       A:10 X:00 Y:F0 P:25 SP:FA CYC:  5 SL:105
8378  AD 02 20  LDA $2002 = FF                  A:10 X:00 Y:F0 P:25 SP:FA CYC: 14 SL:105
837B  10 FB     BPL $8378                       A:10 X:00 Y:F0 P:25 SP:FA CYC: 26 SL:105
8378  AD 02 20  LDA $2002 = FF                  A:10 X:00 Y:F0 P:25 SP:FA CYC: 35 SL:105
837B  10 FB     BPL $8378                       A:10 X:00 Y:F0 P:25 SP:FA CYC: 47 SL:105
8378  AD 02 20  LDA $2002 = FF                  A:10 X:00 Y:F0 P:25 SP:FA CYC: 56 SL:105
837B  10 FB     BPL $8378                       A:10 X:00 Y:F0 P:25 SP:FA CYC: 68 SL:105
8378  AD 02 20  LDA $2002 = FF                  A:10 X:00 Y:F0 P:25 SP:FA CYC: 77 SL:105
837B  10 FB     BPL $8378                       A:10 X:00 Y:F0 P:25 SP:FA CYC: 89 SL:105
8378  AD 02 20  LDA $2002 = FF                  A:10 X:00 Y:F0 P:25 SP:FA CYC: 98 SL:105
837B  10 FB     BPL $8378                       A:10 X:00 Y:F0 P:25 SP:FA CYC:110 SL:105
8378  AD 02 20  LDA $2002 = FF                  A:10 X:00 Y:F0 P:25 SP:FA CYC:119 SL:105
837B  10 FB     BPL $8378                       A:10 X:00 Y:F0 P:25 SP:FA CYC:131 SL:105
8378  AD 02 20  LDA $2002 = FF                  A:10 X:00 Y:F0 P:25 SP:FA CYC:140 SL:105
837B  10 FB     BPL $8378                       A:10 X:00 Y:F0 P:25 SP:FA CYC:152 SL:105
8378  AD 02 20  LDA $2002 = FF                  A:10 X:00 Y:F0 P:25 SP:FA CYC:161 SL:105
837B  10 FB     BPL $8378                       A:10 X:00 Y:F0 P:25 SP:FA CYC:173 SL:105
8378  AD 02 20  LDA $2002 = FF                  A:10 X:00 Y:F0 P:25 SP:FA CYC:182 SL:105
837B  10 FB     BPL $8378                       A:10 X:00 Y:F0 P:25 SP:FA CYC:194 SL:105
8378  AD 02 20  LDA $2002 = FF                  A:10 X:00 Y:F0 P:25 SP:FA CYC:203 SL:105
837B  10 FB     BPL $8378                       A:10 X:00 Y:F0 P:25 SP:FA CYC:215 SL:105
8378  AD 02 20  LDA $2002 = FF                  A:10 X:00 Y:F0 P:25 SP:FA CYC:224 SL:105
837B  10 FB     BPL $8378                       A:10 X:00 Y:F0 P:25 SP:FA CYC:236 SL:105
8378  AD 02 20  LDA $2002 = FF                  A:10 X:00 Y:F0 P:25 SP:FA CYC:245 SL:105
837B  10 FB     BPL $8378                       A:10 X:00 Y:F0 P:25 SP:FA CYC:257 SL:105
8378  AD 02 20  LDA $2002 = FF                  A:10 X:00 Y:F0 P:25 SP:FA CYC:266 SL:105
837B  10 FB     BPL $8378                       A:10 X:00 Y:F0 P:25 SP:FA CYC:278 SL:105
8378  AD 02 20  LDA $2002 = FF                  A:10 X:00 Y:F0 P:25 SP:FA CYC:287 SL:105
837B  10 FB     BPL $8378                       A:10 X:00 Y:F0 P:25 SP:FA CYC:299 SL:105
8378  AD 02 20  LDA $2002 = FF                  A:10 X:00 Y:F0 P:25 SP:FA CYC:308 SL:105
837B  10 FB     BPL $8378                       A:10 X:00 Y:F0 P:25 SP:FA CYC:320 SL:105
8378  AD 02 20  LDA $2002 = FF                  A:10 X:00 Y:F0 P:25 SP:FA CYC:329 SL:105
837B  10 FB     BPL $8378                       A:10 X:00 Y:F0 P:25 SP:FA CYC:  0 SL:106
8378  AD 02 20  LDA $2002 = FF                  A:10 X:00 Y:F0 P:25 SP:FA CYC:  9 SL:106
837B  10 FB     BPL $8378                       A:10 X:00 Y:F0 P:25 SP:FA CYC: 21 SL:106
8378  AD 02 20  LDA $2002 = FF                  A:10 X:00 Y:F0 P:25 SP:FA CYC: 30 SL:106
837B  10 FB     BPL $8378                       A:10 X:00 Y:F0 P:25 SP:FA CYC: 42 SL:106
8378  AD 02 20  LDA $2002 = FF                  A:10 X:00 Y:F0 P:25 SP:FA CYC: 51 SL:106
837B  10 FB     BPL $8378                       A:10 X:00 Y:F0 P:25 SP:FA CYC: 63 SL:106
8378  AD 02 20  LDA $2002 = FF                  A:10 X:00 Y:F0 P:25 SP:FA CYC: 72 SL:106
837B  10 FB     BPL $8378                       A:10 X:00 Y:F0 P:25 SP:FA CYC: 84 SL:106
8378  AD 02 20  LDA $2002 = FF                  A:10 X:00 Y:F0 P:25 SP:FA CYC: 93 SL:106
837B  10 FB     BPL $8378                       A:10 X:00 Y:F0 P:25 SP:FA CYC:105 SL:106
8378  AD 02 20  LDA $2002 = FF                  A:10 X:00 Y:F0 P:25 SP:FA CYC:114 SL:106
837B  10 FB     BPL $8378                       A:10 X:00 Y:F0 P:25 SP:FA CYC:126 SL:106
8378  AD 02 20  LDA $2002 = FF                  A:10 X:00 Y:F0 P:25 SP:FA CYC:135 SL:106
837B  10 FB     BPL $8378                       A:10 X:00 Y:F0 P:25 SP:FA CYC:147 SL:106
8378  AD 02 20  LDA $2002 = FF                  A:10 X:00 Y:F0 P:25 SP:FA CYC:156 SL:106
837B  10 FB     BPL $8378                       A:10 X:00 Y:F0 P:25 SP:FA CYC:168 SL:106
8378  AD 02 20  LDA $2002 = FF                  A:10 X:00 Y:F0 P:25 SP:FA CYC:177 SL:106
837B  10 FB     BPL $8378                       A:10 X:00 Y:F0 P:25 SP:FA CYC:189 SL:106
8378  AD 02 20  LDA $2002 = FF                  A:10 X:00 Y:F0 P:25 SP:FA CYC:198 SL:106
837B  10 FB     BPL $8378                       A:10 X:00 Y:F0 P:25 SP:FA CYC:210 SL:106
8378  AD 02 20  LDA $2002 = FF                  A:10 X:00 Y:F0 P:25 SP:FA CYC:219 SL:106
837B  10 FB     BPL $8378                       A:10 X:00 Y:F0 P:25 SP:FA CYC:231 SL:106
8378  AD 02 20  LDA $2002 = FF                  A:10 X:00 Y:F0 P:25 SP:FA CYC:240 SL:106
837B  10 FB     BPL $8378                       A:10 X:00 Y:F0 P:25 SP:FA CYC:252 SL:106
8378  AD 02 20  LDA $2002 = FF                  A:10 X:00 Y:F0 P:25 SP:FA CYC:261 SL:106
837B  10 FB     BPL $8378                       A:10 X:00 Y:F0 P:25 SP:FA CYC:273 SL:106
8378  AD 02 20  LDA $2002 = FF                  A:10 X:00 Y:F0 P:25 SP:FA CYC:282 SL:106
837B  10 FB     BPL $8378                       A:10 X:00 Y:F0 P:25 SP:FA CYC:294 SL:106
8378  AD 02 20  LDA $2002 = FF                  A:10 X:00 Y:F0 P:25 SP:FA CYC:303 SL:106
837B  10 FB     BPL $8378                       A:10 X:00 Y:F0 P:25 SP:FA CYC:315 SL:106
8378  AD 02 20  LDA $2002 = FF                  A:10 X:00 Y:F0 P:25 SP:FA CYC:324 SL:106
837B  10 FB     BPL $8378                       A:10 X:00 Y:F0 P:25 SP:FA CYC:336 SL:106
8378  AD 02 20  LDA $2002 = FF                  A:10 X:00 Y:F0 P:25 SP:FA CYC:  4 SL:107
837B  10 FB     BPL $8378                       A:10 X:00 Y:F0 P:25 SP:FA CYC: 16 SL:107
8378  AD 02 20  LDA $2002 = FF                  A:10 X:00 Y:F0 P:25 SP:FA CYC: 25 SL:107
837B  10 FB     BPL $8378                       A:10 X:00 Y:F0 P:25 SP:FA CYC: 37 SL:107
8378  AD 02 20  LDA $2002 = FF                  A:10 X:00 Y:F0 P:25 SP:FA CYC: 46 SL:107
837B  10 FB     BPL $8378                       A:10 X:00 Y:F0 P:25 SP:FA CYC: 58 SL:107
8378  AD 02 20  LDA $2002 = FF                  A:10 X:00 Y:F0 P:25 SP:FA CYC: 67 SL:107
837B  10 FB     BPL $8378                       A:10 X:00 Y:F0 P:25 SP:FA CYC: 79 SL:107
8378  AD 02 20  LDA $2002 = FF                  A:10 X:00 Y:F0 P:25 SP:FA CYC: 88 SL:107
837B  10 FB     BPL $8378                       A:10 X:00 Y:F0 P:25 SP:FA CYC:100 SL:107
8378  AD 02 20  LDA $2002 = FF                  A:10 X:00 Y:F0 P:25 SP:FA CYC:109 SL:107
837B  10 FB     BPL $8378                       A:10 X:00 Y:F0 P:25 SP:FA CYC:121 SL:107
8378  AD 02 20  LDA $2002 = FF                  A:10 X:00 Y:F0 P:25 SP:FA CYC:130 SL:107
837B  10 FB     BPL $8378                       A:10 X:00 Y:F0 P:25 SP:FA CYC:142 SL:107
8378  AD 02 20  LDA $2002 = FF                  A:10 X:00 Y:F0 P:25 SP:FA CYC:151 SL:107
837B  10 FB     BPL $8378                       A:10 X:00 Y:F0 P:25 SP:FA CYC:163 SL:107
8378  AD 02 20  LDA $2002 = FF                  A:10 X:00 Y:F0 P:25 SP:FA CYC:172 SL:107
837B  10 FB     BPL $8378                       A:10 X:00 Y:F0 P:25 SP:FA CYC:184 SL:107
8378  AD 02 20  LDA $2002 = FF                  A:10 X:00 Y:F0 P:25 SP:FA CYC:193 SL:107
837B  10 FB     BPL $8378                       A:10 X:00 Y:F0 P:25 SP:FA CYC:205 SL:107
8378  AD 02 20  LDA $2002 = FF                  A:10 X:00 Y:F0 P:25 SP:FA CYC:214 SL:107
837B  10 FB     BPL $8378                       A:10 X:00 Y:F0 P:25 SP:FA CYC:226 SL:107
8378  AD 02 20  LDA $2002 = FF                  A:10 X:00 Y:F0 P:25 SP:FA CYC:235 SL:107
837B  10 FB     BPL $8378                       A:10 X:00 Y:F0 P:25 SP:FA CYC:247 SL:107
8378  AD 02 20  LDA $2002 = FF                  A:10 X:00 Y:F0 P:25 SP:FA CYC:256 SL:107
837B  10 FB     BPL $8378                       A:10 X:00 Y:F0 P:25 SP:FA CYC:268 SL:107
8378  AD 02 20  LDA $2002 = FF                  A:10 X:00 Y:F0 P:25 SP:FA CYC:277 SL:107
837B  10 FB     BPL $8378                       A:10 X:00 Y:F0 P:25 SP:FA CYC:289 SL:107
8378  AD 02 20  LDA $2002 = FF                  A:10 X:00 Y:F0 P:25 SP:FA CYC:298 SL:107
837B  10 FB     BPL $8378                       A:10 X:00 Y:F0 P:25 SP:FA CYC:310 SL:107
8378  AD 02 20  LDA $2002 = FF                  A:10 X:00 Y:F0 P:25 SP:FA CYC:319 SL:107
837B  10 FB     BPL $8378                       A:10 X:00 Y:F0 P:25 SP:FA CYC:331 SL:107
8378  AD 02 20  LDA $2002 = FF                  A:10 X:00 Y:F0 P:25 SP:FA CYC:340 SL:107
837B  10 FB     BPL $8378                       A:10 X:00 Y:F0 P:25 SP:FA CYC: 11 SL:108
8378  AD 02 20  LDA $2002 = FF                  A:10 X:00 Y:F0 P:25 SP:FA CYC: 20 SL:108
837B  10 FB     BPL $8378                       A:10 X:00 Y:F0 P:25 SP:FA CYC: 32 SL:108
8378  AD 02 20  LDA $2002 = FF                  A:10 X:00 Y:F0 P:25 SP:FA CYC: 41 SL:108
837B  10 FB     BPL $8378                       A:10 X:00 Y:F0 P:25 SP:FA CYC: 53 SL:108
8378  AD 02 20  LDA $2002 = FF                  A:10 X:00 Y:F0 P:25 SP:FA CYC: 62 SL:108
837B  10 FB     BPL $8378                       A:10 X:00 Y:F0 P:25 SP:FA CYC: 74 SL:108
8378  AD 02 20  LDA $2002 = FF                  A:10 X:00 Y:F0 P:25 SP:FA CYC: 83 SL:108
837B  10 FB     BPL $8378                       A:10 X:00 Y:F0 P:25 SP:FA CYC: 95 SL:108
8378  AD 02 20  LDA $2002 = FF                  A:10 X:00 Y:F0 P:25 SP:FA CYC:104 SL:108
837B  10 FB     BPL $8378                       A:10 X:00 Y:F0 P:25 SP:FA CYC:116 SL:108
8378  AD 02 20  LDA $2002 = FF                  A:10 X:00 Y:F0 P:25 SP:FA CYC:125 SL:108
837B  10 FB     BPL $8378                       A:10 X:00 Y:F0 P:25 SP:FA CYC:137 SL:108
8378  AD 02 20  LDA $2002 = FF                  A:10 X:00 Y:F0 P:25 SP:FA CYC:146 SL:108
837B  10 FB     BPL $8378                       A:10 X:00 Y:F0 P:25 SP:FA CYC:158 SL:108
8378  AD 02 20  LDA $2002 = FF                  A:10 X:00 Y:F0 P:25 SP:FA CYC:167 SL:108
837B  10 FB     BPL $8378                       A:10 X:00 Y:F0 P:25 SP:FA CYC:179 SL:108
8378  AD 02 20  LDA $2002 = FF                  A:10 X:00 Y:F0 P:25 SP:FA CYC:188 SL:108
837B  10 FB     BPL $8378                       A:10 X:00 Y:F0 P:25 SP:FA CYC:200 SL:108
8378  AD 02 20  LDA $2002 = FF                  A:10 X:00 Y:F0 P:25 SP:FA CYC:209 SL:108
837B  10 FB     BPL $8378                       A:10 X:00 Y:F0 P:25 SP:FA CYC:221 SL:108
8378  AD 02 20  LDA $2002 = FF                  A:10 X:00 Y:F0 P:25 SP:FA CYC:230 SL:108
837B  10 FB     BPL $8378                       A:10 X:00 Y:F0 P:25 SP:FA CYC:242 SL:108
8378  AD 02 20  LDA $2002 = FF                  A:10 X:00 Y:F0 P:25 SP:FA CYC:251 SL:108
837B  10 FB     BPL $8378                       A:10 X:00 Y:F0 P:25 SP:FA CYC:263 SL:108
8378  AD 02 20  LDA $2002 = FF                  A:10 X:00 Y:F0 P:25 SP:FA CYC:272 SL:108
837B  10 FB     BPL $8378                       A:10 X:00 Y:F0 P:25 SP:FA CYC:284 SL:108
8378  AD 02 20  LDA $2002 = FF                  A:10 X:00 Y:F0 P:25 SP:FA CYC:293 SL:108
837B  10 FB     BPL $8378                       A:10 X:00 Y:F0 P:25 SP:FA CYC:305 SL:108
8378  AD 02 20  LDA $2002 = FF                  A:10 X:00 Y:F0 P:25 SP:FA CYC:314 SL:108
837B  10 FB     BPL $8378                       A:10 X:00 Y:F0 P:25 SP:FA CYC:326 SL:108
8378  AD 02 20  LDA $2002 = FF                  A:10 X:00 Y:F0 P:25 SP:FA CYC:335 SL:108
837B  10 FB     BPL $8378                       A:10 X:00 Y:F0 P:25 SP:FA CYC:  6 SL:109
8378  AD 02 20  LDA $2002 = FF                  A:10 X:00 Y:F0 P:25 SP:FA CYC: 15 SL:109
837B  10 FB     BPL $8378                       A:10 X:00 Y:F0 P:25 SP:FA CYC: 27 SL:109
8378  AD 02 20  LDA $2002 = FF                  A:10 X:00 Y:F0 P:25 SP:FA CYC: 36 SL:109
837B  10 FB     BPL $8378                       A:10 X:00 Y:F0 P:25 SP:FA CYC: 48 SL:109
8378  AD 02 20  LDA $2002 = FF                  A:10 X:00 Y:F0 P:25 SP:FA CYC: 57 SL:109
837B  10 FB     BPL $8378                       A:10 X:00 Y:F0 P:25 SP:FA CYC: 69 SL:109
8378  AD 02 20  LDA $2002 = FF                  A:10 X:00 Y:F0 P:25 SP:FA CYC: 78 SL:109
837B  10 FB     BPL $8378                       A:10 X:00 Y:F0 P:25 SP:FA CYC: 90 SL:109
8378  AD 02 20  LDA $2002 = FF                  A:10 X:00 Y:F0 P:25 SP:FA CYC: 99 SL:109
837B  10 FB     BPL $8378                       A:10 X:00 Y:F0 P:25 SP:FA CYC:111 SL:109
8378  AD 02 20  LDA $2002 = FF                  A:10 X:00 Y:F0 P:25 SP:FA CYC:120 SL:109
837B  10 FB     BPL $8378                       A:10 X:00 Y:F0 P:25 SP:FA CYC:132 SL:109
8378  AD 02 20  LDA $2002 = FF                  A:10 X:00 Y:F0 P:25 SP:FA CYC:141 SL:109
837B  10 FB     BPL $8378                       A:10 X:00 Y:F0 P:25 SP:FA CYC:153 SL:109
8378  AD 02 20  LDA $2002 = FF                  A:10 X:00 Y:F0 P:25 SP:FA CYC:162 SL:109
837B  10 FB     BPL $8378                       A:10 X:00 Y:F0 P:25 SP:FA CYC:174 SL:109
8378  AD 02 20  LDA $2002 = FF                  A:10 X:00 Y:F0 P:25 SP:FA CYC:183 SL:109
837B  10 FB     BPL $8378                       A:10 X:00 Y:F0 P:25 SP:FA CYC:195 SL:109
8378  AD 02 20  LDA $2002 = FF                  A:10 X:00 Y:F0 P:25 SP:FA CYC:204 SL:109
837B  10 FB     BPL $8378                       A:10 X:00 Y:F0 P:25 SP:FA CYC:216 SL:109
8378  AD 02 20  LDA $2002 = FF                  A:10 X:00 Y:F0 P:25 SP:FA CYC:225 SL:109
837B  10 FB     BPL $8378                       A:10 X:00 Y:F0 P:25 SP:FA CYC:237 SL:109
8378  AD 02 20  LDA $2002 = FF                  A:10 X:00 Y:F0 P:25 SP:FA CYC:246 SL:109
837B  10 FB     BPL $8378                       A:10 X:00 Y:F0 P:25 SP:FA CYC:258 SL:109
8378  AD 02 20  LDA $2002 = FF                  A:10 X:00 Y:F0 P:25 SP:FA CYC:267 SL:109
837B  10 FB     BPL $8378                       A:10 X:00 Y:F0 P:25 SP:FA CYC:279 SL:109
8378  AD 02 20  LDA $2002 = FF                  A:10 X:00 Y:F0 P:25 SP:FA CYC:288 SL:109
837B  10 FB     BPL $8378                       A:10 X:00 Y:F0 P:25 SP:FA CYC:300 SL:109
8378  AD 02 20  LDA $2002 = FF                  A:10 X:00 Y:F0 P:25 SP:FA CYC:309 SL:109
837B  10 FB     BPL $8378                       A:10 X:00 Y:F0 P:25 SP:FA CYC:321 SL:109
8378  AD 02 20  LDA $2002 = FF                  A:10 X:00 Y:F0 P:25 SP:FA CYC:330 SL:109
837B  10 FB     BPL $8378                       A:10 X:00 Y:F0 P:25 SP:FA CYC:  1 SL:110
8378  AD 02 20  LDA $2002 = FF                  A:10 X:00 Y:F0 P:25 SP:FA CYC: 10 SL:110
837B  10 FB     BPL $8378                       A:10 X:00 Y:F0 P:25 SP:FA CYC: 22 SL:110
8378  AD 02 20  LDA $2002 = FF                  A:10 X:00 Y:F0 P:25 SP:FA CYC: 31 SL:110
837B  10 FB     BPL $8378                       A:10 X:00 Y:F0 P:25 SP:FA CYC: 43 SL:110
8378  AD 02 20  LDA $2002 = FF                  A:10 X:00 Y:F0 P:25 SP:FA CYC: 52 SL:110
837B  10 FB     BPL $8378                       A:10 X:00 Y:F0 P:25 SP:FA CYC: 64 SL:110
8378  AD 02 20  LDA $2002 = FF                  A:10 X:00 Y:F0 P:25 SP:FA CYC: 73 SL:110
837B  10 FB     BPL $8378                       A:10 X:00 Y:F0 P:25 SP:FA CYC: 85 SL:110
8378  AD 02 20  LDA $2002 = FF                  A:10 X:00 Y:F0 P:25 SP:FA CYC: 94 SL:110
837B  10 FB     BPL $8378                       A:10 X:00 Y:F0 P:25 SP:FA CYC:106 SL:110
8378  AD 02 20  LDA $2002 = FF                  A:10 X:00 Y:F0 P:25 SP:FA CYC:115 SL:110
837B  10 FB     BPL $8378                       A:10 X:00 Y:F0 P:25 SP:FA CYC:127 SL:110
8378  AD 02 20  LDA $2002 = FF                  A:10 X:00 Y:F0 P:25 SP:FA CYC:136 SL:110
837B  10 FB     BPL $8378                       A:10 X:00 Y:F0 P:25 SP:FA CYC:148 SL:110
8378  AD 02 20  LDA $2002 = FF                  A:10 X:00 Y:F0 P:25 SP:FA CYC:157 SL:110
837B  10 FB     BPL $8378                       A:10 X:00 Y:F0 P:25 SP:FA CYC:169 SL:110
8378  AD 02 20  LDA $2002 = FF                  A:10 X:00 Y:F0 P:25 SP:FA CYC:178 SL:110
837B  10 FB     BPL $8378                       A:10 X:00 Y:F0 P:25 SP:FA CYC:190 SL:110
8378  AD 02 20  LDA $2002 = FF                  A:10 X:00 Y:F0 P:25 SP:FA CYC:199 SL:110
837B  10 FB     BPL $8378                       A:10 X:00 Y:F0 P:25 SP:FA CYC:211 SL:110
8378  AD 02 20  LDA $2002 = FF                  A:10 X:00 Y:F0 P:25 SP:FA CYC:220 SL:110
837B  10 FB     BPL $8378                       A:10 X:00 Y:F0 P:25 SP:FA CYC:232 SL:110
8378  AD 02 20  LDA $2002 = FF                  A:10 X:00 Y:F0 P:25 SP:FA CYC:241 SL:110
837B  10 FB     BPL $8378                       A:10 X:00 Y:F0 P:25 SP:FA CYC:253 SL:110
8378  AD 02 20  LDA $2002 = FF                  A:10 X:00 Y:F0 P:25 SP:FA CYC:262 SL:110
837B  10 FB     BPL $8378                       A:10 X:00 Y:F0 P:25 SP:FA CYC:274 SL:110
8378  AD 02 20  LDA $2002 = FF                  A:10 X:00 Y:F0 P:25 SP:FA CYC:283 SL:110
837B  10 FB     BPL $8378                       A:10 X:00 Y:F0 P:25 SP:FA CYC:295 SL:110
8378  AD 02 20  LDA $2002 = FF                  A:10 X:00 Y:F0 P:25 SP:FA CYC:304 SL:110
837B  10 FB     BPL $8378                       A:10 X:00 Y:F0 P:25 SP:FA CYC:316 SL:110
8378  AD 02 20  LDA $2002 = FF                  A:10 X:00 Y:F0 P:25 SP:FA CYC:325 SL:110
837B  10 FB     BPL $8378                       A:10 X:00 Y:F0 P:25 SP:FA CYC:337 SL:110
8378  AD 02 20  LDA $2002 = FF                  A:10 X:00 Y:F0 P:25 SP:FA CYC:  5 SL:111
837B  10 FB     BPL $8378                       A:10 X:00 Y:F0 P:25 SP:FA CYC: 17 SL:111
8378  AD 02 20  LDA $2002 = FF                  A:10 X:00 Y:F0 P:25 SP:FA CYC: 26 SL:111
837B  10 FB     BPL $8378                       A:10 X:00 Y:F0 P:25 SP:FA CYC: 38 SL:111
8378  AD 02 20  LDA $2002 = FF                  A:10 X:00 Y:F0 P:25 SP:FA CYC: 47 SL:111
837B  10 FB     BPL $8378                       A:10 X:00 Y:F0 P:25 SP:FA CYC: 59 SL:111
8378  AD 02 20  LDA $2002 = FF                  A:10 X:00 Y:F0 P:25 SP:FA CYC: 68 SL:111
837B  10 FB     BPL $8378                       A:10 X:00 Y:F0 P:25 SP:FA CYC: 80 SL:111
8378  AD 02 20  LDA $2002 = FF                  A:10 X:00 Y:F0 P:25 SP:FA CYC: 89 SL:111
837B  10 FB     BPL $8378                       A:10 X:00 Y:F0 P:25 SP:FA CYC:101 SL:111
8378  AD 02 20  LDA $2002 = FF                  A:10 X:00 Y:F0 P:25 SP:FA CYC:110 SL:111
837B  10 FB     BPL $8378                       A:10 X:00 Y:F0 P:25 SP:FA CYC:122 SL:111
8378  AD 02 20  LDA $2002 = FF                  A:10 X:00 Y:F0 P:25 SP:FA CYC:131 SL:111
837B  10 FB     BPL $8378                       A:10 X:00 Y:F0 P:25 SP:FA CYC:143 SL:111
8378  AD 02 20  LDA $2002 = FF                  A:10 X:00 Y:F0 P:25 SP:FA CYC:152 SL:111
837B  10 FB     BPL $8378                       A:10 X:00 Y:F0 P:25 SP:FA CYC:164 SL:111
8378  AD 02 20  LDA $2002 = FF                  A:10 X:00 Y:F0 P:25 SP:FA CYC:173 SL:111
837B  10 FB     BPL $8378                       A:10 X:00 Y:F0 P:25 SP:FA CYC:185 SL:111
8378  AD 02 20  LDA $2002 = FF                  A:10 X:00 Y:F0 P:25 SP:FA CYC:194 SL:111
837B  10 FB     BPL $8378                       A:10 X:00 Y:F0 P:25 SP:FA CYC:206 SL:111
8378  AD 02 20  LDA $2002 = FF                  A:10 X:00 Y:F0 P:25 SP:FA CYC:215 SL:111
837B  10 FB     BPL $8378                       A:10 X:00 Y:F0 P:25 SP:FA CYC:227 SL:111
8378  AD 02 20  LDA $2002 = FF                  A:10 X:00 Y:F0 P:25 SP:FA CYC:236 SL:111
837B  10 FB     BPL $8378                       A:10 X:00 Y:F0 P:25 SP:FA CYC:248 SL:111
8378  AD 02 20  LDA $2002 = FF                  A:10 X:00 Y:F0 P:25 SP:FA CYC:257 SL:111
837B  10 FB     BPL $8378                       A:10 X:00 Y:F0 P:25 SP:FA CYC:269 SL:111
8378  AD 02 20  LDA $2002 = FF                  A:10 X:00 Y:F0 P:25 SP:FA CYC:278 SL:111
837B  10 FB     BPL $8378                       A:10 X:00 Y:F0 P:25 SP:FA CYC:290 SL:111
8378  AD 02 20  LDA $2002 = FF                  A:10 X:00 Y:F0 P:25 SP:FA CYC:299 SL:111
837B  10 FB     BPL $8378                       A:10 X:00 Y:F0 P:25 SP:FA CYC:311 SL:111
8378  AD 02 20  LDA $2002 = FF                  A:10 X:00 Y:F0 P:25 SP:FA CYC:320 SL:111
837B  10 FB     BPL $8378                       A:10 X:00 Y:F0 P:25 SP:FA CYC:332 SL:111
8378  AD 02 20  LDA $2002 = FF                  A:10 X:00 Y:F0 P:25 SP:FA CYC:  0 SL:112
837B  10 FB     BPL $8378                       A:10 X:00 Y:F0 P:25 SP:FA CYC: 12 SL:112
8378  AD 02 20  LDA $2002 = FF                  A:10 X:00 Y:F0 P:25 SP:FA CYC: 21 SL:112
837B  10 FB     BPL $8378                       A:10 X:00 Y:F0 P:25 SP:FA CYC: 33 SL:112
8378  AD 02 20  LDA $2002 = FF                  A:10 X:00 Y:F0 P:25 SP:FA CYC: 42 SL:112
837B  10 FB     BPL $8378                       A:10 X:00 Y:F0 P:25 SP:FA CYC: 54 SL:112
8378  AD 02 20  LDA $2002 = FF                  A:10 X:00 Y:F0 P:25 SP:FA CYC: 63 SL:112
837B  10 FB     BPL $8378                       A:10 X:00 Y:F0 P:25 SP:FA CYC: 75 SL:112
8378  AD 02 20  LDA $2002 = FF                  A:10 X:00 Y:F0 P:25 SP:FA CYC: 84 SL:112
837B  10 FB     BPL $8378                       A:10 X:00 Y:F0 P:25 SP:FA CYC: 96 SL:112
8378  AD 02 20  LDA $2002 = FF                  A:10 X:00 Y:F0 P:25 SP:FA CYC:105 SL:112
837B  10 FB     BPL $8378                       A:10 X:00 Y:F0 P:25 SP:FA CYC:117 SL:112
8378  AD 02 20  LDA $2002 = FF                  A:10 X:00 Y:F0 P:25 SP:FA CYC:126 SL:112
837B  10 FB     BPL $8378                       A:10 X:00 Y:F0 P:25 SP:FA CYC:138 SL:112
8378  AD 02 20  LDA $2002 = FF                  A:10 X:00 Y:F0 P:25 SP:FA CYC:147 SL:112
837B  10 FB     BPL $8378                       A:10 X:00 Y:F0 P:25 SP:FA CYC:159 SL:112
8378  AD 02 20  LDA $2002 = FF                  A:10 X:00 Y:F0 P:25 SP:FA CYC:168 SL:112
837B  10 FB     BPL $8378                       A:10 X:00 Y:F0 P:25 SP:FA CYC:180 SL:112
8378  AD 02 20  LDA $2002 = FF                  A:10 X:00 Y:F0 P:25 SP:FA CYC:189 SL:112
837B  10 FB     BPL $8378                       A:10 X:00 Y:F0 P:25 SP:FA CYC:201 SL:112
8378  AD 02 20  LDA $2002 = FF                  A:10 X:00 Y:F0 P:25 SP:FA CYC:210 SL:112
837B  10 FB     BPL $8378                       A:10 X:00 Y:F0 P:25 SP:FA CYC:222 SL:112
8378  AD 02 20  LDA $2002 = FF                  A:10 X:00 Y:F0 P:25 SP:FA CYC:231 SL:112
837B  10 FB     BPL $8378                       A:10 X:00 Y:F0 P:25 SP:FA CYC:243 SL:112
8378  AD 02 20  LDA $2002 = FF                  A:10 X:00 Y:F0 P:25 SP:FA CYC:252 SL:112
837B  10 FB     BPL $8378                       A:10 X:00 Y:F0 P:25 SP:FA CYC:264 SL:112
8378  AD 02 20  LDA $2002 = FF                  A:10 X:00 Y:F0 P:25 SP:FA CYC:273 SL:112
837B  10 FB     BPL $8378                       A:10 X:00 Y:F0 P:25 SP:FA CYC:285 SL:112
8378  AD 02 20  LDA $2002 = FF                  A:10 X:00 Y:F0 P:25 SP:FA CYC:294 SL:112
837B  10 FB     BPL $8378                       A:10 X:00 Y:F0 P:25 SP:FA CYC:306 SL:112
8378  AD 02 20  LDA $2002 = FF                  A:10 X:00 Y:F0 P:25 SP:FA CYC:315 SL:112
837B  10 FB     BPL $8378                       A:10 X:00 Y:F0 P:25 SP:FA CYC:327 SL:112
8378  AD 02 20  LDA $2002 = FF                  A:10 X:00 Y:F0 P:25 SP:FA CYC:336 SL:112
837B  10 FB     BPL $8378                       A:10 X:00 Y:F0 P:25 SP:FA CYC:  7 SL:113
8378  AD 02 20  LDA $2002 = FF                  A:10 X:00 Y:F0 P:25 SP:FA CYC: 16 SL:113
837B  10 FB     BPL $8378                       A:10 X:00 Y:F0 P:25 SP:FA CYC: 28 SL:113
8378  AD 02 20  LDA $2002 = FF                  A:10 X:00 Y:F0 P:25 SP:FA CYC: 37 SL:113
837B  10 FB     BPL $8378                       A:10 X:00 Y:F0 P:25 SP:FA CYC: 49 SL:113
8378  AD 02 20  LDA $2002 = FF                  A:10 X:00 Y:F0 P:25 SP:FA CYC: 58 SL:113
837B  10 FB     BPL $8378                       A:10 X:00 Y:F0 P:25 SP:FA CYC: 70 SL:113
8378  AD 02 20  LDA $2002 = FF                  A:10 X:00 Y:F0 P:25 SP:FA CYC: 79 SL:113
837B  10 FB     BPL $8378                       A:10 X:00 Y:F0 P:25 SP:FA CYC: 91 SL:113
8378  AD 02 20  LDA $2002 = FF                  A:10 X:00 Y:F0 P:25 SP:FA CYC:100 SL:113
837B  10 FB     BPL $8378                       A:10 X:00 Y:F0 P:25 SP:FA CYC:112 SL:113
8378  AD 02 20  LDA $2002 = FF                  A:10 X:00 Y:F0 P:25 SP:FA CYC:121 SL:113
837B  10 FB     BPL $8378                       A:10 X:00 Y:F0 P:25 SP:FA CYC:133 SL:113
8378  AD 02 20  LDA $2002 = FF                  A:10 X:00 Y:F0 P:25 SP:FA CYC:142 SL:113
837B  10 FB     BPL $8378                       A:10 X:00 Y:F0 P:25 SP:FA CYC:154 SL:113
8378  AD 02 20  LDA $2002 = FF                  A:10 X:00 Y:F0 P:25 SP:FA CYC:163 SL:113
837B  10 FB     BPL $8378                       A:10 X:00 Y:F0 P:25 SP:FA CYC:175 SL:113
8378  AD 02 20  LDA $2002 = FF                  A:10 X:00 Y:F0 P:25 SP:FA CYC:184 SL:113
837B  10 FB     BPL $8378                       A:10 X:00 Y:F0 P:25 SP:FA CYC:196 SL:113
8378  AD 02 20  LDA $2002 = FF                  A:10 X:00 Y:F0 P:25 SP:FA CYC:205 SL:113
837B  10 FB     BPL $8378                       A:10 X:00 Y:F0 P:25 SP:FA CYC:217 SL:113
8378  AD 02 20  LDA $2002 = FF                  A:10 X:00 Y:F0 P:25 SP:FA CYC:226 SL:113
837B  10 FB     BPL $8378                       A:10 X:00 Y:F0 P:25 SP:FA CYC:238 SL:113
8378  AD 02 20  LDA $2002 = FF                  A:10 X:00 Y:F0 P:25 SP:FA CYC:247 SL:113
837B  10 FB     BPL $8378                       A:10 X:00 Y:F0 P:25 SP:FA CYC:259 SL:113
8378  AD 02 20  LDA $2002 = FF                  A:10 X:00 Y:F0 P:25 SP:FA CYC:268 SL:113
837B  10 FB     BPL $8378                       A:10 X:00 Y:F0 P:25 SP:FA CYC:280 SL:113
8378  AD 02 20  LDA $2002 = FF                  A:10 X:00 Y:F0 P:25 SP:FA CYC:289 SL:113
837B  10 FB     BPL $8378                       A:10 X:00 Y:F0 P:25 SP:FA CYC:301 SL:113
8378  AD 02 20  LDA $2002 = FF                  A:10 X:00 Y:F0 P:25 SP:FA CYC:310 SL:113
837B  10 FB     BPL $8378                       A:10 X:00 Y:F0 P:25 SP:FA CYC:322 SL:113
8378  AD 02 20  LDA $2002 = FF                  A:10 X:00 Y:F0 P:25 SP:FA CYC:331 SL:113
837B  10 FB     BPL $8378                       A:10 X:00 Y:F0 P:25 SP:FA CYC:  2 SL:114
8378  AD 02 20  LDA $2002 = FF                  A:10 X:00 Y:F0 P:25 SP:FA CYC: 11 SL:114
837B  10 FB     BPL $8378                       A:10 X:00 Y:F0 P:25 SP:FA CYC: 23 SL:114
8378  AD 02 20  LDA $2002 = FF                  A:10 X:00 Y:F0 P:25 SP:FA CYC: 32 SL:114
837B  10 FB     BPL $8378                       A:10 X:00 Y:F0 P:25 SP:FA CYC: 44 SL:114
8378  AD 02 20  LDA $2002 = FF                  A:10 X:00 Y:F0 P:25 SP:FA CYC: 53 SL:114
837B  10 FB     BPL $8378                       A:10 X:00 Y:F0 P:25 SP:FA CYC: 65 SL:114
8378  AD 02 20  LDA $2002 = FF                  A:10 X:00 Y:F0 P:25 SP:FA CYC: 74 SL:114
837B  10 FB     BPL $8378                       A:10 X:00 Y:F0 P:25 SP:FA CYC: 86 SL:114
8378  AD 02 20  LDA $2002 = FF                  A:10 X:00 Y:F0 P:25 SP:FA CYC: 95 SL:114
837B  10 FB     BPL $8378                       A:10 X:00 Y:F0 P:25 SP:FA CYC:107 SL:114
8378  AD 02 20  LDA $2002 = FF                  A:10 X:00 Y:F0 P:25 SP:FA CYC:116 SL:114
837B  10 FB     BPL $8378                       A:10 X:00 Y:F0 P:25 SP:FA CYC:128 SL:114
8378  AD 02 20  LDA $2002 = FF                  A:10 X:00 Y:F0 P:25 SP:FA CYC:137 SL:114
837B  10 FB     BPL $8378                       A:10 X:00 Y:F0 P:25 SP:FA CYC:149 SL:114
8378  AD 02 20  LDA $2002 = FF                  A:10 X:00 Y:F0 P:25 SP:FA CYC:158 SL:114
837B  10 FB     BPL $8378                       A:10 X:00 Y:F0 P:25 SP:FA CYC:170 SL:114
8378  AD 02 20  LDA $2002 = FF                  A:10 X:00 Y:F0 P:25 SP:FA CYC:179 SL:114
837B  10 FB     BPL $8378                       A:10 X:00 Y:F0 P:25 SP:FA CYC:191 SL:114
8378  AD 02 20  LDA $2002 = FF                  A:10 X:00 Y:F0 P:25 SP:FA CYC:200 SL:114
837B  10 FB     BPL $8378                       A:10 X:00 Y:F0 P:25 SP:FA CYC:212 SL:114
8378  AD 02 20  LDA $2002 = FF                  A:10 X:00 Y:F0 P:25 SP:FA CYC:221 SL:114
837B  10 FB     BPL $8378                       A:10 X:00 Y:F0 P:25 SP:FA CYC:233 SL:114
8378  AD 02 20  LDA $2002 = FF                  A:10 X:00 Y:F0 P:25 SP:FA CYC:242 SL:114
837B  10 FB     BPL $8378                       A:10 X:00 Y:F0 P:25 SP:FA CYC:254 SL:114
8378  AD 02 20  LDA $2002 = FF                  A:10 X:00 Y:F0 P:25 SP:FA CYC:263 SL:114
837B  10 FB     BPL $8378                       A:10 X:00 Y:F0 P:25 SP:FA CYC:275 SL:114
8378  AD 02 20  LDA $2002 = FF                  A:10 X:00 Y:F0 P:25 SP:FA CYC:284 SL:114
837B  10 FB     BPL $8378                       A:10 X:00 Y:F0 P:25 SP:FA CYC:296 SL:114
8378  AD 02 20  LDA $2002 = FF                  A:10 X:00 Y:F0 P:25 SP:FA CYC:305 SL:114
837B  10 FB     BPL $8378                       A:10 X:00 Y:F0 P:25 SP:FA CYC:317 SL:114
8378  AD 02 20  LDA $2002 = FF                  A:10 X:00 Y:F0 P:25 SP:FA CYC:326 SL:114
837B  10 FB     BPL $8378                       A:10 X:00 Y:F0 P:25 SP:FA CYC:338 SL:114
8378  AD 02 20  LDA $2002 = FF                  A:10 X:00 Y:F0 P:25 SP:FA CYC:  6 SL:115
837B  10 FB     BPL $8378                       A:10 X:00 Y:F0 P:25 SP:FA CYC: 18 SL:115
8378  AD 02 20  LDA $2002 = FF                  A:10 X:00 Y:F0 P:25 SP:FA CYC: 27 SL:115
837B  10 FB     BPL $8378                       A:10 X:00 Y:F0 P:25 SP:FA CYC: 39 SL:115
8378  AD 02 20  LDA $2002 = FF                  A:10 X:00 Y:F0 P:25 SP:FA CYC: 48 SL:115
837B  10 FB     BPL $8378                       A:10 X:00 Y:F0 P:25 SP:FA CYC: 60 SL:115
8378  AD 02 20  LDA $2002 = FF                  A:10 X:00 Y:F0 P:25 SP:FA CYC: 69 SL:115
837B  10 FB     BPL $8378                       A:10 X:00 Y:F0 P:25 SP:FA CYC: 81 SL:115
8378  AD 02 20  LDA $2002 = FF                  A:10 X:00 Y:F0 P:25 SP:FA CYC: 90 SL:115
837B  10 FB     BPL $8378                       A:10 X:00 Y:F0 P:25 SP:FA CYC:102 SL:115
8378  AD 02 20  LDA $2002 = FF                  A:10 X:00 Y:F0 P:25 SP:FA CYC:111 SL:115
837B  10 FB     BPL $8378                       A:10 X:00 Y:F0 P:25 SP:FA CYC:123 SL:115
8378  AD 02 20  LDA $2002 = FF                  A:10 X:00 Y:F0 P:25 SP:FA CYC:132 SL:115
837B  10 FB     BPL $8378                       A:10 X:00 Y:F0 P:25 SP:FA CYC:144 SL:115
8378  AD 02 20  LDA $2002 = FF                  A:10 X:00 Y:F0 P:25 SP:FA CYC:153 SL:115
837B  10 FB     BPL $8378                       A:10 X:00 Y:F0 P:25 SP:FA CYC:165 SL:115
8378  AD 02 20  LDA $2002 = FF                  A:10 X:00 Y:F0 P:25 SP:FA CYC:174 SL:115
837B  10 FB     BPL $8378                       A:10 X:00 Y:F0 P:25 SP:FA CYC:186 SL:115
8378  AD 02 20  LDA $2002 = FF                  A:10 X:00 Y:F0 P:25 SP:FA CYC:195 SL:115
837B  10 FB     BPL $8378                       A:10 X:00 Y:F0 P:25 SP:FA CYC:207 SL:115
8378  AD 02 20  LDA $2002 = FF                  A:10 X:00 Y:F0 P:25 SP:FA CYC:216 SL:115
837B  10 FB     BPL $8378                       A:10 X:00 Y:F0 P:25 SP:FA CYC:228 SL:115
8378  AD 02 20  LDA $2002 = FF                  A:10 X:00 Y:F0 P:25 SP:FA CYC:237 SL:115
837B  10 FB     BPL $8378                       A:10 X:00 Y:F0 P:25 SP:FA CYC:249 SL:115
8378  AD 02 20  LDA $2002 = FF                  A:10 X:00 Y:F0 P:25 SP:FA CYC:258 SL:115
837B  10 FB     BPL $8378                       A:10 X:00 Y:F0 P:25 SP:FA CYC:270 SL:115
8378  AD 02 20  LDA $2002 = FF                  A:10 X:00 Y:F0 P:25 SP:FA CYC:279 SL:115
837B  10 FB     BPL $8378                       A:10 X:00 Y:F0 P:25 SP:FA CYC:291 SL:115
8378  AD 02 20  LDA $2002 = FF                  A:10 X:00 Y:F0 P:25 SP:FA CYC:300 SL:115
837B  10 FB     BPL $8378                       A:10 X:00 Y:F0 P:25 SP:FA CYC:312 SL:115
8378  AD 02 20  LDA $2002 = FF                  A:10 X:00 Y:F0 P:25 SP:FA CYC:321 SL:115
837B  10 FB     BPL $8378                       A:10 X:00 Y:F0 P:25 SP:FA CYC:333 SL:115
8378  AD 02 20  LDA $2002 = FF                  A:10 X:00 Y:F0 P:25 SP:FA CYC:  1 SL:116
837B  10 FB     BPL $8378                       A:10 X:00 Y:F0 P:25 SP:FA CYC: 13 SL:116
8378  AD 02 20  LDA $2002 = FF                  A:10 X:00 Y:F0 P:25 SP:FA CYC: 22 SL:116
837B  10 FB     BPL $8378                       A:10 X:00 Y:F0 P:25 SP:FA CYC: 34 SL:116
8378  AD 02 20  LDA $2002 = FF                  A:10 X:00 Y:F0 P:25 SP:FA CYC: 43 SL:116
837B  10 FB     BPL $8378                       A:10 X:00 Y:F0 P:25 SP:FA CYC: 55 SL:116
8378  AD 02 20  LDA $2002 = FF                  A:10 X:00 Y:F0 P:25 SP:FA CYC: 64 SL:116
837B  10 FB     BPL $8378                       A:10 X:00 Y:F0 P:25 SP:FA CYC: 76 SL:116
8378  AD 02 20  LDA $2002 = FF                  A:10 X:00 Y:F0 P:25 SP:FA CYC: 85 SL:116
837B  10 FB     BPL $8378                       A:10 X:00 Y:F0 P:25 SP:FA CYC: 97 SL:116
8378  AD 02 20  LDA $2002 = FF                  A:10 X:00 Y:F0 P:25 SP:FA CYC:106 SL:116
837B  10 FB     BPL $8378                       A:10 X:00 Y:F0 P:25 SP:FA CYC:118 SL:116
8378  AD 02 20  LDA $2002 = FF                  A:10 X:00 Y:F0 P:25 SP:FA CYC:127 SL:116
837B  10 FB     BPL $8378                       A:10 X:00 Y:F0 P:25 SP:FA CYC:139 SL:116
8378  AD 02 20  LDA $2002 = FF                  A:10 X:00 Y:F0 P:25 SP:FA CYC:148 SL:116
837B  10 FB     BPL $8378                       A:10 X:00 Y:F0 P:25 SP:FA CYC:160 SL:116
8378  AD 02 20  LDA $2002 = FF                  A:10 X:00 Y:F0 P:25 SP:FA CYC:169 SL:116
837B  10 FB     BPL $8378                       A:10 X:00 Y:F0 P:25 SP:FA CYC:181 SL:116
8378  AD 02 20  LDA $2002 = FF                  A:10 X:00 Y:F0 P:25 SP:FA CYC:190 SL:116
837B  10 FB     BPL $8378                       A:10 X:00 Y:F0 P:25 SP:FA CYC:202 SL:116
8378  AD 02 20  LDA $2002 = FF                  A:10 X:00 Y:F0 P:25 SP:FA CYC:211 SL:116
837B  10 FB     BPL $8378                       A:10 X:00 Y:F0 P:25 SP:FA CYC:223 SL:116
8378  AD 02 20  LDA $2002 = FF                  A:10 X:00 Y:F0 P:25 SP:FA CYC:232 SL:116
837B  10 FB     BPL $8378                       A:10 X:00 Y:F0 P:25 SP:FA CYC:244 SL:116
8378  AD 02 20  LDA $2002 = FF                  A:10 X:00 Y:F0 P:25 SP:FA CYC:253 SL:116
837B  10 FB     BPL $8378                       A:10 X:00 Y:F0 P:25 SP:FA CYC:265 SL:116
8378  AD 02 20  LDA $2002 = FF                  A:10 X:00 Y:F0 P:25 SP:FA CYC:274 SL:116
837B  10 FB     BPL $8378                       A:10 X:00 Y:F0 P:25 SP:FA CYC:286 SL:116
8378  AD 02 20  LDA $2002 = FF                  A:10 X:00 Y:F0 P:25 SP:FA CYC:295 SL:116
837B  10 FB     BPL $8378                       A:10 X:00 Y:F0 P:25 SP:FA CYC:307 SL:116
8378  AD 02 20  LDA $2002 = FF                  A:10 X:00 Y:F0 P:25 SP:FA CYC:316 SL:116
837B  10 FB     BPL $8378                       A:10 X:00 Y:F0 P:25 SP:FA CYC:328 SL:116
8378  AD 02 20  LDA $2002 = FF                  A:10 X:00 Y:F0 P:25 SP:FA CYC:337 SL:116
837B  10 FB     BPL $8378                       A:10 X:00 Y:F0 P:25 SP:FA CYC:  8 SL:117
8378  AD 02 20  LDA $2002 = FF                  A:10 X:00 Y:F0 P:25 SP:FA CYC: 17 SL:117
837B  10 FB     BPL $8378                       A:10 X:00 Y:F0 P:25 SP:FA CYC: 29 SL:117
8378  AD 02 20  LDA $2002 = FF                  A:10 X:00 Y:F0 P:25 SP:FA CYC: 38 SL:117
837B  10 FB     BPL $8378                       A:10 X:00 Y:F0 P:25 SP:FA CYC: 50 SL:117
8378  AD 02 20  LDA $2002 = FF                  A:10 X:00 Y:F0 P:25 SP:FA CYC: 59 SL:117
837B  10 FB     BPL $8378                       A:10 X:00 Y:F0 P:25 SP:FA CYC: 71 SL:117
8378  AD 02 20  LDA $2002 = FF                  A:10 X:00 Y:F0 P:25 SP:FA CYC: 80 SL:117
837B  10 FB     BPL $8378                       A:10 X:00 Y:F0 P:25 SP:FA CYC: 92 SL:117
8378  AD 02 20  LDA $2002 = FF                  A:10 X:00 Y:F0 P:25 SP:FA CYC:101 SL:117
837B  10 FB     BPL $8378                       A:10 X:00 Y:F0 P:25 SP:FA CYC:113 SL:117
8378  AD 02 20  LDA $2002 = FF                  A:10 X:00 Y:F0 P:25 SP:FA CYC:122 SL:117
837B  10 FB     BPL $8378                       A:10 X:00 Y:F0 P:25 SP:FA CYC:134 SL:117
8378  AD 02 20  LDA $2002 = FF                  A:10 X:00 Y:F0 P:25 SP:FA CYC:143 SL:117
837B  10 FB     BPL $8378                       A:10 X:00 Y:F0 P:25 SP:FA CYC:155 SL:117
8378  AD 02 20  LDA $2002 = FF                  A:10 X:00 Y:F0 P:25 SP:FA CYC:164 SL:117
837B  10 FB     BPL $8378                       A:10 X:00 Y:F0 P:25 SP:FA CYC:176 SL:117
8378  AD 02 20  LDA $2002 = FF                  A:10 X:00 Y:F0 P:25 SP:FA CYC:185 SL:117
837B  10 FB     BPL $8378                       A:10 X:00 Y:F0 P:25 SP:FA CYC:197 SL:117
8378  AD 02 20  LDA $2002 = FF                  A:10 X:00 Y:F0 P:25 SP:FA CYC:206 SL:117
837B  10 FB     BPL $8378                       A:10 X:00 Y:F0 P:25 SP:FA CYC:218 SL:117
8378  AD 02 20  LDA $2002 = FF                  A:10 X:00 Y:F0 P:25 SP:FA CYC:227 SL:117
837B  10 FB     BPL $8378                       A:10 X:00 Y:F0 P:25 SP:FA CYC:239 SL:117
8378  AD 02 20  LDA $2002 = FF                  A:10 X:00 Y:F0 P:25 SP:FA CYC:248 SL:117
837B  10 FB     BPL $8378                       A:10 X:00 Y:F0 P:25 SP:FA CYC:260 SL:117
8378  AD 02 20  LDA $2002 = FF                  A:10 X:00 Y:F0 P:25 SP:FA CYC:269 SL:117
837B  10 FB     BPL $8378                       A:10 X:00 Y:F0 P:25 SP:FA CYC:281 SL:117
8378  AD 02 20  LDA $2002 = FF                  A:10 X:00 Y:F0 P:25 SP:FA CYC:290 SL:117
837B  10 FB     BPL $8378                       A:10 X:00 Y:F0 P:25 SP:FA CYC:302 SL:117
8378  AD 02 20  LDA $2002 = FF                  A:10 X:00 Y:F0 P:25 SP:FA CYC:311 SL:117
837B  10 FB     BPL $8378                       A:10 X:00 Y:F0 P:25 SP:FA CYC:323 SL:117
8378  AD 02 20  LDA $2002 = FF                  A:10 X:00 Y:F0 P:25 SP:FA CYC:332 SL:117
837B  10 FB     BPL $8378                       A:10 X:00 Y:F0 P:25 SP:FA CYC:  3 SL:118
8378  AD 02 20  LDA $2002 = FF                  A:10 X:00 Y:F0 P:25 SP:FA CYC: 12 SL:118
837B  10 FB     BPL $8378                       A:10 X:00 Y:F0 P:25 SP:FA CYC: 24 SL:118
8378  AD 02 20  LDA $2002 = FF                  A:10 X:00 Y:F0 P:25 SP:FA CYC: 33 SL:118
837B  10 FB     BPL $8378                       A:10 X:00 Y:F0 P:25 SP:FA CYC: 45 SL:118
8378  AD 02 20  LDA $2002 = FF                  A:10 X:00 Y:F0 P:25 SP:FA CYC: 54 SL:118
837B  10 FB     BPL $8378                       A:10 X:00 Y:F0 P:25 SP:FA CYC: 66 SL:118
8378  AD 02 20  LDA $2002 = FF                  A:10 X:00 Y:F0 P:25 SP:FA CYC: 75 SL:118
837B  10 FB     BPL $8378                       A:10 X:00 Y:F0 P:25 SP:FA CYC: 87 SL:118
8378  AD 02 20  LDA $2002 = FF                  A:10 X:00 Y:F0 P:25 SP:FA CYC: 96 SL:118
837B  10 FB     BPL $8378                       A:10 X:00 Y:F0 P:25 SP:FA CYC:108 SL:118
8378  AD 02 20  LDA $2002 = FF                  A:10 X:00 Y:F0 P:25 SP:FA CYC:117 SL:118
837B  10 FB     BPL $8378                       A:10 X:00 Y:F0 P:25 SP:FA CYC:129 SL:118
8378  AD 02 20  LDA $2002 = FF                  A:10 X:00 Y:F0 P:25 SP:FA CYC:138 SL:118
837B  10 FB     BPL $8378                       A:10 X:00 Y:F0 P:25 SP:FA CYC:150 SL:118
8378  AD 02 20  LDA $2002 = FF                  A:10 X:00 Y:F0 P:25 SP:FA CYC:159 SL:118
837B  10 FB     BPL $8378                       A:10 X:00 Y:F0 P:25 SP:FA CYC:171 SL:118
8378  AD 02 20  LDA $2002 = FF                  A:10 X:00 Y:F0 P:25 SP:FA CYC:180 SL:118
837B  10 FB     BPL $8378                       A:10 X:00 Y:F0 P:25 SP:FA CYC:192 SL:118
8378  AD 02 20  LDA $2002 = FF                  A:10 X:00 Y:F0 P:25 SP:FA CYC:201 SL:118
837B  10 FB     BPL $8378                       A:10 X:00 Y:F0 P:25 SP:FA CYC:213 SL:118
8378  AD 02 20  LDA $2002 = FF                  A:10 X:00 Y:F0 P:25 SP:FA CYC:222 SL:118
837B  10 FB     BPL $8378                       A:10 X:00 Y:F0 P:25 SP:FA CYC:234 SL:118
8378  AD 02 20  LDA $2002 = FF                  A:10 X:00 Y:F0 P:25 SP:FA CYC:243 SL:118
837B  10 FB     BPL $8378                       A:10 X:00 Y:F0 P:25 SP:FA CYC:255 SL:118
8378  AD 02 20  LDA $2002 = FF                  A:10 X:00 Y:F0 P:25 SP:FA CYC:264 SL:118
837B  10 FB     BPL $8378                       A:10 X:00 Y:F0 P:25 SP:FA CYC:276 SL:118
8378  AD 02 20  LDA $2002 = FF                  A:10 X:00 Y:F0 P:25 SP:FA CYC:285 SL:118
837B  10 FB     BPL $8378                       A:10 X:00 Y:F0 P:25 SP:FA CYC:297 SL:118
8378  AD 02 20  LDA $2002 = FF                  A:10 X:00 Y:F0 P:25 SP:FA CYC:306 SL:118
837B  10 FB     BPL $8378                       A:10 X:00 Y:F0 P:25 SP:FA CYC:318 SL:118
8378  AD 02 20  LDA $2002 = FF                  A:10 X:00 Y:F0 P:25 SP:FA CYC:327 SL:118
837B  10 FB     BPL $8378                       A:10 X:00 Y:F0 P:25 SP:FA CYC:339 SL:118
8378  AD 02 20  LDA $2002 = FF                  A:10 X:00 Y:F0 P:25 SP:FA CYC:  7 SL:119
837B  10 FB     BPL $8378                       A:10 X:00 Y:F0 P:25 SP:FA CYC: 19 SL:119
8378  AD 02 20  LDA $2002 = FF                  A:10 X:00 Y:F0 P:25 SP:FA CYC: 28 SL:119
837B  10 FB     BPL $8378                       A:10 X:00 Y:F0 P:25 SP:FA CYC: 40 SL:119
8378  AD 02 20  LDA $2002 = FF                  A:10 X:00 Y:F0 P:25 SP:FA CYC: 49 SL:119
837B  10 FB     BPL $8378                       A:10 X:00 Y:F0 P:25 SP:FA CYC: 61 SL:119
8378  AD 02 20  LDA $2002 = FF                  A:10 X:00 Y:F0 P:25 SP:FA CYC: 70 SL:119
837B  10 FB     BPL $8378                       A:10 X:00 Y:F0 P:25 SP:FA CYC: 82 SL:119
8378  AD 02 20  LDA $2002 = FF                  A:10 X:00 Y:F0 P:25 SP:FA CYC: 91 SL:119
837B  10 FB     BPL $8378                       A:10 X:00 Y:F0 P:25 SP:FA CYC:103 SL:119
8378  AD 02 20  LDA $2002 = FF                  A:10 X:00 Y:F0 P:25 SP:FA CYC:112 SL:119
837B  10 FB     BPL $8378                       A:10 X:00 Y:F0 P:25 SP:FA CYC:124 SL:119
8378  AD 02 20  LDA $2002 = FF                  A:10 X:00 Y:F0 P:25 SP:FA CYC:133 SL:119
837B  10 FB     BPL $8378                       A:10 X:00 Y:F0 P:25 SP:FA CYC:145 SL:119
8378  AD 02 20  LDA $2002 = FF                  A:10 X:00 Y:F0 P:25 SP:FA CYC:154 SL:119
837B  10 FB     BPL $8378                       A:10 X:00 Y:F0 P:25 SP:FA CYC:166 SL:119
8378  AD 02 20  LDA $2002 = FF                  A:10 X:00 Y:F0 P:25 SP:FA CYC:175 SL:119
837B  10 FB     BPL $8378                       A:10 X:00 Y:F0 P:25 SP:FA CYC:187 SL:119
8378  AD 02 20  LDA $2002 = FF                  A:10 X:00 Y:F0 P:25 SP:FA CYC:196 SL:119
837B  10 FB     BPL $8378                       A:10 X:00 Y:F0 P:25 SP:FA CYC:208 SL:119
8378  AD 02 20  LDA $2002 = FF                  A:10 X:00 Y:F0 P:25 SP:FA CYC:217 SL:119
837B  10 FB     BPL $8378                       A:10 X:00 Y:F0 P:25 SP:FA CYC:229 SL:119
8378  AD 02 20  LDA $2002 = FF                  A:10 X:00 Y:F0 P:25 SP:FA CYC:238 SL:119
837B  10 FB     BPL $8378                       A:10 X:00 Y:F0 P:25 SP:FA CYC:250 SL:119
8378  AD 02 20  LDA $2002 = FF                  A:10 X:00 Y:F0 P:25 SP:FA CYC:259 SL:119
837B  10 FB     BPL $8378                       A:10 X:00 Y:F0 P:25 SP:FA CYC:271 SL:119
8378  AD 02 20  LDA $2002 = FF                  A:10 X:00 Y:F0 P:25 SP:FA CYC:280 SL:119
837B  10 FB     BPL $8378                       A:10 X:00 Y:F0 P:25 SP:FA CYC:292 SL:119
8378  AD 02 20  LDA $2002 = FF                  A:10 X:00 Y:F0 P:25 SP:FA CYC:301 SL:119
837B  10 FB     BPL $8378                       A:10 X:00 Y:F0 P:25 SP:FA CYC:313 SL:119
8378  AD 02 20  LDA $2002 = FF                  A:10 X:00 Y:F0 P:25 SP:FA CYC:322 SL:119
837B  10 FB     BPL $8378                       A:10 X:00 Y:F0 P:25 SP:FA CYC:334 SL:119
8378  AD 02 20  LDA $2002 = FF                  A:10 X:00 Y:F0 P:25 SP:FA CYC:  2 SL:120
837B  10 FB     BPL $8378                       A:10 X:00 Y:F0 P:25 SP:FA CYC: 14 SL:120
8378  AD 02 20  LDA $2002 = FF                  A:10 X:00 Y:F0 P:25 SP:FA CYC: 23 SL:120
837B  10 FB     BPL $8378                       A:10 X:00 Y:F0 P:25 SP:FA CYC: 35 SL:120
8378  AD 02 20  LDA $2002 = FF                  A:10 X:00 Y:F0 P:25 SP:FA CYC: 44 SL:120
837B  10 FB     BPL $8378                       A:10 X:00 Y:F0 P:25 SP:FA CYC: 56 SL:120
8378  AD 02 20  LDA $2002 = FF                  A:10 X:00 Y:F0 P:25 SP:FA CYC: 65 SL:120
837B  10 FB     BPL $8378                       A:10 X:00 Y:F0 P:25 SP:FA CYC: 77 SL:120
8378  AD 02 20  LDA $2002 = FF                  A:10 X:00 Y:F0 P:25 SP:FA CYC: 86 SL:120
837B  10 FB     BPL $8378                       A:10 X:00 Y:F0 P:25 SP:FA CYC: 98 SL:120
8378  AD 02 20  LDA $2002 = FF                  A:10 X:00 Y:F0 P:25 SP:FA CYC:107 SL:120
837B  10 FB     BPL $8378                       A:10 X:00 Y:F0 P:25 SP:FA CYC:119 SL:120
8378  AD 02 20  LDA $2002 = FF                  A:10 X:00 Y:F0 P:25 SP:FA CYC:128 SL:120
837B  10 FB     BPL $8378                       A:10 X:00 Y:F0 P:25 SP:FA CYC:140 SL:120
8378  AD 02 20  LDA $2002 = FF                  A:10 X:00 Y:F0 P:25 SP:FA CYC:149 SL:120
837B  10 FB     BPL $8378                       A:10 X:00 Y:F0 P:25 SP:FA CYC:161 SL:120
8378  AD 02 20  LDA $2002 = FF                  A:10 X:00 Y:F0 P:25 SP:FA CYC:170 SL:120
837B  10 FB     BPL $8378                       A:10 X:00 Y:F0 P:25 SP:FA CYC:182 SL:120
8378  AD 02 20  LDA $2002 = FF                  A:10 X:00 Y:F0 P:25 SP:FA CYC:191 SL:120
837B  10 FB     BPL $8378                       A:10 X:00 Y:F0 P:25 SP:FA CYC:203 SL:120
8378  AD 02 20  LDA $2002 = FF                  A:10 X:00 Y:F0 P:25 SP:FA CYC:212 SL:120
837B  10 FB     BPL $8378                       A:10 X:00 Y:F0 P:25 SP:FA CYC:224 SL:120
8378  AD 02 20  LDA $2002 = FF                  A:10 X:00 Y:F0 P:25 SP:FA CYC:233 SL:120
837B  10 FB     BPL $8378                       A:10 X:00 Y:F0 P:25 SP:FA CYC:245 SL:120
8378  AD 02 20  LDA $2002 = FF                  A:10 X:00 Y:F0 P:25 SP:FA CYC:254 SL:120
837B  10 FB     BPL $8378                       A:10 X:00 Y:F0 P:25 SP:FA CYC:266 SL:120
8378  AD 02 20  LDA $2002 = FF                  A:10 X:00 Y:F0 P:25 SP:FA CYC:275 SL:120
837B  10 FB     BPL $8378                       A:10 X:00 Y:F0 P:25 SP:FA CYC:287 SL:120
8378  AD 02 20  LDA $2002 = FF                  A:10 X:00 Y:F0 P:25 SP:FA CYC:296 SL:120
837B  10 FB     BPL $8378                       A:10 X:00 Y:F0 P:25 SP:FA CYC:308 SL:120
8378  AD 02 20  LDA $2002 = FF                  A:10 X:00 Y:F0 P:25 SP:FA CYC:317 SL:120
837B  10 FB     BPL $8378                       A:10 X:00 Y:F0 P:25 SP:FA CYC:329 SL:120
8378  AD 02 20  LDA $2002 = FF                  A:10 X:00 Y:F0 P:25 SP:FA CYC:338 SL:120
837B  10 FB     BPL $8378                       A:10 X:00 Y:F0 P:25 SP:FA CYC:  9 SL:121
8378  AD 02 20  LDA $2002 = FF                  A:10 X:00 Y:F0 P:25 SP:FA CYC: 18 SL:121
837B  10 FB     BPL $8378                       A:10 X:00 Y:F0 P:25 SP:FA CYC: 30 SL:121
8378  AD 02 20  LDA $2002 = FF                  A:10 X:00 Y:F0 P:25 SP:FA CYC: 39 SL:121
837B  10 FB     BPL $8378                       A:10 X:00 Y:F0 P:25 SP:FA CYC: 51 SL:121
8378  AD 02 20  LDA $2002 = FF                  A:10 X:00 Y:F0 P:25 SP:FA CYC: 60 SL:121
837B  10 FB     BPL $8378                       A:10 X:00 Y:F0 P:25 SP:FA CYC: 72 SL:121
8378  AD 02 20  LDA $2002 = FF                  A:10 X:00 Y:F0 P:25 SP:FA CYC: 81 SL:121
837B  10 FB     BPL $8378                       A:10 X:00 Y:F0 P:25 SP:FA CYC: 93 SL:121
8378  AD 02 20  LDA $2002 = FF                  A:10 X:00 Y:F0 P:25 SP:FA CYC:102 SL:121
837B  10 FB     BPL $8378                       A:10 X:00 Y:F0 P:25 SP:FA CYC:114 SL:121
8378  AD 02 20  LDA $2002 = FF                  A:10 X:00 Y:F0 P:25 SP:FA CYC:123 SL:121
837B  10 FB     BPL $8378                       A:10 X:00 Y:F0 P:25 SP:FA CYC:135 SL:121
8378  AD 02 20  LDA $2002 = FF                  A:10 X:00 Y:F0 P:25 SP:FA CYC:144 SL:121
837B  10 FB     BPL $8378                       A:10 X:00 Y:F0 P:25 SP:FA CYC:156 SL:121
8378  AD 02 20  LDA $2002 = FF                  A:10 X:00 Y:F0 P:25 SP:FA CYC:165 SL:121
837B  10 FB     BPL $8378                       A:10 X:00 Y:F0 P:25 SP:FA CYC:177 SL:121
8378  AD 02 20  LDA $2002 = FF                  A:10 X:00 Y:F0 P:25 SP:FA CYC:186 SL:121
837B  10 FB     BPL $8378                       A:10 X:00 Y:F0 P:25 SP:FA CYC:198 SL:121
8378  AD 02 20  LDA $2002 = FF                  A:10 X:00 Y:F0 P:25 SP:FA CYC:207 SL:121
837B  10 FB     BPL $8378                       A:10 X:00 Y:F0 P:25 SP:FA CYC:219 SL:121
8378  AD 02 20  LDA $2002 = FF                  A:10 X:00 Y:F0 P:25 SP:FA CYC:228 SL:121
837B  10 FB     BPL $8378                       A:10 X:00 Y:F0 P:25 SP:FA CYC:240 SL:121
8378  AD 02 20  LDA $2002 = FF                  A:10 X:00 Y:F0 P:25 SP:FA CYC:249 SL:121
837B  10 FB     BPL $8378                       A:10 X:00 Y:F0 P:25 SP:FA CYC:261 SL:121
8378  AD 02 20  LDA $2002 = FF                  A:10 X:00 Y:F0 P:25 SP:FA CYC:270 SL:121
837B  10 FB     BPL $8378                       A:10 X:00 Y:F0 P:25 SP:FA CYC:282 SL:121
8378  AD 02 20  LDA $2002 = FF                  A:10 X:00 Y:F0 P:25 SP:FA CYC:291 SL:121
837B  10 FB     BPL $8378                       A:10 X:00 Y:F0 P:25 SP:FA CYC:303 SL:121
8378  AD 02 20  LDA $2002 = FF                  A:10 X:00 Y:F0 P:25 SP:FA CYC:312 SL:121
837B  10 FB     BPL $8378                       A:10 X:00 Y:F0 P:25 SP:FA CYC:324 SL:121
8378  AD 02 20  LDA $2002 = FF                  A:10 X:00 Y:F0 P:25 SP:FA CYC:333 SL:121
837B  10 FB     BPL $8378                       A:10 X:00 Y:F0 P:25 SP:FA CYC:  4 SL:122
8378  AD 02 20  LDA $2002 = FF                  A:10 X:00 Y:F0 P:25 SP:FA CYC: 13 SL:122
837B  10 FB     BPL $8378                       A:10 X:00 Y:F0 P:25 SP:FA CYC: 25 SL:122
8378  AD 02 20  LDA $2002 = FF                  A:10 X:00 Y:F0 P:25 SP:FA CYC: 34 SL:122
837B  10 FB     BPL $8378                       A:10 X:00 Y:F0 P:25 SP:FA CYC: 46 SL:122
8378  AD 02 20  LDA $2002 = FF                  A:10 X:00 Y:F0 P:25 SP:FA CYC: 55 SL:122
837B  10 FB     BPL $8378                       A:10 X:00 Y:F0 P:25 SP:FA CYC: 67 SL:122
8378  AD 02 20  LDA $2002 = FF                  A:10 X:00 Y:F0 P:25 SP:FA CYC: 76 SL:122
837B  10 FB     BPL $8378                       A:10 X:00 Y:F0 P:25 SP:FA CYC: 88 SL:122
8378  AD 02 20  LDA $2002 = FF                  A:10 X:00 Y:F0 P:25 SP:FA CYC: 97 SL:122
837B  10 FB     BPL $8378                       A:10 X:00 Y:F0 P:25 SP:FA CYC:109 SL:122
8378  AD 02 20  LDA $2002 = FF                  A:10 X:00 Y:F0 P:25 SP:FA CYC:118 SL:122
837B  10 FB     BPL $8378                       A:10 X:00 Y:F0 P:25 SP:FA CYC:130 SL:122
8378  AD 02 20  LDA $2002 = FF                  A:10 X:00 Y:F0 P:25 SP:FA CYC:139 SL:122
837B  10 FB     BPL $8378                       A:10 X:00 Y:F0 P:25 SP:FA CYC:151 SL:122
8378  AD 02 20  LDA $2002 = FF                  A:10 X:00 Y:F0 P:25 SP:FA CYC:160 SL:122
837B  10 FB     BPL $8378                       A:10 X:00 Y:F0 P:25 SP:FA CYC:172 SL:122
8378  AD 02 20  LDA $2002 = FF                  A:10 X:00 Y:F0 P:25 SP:FA CYC:181 SL:122
837B  10 FB     BPL $8378                       A:10 X:00 Y:F0 P:25 SP:FA CYC:193 SL:122
8378  AD 02 20  LDA $2002 = FF                  A:10 X:00 Y:F0 P:25 SP:FA CYC:202 SL:122
837B  10 FB     BPL $8378                       A:10 X:00 Y:F0 P:25 SP:FA CYC:214 SL:122
8378  AD 02 20  LDA $2002 = FF                  A:10 X:00 Y:F0 P:25 SP:FA CYC:223 SL:122
837B  10 FB     BPL $8378                       A:10 X:00 Y:F0 P:25 SP:FA CYC:235 SL:122
8378  AD 02 20  LDA $2002 = FF                  A:10 X:00 Y:F0 P:25 SP:FA CYC:244 SL:122
837B  10 FB     BPL $8378                       A:10 X:00 Y:F0 P:25 SP:FA CYC:256 SL:122
8378  AD 02 20  LDA $2002 = FF                  A:10 X:00 Y:F0 P:25 SP:FA CYC:265 SL:122
837B  10 FB     BPL $8378                       A:10 X:00 Y:F0 P:25 SP:FA CYC:277 SL:122
8378  AD 02 20  LDA $2002 = FF                  A:10 X:00 Y:F0 P:25 SP:FA CYC:286 SL:122
837B  10 FB     BPL $8378                       A:10 X:00 Y:F0 P:25 SP:FA CYC:298 SL:122
8378  AD 02 20  LDA $2002 = FF                  A:10 X:00 Y:F0 P:25 SP:FA CYC:307 SL:122
837B  10 FB     BPL $8378                       A:10 X:00 Y:F0 P:25 SP:FA CYC:319 SL:122
8378  AD 02 20  LDA $2002 = FF                  A:10 X:00 Y:F0 P:25 SP:FA CYC:328 SL:122
837B  10 FB     BPL $8378                       A:10 X:00 Y:F0 P:25 SP:FA CYC:340 SL:122
8378  AD 02 20  LDA $2002 = FF                  A:10 X:00 Y:F0 P:25 SP:FA CYC:  8 SL:123
837B  10 FB     BPL $8378                       A:10 X:00 Y:F0 P:25 SP:FA CYC: 20 SL:123
8378  AD 02 20  LDA $2002 = FF                  A:10 X:00 Y:F0 P:25 SP:FA CYC: 29 SL:123
837B  10 FB     BPL $8378                       A:10 X:00 Y:F0 P:25 SP:FA CYC: 41 SL:123
8378  AD 02 20  LDA $2002 = FF                  A:10 X:00 Y:F0 P:25 SP:FA CYC: 50 SL:123
837B  10 FB     BPL $8378                       A:10 X:00 Y:F0 P:25 SP:FA CYC: 62 SL:123
8378  AD 02 20  LDA $2002 = FF                  A:10 X:00 Y:F0 P:25 SP:FA CYC: 71 SL:123
837B  10 FB     BPL $8378                       A:10 X:00 Y:F0 P:25 SP:FA CYC: 83 SL:123
8378  AD 02 20  LDA $2002 = FF                  A:10 X:00 Y:F0 P:25 SP:FA CYC: 92 SL:123
837B  10 FB     BPL $8378                       A:10 X:00 Y:F0 P:25 SP:FA CYC:104 SL:123
8378  AD 02 20  LDA $2002 = FF                  A:10 X:00 Y:F0 P:25 SP:FA CYC:113 SL:123
837B  10 FB     BPL $8378                       A:10 X:00 Y:F0 P:25 SP:FA CYC:125 SL:123
8378  AD 02 20  LDA $2002 = FF                  A:10 X:00 Y:F0 P:25 SP:FA CYC:134 SL:123
837B  10 FB     BPL $8378                       A:10 X:00 Y:F0 P:25 SP:FA CYC:146 SL:123
8378  AD 02 20  LDA $2002 = FF                  A:10 X:00 Y:F0 P:25 SP:FA CYC:155 SL:123
837B  10 FB     BPL $8378                       A:10 X:00 Y:F0 P:25 SP:FA CYC:167 SL:123
8378  AD 02 20  LDA $2002 = FF                  A:10 X:00 Y:F0 P:25 SP:FA CYC:176 SL:123
837B  10 FB     BPL $8378                       A:10 X:00 Y:F0 P:25 SP:FA CYC:188 SL:123
8378  AD 02 20  LDA $2002 = FF                  A:10 X:00 Y:F0 P:25 SP:FA CYC:197 SL:123
837B  10 FB     BPL $8378                       A:10 X:00 Y:F0 P:25 SP:FA CYC:209 SL:123
8378  AD 02 20  LDA $2002 = FF                  A:10 X:00 Y:F0 P:25 SP:FA CYC:218 SL:123
837B  10 FB     BPL $8378                       A:10 X:00 Y:F0 P:25 SP:FA CYC:230 SL:123
8378  AD 02 20  LDA $2002 = FF                  A:10 X:00 Y:F0 P:25 SP:FA CYC:239 SL:123
837B  10 FB     BPL $8378                       A:10 X:00 Y:F0 P:25 SP:FA CYC:251 SL:123
8378  AD 02 20  LDA $2002 = FF                  A:10 X:00 Y:F0 P:25 SP:FA CYC:260 SL:123
837B  10 FB     BPL $8378                       A:10 X:00 Y:F0 P:25 SP:FA CYC:272 SL:123
8378  AD 02 20  LDA $2002 = FF                  A:10 X:00 Y:F0 P:25 SP:FA CYC:281 SL:123
837B  10 FB     BPL $8378                       A:10 X:00 Y:F0 P:25 SP:FA CYC:293 SL:123
8378  AD 02 20  LDA $2002 = FF                  A:10 X:00 Y:F0 P:25 SP:FA CYC:302 SL:123
837B  10 FB     BPL $8378                       A:10 X:00 Y:F0 P:25 SP:FA CYC:314 SL:123
8378  AD 02 20  LDA $2002 = FF                  A:10 X:00 Y:F0 P:25 SP:FA CYC:323 SL:123
837B  10 FB     BPL $8378                       A:10 X:00 Y:F0 P:25 SP:FA CYC:335 SL:123
8378  AD 02 20  LDA $2002 = FF                  A:10 X:00 Y:F0 P:25 SP:FA CYC:  3 SL:124
837B  10 FB     BPL $8378                       A:10 X:00 Y:F0 P:25 SP:FA CYC: 15 SL:124
8378  AD 02 20  LDA $2002 = FF                  A:10 X:00 Y:F0 P:25 SP:FA CYC: 24 SL:124
837B  10 FB     BPL $8378                       A:10 X:00 Y:F0 P:25 SP:FA CYC: 36 SL:124
8378  AD 02 20  LDA $2002 = FF                  A:10 X:00 Y:F0 P:25 SP:FA CYC: 45 SL:124
837B  10 FB     BPL $8378                       A:10 X:00 Y:F0 P:25 SP:FA CYC: 57 SL:124
8378  AD 02 20  LDA $2002 = FF                  A:10 X:00 Y:F0 P:25 SP:FA CYC: 66 SL:124
837B  10 FB     BPL $8378                       A:10 X:00 Y:F0 P:25 SP:FA CYC: 78 SL:124
8378  AD 02 20  LDA $2002 = FF                  A:10 X:00 Y:F0 P:25 SP:FA CYC: 87 SL:124
837B  10 FB     BPL $8378                       A:10 X:00 Y:F0 P:25 SP:FA CYC: 99 SL:124
8378  AD 02 20  LDA $2002 = FF                  A:10 X:00 Y:F0 P:25 SP:FA CYC:108 SL:124
837B  10 FB     BPL $8378                       A:10 X:00 Y:F0 P:25 SP:FA CYC:120 SL:124
8378  AD 02 20  LDA $2002 = FF                  A:10 X:00 Y:F0 P:25 SP:FA CYC:129 SL:124
837B  10 FB     BPL $8378                       A:10 X:00 Y:F0 P:25 SP:FA CYC:141 SL:124
8378  AD 02 20  LDA $2002 = FF                  A:10 X:00 Y:F0 P:25 SP:FA CYC:150 SL:124
837B  10 FB     BPL $8378                       A:10 X:00 Y:F0 P:25 SP:FA CYC:162 SL:124
8378  AD 02 20  LDA $2002 = FF                  A:10 X:00 Y:F0 P:25 SP:FA CYC:171 SL:124
837B  10 FB     BPL $8378                       A:10 X:00 Y:F0 P:25 SP:FA CYC:183 SL:124
8378  AD 02 20  LDA $2002 = FF                  A:10 X:00 Y:F0 P:25 SP:FA CYC:192 SL:124
837B  10 FB     BPL $8378                       A:10 X:00 Y:F0 P:25 SP:FA CYC:204 SL:124
8378  AD 02 20  LDA $2002 = FF                  A:10 X:00 Y:F0 P:25 SP:FA CYC:213 SL:124
837B  10 FB     BPL $8378                       A:10 X:00 Y:F0 P:25 SP:FA CYC:225 SL:124
8378  AD 02 20  LDA $2002 = FF                  A:10 X:00 Y:F0 P:25 SP:FA CYC:234 SL:124
837B  10 FB     BPL $8378                       A:10 X:00 Y:F0 P:25 SP:FA CYC:246 SL:124
8378  AD 02 20  LDA $2002 = FF                  A:10 X:00 Y:F0 P:25 SP:FA CYC:255 SL:124
837B  10 FB     BPL $8378                       A:10 X:00 Y:F0 P:25 SP:FA CYC:267 SL:124
8378  AD 02 20  LDA $2002 = FF                  A:10 X:00 Y:F0 P:25 SP:FA CYC:276 SL:124
837B  10 FB     BPL $8378                       A:10 X:00 Y:F0 P:25 SP:FA CYC:288 SL:124
8378  AD 02 20  LDA $2002 = FF                  A:10 X:00 Y:F0 P:25 SP:FA CYC:297 SL:124
837B  10 FB     BPL $8378                       A:10 X:00 Y:F0 P:25 SP:FA CYC:309 SL:124
8378  AD 02 20  LDA $2002 = FF                  A:10 X:00 Y:F0 P:25 SP:FA CYC:318 SL:124
837B  10 FB     BPL $8378                       A:10 X:00 Y:F0 P:25 SP:FA CYC:330 SL:124
8378  AD 02 20  LDA $2002 = FF                  A:10 X:00 Y:F0 P:25 SP:FA CYC:339 SL:124
837B  10 FB     BPL $8378                       A:10 X:00 Y:F0 P:25 SP:FA CYC: 10 SL:125
8378  AD 02 20  LDA $2002 = FF                  A:10 X:00 Y:F0 P:25 SP:FA CYC: 19 SL:125
837B  10 FB     BPL $8378                       A:10 X:00 Y:F0 P:25 SP:FA CYC: 31 SL:125
8378  AD 02 20  LDA $2002 = FF                  A:10 X:00 Y:F0 P:25 SP:FA CYC: 40 SL:125
837B  10 FB     BPL $8378                       A:10 X:00 Y:F0 P:25 SP:FA CYC: 52 SL:125
8378  AD 02 20  LDA $2002 = FF                  A:10 X:00 Y:F0 P:25 SP:FA CYC: 61 SL:125
837B  10 FB     BPL $8378                       A:10 X:00 Y:F0 P:25 SP:FA CYC: 73 SL:125
8378  AD 02 20  LDA $2002 = FF                  A:10 X:00 Y:F0 P:25 SP:FA CYC: 82 SL:125
837B  10 FB     BPL $8378                       A:10 X:00 Y:F0 P:25 SP:FA CYC: 94 SL:125
8378  AD 02 20  LDA $2002 = FF                  A:10 X:00 Y:F0 P:25 SP:FA CYC:103 SL:125
837B  10 FB     BPL $8378                       A:10 X:00 Y:F0 P:25 SP:FA CYC:115 SL:125
8378  AD 02 20  LDA $2002 = FF                  A:10 X:00 Y:F0 P:25 SP:FA CYC:124 SL:125
837B  10 FB     BPL $8378                       A:10 X:00 Y:F0 P:25 SP:FA CYC:136 SL:125
8378  AD 02 20  LDA $2002 = FF                  A:10 X:00 Y:F0 P:25 SP:FA CYC:145 SL:125
837B  10 FB     BPL $8378                       A:10 X:00 Y:F0 P:25 SP:FA CYC:157 SL:125
8378  AD 02 20  LDA $2002 = FF                  A:10 X:00 Y:F0 P:25 SP:FA CYC:166 SL:125
837B  10 FB     BPL $8378                       A:10 X:00 Y:F0 P:25 SP:FA CYC:178 SL:125
8378  AD 02 20  LDA $2002 = FF                  A:10 X:00 Y:F0 P:25 SP:FA CYC:187 SL:125
837B  10 FB     BPL $8378                       A:10 X:00 Y:F0 P:25 SP:FA CYC:199 SL:125
8378  AD 02 20  LDA $2002 = FF                  A:10 X:00 Y:F0 P:25 SP:FA CYC:208 SL:125
837B  10 FB     BPL $8378                       A:10 X:00 Y:F0 P:25 SP:FA CYC:220 SL:125
8378  AD 02 20  LDA $2002 = FF                  A:10 X:00 Y:F0 P:25 SP:FA CYC:229 SL:125
837B  10 FB     BPL $8378                       A:10 X:00 Y:F0 P:25 SP:FA CYC:241 SL:125
8378  AD 02 20  LDA $2002 = FF                  A:10 X:00 Y:F0 P:25 SP:FA CYC:250 SL:125
837B  10 FB     BPL $8378                       A:10 X:00 Y:F0 P:25 SP:FA CYC:262 SL:125
8378  AD 02 20  LDA $2002 = FF                  A:10 X:00 Y:F0 P:25 SP:FA CYC:271 SL:125
837B  10 FB     BPL $8378                       A:10 X:00 Y:F0 P:25 SP:FA CYC:283 SL:125
8378  AD 02 20  LDA $2002 = FF                  A:10 X:00 Y:F0 P:25 SP:FA CYC:292 SL:125
837B  10 FB     BPL $8378                       A:10 X:00 Y:F0 P:25 SP:FA CYC:304 SL:125
8378  AD 02 20  LDA $2002 = FF                  A:10 X:00 Y:F0 P:25 SP:FA CYC:313 SL:125
837B  10 FB     BPL $8378                       A:10 X:00 Y:F0 P:25 SP:FA CYC:325 SL:125
8378  AD 02 20  LDA $2002 = FF                  A:10 X:00 Y:F0 P:25 SP:FA CYC:334 SL:125
837B  10 FB     BPL $8378                       A:10 X:00 Y:F0 P:25 SP:FA CYC:  5 SL:126
8378  AD 02 20  LDA $2002 = FF                  A:10 X:00 Y:F0 P:25 SP:FA CYC: 14 SL:126
837B  10 FB     BPL $8378                       A:10 X:00 Y:F0 P:25 SP:FA CYC: 26 SL:126
8378  AD 02 20  LDA $2002 = FF                  A:10 X:00 Y:F0 P:25 SP:FA CYC: 35 SL:126
837B  10 FB     BPL $8378                       A:10 X:00 Y:F0 P:25 SP:FA CYC: 47 SL:126
8378  AD 02 20  LDA $2002 = FF                  A:10 X:00 Y:F0 P:25 SP:FA CYC: 56 SL:126
837B  10 FB     BPL $8378                       A:10 X:00 Y:F0 P:25 SP:FA CYC: 68 SL:126
8378  AD 02 20  LDA $2002 = FF                  A:10 X:00 Y:F0 P:25 SP:FA CYC: 77 SL:126
837B  10 FB     BPL $8378                       A:10 X:00 Y:F0 P:25 SP:FA CYC: 89 SL:126
8378  AD 02 20  LDA $2002 = FF                  A:10 X:00 Y:F0 P:25 SP:FA CYC: 98 SL:126
837B  10 FB     BPL $8378                       A:10 X:00 Y:F0 P:25 SP:FA CYC:110 SL:126
8378  AD 02 20  LDA $2002 = FF                  A:10 X:00 Y:F0 P:25 SP:FA CYC:119 SL:126
837B  10 FB     BPL $8378                       A:10 X:00 Y:F0 P:25 SP:FA CYC:131 SL:126
8378  AD 02 20  LDA $2002 = FF                  A:10 X:00 Y:F0 P:25 SP:FA CYC:140 SL:126
837B  10 FB     BPL $8378                       A:10 X:00 Y:F0 P:25 SP:FA CYC:152 SL:126
8378  AD 02 20  LDA $2002 = FF                  A:10 X:00 Y:F0 P:25 SP:FA CYC:161 SL:126
837B  10 FB     BPL $8378                       A:10 X:00 Y:F0 P:25 SP:FA CYC:173 SL:126
8378  AD 02 20  LDA $2002 = FF                  A:10 X:00 Y:F0 P:25 SP:FA CYC:182 SL:126
837B  10 FB     BPL $8378                       A:10 X:00 Y:F0 P:25 SP:FA CYC:194 SL:126
8378  AD 02 20  LDA $2002 = FF                  A:10 X:00 Y:F0 P:25 SP:FA CYC:203 SL:126
837B  10 FB     BPL $8378                       A:10 X:00 Y:F0 P:25 SP:FA CYC:215 SL:126
8378  AD 02 20  LDA $2002 = FF                  A:10 X:00 Y:F0 P:25 SP:FA CYC:224 SL:126
837B  10 FB     BPL $8378                       A:10 X:00 Y:F0 P:25 SP:FA CYC:236 SL:126
8378  AD 02 20  LDA $2002 = FF                  A:10 X:00 Y:F0 P:25 SP:FA CYC:245 SL:126
837B  10 FB     BPL $8378                       A:10 X:00 Y:F0 P:25 SP:FA CYC:257 SL:126
8378  AD 02 20  LDA $2002 = FF                  A:10 X:00 Y:F0 P:25 SP:FA CYC:266 SL:126
837B  10 FB     BPL $8378                       A:10 X:00 Y:F0 P:25 SP:FA CYC:278 SL:126
8378  AD 02 20  LDA $2002 = FF                  A:10 X:00 Y:F0 P:25 SP:FA CYC:287 SL:126
837B  10 FB     BPL $8378                       A:10 X:00 Y:F0 P:25 SP:FA CYC:299 SL:126
8378  AD 02 20  LDA $2002 = FF                  A:10 X:00 Y:F0 P:25 SP:FA CYC:308 SL:126
837B  10 FB     BPL $8378                       A:10 X:00 Y:F0 P:25 SP:FA CYC:320 SL:126
8378  AD 02 20  LDA $2002 = FF                  A:10 X:00 Y:F0 P:25 SP:FA CYC:329 SL:126
837B  10 FB     BPL $8378                       A:10 X:00 Y:F0 P:25 SP:FA CYC:  0 SL:127
8378  AD 02 20  LDA $2002 = FF                  A:10 X:00 Y:F0 P:25 SP:FA CYC:  9 SL:127
837B  10 FB     BPL $8378                       A:10 X:00 Y:F0 P:25 SP:FA CYC: 21 SL:127
8378  AD 02 20  LDA $2002 = FF                  A:10 X:00 Y:F0 P:25 SP:FA CYC: 30 SL:127
837B  10 FB     BPL $8378                       A:10 X:00 Y:F0 P:25 SP:FA CYC: 42 SL:127
8378  AD 02 20  LDA $2002 = FF                  A:10 X:00 Y:F0 P:25 SP:FA CYC: 51 SL:127
837B  10 FB     BPL $8378                       A:10 X:00 Y:F0 P:25 SP:FA CYC: 63 SL:127
8378  AD 02 20  LDA $2002 = FF                  A:10 X:00 Y:F0 P:25 SP:FA CYC: 72 SL:127
837B  10 FB     BPL $8378                       A:10 X:00 Y:F0 P:25 SP:FA CYC: 84 SL:127
8378  AD 02 20  LDA $2002 = FF                  A:10 X:00 Y:F0 P:25 SP:FA CYC: 93 SL:127
837B  10 FB     BPL $8378                       A:10 X:00 Y:F0 P:25 SP:FA CYC:105 SL:127
8378  AD 02 20  LDA $2002 = FF                  A:10 X:00 Y:F0 P:25 SP:FA CYC:114 SL:127
837B  10 FB     BPL $8378                       A:10 X:00 Y:F0 P:25 SP:FA CYC:126 SL:127
8378  AD 02 20  LDA $2002 = FF                  A:10 X:00 Y:F0 P:25 SP:FA CYC:135 SL:127
837B  10 FB     BPL $8378                       A:10 X:00 Y:F0 P:25 SP:FA CYC:147 SL:127
8378  AD 02 20  LDA $2002 = FF                  A:10 X:00 Y:F0 P:25 SP:FA CYC:156 SL:127
837B  10 FB     BPL $8378                       A:10 X:00 Y:F0 P:25 SP:FA CYC:168 SL:127
8378  AD 02 20  LDA $2002 = FF                  A:10 X:00 Y:F0 P:25 SP:FA CYC:177 SL:127
837B  10 FB     BPL $8378                       A:10 X:00 Y:F0 P:25 SP:FA CYC:189 SL:127
8378  AD 02 20  LDA $2002 = FF                  A:10 X:00 Y:F0 P:25 SP:FA CYC:198 SL:127
837B  10 FB     BPL $8378                       A:10 X:00 Y:F0 P:25 SP:FA CYC:210 SL:127
8378  AD 02 20  LDA $2002 = FF                  A:10 X:00 Y:F0 P:25 SP:FA CYC:219 SL:127
837B  10 FB     BPL $8378                       A:10 X:00 Y:F0 P:25 SP:FA CYC:231 SL:127
8378  AD 02 20  LDA $2002 = FF                  A:10 X:00 Y:F0 P:25 SP:FA CYC:240 SL:127
837B  10 FB     BPL $8378                       A:10 X:00 Y:F0 P:25 SP:FA CYC:252 SL:127
8378  AD 02 20  LDA $2002 = FF                  A:10 X:00 Y:F0 P:25 SP:FA CYC:261 SL:127
837B  10 FB     BPL $8378                       A:10 X:00 Y:F0 P:25 SP:FA CYC:273 SL:127
8378  AD 02 20  LDA $2002 = FF                  A:10 X:00 Y:F0 P:25 SP:FA CYC:282 SL:127
837B  10 FB     BPL $8378                       A:10 X:00 Y:F0 P:25 SP:FA CYC:294 SL:127
8378  AD 02 20  LDA $2002 = FF                  A:10 X:00 Y:F0 P:25 SP:FA CYC:303 SL:127
837B  10 FB     BPL $8378                       A:10 X:00 Y:F0 P:25 SP:FA CYC:315 SL:127
8378  AD 02 20  LDA $2002 = FF                  A:10 X:00 Y:F0 P:25 SP:FA CYC:324 SL:127
837B  10 FB     BPL $8378                       A:10 X:00 Y:F0 P:25 SP:FA CYC:336 SL:127
8378  AD 02 20  LDA $2002 = FF                  A:10 X:00 Y:F0 P:25 SP:FA CYC:  4 SL:128
837B  10 FB     BPL $8378                       A:10 X:00 Y:F0 P:25 SP:FA CYC: 16 SL:128
8378  AD 02 20  LDA $2002 = FF                  A:10 X:00 Y:F0 P:25 SP:FA CYC: 25 SL:128
837B  10 FB     BPL $8378                       A:10 X:00 Y:F0 P:25 SP:FA CYC: 37 SL:128
8378  AD 02 20  LDA $2002 = FF                  A:10 X:00 Y:F0 P:25 SP:FA CYC: 46 SL:128
837B  10 FB     BPL $8378                       A:10 X:00 Y:F0 P:25 SP:FA CYC: 58 SL:128
8378  AD 02 20  LDA $2002 = FF                  A:10 X:00 Y:F0 P:25 SP:FA CYC: 67 SL:128
837B  10 FB     BPL $8378                       A:10 X:00 Y:F0 P:25 SP:FA CYC: 79 SL:128
8378  AD 02 20  LDA $2002 = FF                  A:10 X:00 Y:F0 P:25 SP:FA CYC: 88 SL:128
837B  10 FB     BPL $8378                       A:10 X:00 Y:F0 P:25 SP:FA CYC:100 SL:128
8378  AD 02 20  LDA $2002 = FF                  A:10 X:00 Y:F0 P:25 SP:FA CYC:109 SL:128
837B  10 FB     BPL $8378                       A:10 X:00 Y:F0 P:25 SP:FA CYC:121 SL:128
8378  AD 02 20  LDA $2002 = FF                  A:10 X:00 Y:F0 P:25 SP:FA CYC:130 SL:128
837B  10 FB     BPL $8378                       A:10 X:00 Y:F0 P:25 SP:FA CYC:142 SL:128
8378  AD 02 20  LDA $2002 = FF                  A:10 X:00 Y:F0 P:25 SP:FA CYC:151 SL:128
837B  10 FB     BPL $8378                       A:10 X:00 Y:F0 P:25 SP:FA CYC:163 SL:128
8378  AD 02 20  LDA $2002 = FF                  A:10 X:00 Y:F0 P:25 SP:FA CYC:172 SL:128
837B  10 FB     BPL $8378                       A:10 X:00 Y:F0 P:25 SP:FA CYC:184 SL:128
8378  AD 02 20  LDA $2002 = FF                  A:10 X:00 Y:F0 P:25 SP:FA CYC:193 SL:128
837B  10 FB     BPL $8378                       A:10 X:00 Y:F0 P:25 SP:FA CYC:205 SL:128
8378  AD 02 20  LDA $2002 = FF                  A:10 X:00 Y:F0 P:25 SP:FA CYC:214 SL:128
837B  10 FB     BPL $8378                       A:10 X:00 Y:F0 P:25 SP:FA CYC:226 SL:128
8378  AD 02 20  LDA $2002 = FF                  A:10 X:00 Y:F0 P:25 SP:FA CYC:235 SL:128
837B  10 FB     BPL $8378                       A:10 X:00 Y:F0 P:25 SP:FA CYC:247 SL:128
8378  AD 02 20  LDA $2002 = FF                  A:10 X:00 Y:F0 P:25 SP:FA CYC:256 SL:128
837B  10 FB     BPL $8378                       A:10 X:00 Y:F0 P:25 SP:FA CYC:268 SL:128
8378  AD 02 20  LDA $2002 = FF                  A:10 X:00 Y:F0 P:25 SP:FA CYC:277 SL:128
837B  10 FB     BPL $8378                       A:10 X:00 Y:F0 P:25 SP:FA CYC:289 SL:128
8378  AD 02 20  LDA $2002 = FF                  A:10 X:00 Y:F0 P:25 SP:FA CYC:298 SL:128
837B  10 FB     BPL $8378                       A:10 X:00 Y:F0 P:25 SP:FA CYC:310 SL:128
8378  AD 02 20  LDA $2002 = FF                  A:10 X:00 Y:F0 P:25 SP:FA CYC:319 SL:128
837B  10 FB     BPL $8378                       A:10 X:00 Y:F0 P:25 SP:FA CYC:331 SL:128
8378  AD 02 20  LDA $2002 = FF                  A:10 X:00 Y:F0 P:25 SP:FA CYC:340 SL:128
837B  10 FB     BPL $8378                       A:10 X:00 Y:F0 P:25 SP:FA CYC: 11 SL:129
8378  AD 02 20  LDA $2002 = FF                  A:10 X:00 Y:F0 P:25 SP:FA CYC: 20 SL:129
837B  10 FB     BPL $8378                       A:10 X:00 Y:F0 P:25 SP:FA CYC: 32 SL:129
8378  AD 02 20  LDA $2002 = FF                  A:10 X:00 Y:F0 P:25 SP:FA CYC: 41 SL:129
837B  10 FB     BPL $8378                       A:10 X:00 Y:F0 P:25 SP:FA CYC: 53 SL:129
8378  AD 02 20  LDA $2002 = FF                  A:10 X:00 Y:F0 P:25 SP:FA CYC: 62 SL:129
837B  10 FB     BPL $8378                       A:10 X:00 Y:F0 P:25 SP:FA CYC: 74 SL:129
8378  AD 02 20  LDA $2002 = FF                  A:10 X:00 Y:F0 P:25 SP:FA CYC: 83 SL:129
837B  10 FB     BPL $8378                       A:10 X:00 Y:F0 P:25 SP:FA CYC: 95 SL:129
8378  AD 02 20  LDA $2002 = FF                  A:10 X:00 Y:F0 P:25 SP:FA CYC:104 SL:129
837B  10 FB     BPL $8378                       A:10 X:00 Y:F0 P:25 SP:FA CYC:116 SL:129
8378  AD 02 20  LDA $2002 = FF                  A:10 X:00 Y:F0 P:25 SP:FA CYC:125 SL:129
837B  10 FB     BPL $8378                       A:10 X:00 Y:F0 P:25 SP:FA CYC:137 SL:129
8378  AD 02 20  LDA $2002 = FF                  A:10 X:00 Y:F0 P:25 SP:FA CYC:146 SL:129
837B  10 FB     BPL $8378                       A:10 X:00 Y:F0 P:25 SP:FA CYC:158 SL:129
8378  AD 02 20  LDA $2002 = FF                  A:10 X:00 Y:F0 P:25 SP:FA CYC:167 SL:129
837B  10 FB     BPL $8378                       A:10 X:00 Y:F0 P:25 SP:FA CYC:179 SL:129
8378  AD 02 20  LDA $2002 = FF                  A:10 X:00 Y:F0 P:25 SP:FA CYC:188 SL:129
837B  10 FB     BPL $8378                       A:10 X:00 Y:F0 P:25 SP:FA CYC:200 SL:129
8378  AD 02 20  LDA $2002 = FF                  A:10 X:00 Y:F0 P:25 SP:FA CYC:209 SL:129
837B  10 FB     BPL $8378                       A:10 X:00 Y:F0 P:25 SP:FA CYC:221 SL:129
8378  AD 02 20  LDA $2002 = FF                  A:10 X:00 Y:F0 P:25 SP:FA CYC:230 SL:129
837B  10 FB     BPL $8378                       A:10 X:00 Y:F0 P:25 SP:FA CYC:242 SL:129
8378  AD 02 20  LDA $2002 = FF                  A:10 X:00 Y:F0 P:25 SP:FA CYC:251 SL:129
837B  10 FB     BPL $8378                       A:10 X:00 Y:F0 P:25 SP:FA CYC:263 SL:129
8378  AD 02 20  LDA $2002 = FF                  A:10 X:00 Y:F0 P:25 SP:FA CYC:272 SL:129
837B  10 FB     BPL $8378                       A:10 X:00 Y:F0 P:25 SP:FA CYC:284 SL:129
8378  AD 02 20  LDA $2002 = FF                  A:10 X:00 Y:F0 P:25 SP:FA CYC:293 SL:129
837B  10 FB     BPL $8378                       A:10 X:00 Y:F0 P:25 SP:FA CYC:305 SL:129
8378  AD 02 20  LDA $2002 = FF                  A:10 X:00 Y:F0 P:25 SP:FA CYC:314 SL:129
837B  10 FB     BPL $8378                       A:10 X:00 Y:F0 P:25 SP:FA CYC:326 SL:129
8378  AD 02 20  LDA $2002 = FF                  A:10 X:00 Y:F0 P:25 SP:FA CYC:335 SL:129
837B  10 FB     BPL $8378                       A:10 X:00 Y:F0 P:25 SP:FA CYC:  6 SL:130
8378  AD 02 20  LDA $2002 = FF                  A:10 X:00 Y:F0 P:25 SP:FA CYC: 15 SL:130
837B  10 FB     BPL $8378                       A:10 X:00 Y:F0 P:25 SP:FA CYC: 27 SL:130
8378  AD 02 20  LDA $2002 = FF                  A:10 X:00 Y:F0 P:25 SP:FA CYC: 36 SL:130
837B  10 FB     BPL $8378                       A:10 X:00 Y:F0 P:25 SP:FA CYC: 48 SL:130
8378  AD 02 20  LDA $2002 = FF                  A:10 X:00 Y:F0 P:25 SP:FA CYC: 57 SL:130
837B  10 FB     BPL $8378                       A:10 X:00 Y:F0 P:25 SP:FA CYC: 69 SL:130
8378  AD 02 20  LDA $2002 = FF                  A:10 X:00 Y:F0 P:25 SP:FA CYC: 78 SL:130
837B  10 FB     BPL $8378                       A:10 X:00 Y:F0 P:25 SP:FA CYC: 90 SL:130
8378  AD 02 20  LDA $2002 = FF                  A:10 X:00 Y:F0 P:25 SP:FA CYC: 99 SL:130
837B  10 FB     BPL $8378                       A:10 X:00 Y:F0 P:25 SP:FA CYC:111 SL:130
8378  AD 02 20  LDA $2002 = FF                  A:10 X:00 Y:F0 P:25 SP:FA CYC:120 SL:130
837B  10 FB     BPL $8378                       A:10 X:00 Y:F0 P:25 SP:FA CYC:132 SL:130
8378  AD 02 20  LDA $2002 = FF                  A:10 X:00 Y:F0 P:25 SP:FA CYC:141 SL:130
837B  10 FB     BPL $8378                       A:10 X:00 Y:F0 P:25 SP:FA CYC:153 SL:130
8378  AD 02 20  LDA $2002 = FF                  A:10 X:00 Y:F0 P:25 SP:FA CYC:162 SL:130
837B  10 FB     BPL $8378                       A:10 X:00 Y:F0 P:25 SP:FA CYC:174 SL:130
8378  AD 02 20  LDA $2002 = FF                  A:10 X:00 Y:F0 P:25 SP:FA CYC:183 SL:130
837B  10 FB     BPL $8378                       A:10 X:00 Y:F0 P:25 SP:FA CYC:195 SL:130
8378  AD 02 20  LDA $2002 = FF                  A:10 X:00 Y:F0 P:25 SP:FA CYC:204 SL:130
837B  10 FB     BPL $8378                       A:10 X:00 Y:F0 P:25 SP:FA CYC:216 SL:130
8378  AD 02 20  LDA $2002 = FF                  A:10 X:00 Y:F0 P:25 SP:FA CYC:225 SL:130
837B  10 FB     BPL $8378                       A:10 X:00 Y:F0 P:25 SP:FA CYC:237 SL:130
8378  AD 02 20  LDA $2002 = FF                  A:10 X:00 Y:F0 P:25 SP:FA CYC:246 SL:130
837B  10 FB     BPL $8378                       A:10 X:00 Y:F0 P:25 SP:FA CYC:258 SL:130
8378  AD 02 20  LDA $2002 = FF                  A:10 X:00 Y:F0 P:25 SP:FA CYC:267 SL:130
837B  10 FB     BPL $8378                       A:10 X:00 Y:F0 P:25 SP:FA CYC:279 SL:130
8378  AD 02 20  LDA $2002 = FF                  A:10 X:00 Y:F0 P:25 SP:FA CYC:288 SL:130
837B  10 FB     BPL $8378                       A:10 X:00 Y:F0 P:25 SP:FA CYC:300 SL:130
8378  AD 02 20  LDA $2002 = FF                  A:10 X:00 Y:F0 P:25 SP:FA CYC:309 SL:130
837B  10 FB     BPL $8378                       A:10 X:00 Y:F0 P:25 SP:FA CYC:321 SL:130
8378  AD 02 20  LDA $2002 = FF                  A:10 X:00 Y:F0 P:25 SP:FA CYC:330 SL:130
837B  10 FB     BPL $8378                       A:10 X:00 Y:F0 P:25 SP:FA CYC:  1 SL:131
8378  AD 02 20  LDA $2002 = FF                  A:10 X:00 Y:F0 P:25 SP:FA CYC: 10 SL:131
837B  10 FB     BPL $8378                       A:10 X:00 Y:F0 P:25 SP:FA CYC: 22 SL:131
8378  AD 02 20  LDA $2002 = FF                  A:10 X:00 Y:F0 P:25 SP:FA CYC: 31 SL:131
837B  10 FB     BPL $8378                       A:10 X:00 Y:F0 P:25 SP:FA CYC: 43 SL:131
8378  AD 02 20  LDA $2002 = FF                  A:10 X:00 Y:F0 P:25 SP:FA CYC: 52 SL:131
837B  10 FB     BPL $8378                       A:10 X:00 Y:F0 P:25 SP:FA CYC: 64 SL:131
8378  AD 02 20  LDA $2002 = FF                  A:10 X:00 Y:F0 P:25 SP:FA CYC: 73 SL:131
837B  10 FB     BPL $8378                       A:10 X:00 Y:F0 P:25 SP:FA CYC: 85 SL:131
8378  AD 02 20  LDA $2002 = FF                  A:10 X:00 Y:F0 P:25 SP:FA CYC: 94 SL:131
837B  10 FB     BPL $8378                       A:10 X:00 Y:F0 P:25 SP:FA CYC:106 SL:131
8378  AD 02 20  LDA $2002 = FF                  A:10 X:00 Y:F0 P:25 SP:FA CYC:115 SL:131
837B  10 FB     BPL $8378                       A:10 X:00 Y:F0 P:25 SP:FA CYC:127 SL:131
8378  AD 02 20  LDA $2002 = FF                  A:10 X:00 Y:F0 P:25 SP:FA CYC:136 SL:131
837B  10 FB     BPL $8378                       A:10 X:00 Y:F0 P:25 SP:FA CYC:148 SL:131
8378  AD 02 20  LDA $2002 = FF                  A:10 X:00 Y:F0 P:25 SP:FA CYC:157 SL:131
837B  10 FB     BPL $8378                       A:10 X:00 Y:F0 P:25 SP:FA CYC:169 SL:131
8378  AD 02 20  LDA $2002 = FF                  A:10 X:00 Y:F0 P:25 SP:FA CYC:178 SL:131
837B  10 FB     BPL $8378                       A:10 X:00 Y:F0 P:25 SP:FA CYC:190 SL:131
8378  AD 02 20  LDA $2002 = FF                  A:10 X:00 Y:F0 P:25 SP:FA CYC:199 SL:131
837B  10 FB     BPL $8378                       A:10 X:00 Y:F0 P:25 SP:FA CYC:211 SL:131
8378  AD 02 20  LDA $2002 = FF                  A:10 X:00 Y:F0 P:25 SP:FA CYC:220 SL:131
837B  10 FB     BPL $8378                       A:10 X:00 Y:F0 P:25 SP:FA CYC:232 SL:131
8378  AD 02 20  LDA $2002 = FF                  A:10 X:00 Y:F0 P:25 SP:FA CYC:241 SL:131
837B  10 FB     BPL $8378                       A:10 X:00 Y:F0 P:25 SP:FA CYC:253 SL:131
8378  AD 02 20  LDA $2002 = FF                  A:10 X:00 Y:F0 P:25 SP:FA CYC:262 SL:131
837B  10 FB     BPL $8378                       A:10 X:00 Y:F0 P:25 SP:FA CYC:274 SL:131
8378  AD 02 20  LDA $2002 = FF                  A:10 X:00 Y:F0 P:25 SP:FA CYC:283 SL:131
837B  10 FB     BPL $8378                       A:10 X:00 Y:F0 P:25 SP:FA CYC:295 SL:131
8378  AD 02 20  LDA $2002 = FF                  A:10 X:00 Y:F0 P:25 SP:FA CYC:304 SL:131
837B  10 FB     BPL $8378                       A:10 X:00 Y:F0 P:25 SP:FA CYC:316 SL:131
8378  AD 02 20  LDA $2002 = FF                  A:10 X:00 Y:F0 P:25 SP:FA CYC:325 SL:131
837B  10 FB     BPL $8378                       A:10 X:00 Y:F0 P:25 SP:FA CYC:337 SL:131
8378  AD 02 20  LDA $2002 = FF                  A:10 X:00 Y:F0 P:25 SP:FA CYC:  5 SL:132
837B  10 FB     BPL $8378                       A:10 X:00 Y:F0 P:25 SP:FA CYC: 17 SL:132
8378  AD 02 20  LDA $2002 = FF                  A:10 X:00 Y:F0 P:25 SP:FA CYC: 26 SL:132
837B  10 FB     BPL $8378                       A:10 X:00 Y:F0 P:25 SP:FA CYC: 38 SL:132
8378  AD 02 20  LDA $2002 = FF                  A:10 X:00 Y:F0 P:25 SP:FA CYC: 47 SL:132
837B  10 FB     BPL $8378                       A:10 X:00 Y:F0 P:25 SP:FA CYC: 59 SL:132
8378  AD 02 20  LDA $2002 = FF                  A:10 X:00 Y:F0 P:25 SP:FA CYC: 68 SL:132
837B  10 FB     BPL $8378                       A:10 X:00 Y:F0 P:25 SP:FA CYC: 80 SL:132
8378  AD 02 20  LDA $2002 = FF                  A:10 X:00 Y:F0 P:25 SP:FA CYC: 89 SL:132
837B  10 FB     BPL $8378                       A:10 X:00 Y:F0 P:25 SP:FA CYC:101 SL:132
8378  AD 02 20  LDA $2002 = FF                  A:10 X:00 Y:F0 P:25 SP:FA CYC:110 SL:132
837B  10 FB     BPL $8378                       A:10 X:00 Y:F0 P:25 SP:FA CYC:122 SL:132
8378  AD 02 20  LDA $2002 = FF                  A:10 X:00 Y:F0 P:25 SP:FA CYC:131 SL:132
837B  10 FB     BPL $8378                       A:10 X:00 Y:F0 P:25 SP:FA CYC:143 SL:132
8378  AD 02 20  LDA $2002 = FF                  A:10 X:00 Y:F0 P:25 SP:FA CYC:152 SL:132
837B  10 FB     BPL $8378                       A:10 X:00 Y:F0 P:25 SP:FA CYC:164 SL:132
8378  AD 02 20  LDA $2002 = FF                  A:10 X:00 Y:F0 P:25 SP:FA CYC:173 SL:132
837B  10 FB     BPL $8378                       A:10 X:00 Y:F0 P:25 SP:FA CYC:185 SL:132
8378  AD 02 20  LDA $2002 = FF                  A:10 X:00 Y:F0 P:25 SP:FA CYC:194 SL:132
837B  10 FB     BPL $8378                       A:10 X:00 Y:F0 P:25 SP:FA CYC:206 SL:132
8378  AD 02 20  LDA $2002 = FF                  A:10 X:00 Y:F0 P:25 SP:FA CYC:215 SL:132
837B  10 FB     BPL $8378                       A:10 X:00 Y:F0 P:25 SP:FA CYC:227 SL:132
8378  AD 02 20  LDA $2002 = FF                  A:10 X:00 Y:F0 P:25 SP:FA CYC:236 SL:132
837B  10 FB     BPL $8378                       A:10 X:00 Y:F0 P:25 SP:FA CYC:248 SL:132
8378  AD 02 20  LDA $2002 = FF                  A:10 X:00 Y:F0 P:25 SP:FA CYC:257 SL:132
837B  10 FB     BPL $8378                       A:10 X:00 Y:F0 P:25 SP:FA CYC:269 SL:132
8378  AD 02 20  LDA $2002 = FF                  A:10 X:00 Y:F0 P:25 SP:FA CYC:278 SL:132
837B  10 FB     BPL $8378                       A:10 X:00 Y:F0 P:25 SP:FA CYC:290 SL:132
8378  AD 02 20  LDA $2002 = FF                  A:10 X:00 Y:F0 P:25 SP:FA CYC:299 SL:132
837B  10 FB     BPL $8378                       A:10 X:00 Y:F0 P:25 SP:FA CYC:311 SL:132
8378  AD 02 20  LDA $2002 = FF                  A:10 X:00 Y:F0 P:25 SP:FA CYC:320 SL:132
837B  10 FB     BPL $8378                       A:10 X:00 Y:F0 P:25 SP:FA CYC:332 SL:132
8378  AD 02 20  LDA $2002 = FF                  A:10 X:00 Y:F0 P:25 SP:FA CYC:  0 SL:133
837B  10 FB     BPL $8378                       A:10 X:00 Y:F0 P:25 SP:FA CYC: 12 SL:133
8378  AD 02 20  LDA $2002 = FF                  A:10 X:00 Y:F0 P:25 SP:FA CYC: 21 SL:133
837B  10 FB     BPL $8378                       A:10 X:00 Y:F0 P:25 SP:FA CYC: 33 SL:133
8378  AD 02 20  LDA $2002 = FF                  A:10 X:00 Y:F0 P:25 SP:FA CYC: 42 SL:133
837B  10 FB     BPL $8378                       A:10 X:00 Y:F0 P:25 SP:FA CYC: 54 SL:133
8378  AD 02 20  LDA $2002 = FF                  A:10 X:00 Y:F0 P:25 SP:FA CYC: 63 SL:133
837B  10 FB     BPL $8378                       A:10 X:00 Y:F0 P:25 SP:FA CYC: 75 SL:133
8378  AD 02 20  LDA $2002 = FF                  A:10 X:00 Y:F0 P:25 SP:FA CYC: 84 SL:133
837B  10 FB     BPL $8378                       A:10 X:00 Y:F0 P:25 SP:FA CYC: 96 SL:133
8378  AD 02 20  LDA $2002 = FF                  A:10 X:00 Y:F0 P:25 SP:FA CYC:105 SL:133
837B  10 FB     BPL $8378                       A:10 X:00 Y:F0 P:25 SP:FA CYC:117 SL:133
8378  AD 02 20  LDA $2002 = FF                  A:10 X:00 Y:F0 P:25 SP:FA CYC:126 SL:133
837B  10 FB     BPL $8378                       A:10 X:00 Y:F0 P:25 SP:FA CYC:138 SL:133
8378  AD 02 20  LDA $2002 = FF                  A:10 X:00 Y:F0 P:25 SP:FA CYC:147 SL:133
837B  10 FB     BPL $8378                       A:10 X:00 Y:F0 P:25 SP:FA CYC:159 SL:133
8378  AD 02 20  LDA $2002 = FF                  A:10 X:00 Y:F0 P:25 SP:FA CYC:168 SL:133
837B  10 FB     BPL $8378                       A:10 X:00 Y:F0 P:25 SP:FA CYC:180 SL:133
8378  AD 02 20  LDA $2002 = FF                  A:10 X:00 Y:F0 P:25 SP:FA CYC:189 SL:133
837B  10 FB     BPL $8378                       A:10 X:00 Y:F0 P:25 SP:FA CYC:201 SL:133
8378  AD 02 20  LDA $2002 = FF                  A:10 X:00 Y:F0 P:25 SP:FA CYC:210 SL:133
837B  10 FB     BPL $8378                       A:10 X:00 Y:F0 P:25 SP:FA CYC:222 SL:133
8378  AD 02 20  LDA $2002 = FF                  A:10 X:00 Y:F0 P:25 SP:FA CYC:231 SL:133
837B  10 FB     BPL $8378                       A:10 X:00 Y:F0 P:25 SP:FA CYC:243 SL:133
8378  AD 02 20  LDA $2002 = FF                  A:10 X:00 Y:F0 P:25 SP:FA CYC:252 SL:133
837B  10 FB     BPL $8378                       A:10 X:00 Y:F0 P:25 SP:FA CYC:264 SL:133
8378  AD 02 20  LDA $2002 = FF                  A:10 X:00 Y:F0 P:25 SP:FA CYC:273 SL:133
837B  10 FB     BPL $8378                       A:10 X:00 Y:F0 P:25 SP:FA CYC:285 SL:133
8378  AD 02 20  LDA $2002 = FF                  A:10 X:00 Y:F0 P:25 SP:FA CYC:294 SL:133
837B  10 FB     BPL $8378                       A:10 X:00 Y:F0 P:25 SP:FA CYC:306 SL:133
8378  AD 02 20  LDA $2002 = FF                  A:10 X:00 Y:F0 P:25 SP:FA CYC:315 SL:133
837B  10 FB     BPL $8378                       A:10 X:00 Y:F0 P:25 SP:FA CYC:327 SL:133
8378  AD 02 20  LDA $2002 = FF                  A:10 X:00 Y:F0 P:25 SP:FA CYC:336 SL:133
837B  10 FB     BPL $8378                       A:10 X:00 Y:F0 P:25 SP:FA CYC:  7 SL:134
8378  AD 02 20  LDA $2002 = FF                  A:10 X:00 Y:F0 P:25 SP:FA CYC: 16 SL:134
837B  10 FB     BPL $8378                       A:10 X:00 Y:F0 P:25 SP:FA CYC: 28 SL:134
8378  AD 02 20  LDA $2002 = FF                  A:10 X:00 Y:F0 P:25 SP:FA CYC: 37 SL:134
837B  10 FB     BPL $8378                       A:10 X:00 Y:F0 P:25 SP:FA CYC: 49 SL:134
8378  AD 02 20  LDA $2002 = FF                  A:10 X:00 Y:F0 P:25 SP:FA CYC: 58 SL:134
837B  10 FB     BPL $8378                       A:10 X:00 Y:F0 P:25 SP:FA CYC: 70 SL:134
8378  AD 02 20  LDA $2002 = FF                  A:10 X:00 Y:F0 P:25 SP:FA CYC: 79 SL:134
837B  10 FB     BPL $8378                       A:10 X:00 Y:F0 P:25 SP:FA CYC: 91 SL:134
8378  AD 02 20  LDA $2002 = FF                  A:10 X:00 Y:F0 P:25 SP:FA CYC:100 SL:134
837B  10 FB     BPL $8378                       A:10 X:00 Y:F0 P:25 SP:FA CYC:112 SL:134
8378  AD 02 20  LDA $2002 = FF                  A:10 X:00 Y:F0 P:25 SP:FA CYC:121 SL:134
837B  10 FB     BPL $8378                       A:10 X:00 Y:F0 P:25 SP:FA CYC:133 SL:134
8378  AD 02 20  LDA $2002 = FF                  A:10 X:00 Y:F0 P:25 SP:FA CYC:142 SL:134
837B  10 FB     BPL $8378                       A:10 X:00 Y:F0 P:25 SP:FA CYC:154 SL:134
8378  AD 02 20  LDA $2002 = FF                  A:10 X:00 Y:F0 P:25 SP:FA CYC:163 SL:134
837B  10 FB     BPL $8378                       A:10 X:00 Y:F0 P:25 SP:FA CYC:175 SL:134
8378  AD 02 20  LDA $2002 = FF                  A:10 X:00 Y:F0 P:25 SP:FA CYC:184 SL:134
837B  10 FB     BPL $8378                       A:10 X:00 Y:F0 P:25 SP:FA CYC:196 SL:134
8378  AD 02 20  LDA $2002 = FF                  A:10 X:00 Y:F0 P:25 SP:FA CYC:205 SL:134
837B  10 FB     BPL $8378                       A:10 X:00 Y:F0 P:25 SP:FA CYC:217 SL:134
8378  AD 02 20  LDA $2002 = FF                  A:10 X:00 Y:F0 P:25 SP:FA CYC:226 SL:134
837B  10 FB     BPL $8378                       A:10 X:00 Y:F0 P:25 SP:FA CYC:238 SL:134
8378  AD 02 20  LDA $2002 = FF                  A:10 X:00 Y:F0 P:25 SP:FA CYC:247 SL:134
837B  10 FB     BPL $8378                       A:10 X:00 Y:F0 P:25 SP:FA CYC:259 SL:134
8378  AD 02 20  LDA $2002 = FF                  A:10 X:00 Y:F0 P:25 SP:FA CYC:268 SL:134
837B  10 FB     BPL $8378                       A:10 X:00 Y:F0 P:25 SP:FA CYC:280 SL:134
8378  AD 02 20  LDA $2002 = FF                  A:10 X:00 Y:F0 P:25 SP:FA CYC:289 SL:134
837B  10 FB     BPL $8378                       A:10 X:00 Y:F0 P:25 SP:FA CYC:301 SL:134
8378  AD 02 20  LDA $2002 = FF                  A:10 X:00 Y:F0 P:25 SP:FA CYC:310 SL:134
837B  10 FB     BPL $8378                       A:10 X:00 Y:F0 P:25 SP:FA CYC:322 SL:134
8378  AD 02 20  LDA $2002 = FF                  A:10 X:00 Y:F0 P:25 SP:FA CYC:331 SL:134
837B  10 FB     BPL $8378                       A:10 X:00 Y:F0 P:25 SP:FA CYC:  2 SL:135
8378  AD 02 20  LDA $2002 = FF                  A:10 X:00 Y:F0 P:25 SP:FA CYC: 11 SL:135
837B  10 FB     BPL $8378                       A:10 X:00 Y:F0 P:25 SP:FA CYC: 23 SL:135
8378  AD 02 20  LDA $2002 = FF                  A:10 X:00 Y:F0 P:25 SP:FA CYC: 32 SL:135
837B  10 FB     BPL $8378                       A:10 X:00 Y:F0 P:25 SP:FA CYC: 44 SL:135
8378  AD 02 20  LDA $2002 = FF                  A:10 X:00 Y:F0 P:25 SP:FA CYC: 53 SL:135
837B  10 FB     BPL $8378                       A:10 X:00 Y:F0 P:25 SP:FA CYC: 65 SL:135
8378  AD 02 20  LDA $2002 = FF                  A:10 X:00 Y:F0 P:25 SP:FA CYC: 74 SL:135
837B  10 FB     BPL $8378                       A:10 X:00 Y:F0 P:25 SP:FA CYC: 86 SL:135
8378  AD 02 20  LDA $2002 = FF                  A:10 X:00 Y:F0 P:25 SP:FA CYC: 95 SL:135
837B  10 FB     BPL $8378                       A:10 X:00 Y:F0 P:25 SP:FA CYC:107 SL:135
8378  AD 02 20  LDA $2002 = FF                  A:10 X:00 Y:F0 P:25 SP:FA CYC:116 SL:135
837B  10 FB     BPL $8378                       A:10 X:00 Y:F0 P:25 SP:FA CYC:128 SL:135
8378  AD 02 20  LDA $2002 = FF                  A:10 X:00 Y:F0 P:25 SP:FA CYC:137 SL:135
837B  10 FB     BPL $8378                       A:10 X:00 Y:F0 P:25 SP:FA CYC:149 SL:135
8378  AD 02 20  LDA $2002 = FF                  A:10 X:00 Y:F0 P:25 SP:FA CYC:158 SL:135
837B  10 FB     BPL $8378                       A:10 X:00 Y:F0 P:25 SP:FA CYC:170 SL:135
8378  AD 02 20  LDA $2002 = FF                  A:10 X:00 Y:F0 P:25 SP:FA CYC:179 SL:135
837B  10 FB     BPL $8378                       A:10 X:00 Y:F0 P:25 SP:FA CYC:191 SL:135
8378  AD 02 20  LDA $2002 = FF                  A:10 X:00 Y:F0 P:25 SP:FA CYC:200 SL:135
837B  10 FB     BPL $8378                       A:10 X:00 Y:F0 P:25 SP:FA CYC:212 SL:135
8378  AD 02 20  LDA $2002 = FF                  A:10 X:00 Y:F0 P:25 SP:FA CYC:221 SL:135
837B  10 FB     BPL $8378                       A:10 X:00 Y:F0 P:25 SP:FA CYC:233 SL:135
8378  AD 02 20  LDA $2002 = FF                  A:10 X:00 Y:F0 P:25 SP:FA CYC:242 SL:135
837B  10 FB     BPL $8378                       A:10 X:00 Y:F0 P:25 SP:FA CYC:254 SL:135
8378  AD 02 20  LDA $2002 = FF                  A:10 X:00 Y:F0 P:25 SP:FA CYC:263 SL:135
837B  10 FB     BPL $8378                       A:10 X:00 Y:F0 P:25 SP:FA CYC:275 SL:135
8378  AD 02 20  LDA $2002 = FF                  A:10 X:00 Y:F0 P:25 SP:FA CYC:284 SL:135
837B  10 FB     BPL $8378                       A:10 X:00 Y:F0 P:25 SP:FA CYC:296 SL:135
8378  AD 02 20  LDA $2002 = FF                  A:10 X:00 Y:F0 P:25 SP:FA CYC:305 SL:135
837B  10 FB     BPL $8378                       A:10 X:00 Y:F0 P:25 SP:FA CYC:317 SL:135
8378  AD 02 20  LDA $2002 = FF                  A:10 X:00 Y:F0 P:25 SP:FA CYC:326 SL:135
837B  10 FB     BPL $8378                       A:10 X:00 Y:F0 P:25 SP:FA CYC:338 SL:135
8378  AD 02 20  LDA $2002 = FF                  A:10 X:00 Y:F0 P:25 SP:FA CYC:  6 SL:136
837B  10 FB     BPL $8378                       A:10 X:00 Y:F0 P:25 SP:FA CYC: 18 SL:136
8378  AD 02 20  LDA $2002 = FF                  A:10 X:00 Y:F0 P:25 SP:FA CYC: 27 SL:136
837B  10 FB     BPL $8378                       A:10 X:00 Y:F0 P:25 SP:FA CYC: 39 SL:136
8378  AD 02 20  LDA $2002 = FF                  A:10 X:00 Y:F0 P:25 SP:FA CYC: 48 SL:136
837B  10 FB     BPL $8378                       A:10 X:00 Y:F0 P:25 SP:FA CYC: 60 SL:136
8378  AD 02 20  LDA $2002 = FF                  A:10 X:00 Y:F0 P:25 SP:FA CYC: 69 SL:136
837B  10 FB     BPL $8378                       A:10 X:00 Y:F0 P:25 SP:FA CYC: 81 SL:136
8378  AD 02 20  LDA $2002 = FF                  A:10 X:00 Y:F0 P:25 SP:FA CYC: 90 SL:136
837B  10 FB     BPL $8378                       A:10 X:00 Y:F0 P:25 SP:FA CYC:102 SL:136
8378  AD 02 20  LDA $2002 = FF                  A:10 X:00 Y:F0 P:25 SP:FA CYC:111 SL:136
837B  10 FB     BPL $8378                       A:10 X:00 Y:F0 P:25 SP:FA CYC:123 SL:136
8378  AD 02 20  LDA $2002 = FF                  A:10 X:00 Y:F0 P:25 SP:FA CYC:132 SL:136
837B  10 FB     BPL $8378                       A:10 X:00 Y:F0 P:25 SP:FA CYC:144 SL:136
8378  AD 02 20  LDA $2002 = FF                  A:10 X:00 Y:F0 P:25 SP:FA CYC:153 SL:136
837B  10 FB     BPL $8378                       A:10 X:00 Y:F0 P:25 SP:FA CYC:165 SL:136
8378  AD 02 20  LDA $2002 = FF                  A:10 X:00 Y:F0 P:25 SP:FA CYC:174 SL:136
837B  10 FB     BPL $8378                       A:10 X:00 Y:F0 P:25 SP:FA CYC:186 SL:136
8378  AD 02 20  LDA $2002 = FF                  A:10 X:00 Y:F0 P:25 SP:FA CYC:195 SL:136
837B  10 FB     BPL $8378                       A:10 X:00 Y:F0 P:25 SP:FA CYC:207 SL:136
8378  AD 02 20  LDA $2002 = FF                  A:10 X:00 Y:F0 P:25 SP:FA CYC:216 SL:136
837B  10 FB     BPL $8378                       A:10 X:00 Y:F0 P:25 SP:FA CYC:228 SL:136
8378  AD 02 20  LDA $2002 = FF                  A:10 X:00 Y:F0 P:25 SP:FA CYC:237 SL:136
837B  10 FB     BPL $8378                       A:10 X:00 Y:F0 P:25 SP:FA CYC:249 SL:136
8378  AD 02 20  LDA $2002 = FF                  A:10 X:00 Y:F0 P:25 SP:FA CYC:258 SL:136
837B  10 FB     BPL $8378                       A:10 X:00 Y:F0 P:25 SP:FA CYC:270 SL:136
8378  AD 02 20  LDA $2002 = FF                  A:10 X:00 Y:F0 P:25 SP:FA CYC:279 SL:136
837B  10 FB     BPL $8378                       A:10 X:00 Y:F0 P:25 SP:FA CYC:291 SL:136
8378  AD 02 20  LDA $2002 = FF                  A:10 X:00 Y:F0 P:25 SP:FA CYC:300 SL:136
837B  10 FB     BPL $8378                       A:10 X:00 Y:F0 P:25 SP:FA CYC:312 SL:136
8378  AD 02 20  LDA $2002 = FF                  A:10 X:00 Y:F0 P:25 SP:FA CYC:321 SL:136
837B  10 FB     BPL $8378                       A:10 X:00 Y:F0 P:25 SP:FA CYC:333 SL:136
8378  AD 02 20  LDA $2002 = FF                  A:10 X:00 Y:F0 P:25 SP:FA CYC:  1 SL:137
837B  10 FB     BPL $8378                       A:10 X:00 Y:F0 P:25 SP:FA CYC: 13 SL:137
8378  AD 02 20  LDA $2002 = FF                  A:10 X:00 Y:F0 P:25 SP:FA CYC: 22 SL:137
837B  10 FB     BPL $8378                       A:10 X:00 Y:F0 P:25 SP:FA CYC: 34 SL:137
8378  AD 02 20  LDA $2002 = FF                  A:10 X:00 Y:F0 P:25 SP:FA CYC: 43 SL:137
837B  10 FB     BPL $8378                       A:10 X:00 Y:F0 P:25 SP:FA CYC: 55 SL:137
8378  AD 02 20  LDA $2002 = FF                  A:10 X:00 Y:F0 P:25 SP:FA CYC: 64 SL:137
837B  10 FB     BPL $8378                       A:10 X:00 Y:F0 P:25 SP:FA CYC: 76 SL:137
8378  AD 02 20  LDA $2002 = FF                  A:10 X:00 Y:F0 P:25 SP:FA CYC: 85 SL:137
837B  10 FB     BPL $8378                       A:10 X:00 Y:F0 P:25 SP:FA CYC: 97 SL:137
8378  AD 02 20  LDA $2002 = FF                  A:10 X:00 Y:F0 P:25 SP:FA CYC:106 SL:137
837B  10 FB     BPL $8378                       A:10 X:00 Y:F0 P:25 SP:FA CYC:118 SL:137
8378  AD 02 20  LDA $2002 = FF                  A:10 X:00 Y:F0 P:25 SP:FA CYC:127 SL:137
837B  10 FB     BPL $8378                       A:10 X:00 Y:F0 P:25 SP:FA CYC:139 SL:137
8378  AD 02 20  LDA $2002 = FF                  A:10 X:00 Y:F0 P:25 SP:FA CYC:148 SL:137
837B  10 FB     BPL $8378                       A:10 X:00 Y:F0 P:25 SP:FA CYC:160 SL:137
8378  AD 02 20  LDA $2002 = FF                  A:10 X:00 Y:F0 P:25 SP:FA CYC:169 SL:137
837B  10 FB     BPL $8378                       A:10 X:00 Y:F0 P:25 SP:FA CYC:181 SL:137
8378  AD 02 20  LDA $2002 = FF                  A:10 X:00 Y:F0 P:25 SP:FA CYC:190 SL:137
837B  10 FB     BPL $8378                       A:10 X:00 Y:F0 P:25 SP:FA CYC:202 SL:137
8378  AD 02 20  LDA $2002 = FF                  A:10 X:00 Y:F0 P:25 SP:FA CYC:211 SL:137
837B  10 FB     BPL $8378                       A:10 X:00 Y:F0 P:25 SP:FA CYC:223 SL:137
8378  AD 02 20  LDA $2002 = FF                  A:10 X:00 Y:F0 P:25 SP:FA CYC:232 SL:137
837B  10 FB     BPL $8378                       A:10 X:00 Y:F0 P:25 SP:FA CYC:244 SL:137
8378  AD 02 20  LDA $2002 = FF                  A:10 X:00 Y:F0 P:25 SP:FA CYC:253 SL:137
837B  10 FB     BPL $8378                       A:10 X:00 Y:F0 P:25 SP:FA CYC:265 SL:137
8378  AD 02 20  LDA $2002 = FF                  A:10 X:00 Y:F0 P:25 SP:FA CYC:274 SL:137
837B  10 FB     BPL $8378                       A:10 X:00 Y:F0 P:25 SP:FA CYC:286 SL:137
8378  AD 02 20  LDA $2002 = FF                  A:10 X:00 Y:F0 P:25 SP:FA CYC:295 SL:137
837B  10 FB     BPL $8378                       A:10 X:00 Y:F0 P:25 SP:FA CYC:307 SL:137
8378  AD 02 20  LDA $2002 = FF                  A:10 X:00 Y:F0 P:25 SP:FA CYC:316 SL:137
837B  10 FB     BPL $8378                       A:10 X:00 Y:F0 P:25 SP:FA CYC:328 SL:137
8378  AD 02 20  LDA $2002 = FF                  A:10 X:00 Y:F0 P:25 SP:FA CYC:337 SL:137
837B  10 FB     BPL $8378                       A:10 X:00 Y:F0 P:25 SP:FA CYC:  8 SL:138
8378  AD 02 20  LDA $2002 = FF                  A:10 X:00 Y:F0 P:25 SP:FA CYC: 17 SL:138
837B  10 FB     BPL $8378                       A:10 X:00 Y:F0 P:25 SP:FA CYC: 29 SL:138
8378  AD 02 20  LDA $2002 = FF                  A:10 X:00 Y:F0 P:25 SP:FA CYC: 38 SL:138
837B  10 FB     BPL $8378                       A:10 X:00 Y:F0 P:25 SP:FA CYC: 50 SL:138
8378  AD 02 20  LDA $2002 = FF                  A:10 X:00 Y:F0 P:25 SP:FA CYC: 59 SL:138
837B  10 FB     BPL $8378                       A:10 X:00 Y:F0 P:25 SP:FA CYC: 71 SL:138
8378  AD 02 20  LDA $2002 = FF                  A:10 X:00 Y:F0 P:25 SP:FA CYC: 80 SL:138
837B  10 FB     BPL $8378                       A:10 X:00 Y:F0 P:25 SP:FA CYC: 92 SL:138
8378  AD 02 20  LDA $2002 = FF                  A:10 X:00 Y:F0 P:25 SP:FA CYC:101 SL:138
837B  10 FB     BPL $8378                       A:10 X:00 Y:F0 P:25 SP:FA CYC:113 SL:138
8378  AD 02 20  LDA $2002 = FF                  A:10 X:00 Y:F0 P:25 SP:FA CYC:122 SL:138
837B  10 FB     BPL $8378                       A:10 X:00 Y:F0 P:25 SP:FA CYC:134 SL:138
8378  AD 02 20  LDA $2002 = FF                  A:10 X:00 Y:F0 P:25 SP:FA CYC:143 SL:138
837B  10 FB     BPL $8378                       A:10 X:00 Y:F0 P:25 SP:FA CYC:155 SL:138
8378  AD 02 20  LDA $2002 = FF                  A:10 X:00 Y:F0 P:25 SP:FA CYC:164 SL:138
837B  10 FB     BPL $8378                       A:10 X:00 Y:F0 P:25 SP:FA CYC:176 SL:138
8378  AD 02 20  LDA $2002 = FF                  A:10 X:00 Y:F0 P:25 SP:FA CYC:185 SL:138
837B  10 FB     BPL $8378                       A:10 X:00 Y:F0 P:25 SP:FA CYC:197 SL:138
8378  AD 02 20  LDA $2002 = FF                  A:10 X:00 Y:F0 P:25 SP:FA CYC:206 SL:138
837B  10 FB     BPL $8378                       A:10 X:00 Y:F0 P:25 SP:FA CYC:218 SL:138
8378  AD 02 20  LDA $2002 = FF                  A:10 X:00 Y:F0 P:25 SP:FA CYC:227 SL:138
837B  10 FB     BPL $8378                       A:10 X:00 Y:F0 P:25 SP:FA CYC:239 SL:138
8378  AD 02 20  LDA $2002 = FF                  A:10 X:00 Y:F0 P:25 SP:FA CYC:248 SL:138
837B  10 FB     BPL $8378                       A:10 X:00 Y:F0 P:25 SP:FA CYC:260 SL:138
8378  AD 02 20  LDA $2002 = FF                  A:10 X:00 Y:F0 P:25 SP:FA CYC:269 SL:138
837B  10 FB     BPL $8378                       A:10 X:00 Y:F0 P:25 SP:FA CYC:281 SL:138
8378  AD 02 20  LDA $2002 = FF                  A:10 X:00 Y:F0 P:25 SP:FA CYC:290 SL:138
837B  10 FB     BPL $8378                       A:10 X:00 Y:F0 P:25 SP:FA CYC:302 SL:138
8378  AD 02 20  LDA $2002 = FF                  A:10 X:00 Y:F0 P:25 SP:FA CYC:311 SL:138
837B  10 FB     BPL $8378                       A:10 X:00 Y:F0 P:25 SP:FA CYC:323 SL:138
8378  AD 02 20  LDA $2002 = FF                  A:10 X:00 Y:F0 P:25 SP:FA CYC:332 SL:138
837B  10 FB     BPL $8378                       A:10 X:00 Y:F0 P:25 SP:FA CYC:  3 SL:139
8378  AD 02 20  LDA $2002 = FF                  A:10 X:00 Y:F0 P:25 SP:FA CYC: 12 SL:139
837B  10 FB     BPL $8378                       A:10 X:00 Y:F0 P:25 SP:FA CYC: 24 SL:139
8378  AD 02 20  LDA $2002 = FF                  A:10 X:00 Y:F0 P:25 SP:FA CYC: 33 SL:139
837B  10 FB     BPL $8378                       A:10 X:00 Y:F0 P:25 SP:FA CYC: 45 SL:139
8378  AD 02 20  LDA $2002 = FF                  A:10 X:00 Y:F0 P:25 SP:FA CYC: 54 SL:139
837B  10 FB     BPL $8378                       A:10 X:00 Y:F0 P:25 SP:FA CYC: 66 SL:139
8378  AD 02 20  LDA $2002 = FF                  A:10 X:00 Y:F0 P:25 SP:FA CYC: 75 SL:139
837B  10 FB     BPL $8378                       A:10 X:00 Y:F0 P:25 SP:FA CYC: 87 SL:139
8378  AD 02 20  LDA $2002 = FF                  A:10 X:00 Y:F0 P:25 SP:FA CYC: 96 SL:139
837B  10 FB     BPL $8378                       A:10 X:00 Y:F0 P:25 SP:FA CYC:108 SL:139
8378  AD 02 20  LDA $2002 = FF                  A:10 X:00 Y:F0 P:25 SP:FA CYC:117 SL:139
837B  10 FB     BPL $8378                       A:10 X:00 Y:F0 P:25 SP:FA CYC:129 SL:139
8378  AD 02 20  LDA $2002 = FF                  A:10 X:00 Y:F0 P:25 SP:FA CYC:138 SL:139
837B  10 FB     BPL $8378                       A:10 X:00 Y:F0 P:25 SP:FA CYC:150 SL:139
8378  AD 02 20  LDA $2002 = FF                  A:10 X:00 Y:F0 P:25 SP:FA CYC:159 SL:139
837B  10 FB     BPL $8378                       A:10 X:00 Y:F0 P:25 SP:FA CYC:171 SL:139
8378  AD 02 20  LDA $2002 = FF                  A:10 X:00 Y:F0 P:25 SP:FA CYC:180 SL:139
837B  10 FB     BPL $8378                       A:10 X:00 Y:F0 P:25 SP:FA CYC:192 SL:139
8378  AD 02 20  LDA $2002 = FF                  A:10 X:00 Y:F0 P:25 SP:FA CYC:201 SL:139
837B  10 FB     BPL $8378                       A:10 X:00 Y:F0 P:25 SP:FA CYC:213 SL:139
8378  AD 02 20  LDA $2002 = FF                  A:10 X:00 Y:F0 P:25 SP:FA CYC:222 SL:139
837B  10 FB     BPL $8378                       A:10 X:00 Y:F0 P:25 SP:FA CYC:234 SL:139
8378  AD 02 20  LDA $2002 = FF                  A:10 X:00 Y:F0 P:25 SP:FA CYC:243 SL:139
837B  10 FB     BPL $8378                       A:10 X:00 Y:F0 P:25 SP:FA CYC:255 SL:139
8378  AD 02 20  LDA $2002 = FF                  A:10 X:00 Y:F0 P:25 SP:FA CYC:264 SL:139
837B  10 FB     BPL $8378                       A:10 X:00 Y:F0 P:25 SP:FA CYC:276 SL:139
8378  AD 02 20  LDA $2002 = FF                  A:10 X:00 Y:F0 P:25 SP:FA CYC:285 SL:139
837B  10 FB     BPL $8378                       A:10 X:00 Y:F0 P:25 SP:FA CYC:297 SL:139
8378  AD 02 20  LDA $2002 = FF                  A:10 X:00 Y:F0 P:25 SP:FA CYC:306 SL:139
837B  10 FB     BPL $8378                       A:10 X:00 Y:F0 P:25 SP:FA CYC:318 SL:139
8378  AD 02 20  LDA $2002 = FF                  A:10 X:00 Y:F0 P:25 SP:FA CYC:327 SL:139
837B  10 FB     BPL $8378                       A:10 X:00 Y:F0 P:25 SP:FA CYC:339 SL:139
8378  AD 02 20  LDA $2002 = FF                  A:10 X:00 Y:F0 P:25 SP:FA CYC:  7 SL:140
837B  10 FB     BPL $8378                       A:10 X:00 Y:F0 P:25 SP:FA CYC: 19 SL:140
8378  AD 02 20  LDA $2002 = FF                  A:10 X:00 Y:F0 P:25 SP:FA CYC: 28 SL:140
837B  10 FB     BPL $8378                       A:10 X:00 Y:F0 P:25 SP:FA CYC: 40 SL:140
8378  AD 02 20  LDA $2002 = FF                  A:10 X:00 Y:F0 P:25 SP:FA CYC: 49 SL:140
837B  10 FB     BPL $8378                       A:10 X:00 Y:F0 P:25 SP:FA CYC: 61 SL:140
8378  AD 02 20  LDA $2002 = FF                  A:10 X:00 Y:F0 P:25 SP:FA CYC: 70 SL:140
837B  10 FB     BPL $8378                       A:10 X:00 Y:F0 P:25 SP:FA CYC: 82 SL:140
8378  AD 02 20  LDA $2002 = FF                  A:10 X:00 Y:F0 P:25 SP:FA CYC: 91 SL:140
837B  10 FB     BPL $8378                       A:10 X:00 Y:F0 P:25 SP:FA CYC:103 SL:140
8378  AD 02 20  LDA $2002 = FF                  A:10 X:00 Y:F0 P:25 SP:FA CYC:112 SL:140
837B  10 FB     BPL $8378                       A:10 X:00 Y:F0 P:25 SP:FA CYC:124 SL:140
8378  AD 02 20  LDA $2002 = FF                  A:10 X:00 Y:F0 P:25 SP:FA CYC:133 SL:140
837B  10 FB     BPL $8378                       A:10 X:00 Y:F0 P:25 SP:FA CYC:145 SL:140
8378  AD 02 20  LDA $2002 = FF                  A:10 X:00 Y:F0 P:25 SP:FA CYC:154 SL:140
837B  10 FB     BPL $8378                       A:10 X:00 Y:F0 P:25 SP:FA CYC:166 SL:140
8378  AD 02 20  LDA $2002 = FF                  A:10 X:00 Y:F0 P:25 SP:FA CYC:175 SL:140
837B  10 FB     BPL $8378                       A:10 X:00 Y:F0 P:25 SP:FA CYC:187 SL:140
8378  AD 02 20  LDA $2002 = FF                  A:10 X:00 Y:F0 P:25 SP:FA CYC:196 SL:140
837B  10 FB     BPL $8378                       A:10 X:00 Y:F0 P:25 SP:FA CYC:208 SL:140
8378  AD 02 20  LDA $2002 = FF                  A:10 X:00 Y:F0 P:25 SP:FA CYC:217 SL:140
837B  10 FB     BPL $8378                       A:10 X:00 Y:F0 P:25 SP:FA CYC:229 SL:140
8378  AD 02 20  LDA $2002 = FF                  A:10 X:00 Y:F0 P:25 SP:FA CYC:238 SL:140
837B  10 FB     BPL $8378                       A:10 X:00 Y:F0 P:25 SP:FA CYC:250 SL:140
8378  AD 02 20  LDA $2002 = FF                  A:10 X:00 Y:F0 P:25 SP:FA CYC:259 SL:140
837B  10 FB     BPL $8378                       A:10 X:00 Y:F0 P:25 SP:FA CYC:271 SL:140
8378  AD 02 20  LDA $2002 = FF                  A:10 X:00 Y:F0 P:25 SP:FA CYC:280 SL:140
837B  10 FB     BPL $8378                       A:10 X:00 Y:F0 P:25 SP:FA CYC:292 SL:140
8378  AD 02 20  LDA $2002 = FF                  A:10 X:00 Y:F0 P:25 SP:FA CYC:301 SL:140
837B  10 FB     BPL $8378                       A:10 X:00 Y:F0 P:25 SP:FA CYC:313 SL:140
8378  AD 02 20  LDA $2002 = FF                  A:10 X:00 Y:F0 P:25 SP:FA CYC:322 SL:140
837B  10 FB     BPL $8378                       A:10 X:00 Y:F0 P:25 SP:FA CYC:334 SL:140
8378  AD 02 20  LDA $2002 = FF                  A:10 X:00 Y:F0 P:25 SP:FA CYC:  2 SL:141
837B  10 FB     BPL $8378                       A:10 X:00 Y:F0 P:25 SP:FA CYC: 14 SL:141
8378  AD 02 20  LDA $2002 = FF                  A:10 X:00 Y:F0 P:25 SP:FA CYC: 23 SL:141
837B  10 FB     BPL $8378                       A:10 X:00 Y:F0 P:25 SP:FA CYC: 35 SL:141
8378  AD 02 20  LDA $2002 = FF                  A:10 X:00 Y:F0 P:25 SP:FA CYC: 44 SL:141
837B  10 FB     BPL $8378                       A:10 X:00 Y:F0 P:25 SP:FA CYC: 56 SL:141
8378  AD 02 20  LDA $2002 = FF                  A:10 X:00 Y:F0 P:25 SP:FA CYC: 65 SL:141
837B  10 FB     BPL $8378                       A:10 X:00 Y:F0 P:25 SP:FA CYC: 77 SL:141
8378  AD 02 20  LDA $2002 = FF                  A:10 X:00 Y:F0 P:25 SP:FA CYC: 86 SL:141
837B  10 FB     BPL $8378                       A:10 X:00 Y:F0 P:25 SP:FA CYC: 98 SL:141
8378  AD 02 20  LDA $2002 = FF                  A:10 X:00 Y:F0 P:25 SP:FA CYC:107 SL:141
837B  10 FB     BPL $8378                       A:10 X:00 Y:F0 P:25 SP:FA CYC:119 SL:141
8378  AD 02 20  LDA $2002 = FF                  A:10 X:00 Y:F0 P:25 SP:FA CYC:128 SL:141
837B  10 FB     BPL $8378                       A:10 X:00 Y:F0 P:25 SP:FA CYC:140 SL:141
8378  AD 02 20  LDA $2002 = FF                  A:10 X:00 Y:F0 P:25 SP:FA CYC:149 SL:141
837B  10 FB     BPL $8378                       A:10 X:00 Y:F0 P:25 SP:FA CYC:161 SL:141
8378  AD 02 20  LDA $2002 = FF                  A:10 X:00 Y:F0 P:25 SP:FA CYC:170 SL:141
837B  10 FB     BPL $8378                       A:10 X:00 Y:F0 P:25 SP:FA CYC:182 SL:141
8378  AD 02 20  LDA $2002 = FF                  A:10 X:00 Y:F0 P:25 SP:FA CYC:191 SL:141
837B  10 FB     BPL $8378                       A:10 X:00 Y:F0 P:25 SP:FA CYC:203 SL:141
8378  AD 02 20  LDA $2002 = FF                  A:10 X:00 Y:F0 P:25 SP:FA CYC:212 SL:141
837B  10 FB     BPL $8378                       A:10 X:00 Y:F0 P:25 SP:FA CYC:224 SL:141
8378  AD 02 20  LDA $2002 = FF                  A:10 X:00 Y:F0 P:25 SP:FA CYC:233 SL:141
837B  10 FB     BPL $8378                       A:10 X:00 Y:F0 P:25 SP:FA CYC:245 SL:141
8378  AD 02 20  LDA $2002 = FF                  A:10 X:00 Y:F0 P:25 SP:FA CYC:254 SL:141
837B  10 FB     BPL $8378                       A:10 X:00 Y:F0 P:25 SP:FA CYC:266 SL:141
8378  AD 02 20  LDA $2002 = FF                  A:10 X:00 Y:F0 P:25 SP:FA CYC:275 SL:141
837B  10 FB     BPL $8378                       A:10 X:00 Y:F0 P:25 SP:FA CYC:287 SL:141
8378  AD 02 20  LDA $2002 = FF                  A:10 X:00 Y:F0 P:25 SP:FA CYC:296 SL:141
837B  10 FB     BPL $8378                       A:10 X:00 Y:F0 P:25 SP:FA CYC:308 SL:141
8378  AD 02 20  LDA $2002 = FF                  A:10 X:00 Y:F0 P:25 SP:FA CYC:317 SL:141
837B  10 FB     BPL $8378                       A:10 X:00 Y:F0 P:25 SP:FA CYC:329 SL:141
8378  AD 02 20  LDA $2002 = FF                  A:10 X:00 Y:F0 P:25 SP:FA CYC:338 SL:141
837B  10 FB     BPL $8378                       A:10 X:00 Y:F0 P:25 SP:FA CYC:  9 SL:142
8378  AD 02 20  LDA $2002 = FF                  A:10 X:00 Y:F0 P:25 SP:FA CYC: 18 SL:142
837B  10 FB     BPL $8378                       A:10 X:00 Y:F0 P:25 SP:FA CYC: 30 SL:142
8378  AD 02 20  LDA $2002 = FF                  A:10 X:00 Y:F0 P:25 SP:FA CYC: 39 SL:142
837B  10 FB     BPL $8378                       A:10 X:00 Y:F0 P:25 SP:FA CYC: 51 SL:142
8378  AD 02 20  LDA $2002 = FF                  A:10 X:00 Y:F0 P:25 SP:FA CYC: 60 SL:142
837B  10 FB     BPL $8378                       A:10 X:00 Y:F0 P:25 SP:FA CYC: 72 SL:142
8378  AD 02 20  LDA $2002 = FF                  A:10 X:00 Y:F0 P:25 SP:FA CYC: 81 SL:142
837B  10 FB     BPL $8378                       A:10 X:00 Y:F0 P:25 SP:FA CYC: 93 SL:142
8378  AD 02 20  LDA $2002 = FF                  A:10 X:00 Y:F0 P:25 SP:FA CYC:102 SL:142
837B  10 FB     BPL $8378                       A:10 X:00 Y:F0 P:25 SP:FA CYC:114 SL:142
8378  AD 02 20  LDA $2002 = FF                  A:10 X:00 Y:F0 P:25 SP:FA CYC:123 SL:142
837B  10 FB     BPL $8378                       A:10 X:00 Y:F0 P:25 SP:FA CYC:135 SL:142
8378  AD 02 20  LDA $2002 = FF                  A:10 X:00 Y:F0 P:25 SP:FA CYC:144 SL:142
837B  10 FB     BPL $8378                       A:10 X:00 Y:F0 P:25 SP:FA CYC:156 SL:142
8378  AD 02 20  LDA $2002 = FF                  A:10 X:00 Y:F0 P:25 SP:FA CYC:165 SL:142
837B  10 FB     BPL $8378                       A:10 X:00 Y:F0 P:25 SP:FA CYC:177 SL:142
8378  AD 02 20  LDA $2002 = FF                  A:10 X:00 Y:F0 P:25 SP:FA CYC:186 SL:142
837B  10 FB     BPL $8378                       A:10 X:00 Y:F0 P:25 SP:FA CYC:198 SL:142
8378  AD 02 20  LDA $2002 = FF                  A:10 X:00 Y:F0 P:25 SP:FA CYC:207 SL:142
837B  10 FB     BPL $8378                       A:10 X:00 Y:F0 P:25 SP:FA CYC:219 SL:142
8378  AD 02 20  LDA $2002 = FF                  A:10 X:00 Y:F0 P:25 SP:FA CYC:228 SL:142
837B  10 FB     BPL $8378                       A:10 X:00 Y:F0 P:25 SP:FA CYC:240 SL:142
8378  AD 02 20  LDA $2002 = FF                  A:10 X:00 Y:F0 P:25 SP:FA CYC:249 SL:142
837B  10 FB     BPL $8378                       A:10 X:00 Y:F0 P:25 SP:FA CYC:261 SL:142
8378  AD 02 20  LDA $2002 = FF                  A:10 X:00 Y:F0 P:25 SP:FA CYC:270 SL:142
837B  10 FB     BPL $8378                       A:10 X:00 Y:F0 P:25 SP:FA CYC:282 SL:142
8378  AD 02 20  LDA $2002 = FF                  A:10 X:00 Y:F0 P:25 SP:FA CYC:291 SL:142
837B  10 FB     BPL $8378                       A:10 X:00 Y:F0 P:25 SP:FA CYC:303 SL:142
8378  AD 02 20  LDA $2002 = FF                  A:10 X:00 Y:F0 P:25 SP:FA CYC:312 SL:142
837B  10 FB     BPL $8378                       A:10 X:00 Y:F0 P:25 SP:FA CYC:324 SL:142
8378  AD 02 20  LDA $2002 = FF                  A:10 X:00 Y:F0 P:25 SP:FA CYC:333 SL:142
837B  10 FB     BPL $8378                       A:10 X:00 Y:F0 P:25 SP:FA CYC:  4 SL:143
8378  AD 02 20  LDA $2002 = FF                  A:10 X:00 Y:F0 P:25 SP:FA CYC: 13 SL:143
837B  10 FB     BPL $8378                       A:10 X:00 Y:F0 P:25 SP:FA CYC: 25 SL:143
8378  AD 02 20  LDA $2002 = FF                  A:10 X:00 Y:F0 P:25 SP:FA CYC: 34 SL:143
837B  10 FB     BPL $8378                       A:10 X:00 Y:F0 P:25 SP:FA CYC: 46 SL:143
8378  AD 02 20  LDA $2002 = FF                  A:10 X:00 Y:F0 P:25 SP:FA CYC: 55 SL:143
837B  10 FB     BPL $8378                       A:10 X:00 Y:F0 P:25 SP:FA CYC: 67 SL:143
8378  AD 02 20  LDA $2002 = FF                  A:10 X:00 Y:F0 P:25 SP:FA CYC: 76 SL:143
837B  10 FB     BPL $8378                       A:10 X:00 Y:F0 P:25 SP:FA CYC: 88 SL:143
8378  AD 02 20  LDA $2002 = FF                  A:10 X:00 Y:F0 P:25 SP:FA CYC: 97 SL:143
837B  10 FB     BPL $8378                       A:10 X:00 Y:F0 P:25 SP:FA CYC:109 SL:143
8378  AD 02 20  LDA $2002 = FF                  A:10 X:00 Y:F0 P:25 SP:FA CYC:118 SL:143
837B  10 FB     BPL $8378                       A:10 X:00 Y:F0 P:25 SP:FA CYC:130 SL:143
8378  AD 02 20  LDA $2002 = FF                  A:10 X:00 Y:F0 P:25 SP:FA CYC:139 SL:143
837B  10 FB     BPL $8378                       A:10 X:00 Y:F0 P:25 SP:FA CYC:151 SL:143
8378  AD 02 20  LDA $2002 = FF                  A:10 X:00 Y:F0 P:25 SP:FA CYC:160 SL:143
837B  10 FB     BPL $8378                       A:10 X:00 Y:F0 P:25 SP:FA CYC:172 SL:143
8378  AD 02 20  LDA $2002 = FF                  A:10 X:00 Y:F0 P:25 SP:FA CYC:181 SL:143
837B  10 FB     BPL $8378                       A:10 X:00 Y:F0 P:25 SP:FA CYC:193 SL:143
8378  AD 02 20  LDA $2002 = FF                  A:10 X:00 Y:F0 P:25 SP:FA CYC:202 SL:143
837B  10 FB     BPL $8378                       A:10 X:00 Y:F0 P:25 SP:FA CYC:214 SL:143
8378  AD 02 20  LDA $2002 = FF                  A:10 X:00 Y:F0 P:25 SP:FA CYC:223 SL:143
837B  10 FB     BPL $8378                       A:10 X:00 Y:F0 P:25 SP:FA CYC:235 SL:143
8378  AD 02 20  LDA $2002 = FF                  A:10 X:00 Y:F0 P:25 SP:FA CYC:244 SL:143
837B  10 FB     BPL $8378                       A:10 X:00 Y:F0 P:25 SP:FA CYC:256 SL:143
8378  AD 02 20  LDA $2002 = FF                  A:10 X:00 Y:F0 P:25 SP:FA CYC:265 SL:143
837B  10 FB     BPL $8378                       A:10 X:00 Y:F0 P:25 SP:FA CYC:277 SL:143
8378  AD 02 20  LDA $2002 = FF                  A:10 X:00 Y:F0 P:25 SP:FA CYC:286 SL:143
837B  10 FB     BPL $8378                       A:10 X:00 Y:F0 P:25 SP:FA CYC:298 SL:143
8378  AD 02 20  LDA $2002 = FF                  A:10 X:00 Y:F0 P:25 SP:FA CYC:307 SL:143
837B  10 FB     BPL $8378                       A:10 X:00 Y:F0 P:25 SP:FA CYC:319 SL:143
8378  AD 02 20  LDA $2002 = FF                  A:10 X:00 Y:F0 P:25 SP:FA CYC:328 SL:143
837B  10 FB     BPL $8378                       A:10 X:00 Y:F0 P:25 SP:FA CYC:340 SL:143
8378  AD 02 20  LDA $2002 = FF                  A:10 X:00 Y:F0 P:25 SP:FA CYC:  8 SL:144
837B  10 FB     BPL $8378                       A:10 X:00 Y:F0 P:25 SP:FA CYC: 20 SL:144
8378  AD 02 20  LDA $2002 = FF                  A:10 X:00 Y:F0 P:25 SP:FA CYC: 29 SL:144
837B  10 FB     BPL $8378                       A:10 X:00 Y:F0 P:25 SP:FA CYC: 41 SL:144
8378  AD 02 20  LDA $2002 = FF                  A:10 X:00 Y:F0 P:25 SP:FA CYC: 50 SL:144
837B  10 FB     BPL $8378                       A:10 X:00 Y:F0 P:25 SP:FA CYC: 62 SL:144
8378  AD 02 20  LDA $2002 = FF                  A:10 X:00 Y:F0 P:25 SP:FA CYC: 71 SL:144
837B  10 FB     BPL $8378                       A:10 X:00 Y:F0 P:25 SP:FA CYC: 83 SL:144
8378  AD 02 20  LDA $2002 = FF                  A:10 X:00 Y:F0 P:25 SP:FA CYC: 92 SL:144
837B  10 FB     BPL $8378                       A:10 X:00 Y:F0 P:25 SP:FA CYC:104 SL:144
8378  AD 02 20  LDA $2002 = FF                  A:10 X:00 Y:F0 P:25 SP:FA CYC:113 SL:144
837B  10 FB     BPL $8378                       A:10 X:00 Y:F0 P:25 SP:FA CYC:125 SL:144
8378  AD 02 20  LDA $2002 = FF                  A:10 X:00 Y:F0 P:25 SP:FA CYC:134 SL:144
837B  10 FB     BPL $8378                       A:10 X:00 Y:F0 P:25 SP:FA CYC:146 SL:144
8378  AD 02 20  LDA $2002 = FF                  A:10 X:00 Y:F0 P:25 SP:FA CYC:155 SL:144
837B  10 FB     BPL $8378                       A:10 X:00 Y:F0 P:25 SP:FA CYC:167 SL:144
8378  AD 02 20  LDA $2002 = FF                  A:10 X:00 Y:F0 P:25 SP:FA CYC:176 SL:144
837B  10 FB     BPL $8378                       A:10 X:00 Y:F0 P:25 SP:FA CYC:188 SL:144
8378  AD 02 20  LDA $2002 = FF                  A:10 X:00 Y:F0 P:25 SP:FA CYC:197 SL:144
837B  10 FB     BPL $8378                       A:10 X:00 Y:F0 P:25 SP:FA CYC:209 SL:144
8378  AD 02 20  LDA $2002 = FF                  A:10 X:00 Y:F0 P:25 SP:FA CYC:218 SL:144
837B  10 FB     BPL $8378                       A:10 X:00 Y:F0 P:25 SP:FA CYC:230 SL:144
8378  AD 02 20  LDA $2002 = FF                  A:10 X:00 Y:F0 P:25 SP:FA CYC:239 SL:144
837B  10 FB     BPL $8378                       A:10 X:00 Y:F0 P:25 SP:FA CYC:251 SL:144
8378  AD 02 20  LDA $2002 = FF                  A:10 X:00 Y:F0 P:25 SP:FA CYC:260 SL:144
837B  10 FB     BPL $8378                       A:10 X:00 Y:F0 P:25 SP:FA CYC:272 SL:144
8378  AD 02 20  LDA $2002 = FF                  A:10 X:00 Y:F0 P:25 SP:FA CYC:281 SL:144
837B  10 FB     BPL $8378                       A:10 X:00 Y:F0 P:25 SP:FA CYC:293 SL:144
8378  AD 02 20  LDA $2002 = FF                  A:10 X:00 Y:F0 P:25 SP:FA CYC:302 SL:144
837B  10 FB     BPL $8378                       A:10 X:00 Y:F0 P:25 SP:FA CYC:314 SL:144
8378  AD 02 20  LDA $2002 = FF                  A:10 X:00 Y:F0 P:25 SP:FA CYC:323 SL:144
837B  10 FB     BPL $8378                       A:10 X:00 Y:F0 P:25 SP:FA CYC:335 SL:144
8378  AD 02 20  LDA $2002 = FF                  A:10 X:00 Y:F0 P:25 SP:FA CYC:  3 SL:145
837B  10 FB     BPL $8378                       A:10 X:00 Y:F0 P:25 SP:FA CYC: 15 SL:145
8378  AD 02 20  LDA $2002 = FF                  A:10 X:00 Y:F0 P:25 SP:FA CYC: 24 SL:145
837B  10 FB     BPL $8378                       A:10 X:00 Y:F0 P:25 SP:FA CYC: 36 SL:145
8378  AD 02 20  LDA $2002 = FF                  A:10 X:00 Y:F0 P:25 SP:FA CYC: 45 SL:145
837B  10 FB     BPL $8378                       A:10 X:00 Y:F0 P:25 SP:FA CYC: 57 SL:145
8378  AD 02 20  LDA $2002 = FF                  A:10 X:00 Y:F0 P:25 SP:FA CYC: 66 SL:145
837B  10 FB     BPL $8378                       A:10 X:00 Y:F0 P:25 SP:FA CYC: 78 SL:145
8378  AD 02 20  LDA $2002 = FF                  A:10 X:00 Y:F0 P:25 SP:FA CYC: 87 SL:145
837B  10 FB     BPL $8378                       A:10 X:00 Y:F0 P:25 SP:FA CYC: 99 SL:145
8378  AD 02 20  LDA $2002 = FF                  A:10 X:00 Y:F0 P:25 SP:FA CYC:108 SL:145
837B  10 FB     BPL $8378                       A:10 X:00 Y:F0 P:25 SP:FA CYC:120 SL:145
8378  AD 02 20  LDA $2002 = FF                  A:10 X:00 Y:F0 P:25 SP:FA CYC:129 SL:145
837B  10 FB     BPL $8378                       A:10 X:00 Y:F0 P:25 SP:FA CYC:141 SL:145
8378  AD 02 20  LDA $2002 = FF                  A:10 X:00 Y:F0 P:25 SP:FA CYC:150 SL:145
837B  10 FB     BPL $8378                       A:10 X:00 Y:F0 P:25 SP:FA CYC:162 SL:145
8378  AD 02 20  LDA $2002 = FF                  A:10 X:00 Y:F0 P:25 SP:FA CYC:171 SL:145
837B  10 FB     BPL $8378                       A:10 X:00 Y:F0 P:25 SP:FA CYC:183 SL:145
8378  AD 02 20  LDA $2002 = FF                  A:10 X:00 Y:F0 P:25 SP:FA CYC:192 SL:145
837B  10 FB     BPL $8378                       A:10 X:00 Y:F0 P:25 SP:FA CYC:204 SL:145
8378  AD 02 20  LDA $2002 = FF                  A:10 X:00 Y:F0 P:25 SP:FA CYC:213 SL:145
837B  10 FB     BPL $8378                       A:10 X:00 Y:F0 P:25 SP:FA CYC:225 SL:145
8378  AD 02 20  LDA $2002 = FF                  A:10 X:00 Y:F0 P:25 SP:FA CYC:234 SL:145
837B  10 FB     BPL $8378                       A:10 X:00 Y:F0 P:25 SP:FA CYC:246 SL:145
8378  AD 02 20  LDA $2002 = FF                  A:10 X:00 Y:F0 P:25 SP:FA CYC:255 SL:145
837B  10 FB     BPL $8378                       A:10 X:00 Y:F0 P:25 SP:FA CYC:267 SL:145
8378  AD 02 20  LDA $2002 = FF                  A:10 X:00 Y:F0 P:25 SP:FA CYC:276 SL:145
837B  10 FB     BPL $8378                       A:10 X:00 Y:F0 P:25 SP:FA CYC:288 SL:145
8378  AD 02 20  LDA $2002 = FF                  A:10 X:00 Y:F0 P:25 SP:FA CYC:297 SL:145
837B  10 FB     BPL $8378                       A:10 X:00 Y:F0 P:25 SP:FA CYC:309 SL:145
8378  AD 02 20  LDA $2002 = FF                  A:10 X:00 Y:F0 P:25 SP:FA CYC:318 SL:145
837B  10 FB     BPL $8378                       A:10 X:00 Y:F0 P:25 SP:FA CYC:330 SL:145
8378  AD 02 20  LDA $2002 = FF                  A:10 X:00 Y:F0 P:25 SP:FA CYC:339 SL:145
837B  10 FB     BPL $8378                       A:10 X:00 Y:F0 P:25 SP:FA CYC: 10 SL:146
8378  AD 02 20  LDA $2002 = FF                  A:10 X:00 Y:F0 P:25 SP:FA CYC: 19 SL:146
837B  10 FB     BPL $8378                       A:10 X:00 Y:F0 P:25 SP:FA CYC: 31 SL:146
8378  AD 02 20  LDA $2002 = FF                  A:10 X:00 Y:F0 P:25 SP:FA CYC: 40 SL:146
837B  10 FB     BPL $8378                       A:10 X:00 Y:F0 P:25 SP:FA CYC: 52 SL:146
8378  AD 02 20  LDA $2002 = FF                  A:10 X:00 Y:F0 P:25 SP:FA CYC: 61 SL:146
837B  10 FB     BPL $8378                       A:10 X:00 Y:F0 P:25 SP:FA CYC: 73 SL:146
8378  AD 02 20  LDA $2002 = FF                  A:10 X:00 Y:F0 P:25 SP:FA CYC: 82 SL:146
837B  10 FB     BPL $8378                       A:10 X:00 Y:F0 P:25 SP:FA CYC: 94 SL:146
8378  AD 02 20  LDA $2002 = FF                  A:10 X:00 Y:F0 P:25 SP:FA CYC:103 SL:146
837B  10 FB     BPL $8378                       A:10 X:00 Y:F0 P:25 SP:FA CYC:115 SL:146
8378  AD 02 20  LDA $2002 = FF                  A:10 X:00 Y:F0 P:25 SP:FA CYC:124 SL:146
837B  10 FB     BPL $8378                       A:10 X:00 Y:F0 P:25 SP:FA CYC:136 SL:146
8378  AD 02 20  LDA $2002 = FF                  A:10 X:00 Y:F0 P:25 SP:FA CYC:145 SL:146
837B  10 FB     BPL $8378                       A:10 X:00 Y:F0 P:25 SP:FA CYC:157 SL:146
8378  AD 02 20  LDA $2002 = FF                  A:10 X:00 Y:F0 P:25 SP:FA CYC:166 SL:146
837B  10 FB     BPL $8378                       A:10 X:00 Y:F0 P:25 SP:FA CYC:178 SL:146
8378  AD 02 20  LDA $2002 = FF                  A:10 X:00 Y:F0 P:25 SP:FA CYC:187 SL:146
837B  10 FB     BPL $8378                       A:10 X:00 Y:F0 P:25 SP:FA CYC:199 SL:146
8378  AD 02 20  LDA $2002 = FF                  A:10 X:00 Y:F0 P:25 SP:FA CYC:208 SL:146
837B  10 FB     BPL $8378                       A:10 X:00 Y:F0 P:25 SP:FA CYC:220 SL:146
8378  AD 02 20  LDA $2002 = FF                  A:10 X:00 Y:F0 P:25 SP:FA CYC:229 SL:146
837B  10 FB     BPL $8378                       A:10 X:00 Y:F0 P:25 SP:FA CYC:241 SL:146
8378  AD 02 20  LDA $2002 = FF                  A:10 X:00 Y:F0 P:25 SP:FA CYC:250 SL:146
837B  10 FB     BPL $8378                       A:10 X:00 Y:F0 P:25 SP:FA CYC:262 SL:146
8378  AD 02 20  LDA $2002 = FF                  A:10 X:00 Y:F0 P:25 SP:FA CYC:271 SL:146
837B  10 FB     BPL $8378                       A:10 X:00 Y:F0 P:25 SP:FA CYC:283 SL:146
8378  AD 02 20  LDA $2002 = FF                  A:10 X:00 Y:F0 P:25 SP:FA CYC:292 SL:146
837B  10 FB     BPL $8378                       A:10 X:00 Y:F0 P:25 SP:FA CYC:304 SL:146
8378  AD 02 20  LDA $2002 = FF                  A:10 X:00 Y:F0 P:25 SP:FA CYC:313 SL:146
837B  10 FB     BPL $8378                       A:10 X:00 Y:F0 P:25 SP:FA CYC:325 SL:146
8378  AD 02 20  LDA $2002 = FF                  A:10 X:00 Y:F0 P:25 SP:FA CYC:334 SL:146
837B  10 FB     BPL $8378                       A:10 X:00 Y:F0 P:25 SP:FA CYC:  5 SL:147
8378  AD 02 20  LDA $2002 = FF                  A:10 X:00 Y:F0 P:25 SP:FA CYC: 14 SL:147
837B  10 FB     BPL $8378                       A:10 X:00 Y:F0 P:25 SP:FA CYC: 26 SL:147
8378  AD 02 20  LDA $2002 = FF                  A:10 X:00 Y:F0 P:25 SP:FA CYC: 35 SL:147
837B  10 FB     BPL $8378                       A:10 X:00 Y:F0 P:25 SP:FA CYC: 47 SL:147
8378  AD 02 20  LDA $2002 = FF                  A:10 X:00 Y:F0 P:25 SP:FA CYC: 56 SL:147
837B  10 FB     BPL $8378                       A:10 X:00 Y:F0 P:25 SP:FA CYC: 68 SL:147
8378  AD 02 20  LDA $2002 = FF                  A:10 X:00 Y:F0 P:25 SP:FA CYC: 77 SL:147
837B  10 FB     BPL $8378                       A:10 X:00 Y:F0 P:25 SP:FA CYC: 89 SL:147
8378  AD 02 20  LDA $2002 = FF                  A:10 X:00 Y:F0 P:25 SP:FA CYC: 98 SL:147
837B  10 FB     BPL $8378                       A:10 X:00 Y:F0 P:25 SP:FA CYC:110 SL:147
8378  AD 02 20  LDA $2002 = FF                  A:10 X:00 Y:F0 P:25 SP:FA CYC:119 SL:147
837B  10 FB     BPL $8378                       A:10 X:00 Y:F0 P:25 SP:FA CYC:131 SL:147
8378  AD 02 20  LDA $2002 = FF                  A:10 X:00 Y:F0 P:25 SP:FA CYC:140 SL:147
837B  10 FB     BPL $8378                       A:10 X:00 Y:F0 P:25 SP:FA CYC:152 SL:147
8378  AD 02 20  LDA $2002 = FF                  A:10 X:00 Y:F0 P:25 SP:FA CYC:161 SL:147
837B  10 FB     BPL $8378                       A:10 X:00 Y:F0 P:25 SP:FA CYC:173 SL:147
8378  AD 02 20  LDA $2002 = FF                  A:10 X:00 Y:F0 P:25 SP:FA CYC:182 SL:147
837B  10 FB     BPL $8378                       A:10 X:00 Y:F0 P:25 SP:FA CYC:194 SL:147
8378  AD 02 20  LDA $2002 = FF                  A:10 X:00 Y:F0 P:25 SP:FA CYC:203 SL:147
837B  10 FB     BPL $8378                       A:10 X:00 Y:F0 P:25 SP:FA CYC:215 SL:147
8378  AD 02 20  LDA $2002 = FF                  A:10 X:00 Y:F0 P:25 SP:FA CYC:224 SL:147
837B  10 FB     BPL $8378                       A:10 X:00 Y:F0 P:25 SP:FA CYC:236 SL:147
8378  AD 02 20  LDA $2002 = FF                  A:10 X:00 Y:F0 P:25 SP:FA CYC:245 SL:147
837B  10 FB     BPL $8378                       A:10 X:00 Y:F0 P:25 SP:FA CYC:257 SL:147
8378  AD 02 20  LDA $2002 = FF                  A:10 X:00 Y:F0 P:25 SP:FA CYC:266 SL:147
837B  10 FB     BPL $8378                       A:10 X:00 Y:F0 P:25 SP:FA CYC:278 SL:147
8378  AD 02 20  LDA $2002 = FF                  A:10 X:00 Y:F0 P:25 SP:FA CYC:287 SL:147
837B  10 FB     BPL $8378                       A:10 X:00 Y:F0 P:25 SP:FA CYC:299 SL:147
8378  AD 02 20  LDA $2002 = FF                  A:10 X:00 Y:F0 P:25 SP:FA CYC:308 SL:147
837B  10 FB     BPL $8378                       A:10 X:00 Y:F0 P:25 SP:FA CYC:320 SL:147
8378  AD 02 20  LDA $2002 = FF                  A:10 X:00 Y:F0 P:25 SP:FA CYC:329 SL:147
837B  10 FB     BPL $8378                       A:10 X:00 Y:F0 P:25 SP:FA CYC:  0 SL:148
8378  AD 02 20  LDA $2002 = FF                  A:10 X:00 Y:F0 P:25 SP:FA CYC:  9 SL:148
837B  10 FB     BPL $8378                       A:10 X:00 Y:F0 P:25 SP:FA CYC: 21 SL:148
8378  AD 02 20  LDA $2002 = FF                  A:10 X:00 Y:F0 P:25 SP:FA CYC: 30 SL:148
837B  10 FB     BPL $8378                       A:10 X:00 Y:F0 P:25 SP:FA CYC: 42 SL:148
8378  AD 02 20  LDA $2002 = FF                  A:10 X:00 Y:F0 P:25 SP:FA CYC: 51 SL:148
837B  10 FB     BPL $8378                       A:10 X:00 Y:F0 P:25 SP:FA CYC: 63 SL:148
8378  AD 02 20  LDA $2002 = FF                  A:10 X:00 Y:F0 P:25 SP:FA CYC: 72 SL:148
837B  10 FB     BPL $8378                       A:10 X:00 Y:F0 P:25 SP:FA CYC: 84 SL:148
8378  AD 02 20  LDA $2002 = FF                  A:10 X:00 Y:F0 P:25 SP:FA CYC: 93 SL:148
837B  10 FB     BPL $8378                       A:10 X:00 Y:F0 P:25 SP:FA CYC:105 SL:148
8378  AD 02 20  LDA $2002 = FF                  A:10 X:00 Y:F0 P:25 SP:FA CYC:114 SL:148
837B  10 FB     BPL $8378                       A:10 X:00 Y:F0 P:25 SP:FA CYC:126 SL:148
8378  AD 02 20  LDA $2002 = FF                  A:10 X:00 Y:F0 P:25 SP:FA CYC:135 SL:148
837B  10 FB     BPL $8378                       A:10 X:00 Y:F0 P:25 SP:FA CYC:147 SL:148
8378  AD 02 20  LDA $2002 = FF                  A:10 X:00 Y:F0 P:25 SP:FA CYC:156 SL:148
837B  10 FB     BPL $8378                       A:10 X:00 Y:F0 P:25 SP:FA CYC:168 SL:148
8378  AD 02 20  LDA $2002 = FF                  A:10 X:00 Y:F0 P:25 SP:FA CYC:177 SL:148
837B  10 FB     BPL $8378                       A:10 X:00 Y:F0 P:25 SP:FA CYC:189 SL:148
8378  AD 02 20  LDA $2002 = FF                  A:10 X:00 Y:F0 P:25 SP:FA CYC:198 SL:148
837B  10 FB     BPL $8378                       A:10 X:00 Y:F0 P:25 SP:FA CYC:210 SL:148
8378  AD 02 20  LDA $2002 = FF                  A:10 X:00 Y:F0 P:25 SP:FA CYC:219 SL:148
837B  10 FB     BPL $8378                       A:10 X:00 Y:F0 P:25 SP:FA CYC:231 SL:148
8378  AD 02 20  LDA $2002 = FF                  A:10 X:00 Y:F0 P:25 SP:FA CYC:240 SL:148
837B  10 FB     BPL $8378                       A:10 X:00 Y:F0 P:25 SP:FA CYC:252 SL:148
8378  AD 02 20  LDA $2002 = FF                  A:10 X:00 Y:F0 P:25 SP:FA CYC:261 SL:148
837B  10 FB     BPL $8378                       A:10 X:00 Y:F0 P:25 SP:FA CYC:273 SL:148
8378  AD 02 20  LDA $2002 = FF                  A:10 X:00 Y:F0 P:25 SP:FA CYC:282 SL:148
837B  10 FB     BPL $8378                       A:10 X:00 Y:F0 P:25 SP:FA CYC:294 SL:148
8378  AD 02 20  LDA $2002 = FF                  A:10 X:00 Y:F0 P:25 SP:FA CYC:303 SL:148
837B  10 FB     BPL $8378                       A:10 X:00 Y:F0 P:25 SP:FA CYC:315 SL:148
8378  AD 02 20  LDA $2002 = FF                  A:10 X:00 Y:F0 P:25 SP:FA CYC:324 SL:148
837B  10 FB     BPL $8378                       A:10 X:00 Y:F0 P:25 SP:FA CYC:336 SL:148
8378  AD 02 20  LDA $2002 = FF                  A:10 X:00 Y:F0 P:25 SP:FA CYC:  4 SL:149
837B  10 FB     BPL $8378                       A:10 X:00 Y:F0 P:25 SP:FA CYC: 16 SL:149
8378  AD 02 20  LDA $2002 = FF                  A:10 X:00 Y:F0 P:25 SP:FA CYC: 25 SL:149
837B  10 FB     BPL $8378                       A:10 X:00 Y:F0 P:25 SP:FA CYC: 37 SL:149
8378  AD 02 20  LDA $2002 = FF                  A:10 X:00 Y:F0 P:25 SP:FA CYC: 46 SL:149
837B  10 FB     BPL $8378                       A:10 X:00 Y:F0 P:25 SP:FA CYC: 58 SL:149
8378  AD 02 20  LDA $2002 = FF                  A:10 X:00 Y:F0 P:25 SP:FA CYC: 67 SL:149
837B  10 FB     BPL $8378                       A:10 X:00 Y:F0 P:25 SP:FA CYC: 79 SL:149
8378  AD 02 20  LDA $2002 = FF                  A:10 X:00 Y:F0 P:25 SP:FA CYC: 88 SL:149
837B  10 FB     BPL $8378                       A:10 X:00 Y:F0 P:25 SP:FA CYC:100 SL:149
8378  AD 02 20  LDA $2002 = FF                  A:10 X:00 Y:F0 P:25 SP:FA CYC:109 SL:149
837B  10 FB     BPL $8378                       A:10 X:00 Y:F0 P:25 SP:FA CYC:121 SL:149
8378  AD 02 20  LDA $2002 = FF                  A:10 X:00 Y:F0 P:25 SP:FA CYC:130 SL:149
837B  10 FB     BPL $8378                       A:10 X:00 Y:F0 P:25 SP:FA CYC:142 SL:149
8378  AD 02 20  LDA $2002 = FF                  A:10 X:00 Y:F0 P:25 SP:FA CYC:151 SL:149
837B  10 FB     BPL $8378                       A:10 X:00 Y:F0 P:25 SP:FA CYC:163 SL:149
8378  AD 02 20  LDA $2002 = FF                  A:10 X:00 Y:F0 P:25 SP:FA CYC:172 SL:149
837B  10 FB     BPL $8378                       A:10 X:00 Y:F0 P:25 SP:FA CYC:184 SL:149
8378  AD 02 20  LDA $2002 = FF                  A:10 X:00 Y:F0 P:25 SP:FA CYC:193 SL:149
837B  10 FB     BPL $8378                       A:10 X:00 Y:F0 P:25 SP:FA CYC:205 SL:149
8378  AD 02 20  LDA $2002 = FF                  A:10 X:00 Y:F0 P:25 SP:FA CYC:214 SL:149
837B  10 FB     BPL $8378                       A:10 X:00 Y:F0 P:25 SP:FA CYC:226 SL:149
8378  AD 02 20  LDA $2002 = FF                  A:10 X:00 Y:F0 P:25 SP:FA CYC:235 SL:149
837B  10 FB     BPL $8378                       A:10 X:00 Y:F0 P:25 SP:FA CYC:247 SL:149
8378  AD 02 20  LDA $2002 = FF                  A:10 X:00 Y:F0 P:25 SP:FA CYC:256 SL:149
837B  10 FB     BPL $8378                       A:10 X:00 Y:F0 P:25 SP:FA CYC:268 SL:149
8378  AD 02 20  LDA $2002 = FF                  A:10 X:00 Y:F0 P:25 SP:FA CYC:277 SL:149
837B  10 FB     BPL $8378                       A:10 X:00 Y:F0 P:25 SP:FA CYC:289 SL:149
8378  AD 02 20  LDA $2002 = FF                  A:10 X:00 Y:F0 P:25 SP:FA CYC:298 SL:149
837B  10 FB     BPL $8378                       A:10 X:00 Y:F0 P:25 SP:FA CYC:310 SL:149
8378  AD 02 20  LDA $2002 = FF                  A:10 X:00 Y:F0 P:25 SP:FA CYC:319 SL:149
837B  10 FB     BPL $8378                       A:10 X:00 Y:F0 P:25 SP:FA CYC:331 SL:149
8378  AD 02 20  LDA $2002 = FF                  A:10 X:00 Y:F0 P:25 SP:FA CYC:340 SL:149
837B  10 FB     BPL $8378                       A:10 X:00 Y:F0 P:25 SP:FA CYC: 11 SL:150
8378  AD 02 20  LDA $2002 = FF                  A:10 X:00 Y:F0 P:25 SP:FA CYC: 20 SL:150
837B  10 FB     BPL $8378                       A:10 X:00 Y:F0 P:25 SP:FA CYC: 32 SL:150
8378  AD 02 20  LDA $2002 = FF                  A:10 X:00 Y:F0 P:25 SP:FA CYC: 41 SL:150
837B  10 FB     BPL $8378                       A:10 X:00 Y:F0 P:25 SP:FA CYC: 53 SL:150
8378  AD 02 20  LDA $2002 = FF                  A:10 X:00 Y:F0 P:25 SP:FA CYC: 62 SL:150
837B  10 FB     BPL $8378                       A:10 X:00 Y:F0 P:25 SP:FA CYC: 74 SL:150
8378  AD 02 20  LDA $2002 = FF                  A:10 X:00 Y:F0 P:25 SP:FA CYC: 83 SL:150
837B  10 FB     BPL $8378                       A:10 X:00 Y:F0 P:25 SP:FA CYC: 95 SL:150
8378  AD 02 20  LDA $2002 = FF                  A:10 X:00 Y:F0 P:25 SP:FA CYC:104 SL:150
837B  10 FB     BPL $8378                       A:10 X:00 Y:F0 P:25 SP:FA CYC:116 SL:150
8378  AD 02 20  LDA $2002 = FF                  A:10 X:00 Y:F0 P:25 SP:FA CYC:125 SL:150
837B  10 FB     BPL $8378                       A:10 X:00 Y:F0 P:25 SP:FA CYC:137 SL:150
8378  AD 02 20  LDA $2002 = FF                  A:10 X:00 Y:F0 P:25 SP:FA CYC:146 SL:150
837B  10 FB     BPL $8378                       A:10 X:00 Y:F0 P:25 SP:FA CYC:158 SL:150
8378  AD 02 20  LDA $2002 = FF                  A:10 X:00 Y:F0 P:25 SP:FA CYC:167 SL:150
837B  10 FB     BPL $8378                       A:10 X:00 Y:F0 P:25 SP:FA CYC:179 SL:150
8378  AD 02 20  LDA $2002 = FF                  A:10 X:00 Y:F0 P:25 SP:FA CYC:188 SL:150
837B  10 FB     BPL $8378                       A:10 X:00 Y:F0 P:25 SP:FA CYC:200 SL:150
8378  AD 02 20  LDA $2002 = FF                  A:10 X:00 Y:F0 P:25 SP:FA CYC:209 SL:150
837B  10 FB     BPL $8378                       A:10 X:00 Y:F0 P:25 SP:FA CYC:221 SL:150
8378  AD 02 20  LDA $2002 = FF                  A:10 X:00 Y:F0 P:25 SP:FA CYC:230 SL:150
837B  10 FB     BPL $8378                       A:10 X:00 Y:F0 P:25 SP:FA CYC:242 SL:150
8378  AD 02 20  LDA $2002 = FF                  A:10 X:00 Y:F0 P:25 SP:FA CYC:251 SL:150
837B  10 FB     BPL $8378                       A:10 X:00 Y:F0 P:25 SP:FA CYC:263 SL:150
8378  AD 02 20  LDA $2002 = FF                  A:10 X:00 Y:F0 P:25 SP:FA CYC:272 SL:150
837B  10 FB     BPL $8378                       A:10 X:00 Y:F0 P:25 SP:FA CYC:284 SL:150
8378  AD 02 20  LDA $2002 = FF                  A:10 X:00 Y:F0 P:25 SP:FA CYC:293 SL:150
837B  10 FB     BPL $8378                       A:10 X:00 Y:F0 P:25 SP:FA CYC:305 SL:150
8378  AD 02 20  LDA $2002 = FF                  A:10 X:00 Y:F0 P:25 SP:FA CYC:314 SL:150
837B  10 FB     BPL $8378                       A:10 X:00 Y:F0 P:25 SP:FA CYC:326 SL:150
8378  AD 02 20  LDA $2002 = FF                  A:10 X:00 Y:F0 P:25 SP:FA CYC:335 SL:150
837B  10 FB     BPL $8378                       A:10 X:00 Y:F0 P:25 SP:FA CYC:  6 SL:151
8378  AD 02 20  LDA $2002 = FF                  A:10 X:00 Y:F0 P:25 SP:FA CYC: 15 SL:151
837B  10 FB     BPL $8378                       A:10 X:00 Y:F0 P:25 SP:FA CYC: 27 SL:151
8378  AD 02 20  LDA $2002 = FF                  A:10 X:00 Y:F0 P:25 SP:FA CYC: 36 SL:151
837B  10 FB     BPL $8378                       A:10 X:00 Y:F0 P:25 SP:FA CYC: 48 SL:151
8378  AD 02 20  LDA $2002 = FF                  A:10 X:00 Y:F0 P:25 SP:FA CYC: 57 SL:151
837B  10 FB     BPL $8378                       A:10 X:00 Y:F0 P:25 SP:FA CYC: 69 SL:151
8378  AD 02 20  LDA $2002 = FF                  A:10 X:00 Y:F0 P:25 SP:FA CYC: 78 SL:151
837B  10 FB     BPL $8378                       A:10 X:00 Y:F0 P:25 SP:FA CYC: 90 SL:151
8378  AD 02 20  LDA $2002 = FF                  A:10 X:00 Y:F0 P:25 SP:FA CYC: 99 SL:151
837B  10 FB     BPL $8378                       A:10 X:00 Y:F0 P:25 SP:FA CYC:111 SL:151
8378  AD 02 20  LDA $2002 = FF                  A:10 X:00 Y:F0 P:25 SP:FA CYC:120 SL:151
837B  10 FB     BPL $8378                       A:10 X:00 Y:F0 P:25 SP:FA CYC:132 SL:151
8378  AD 02 20  LDA $2002 = FF                  A:10 X:00 Y:F0 P:25 SP:FA CYC:141 SL:151
837B  10 FB     BPL $8378                       A:10 X:00 Y:F0 P:25 SP:FA CYC:153 SL:151
8378  AD 02 20  LDA $2002 = FF                  A:10 X:00 Y:F0 P:25 SP:FA CYC:162 SL:151
837B  10 FB     BPL $8378                       A:10 X:00 Y:F0 P:25 SP:FA CYC:174 SL:151
8378  AD 02 20  LDA $2002 = FF                  A:10 X:00 Y:F0 P:25 SP:FA CYC:183 SL:151
837B  10 FB     BPL $8378                       A:10 X:00 Y:F0 P:25 SP:FA CYC:195 SL:151
8378  AD 02 20  LDA $2002 = FF                  A:10 X:00 Y:F0 P:25 SP:FA CYC:204 SL:151
837B  10 FB     BPL $8378                       A:10 X:00 Y:F0 P:25 SP:FA CYC:216 SL:151
8378  AD 02 20  LDA $2002 = FF                  A:10 X:00 Y:F0 P:25 SP:FA CYC:225 SL:151
837B  10 FB     BPL $8378                       A:10 X:00 Y:F0 P:25 SP:FA CYC:237 SL:151
8378  AD 02 20  LDA $2002 = FF                  A:10 X:00 Y:F0 P:25 SP:FA CYC:246 SL:151
837B  10 FB     BPL $8378                       A:10 X:00 Y:F0 P:25 SP:FA CYC:258 SL:151
8378  AD 02 20  LDA $2002 = FF                  A:10 X:00 Y:F0 P:25 SP:FA CYC:267 SL:151
837B  10 FB     BPL $8378                       A:10 X:00 Y:F0 P:25 SP:FA CYC:279 SL:151
8378  AD 02 20  LDA $2002 = FF                  A:10 X:00 Y:F0 P:25 SP:FA CYC:288 SL:151
837B  10 FB     BPL $8378                       A:10 X:00 Y:F0 P:25 SP:FA CYC:300 SL:151
8378  AD 02 20  LDA $2002 = FF                  A:10 X:00 Y:F0 P:25 SP:FA CYC:309 SL:151
837B  10 FB     BPL $8378                       A:10 X:00 Y:F0 P:25 SP:FA CYC:321 SL:151
8378  AD 02 20  LDA $2002 = FF                  A:10 X:00 Y:F0 P:25 SP:FA CYC:330 SL:151
837B  10 FB     BPL $8378                       A:10 X:00 Y:F0 P:25 SP:FA CYC:  1 SL:152
8378  AD 02 20  LDA $2002 = FF                  A:10 X:00 Y:F0 P:25 SP:FA CYC: 10 SL:152
837B  10 FB     BPL $8378                       A:10 X:00 Y:F0 P:25 SP:FA CYC: 22 SL:152
8378  AD 02 20  LDA $2002 = FF                  A:10 X:00 Y:F0 P:25 SP:FA CYC: 31 SL:152
837B  10 FB     BPL $8378                       A:10 X:00 Y:F0 P:25 SP:FA CYC: 43 SL:152
8378  AD 02 20  LDA $2002 = FF                  A:10 X:00 Y:F0 P:25 SP:FA CYC: 52 SL:152
837B  10 FB     BPL $8378                       A:10 X:00 Y:F0 P:25 SP:FA CYC: 64 SL:152
8378  AD 02 20  LDA $2002 = FF                  A:10 X:00 Y:F0 P:25 SP:FA CYC: 73 SL:152
837B  10 FB     BPL $8378                       A:10 X:00 Y:F0 P:25 SP:FA CYC: 85 SL:152
8378  AD 02 20  LDA $2002 = FF                  A:10 X:00 Y:F0 P:25 SP:FA CYC: 94 SL:152
837B  10 FB     BPL $8378                       A:10 X:00 Y:F0 P:25 SP:FA CYC:106 SL:152
8378  AD 02 20  LDA $2002 = FF                  A:10 X:00 Y:F0 P:25 SP:FA CYC:115 SL:152
837B  10 FB     BPL $8378                       A:10 X:00 Y:F0 P:25 SP:FA CYC:127 SL:152
8378  AD 02 20  LDA $2002 = FF                  A:10 X:00 Y:F0 P:25 SP:FA CYC:136 SL:152
837B  10 FB     BPL $8378                       A:10 X:00 Y:F0 P:25 SP:FA CYC:148 SL:152
8378  AD 02 20  LDA $2002 = FF                  A:10 X:00 Y:F0 P:25 SP:FA CYC:157 SL:152
837B  10 FB     BPL $8378                       A:10 X:00 Y:F0 P:25 SP:FA CYC:169 SL:152
8378  AD 02 20  LDA $2002 = FF                  A:10 X:00 Y:F0 P:25 SP:FA CYC:178 SL:152
837B  10 FB     BPL $8378                       A:10 X:00 Y:F0 P:25 SP:FA CYC:190 SL:152
8378  AD 02 20  LDA $2002 = FF                  A:10 X:00 Y:F0 P:25 SP:FA CYC:199 SL:152
837B  10 FB     BPL $8378                       A:10 X:00 Y:F0 P:25 SP:FA CYC:211 SL:152
8378  AD 02 20  LDA $2002 = FF                  A:10 X:00 Y:F0 P:25 SP:FA CYC:220 SL:152
837B  10 FB     BPL $8378                       A:10 X:00 Y:F0 P:25 SP:FA CYC:232 SL:152
8378  AD 02 20  LDA $2002 = FF                  A:10 X:00 Y:F0 P:25 SP:FA CYC:241 SL:152
837B  10 FB     BPL $8378                       A:10 X:00 Y:F0 P:25 SP:FA CYC:253 SL:152
8378  AD 02 20  LDA $2002 = FF                  A:10 X:00 Y:F0 P:25 SP:FA CYC:262 SL:152
837B  10 FB     BPL $8378                       A:10 X:00 Y:F0 P:25 SP:FA CYC:274 SL:152
8378  AD 02 20  LDA $2002 = FF                  A:10 X:00 Y:F0 P:25 SP:FA CYC:283 SL:152
837B  10 FB     BPL $8378                       A:10 X:00 Y:F0 P:25 SP:FA CYC:295 SL:152
8378  AD 02 20  LDA $2002 = FF                  A:10 X:00 Y:F0 P:25 SP:FA CYC:304 SL:152
837B  10 FB     BPL $8378                       A:10 X:00 Y:F0 P:25 SP:FA CYC:316 SL:152
8378  AD 02 20  LDA $2002 = FF                  A:10 X:00 Y:F0 P:25 SP:FA CYC:325 SL:152
837B  10 FB     BPL $8378                       A:10 X:00 Y:F0 P:25 SP:FA CYC:337 SL:152
8378  AD 02 20  LDA $2002 = FF                  A:10 X:00 Y:F0 P:25 SP:FA CYC:  5 SL:153
837B  10 FB     BPL $8378                       A:10 X:00 Y:F0 P:25 SP:FA CYC: 17 SL:153
8378  AD 02 20  LDA $2002 = FF                  A:10 X:00 Y:F0 P:25 SP:FA CYC: 26 SL:153
837B  10 FB     BPL $8378                       A:10 X:00 Y:F0 P:25 SP:FA CYC: 38 SL:153
8378  AD 02 20  LDA $2002 = FF                  A:10 X:00 Y:F0 P:25 SP:FA CYC: 47 SL:153
837B  10 FB     BPL $8378                       A:10 X:00 Y:F0 P:25 SP:FA CYC: 59 SL:153
8378  AD 02 20  LDA $2002 = FF                  A:10 X:00 Y:F0 P:25 SP:FA CYC: 68 SL:153
837B  10 FB     BPL $8378                       A:10 X:00 Y:F0 P:25 SP:FA CYC: 80 SL:153
8378  AD 02 20  LDA $2002 = FF                  A:10 X:00 Y:F0 P:25 SP:FA CYC: 89 SL:153
837B  10 FB     BPL $8378                       A:10 X:00 Y:F0 P:25 SP:FA CYC:101 SL:153
8378  AD 02 20  LDA $2002 = FF                  A:10 X:00 Y:F0 P:25 SP:FA CYC:110 SL:153
837B  10 FB     BPL $8378                       A:10 X:00 Y:F0 P:25 SP:FA CYC:122 SL:153
8378  AD 02 20  LDA $2002 = FF                  A:10 X:00 Y:F0 P:25 SP:FA CYC:131 SL:153
837B  10 FB     BPL $8378                       A:10 X:00 Y:F0 P:25 SP:FA CYC:143 SL:153
8378  AD 02 20  LDA $2002 = FF                  A:10 X:00 Y:F0 P:25 SP:FA CYC:152 SL:153
837B  10 FB     BPL $8378                       A:10 X:00 Y:F0 P:25 SP:FA CYC:164 SL:153
8378  AD 02 20  LDA $2002 = FF                  A:10 X:00 Y:F0 P:25 SP:FA CYC:173 SL:153
837B  10 FB     BPL $8378                       A:10 X:00 Y:F0 P:25 SP:FA CYC:185 SL:153
8378  AD 02 20  LDA $2002 = FF                  A:10 X:00 Y:F0 P:25 SP:FA CYC:194 SL:153
837B  10 FB     BPL $8378                       A:10 X:00 Y:F0 P:25 SP:FA CYC:206 SL:153
8378  AD 02 20  LDA $2002 = FF                  A:10 X:00 Y:F0 P:25 SP:FA CYC:215 SL:153
837B  10 FB     BPL $8378                       A:10 X:00 Y:F0 P:25 SP:FA CYC:227 SL:153
8378  AD 02 20  LDA $2002 = FF                  A:10 X:00 Y:F0 P:25 SP:FA CYC:236 SL:153
837B  10 FB     BPL $8378                       A:10 X:00 Y:F0 P:25 SP:FA CYC:248 SL:153
8378  AD 02 20  LDA $2002 = FF                  A:10 X:00 Y:F0 P:25 SP:FA CYC:257 SL:153
837B  10 FB     BPL $8378                       A:10 X:00 Y:F0 P:25 SP:FA CYC:269 SL:153
8378  AD 02 20  LDA $2002 = FF                  A:10 X:00 Y:F0 P:25 SP:FA CYC:278 SL:153
837B  10 FB     BPL $8378                       A:10 X:00 Y:F0 P:25 SP:FA CYC:290 SL:153
8378  AD 02 20  LDA $2002 = FF                  A:10 X:00 Y:F0 P:25 SP:FA CYC:299 SL:153
837B  10 FB     BPL $8378                       A:10 X:00 Y:F0 P:25 SP:FA CYC:311 SL:153
8378  AD 02 20  LDA $2002 = FF                  A:10 X:00 Y:F0 P:25 SP:FA CYC:320 SL:153
837B  10 FB     BPL $8378                       A:10 X:00 Y:F0 P:25 SP:FA CYC:332 SL:153
8378  AD 02 20  LDA $2002 = FF                  A:10 X:00 Y:F0 P:25 SP:FA CYC:  0 SL:154
837B  10 FB     BPL $8378                       A:10 X:00 Y:F0 P:25 SP:FA CYC: 12 SL:154
8378  AD 02 20  LDA $2002 = FF                  A:10 X:00 Y:F0 P:25 SP:FA CYC: 21 SL:154
837B  10 FB     BPL $8378                       A:10 X:00 Y:F0 P:25 SP:FA CYC: 33 SL:154
8378  AD 02 20  LDA $2002 = FF                  A:10 X:00 Y:F0 P:25 SP:FA CYC: 42 SL:154
837B  10 FB     BPL $8378                       A:10 X:00 Y:F0 P:25 SP:FA CYC: 54 SL:154
8378  AD 02 20  LDA $2002 = FF                  A:10 X:00 Y:F0 P:25 SP:FA CYC: 63 SL:154
837B  10 FB     BPL $8378                       A:10 X:00 Y:F0 P:25 SP:FA CYC: 75 SL:154
8378  AD 02 20  LDA $2002 = FF                  A:10 X:00 Y:F0 P:25 SP:FA CYC: 84 SL:154
837B  10 FB     BPL $8378                       A:10 X:00 Y:F0 P:25 SP:FA CYC: 96 SL:154
8378  AD 02 20  LDA $2002 = FF                  A:10 X:00 Y:F0 P:25 SP:FA CYC:105 SL:154
837B  10 FB     BPL $8378                       A:10 X:00 Y:F0 P:25 SP:FA CYC:117 SL:154
8378  AD 02 20  LDA $2002 = FF                  A:10 X:00 Y:F0 P:25 SP:FA CYC:126 SL:154
837B  10 FB     BPL $8378                       A:10 X:00 Y:F0 P:25 SP:FA CYC:138 SL:154
8378  AD 02 20  LDA $2002 = FF                  A:10 X:00 Y:F0 P:25 SP:FA CYC:147 SL:154
837B  10 FB     BPL $8378                       A:10 X:00 Y:F0 P:25 SP:FA CYC:159 SL:154
8378  AD 02 20  LDA $2002 = FF                  A:10 X:00 Y:F0 P:25 SP:FA CYC:168 SL:154
837B  10 FB     BPL $8378                       A:10 X:00 Y:F0 P:25 SP:FA CYC:180 SL:154
8378  AD 02 20  LDA $2002 = FF                  A:10 X:00 Y:F0 P:25 SP:FA CYC:189 SL:154
837B  10 FB     BPL $8378                       A:10 X:00 Y:F0 P:25 SP:FA CYC:201 SL:154
8378  AD 02 20  LDA $2002 = FF                  A:10 X:00 Y:F0 P:25 SP:FA CYC:210 SL:154
837B  10 FB     BPL $8378                       A:10 X:00 Y:F0 P:25 SP:FA CYC:222 SL:154
8378  AD 02 20  LDA $2002 = FF                  A:10 X:00 Y:F0 P:25 SP:FA CYC:231 SL:154
837B  10 FB     BPL $8378                       A:10 X:00 Y:F0 P:25 SP:FA CYC:243 SL:154
8378  AD 02 20  LDA $2002 = FF                  A:10 X:00 Y:F0 P:25 SP:FA CYC:252 SL:154
837B  10 FB     BPL $8378                       A:10 X:00 Y:F0 P:25 SP:FA CYC:264 SL:154
8378  AD 02 20  LDA $2002 = FF                  A:10 X:00 Y:F0 P:25 SP:FA CYC:273 SL:154
837B  10 FB     BPL $8378                       A:10 X:00 Y:F0 P:25 SP:FA CYC:285 SL:154
8378  AD 02 20  LDA $2002 = FF                  A:10 X:00 Y:F0 P:25 SP:FA CYC:294 SL:154
837B  10 FB     BPL $8378                       A:10 X:00 Y:F0 P:25 SP:FA CYC:306 SL:154
8378  AD 02 20  LDA $2002 = FF                  A:10 X:00 Y:F0 P:25 SP:FA CYC:315 SL:154
837B  10 FB     BPL $8378                       A:10 X:00 Y:F0 P:25 SP:FA CYC:327 SL:154
8378  AD 02 20  LDA $2002 = FF                  A:10 X:00 Y:F0 P:25 SP:FA CYC:336 SL:154
837B  10 FB     BPL $8378                       A:10 X:00 Y:F0 P:25 SP:FA CYC:  7 SL:155
8378  AD 02 20  LDA $2002 = FF                  A:10 X:00 Y:F0 P:25 SP:FA CYC: 16 SL:155
837B  10 FB     BPL $8378                       A:10 X:00 Y:F0 P:25 SP:FA CYC: 28 SL:155
8378  AD 02 20  LDA $2002 = FF                  A:10 X:00 Y:F0 P:25 SP:FA CYC: 37 SL:155
837B  10 FB     BPL $8378                       A:10 X:00 Y:F0 P:25 SP:FA CYC: 49 SL:155
8378  AD 02 20  LDA $2002 = FF                  A:10 X:00 Y:F0 P:25 SP:FA CYC: 58 SL:155
837B  10 FB     BPL $8378                       A:10 X:00 Y:F0 P:25 SP:FA CYC: 70 SL:155
8378  AD 02 20  LDA $2002 = FF                  A:10 X:00 Y:F0 P:25 SP:FA CYC: 79 SL:155
837B  10 FB     BPL $8378                       A:10 X:00 Y:F0 P:25 SP:FA CYC: 91 SL:155
8378  AD 02 20  LDA $2002 = FF                  A:10 X:00 Y:F0 P:25 SP:FA CYC:100 SL:155
837B  10 FB     BPL $8378                       A:10 X:00 Y:F0 P:25 SP:FA CYC:112 SL:155
8378  AD 02 20  LDA $2002 = FF                  A:10 X:00 Y:F0 P:25 SP:FA CYC:121 SL:155
837B  10 FB     BPL $8378                       A:10 X:00 Y:F0 P:25 SP:FA CYC:133 SL:155
8378  AD 02 20  LDA $2002 = FF                  A:10 X:00 Y:F0 P:25 SP:FA CYC:142 SL:155
837B  10 FB     BPL $8378                       A:10 X:00 Y:F0 P:25 SP:FA CYC:154 SL:155
8378  AD 02 20  LDA $2002 = FF                  A:10 X:00 Y:F0 P:25 SP:FA CYC:163 SL:155
837B  10 FB     BPL $8378                       A:10 X:00 Y:F0 P:25 SP:FA CYC:175 SL:155
8378  AD 02 20  LDA $2002 = FF                  A:10 X:00 Y:F0 P:25 SP:FA CYC:184 SL:155
837B  10 FB     BPL $8378                       A:10 X:00 Y:F0 P:25 SP:FA CYC:196 SL:155
8378  AD 02 20  LDA $2002 = FF                  A:10 X:00 Y:F0 P:25 SP:FA CYC:205 SL:155
837B  10 FB     BPL $8378                       A:10 X:00 Y:F0 P:25 SP:FA CYC:217 SL:155
8378  AD 02 20  LDA $2002 = FF                  A:10 X:00 Y:F0 P:25 SP:FA CYC:226 SL:155
837B  10 FB     BPL $8378                       A:10 X:00 Y:F0 P:25 SP:FA CYC:238 SL:155
8378  AD 02 20  LDA $2002 = FF                  A:10 X:00 Y:F0 P:25 SP:FA CYC:247 SL:155
837B  10 FB     BPL $8378                       A:10 X:00 Y:F0 P:25 SP:FA CYC:259 SL:155
8378  AD 02 20  LDA $2002 = FF                  A:10 X:00 Y:F0 P:25 SP:FA CYC:268 SL:155
837B  10 FB     BPL $8378                       A:10 X:00 Y:F0 P:25 SP:FA CYC:280 SL:155
8378  AD 02 20  LDA $2002 = FF                  A:10 X:00 Y:F0 P:25 SP:FA CYC:289 SL:155
837B  10 FB     BPL $8378                       A:10 X:00 Y:F0 P:25 SP:FA CYC:301 SL:155
8378  AD 02 20  LDA $2002 = FF                  A:10 X:00 Y:F0 P:25 SP:FA CYC:310 SL:155
837B  10 FB     BPL $8378                       A:10 X:00 Y:F0 P:25 SP:FA CYC:322 SL:155
8378  AD 02 20  LDA $2002 = FF                  A:10 X:00 Y:F0 P:25 SP:FA CYC:331 SL:155
837B  10 FB     BPL $8378                       A:10 X:00 Y:F0 P:25 SP:FA CYC:  2 SL:156
8378  AD 02 20  LDA $2002 = FF                  A:10 X:00 Y:F0 P:25 SP:FA CYC: 11 SL:156
837B  10 FB     BPL $8378                       A:10 X:00 Y:F0 P:25 SP:FA CYC: 23 SL:156
8378  AD 02 20  LDA $2002 = FF                  A:10 X:00 Y:F0 P:25 SP:FA CYC: 32 SL:156
837B  10 FB     BPL $8378                       A:10 X:00 Y:F0 P:25 SP:FA CYC: 44 SL:156
8378  AD 02 20  LDA $2002 = FF                  A:10 X:00 Y:F0 P:25 SP:FA CYC: 53 SL:156
837B  10 FB     BPL $8378                       A:10 X:00 Y:F0 P:25 SP:FA CYC: 65 SL:156
8378  AD 02 20  LDA $2002 = FF                  A:10 X:00 Y:F0 P:25 SP:FA CYC: 74 SL:156
837B  10 FB     BPL $8378                       A:10 X:00 Y:F0 P:25 SP:FA CYC: 86 SL:156
8378  AD 02 20  LDA $2002 = FF                  A:10 X:00 Y:F0 P:25 SP:FA CYC: 95 SL:156
837B  10 FB     BPL $8378                       A:10 X:00 Y:F0 P:25 SP:FA CYC:107 SL:156
8378  AD 02 20  LDA $2002 = FF                  A:10 X:00 Y:F0 P:25 SP:FA CYC:116 SL:156
837B  10 FB     BPL $8378                       A:10 X:00 Y:F0 P:25 SP:FA CYC:128 SL:156
8378  AD 02 20  LDA $2002 = FF                  A:10 X:00 Y:F0 P:25 SP:FA CYC:137 SL:156
837B  10 FB     BPL $8378                       A:10 X:00 Y:F0 P:25 SP:FA CYC:149 SL:156
8378  AD 02 20  LDA $2002 = FF                  A:10 X:00 Y:F0 P:25 SP:FA CYC:158 SL:156
837B  10 FB     BPL $8378                       A:10 X:00 Y:F0 P:25 SP:FA CYC:170 SL:156
8378  AD 02 20  LDA $2002 = FF                  A:10 X:00 Y:F0 P:25 SP:FA CYC:179 SL:156
837B  10 FB     BPL $8378                       A:10 X:00 Y:F0 P:25 SP:FA CYC:191 SL:156
8378  AD 02 20  LDA $2002 = FF                  A:10 X:00 Y:F0 P:25 SP:FA CYC:200 SL:156
837B  10 FB     BPL $8378                       A:10 X:00 Y:F0 P:25 SP:FA CYC:212 SL:156
8378  AD 02 20  LDA $2002 = FF                  A:10 X:00 Y:F0 P:25 SP:FA CYC:221 SL:156
837B  10 FB     BPL $8378                       A:10 X:00 Y:F0 P:25 SP:FA CYC:233 SL:156
8378  AD 02 20  LDA $2002 = FF                  A:10 X:00 Y:F0 P:25 SP:FA CYC:242 SL:156
837B  10 FB     BPL $8378                       A:10 X:00 Y:F0 P:25 SP:FA CYC:254 SL:156
8378  AD 02 20  LDA $2002 = FF                  A:10 X:00 Y:F0 P:25 SP:FA CYC:263 SL:156
837B  10 FB     BPL $8378                       A:10 X:00 Y:F0 P:25 SP:FA CYC:275 SL:156
8378  AD 02 20  LDA $2002 = FF                  A:10 X:00 Y:F0 P:25 SP:FA CYC:284 SL:156
837B  10 FB     BPL $8378                       A:10 X:00 Y:F0 P:25 SP:FA CYC:296 SL:156
8378  AD 02 20  LDA $2002 = FF                  A:10 X:00 Y:F0 P:25 SP:FA CYC:305 SL:156
837B  10 FB     BPL $8378                       A:10 X:00 Y:F0 P:25 SP:FA CYC:317 SL:156
8378  AD 02 20  LDA $2002 = FF                  A:10 X:00 Y:F0 P:25 SP:FA CYC:326 SL:156
837B  10 FB     BPL $8378                       A:10 X:00 Y:F0 P:25 SP:FA CYC:338 SL:156
8378  AD 02 20  LDA $2002 = FF                  A:10 X:00 Y:F0 P:25 SP:FA CYC:  6 SL:157
837B  10 FB     BPL $8378                       A:10 X:00 Y:F0 P:25 SP:FA CYC: 18 SL:157
8378  AD 02 20  LDA $2002 = FF                  A:10 X:00 Y:F0 P:25 SP:FA CYC: 27 SL:157
837B  10 FB     BPL $8378                       A:10 X:00 Y:F0 P:25 SP:FA CYC: 39 SL:157
8378  AD 02 20  LDA $2002 = FF                  A:10 X:00 Y:F0 P:25 SP:FA CYC: 48 SL:157
837B  10 FB     BPL $8378                       A:10 X:00 Y:F0 P:25 SP:FA CYC: 60 SL:157
8378  AD 02 20  LDA $2002 = FF                  A:10 X:00 Y:F0 P:25 SP:FA CYC: 69 SL:157
837B  10 FB     BPL $8378                       A:10 X:00 Y:F0 P:25 SP:FA CYC: 81 SL:157
8378  AD 02 20  LDA $2002 = FF                  A:10 X:00 Y:F0 P:25 SP:FA CYC: 90 SL:157
837B  10 FB     BPL $8378                       A:10 X:00 Y:F0 P:25 SP:FA CYC:102 SL:157
8378  AD 02 20  LDA $2002 = FF                  A:10 X:00 Y:F0 P:25 SP:FA CYC:111 SL:157
837B  10 FB     BPL $8378                       A:10 X:00 Y:F0 P:25 SP:FA CYC:123 SL:157
8378  AD 02 20  LDA $2002 = FF                  A:10 X:00 Y:F0 P:25 SP:FA CYC:132 SL:157
837B  10 FB     BPL $8378                       A:10 X:00 Y:F0 P:25 SP:FA CYC:144 SL:157
8378  AD 02 20  LDA $2002 = FF                  A:10 X:00 Y:F0 P:25 SP:FA CYC:153 SL:157
837B  10 FB     BPL $8378                       A:10 X:00 Y:F0 P:25 SP:FA CYC:165 SL:157
8378  AD 02 20  LDA $2002 = FF                  A:10 X:00 Y:F0 P:25 SP:FA CYC:174 SL:157
837B  10 FB     BPL $8378                       A:10 X:00 Y:F0 P:25 SP:FA CYC:186 SL:157
8378  AD 02 20  LDA $2002 = FF                  A:10 X:00 Y:F0 P:25 SP:FA CYC:195 SL:157
837B  10 FB     BPL $8378                       A:10 X:00 Y:F0 P:25 SP:FA CYC:207 SL:157
8378  AD 02 20  LDA $2002 = FF                  A:10 X:00 Y:F0 P:25 SP:FA CYC:216 SL:157
837B  10 FB     BPL $8378                       A:10 X:00 Y:F0 P:25 SP:FA CYC:228 SL:157
8378  AD 02 20  LDA $2002 = FF                  A:10 X:00 Y:F0 P:25 SP:FA CYC:237 SL:157
837B  10 FB     BPL $8378                       A:10 X:00 Y:F0 P:25 SP:FA CYC:249 SL:157
8378  AD 02 20  LDA $2002 = FF                  A:10 X:00 Y:F0 P:25 SP:FA CYC:258 SL:157
837B  10 FB     BPL $8378                       A:10 X:00 Y:F0 P:25 SP:FA CYC:270 SL:157
8378  AD 02 20  LDA $2002 = FF                  A:10 X:00 Y:F0 P:25 SP:FA CYC:279 SL:157
837B  10 FB     BPL $8378                       A:10 X:00 Y:F0 P:25 SP:FA CYC:291 SL:157
8378  AD 02 20  LDA $2002 = FF                  A:10 X:00 Y:F0 P:25 SP:FA CYC:300 SL:157
837B  10 FB     BPL $8378                       A:10 X:00 Y:F0 P:25 SP:FA CYC:312 SL:157
8378  AD 02 20  LDA $2002 = FF                  A:10 X:00 Y:F0 P:25 SP:FA CYC:321 SL:157
837B  10 FB     BPL $8378                       A:10 X:00 Y:F0 P:25 SP:FA CYC:333 SL:157
8378  AD 02 20  LDA $2002 = FF                  A:10 X:00 Y:F0 P:25 SP:FA CYC:  1 SL:158
837B  10 FB     BPL $8378                       A:10 X:00 Y:F0 P:25 SP:FA CYC: 13 SL:158
8378  AD 02 20  LDA $2002 = FF                  A:10 X:00 Y:F0 P:25 SP:FA CYC: 22 SL:158
837B  10 FB     BPL $8378                       A:10 X:00 Y:F0 P:25 SP:FA CYC: 34 SL:158
8378  AD 02 20  LDA $2002 = FF                  A:10 X:00 Y:F0 P:25 SP:FA CYC: 43 SL:158
837B  10 FB     BPL $8378                       A:10 X:00 Y:F0 P:25 SP:FA CYC: 55 SL:158
8378  AD 02 20  LDA $2002 = FF                  A:10 X:00 Y:F0 P:25 SP:FA CYC: 64 SL:158
837B  10 FB     BPL $8378                       A:10 X:00 Y:F0 P:25 SP:FA CYC: 76 SL:158
8378  AD 02 20  LDA $2002 = FF                  A:10 X:00 Y:F0 P:25 SP:FA CYC: 85 SL:158
837B  10 FB     BPL $8378                       A:10 X:00 Y:F0 P:25 SP:FA CYC: 97 SL:158
8378  AD 02 20  LDA $2002 = FF                  A:10 X:00 Y:F0 P:25 SP:FA CYC:106 SL:158
837B  10 FB     BPL $8378                       A:10 X:00 Y:F0 P:25 SP:FA CYC:118 SL:158
8378  AD 02 20  LDA $2002 = FF                  A:10 X:00 Y:F0 P:25 SP:FA CYC:127 SL:158
837B  10 FB     BPL $8378                       A:10 X:00 Y:F0 P:25 SP:FA CYC:139 SL:158
8378  AD 02 20  LDA $2002 = FF                  A:10 X:00 Y:F0 P:25 SP:FA CYC:148 SL:158
837B  10 FB     BPL $8378                       A:10 X:00 Y:F0 P:25 SP:FA CYC:160 SL:158
8378  AD 02 20  LDA $2002 = FF                  A:10 X:00 Y:F0 P:25 SP:FA CYC:169 SL:158
837B  10 FB     BPL $8378                       A:10 X:00 Y:F0 P:25 SP:FA CYC:181 SL:158
8378  AD 02 20  LDA $2002 = FF                  A:10 X:00 Y:F0 P:25 SP:FA CYC:190 SL:158
837B  10 FB     BPL $8378                       A:10 X:00 Y:F0 P:25 SP:FA CYC:202 SL:158
8378  AD 02 20  LDA $2002 = FF                  A:10 X:00 Y:F0 P:25 SP:FA CYC:211 SL:158
837B  10 FB     BPL $8378                       A:10 X:00 Y:F0 P:25 SP:FA CYC:223 SL:158
8378  AD 02 20  LDA $2002 = FF                  A:10 X:00 Y:F0 P:25 SP:FA CYC:232 SL:158
837B  10 FB     BPL $8378                       A:10 X:00 Y:F0 P:25 SP:FA CYC:244 SL:158
8378  AD 02 20  LDA $2002 = FF                  A:10 X:00 Y:F0 P:25 SP:FA CYC:253 SL:158
837B  10 FB     BPL $8378                       A:10 X:00 Y:F0 P:25 SP:FA CYC:265 SL:158
8378  AD 02 20  LDA $2002 = FF                  A:10 X:00 Y:F0 P:25 SP:FA CYC:274 SL:158
837B  10 FB     BPL $8378                       A:10 X:00 Y:F0 P:25 SP:FA CYC:286 SL:158
8378  AD 02 20  LDA $2002 = FF                  A:10 X:00 Y:F0 P:25 SP:FA CYC:295 SL:158
837B  10 FB     BPL $8378                       A:10 X:00 Y:F0 P:25 SP:FA CYC:307 SL:158
8378  AD 02 20  LDA $2002 = FF                  A:10 X:00 Y:F0 P:25 SP:FA CYC:316 SL:158
837B  10 FB     BPL $8378                       A:10 X:00 Y:F0 P:25 SP:FA CYC:328 SL:158
8378  AD 02 20  LDA $2002 = FF                  A:10 X:00 Y:F0 P:25 SP:FA CYC:337 SL:158
837B  10 FB     BPL $8378                       A:10 X:00 Y:F0 P:25 SP:FA CYC:  8 SL:159
8378  AD 02 20  LDA $2002 = FF                  A:10 X:00 Y:F0 P:25 SP:FA CYC: 17 SL:159
837B  10 FB     BPL $8378                       A:10 X:00 Y:F0 P:25 SP:FA CYC: 29 SL:159
8378  AD 02 20  LDA $2002 = FF                  A:10 X:00 Y:F0 P:25 SP:FA CYC: 38 SL:159
837B  10 FB     BPL $8378                       A:10 X:00 Y:F0 P:25 SP:FA CYC: 50 SL:159
8378  AD 02 20  LDA $2002 = FF                  A:10 X:00 Y:F0 P:25 SP:FA CYC: 59 SL:159
837B  10 FB     BPL $8378                       A:10 X:00 Y:F0 P:25 SP:FA CYC: 71 SL:159
8378  AD 02 20  LDA $2002 = FF                  A:10 X:00 Y:F0 P:25 SP:FA CYC: 80 SL:159
837B  10 FB     BPL $8378                       A:10 X:00 Y:F0 P:25 SP:FA CYC: 92 SL:159
8378  AD 02 20  LDA $2002 = FF                  A:10 X:00 Y:F0 P:25 SP:FA CYC:101 SL:159
837B  10 FB     BPL $8378                       A:10 X:00 Y:F0 P:25 SP:FA CYC:113 SL:159
8378  AD 02 20  LDA $2002 = FF                  A:10 X:00 Y:F0 P:25 SP:FA CYC:122 SL:159
837B  10 FB     BPL $8378                       A:10 X:00 Y:F0 P:25 SP:FA CYC:134 SL:159
8378  AD 02 20  LDA $2002 = FF                  A:10 X:00 Y:F0 P:25 SP:FA CYC:143 SL:159
837B  10 FB     BPL $8378                       A:10 X:00 Y:F0 P:25 SP:FA CYC:155 SL:159
8378  AD 02 20  LDA $2002 = FF                  A:10 X:00 Y:F0 P:25 SP:FA CYC:164 SL:159
837B  10 FB     BPL $8378                       A:10 X:00 Y:F0 P:25 SP:FA CYC:176 SL:159
8378  AD 02 20  LDA $2002 = FF                  A:10 X:00 Y:F0 P:25 SP:FA CYC:185 SL:159
837B  10 FB     BPL $8378                       A:10 X:00 Y:F0 P:25 SP:FA CYC:197 SL:159
8378  AD 02 20  LDA $2002 = FF                  A:10 X:00 Y:F0 P:25 SP:FA CYC:206 SL:159
837B  10 FB     BPL $8378                       A:10 X:00 Y:F0 P:25 SP:FA CYC:218 SL:159
8378  AD 02 20  LDA $2002 = FF                  A:10 X:00 Y:F0 P:25 SP:FA CYC:227 SL:159
837B  10 FB     BPL $8378                       A:10 X:00 Y:F0 P:25 SP:FA CYC:239 SL:159
8378  AD 02 20  LDA $2002 = FF                  A:10 X:00 Y:F0 P:25 SP:FA CYC:248 SL:159
837B  10 FB     BPL $8378                       A:10 X:00 Y:F0 P:25 SP:FA CYC:260 SL:159
8378  AD 02 20  LDA $2002 = FF                  A:10 X:00 Y:F0 P:25 SP:FA CYC:269 SL:159
837B  10 FB     BPL $8378                       A:10 X:00 Y:F0 P:25 SP:FA CYC:281 SL:159
8378  AD 02 20  LDA $2002 = FF                  A:10 X:00 Y:F0 P:25 SP:FA CYC:290 SL:159
837B  10 FB     BPL $8378                       A:10 X:00 Y:F0 P:25 SP:FA CYC:302 SL:159
8378  AD 02 20  LDA $2002 = FF                  A:10 X:00 Y:F0 P:25 SP:FA CYC:311 SL:159
837B  10 FB     BPL $8378                       A:10 X:00 Y:F0 P:25 SP:FA CYC:323 SL:159
8378  AD 02 20  LDA $2002 = FF                  A:10 X:00 Y:F0 P:25 SP:FA CYC:332 SL:159
837B  10 FB     BPL $8378                       A:10 X:00 Y:F0 P:25 SP:FA CYC:  3 SL:160
8378  AD 02 20  LDA $2002 = FF                  A:10 X:00 Y:F0 P:25 SP:FA CYC: 12 SL:160
837B  10 FB     BPL $8378                       A:10 X:00 Y:F0 P:25 SP:FA CYC: 24 SL:160
8378  AD 02 20  LDA $2002 = FF                  A:10 X:00 Y:F0 P:25 SP:FA CYC: 33 SL:160
837B  10 FB     BPL $8378                       A:10 X:00 Y:F0 P:25 SP:FA CYC: 45 SL:160
8378  AD 02 20  LDA $2002 = FF                  A:10 X:00 Y:F0 P:25 SP:FA CYC: 54 SL:160
837B  10 FB     BPL $8378                       A:10 X:00 Y:F0 P:25 SP:FA CYC: 66 SL:160
8378  AD 02 20  LDA $2002 = FF                  A:10 X:00 Y:F0 P:25 SP:FA CYC: 75 SL:160
837B  10 FB     BPL $8378                       A:10 X:00 Y:F0 P:25 SP:FA CYC: 87 SL:160
8378  AD 02 20  LDA $2002 = FF                  A:10 X:00 Y:F0 P:25 SP:FA CYC: 96 SL:160
837B  10 FB     BPL $8378                       A:10 X:00 Y:F0 P:25 SP:FA CYC:108 SL:160
8378  AD 02 20  LDA $2002 = FF                  A:10 X:00 Y:F0 P:25 SP:FA CYC:117 SL:160
837B  10 FB     BPL $8378                       A:10 X:00 Y:F0 P:25 SP:FA CYC:129 SL:160
8378  AD 02 20  LDA $2002 = FF                  A:10 X:00 Y:F0 P:25 SP:FA CYC:138 SL:160
837B  10 FB     BPL $8378                       A:10 X:00 Y:F0 P:25 SP:FA CYC:150 SL:160
8378  AD 02 20  LDA $2002 = FF                  A:10 X:00 Y:F0 P:25 SP:FA CYC:159 SL:160
837B  10 FB     BPL $8378                       A:10 X:00 Y:F0 P:25 SP:FA CYC:171 SL:160
8378  AD 02 20  LDA $2002 = FF                  A:10 X:00 Y:F0 P:25 SP:FA CYC:180 SL:160
837B  10 FB     BPL $8378                       A:10 X:00 Y:F0 P:25 SP:FA CYC:192 SL:160
8378  AD 02 20  LDA $2002 = FF                  A:10 X:00 Y:F0 P:25 SP:FA CYC:201 SL:160
837B  10 FB     BPL $8378                       A:10 X:00 Y:F0 P:25 SP:FA CYC:213 SL:160
8378  AD 02 20  LDA $2002 = FF                  A:10 X:00 Y:F0 P:25 SP:FA CYC:222 SL:160
837B  10 FB     BPL $8378                       A:10 X:00 Y:F0 P:25 SP:FA CYC:234 SL:160
8378  AD 02 20  LDA $2002 = FF                  A:10 X:00 Y:F0 P:25 SP:FA CYC:243 SL:160
837B  10 FB     BPL $8378                       A:10 X:00 Y:F0 P:25 SP:FA CYC:255 SL:160
8378  AD 02 20  LDA $2002 = FF                  A:10 X:00 Y:F0 P:25 SP:FA CYC:264 SL:160
837B  10 FB     BPL $8378                       A:10 X:00 Y:F0 P:25 SP:FA CYC:276 SL:160
8378  AD 02 20  LDA $2002 = FF                  A:10 X:00 Y:F0 P:25 SP:FA CYC:285 SL:160
837B  10 FB     BPL $8378                       A:10 X:00 Y:F0 P:25 SP:FA CYC:297 SL:160
8378  AD 02 20  LDA $2002 = FF                  A:10 X:00 Y:F0 P:25 SP:FA CYC:306 SL:160
837B  10 FB     BPL $8378                       A:10 X:00 Y:F0 P:25 SP:FA CYC:318 SL:160
8378  AD 02 20  LDA $2002 = FF                  A:10 X:00 Y:F0 P:25 SP:FA CYC:327 SL:160
837B  10 FB     BPL $8378                       A:10 X:00 Y:F0 P:25 SP:FA CYC:339 SL:160
8378  AD 02 20  LDA $2002 = FF                  A:10 X:00 Y:F0 P:25 SP:FA CYC:  7 SL:161
837B  10 FB     BPL $8378                       A:10 X:00 Y:F0 P:25 SP:FA CYC: 19 SL:161
8378  AD 02 20  LDA $2002 = FF                  A:10 X:00 Y:F0 P:25 SP:FA CYC: 28 SL:161
837B  10 FB     BPL $8378                       A:10 X:00 Y:F0 P:25 SP:FA CYC: 40 SL:161
8378  AD 02 20  LDA $2002 = FF                  A:10 X:00 Y:F0 P:25 SP:FA CYC: 49 SL:161
837B  10 FB     BPL $8378                       A:10 X:00 Y:F0 P:25 SP:FA CYC: 61 SL:161
8378  AD 02 20  LDA $2002 = FF                  A:10 X:00 Y:F0 P:25 SP:FA CYC: 70 SL:161
837B  10 FB     BPL $8378                       A:10 X:00 Y:F0 P:25 SP:FA CYC: 82 SL:161
8378  AD 02 20  LDA $2002 = FF                  A:10 X:00 Y:F0 P:25 SP:FA CYC: 91 SL:161
837B  10 FB     BPL $8378                       A:10 X:00 Y:F0 P:25 SP:FA CYC:103 SL:161
8378  AD 02 20  LDA $2002 = FF                  A:10 X:00 Y:F0 P:25 SP:FA CYC:112 SL:161
837B  10 FB     BPL $8378                       A:10 X:00 Y:F0 P:25 SP:FA CYC:124 SL:161
8378  AD 02 20  LDA $2002 = FF                  A:10 X:00 Y:F0 P:25 SP:FA CYC:133 SL:161
837B  10 FB     BPL $8378                       A:10 X:00 Y:F0 P:25 SP:FA CYC:145 SL:161
8378  AD 02 20  LDA $2002 = FF                  A:10 X:00 Y:F0 P:25 SP:FA CYC:154 SL:161
837B  10 FB     BPL $8378                       A:10 X:00 Y:F0 P:25 SP:FA CYC:166 SL:161
8378  AD 02 20  LDA $2002 = FF                  A:10 X:00 Y:F0 P:25 SP:FA CYC:175 SL:161
837B  10 FB     BPL $8378                       A:10 X:00 Y:F0 P:25 SP:FA CYC:187 SL:161
8378  AD 02 20  LDA $2002 = FF                  A:10 X:00 Y:F0 P:25 SP:FA CYC:196 SL:161
837B  10 FB     BPL $8378                       A:10 X:00 Y:F0 P:25 SP:FA CYC:208 SL:161
8378  AD 02 20  LDA $2002 = FF                  A:10 X:00 Y:F0 P:25 SP:FA CYC:217 SL:161
837B  10 FB     BPL $8378                       A:10 X:00 Y:F0 P:25 SP:FA CYC:229 SL:161
8378  AD 02 20  LDA $2002 = FF                  A:10 X:00 Y:F0 P:25 SP:FA CYC:238 SL:161
837B  10 FB     BPL $8378                       A:10 X:00 Y:F0 P:25 SP:FA CYC:250 SL:161
8378  AD 02 20  LDA $2002 = FF                  A:10 X:00 Y:F0 P:25 SP:FA CYC:259 SL:161
837B  10 FB     BPL $8378                       A:10 X:00 Y:F0 P:25 SP:FA CYC:271 SL:161
8378  AD 02 20  LDA $2002 = FF                  A:10 X:00 Y:F0 P:25 SP:FA CYC:280 SL:161
837B  10 FB     BPL $8378                       A:10 X:00 Y:F0 P:25 SP:FA CYC:292 SL:161
8378  AD 02 20  LDA $2002 = FF                  A:10 X:00 Y:F0 P:25 SP:FA CYC:301 SL:161
837B  10 FB     BPL $8378                       A:10 X:00 Y:F0 P:25 SP:FA CYC:313 SL:161
8378  AD 02 20  LDA $2002 = FF                  A:10 X:00 Y:F0 P:25 SP:FA CYC:322 SL:161
837B  10 FB     BPL $8378                       A:10 X:00 Y:F0 P:25 SP:FA CYC:334 SL:161
8378  AD 02 20  LDA $2002 = FF                  A:10 X:00 Y:F0 P:25 SP:FA CYC:  2 SL:162
837B  10 FB     BPL $8378                       A:10 X:00 Y:F0 P:25 SP:FA CYC: 14 SL:162
8378  AD 02 20  LDA $2002 = FF                  A:10 X:00 Y:F0 P:25 SP:FA CYC: 23 SL:162
837B  10 FB     BPL $8378                       A:10 X:00 Y:F0 P:25 SP:FA CYC: 35 SL:162
8378  AD 02 20  LDA $2002 = FF                  A:10 X:00 Y:F0 P:25 SP:FA CYC: 44 SL:162
837B  10 FB     BPL $8378                       A:10 X:00 Y:F0 P:25 SP:FA CYC: 56 SL:162
8378  AD 02 20  LDA $2002 = FF                  A:10 X:00 Y:F0 P:25 SP:FA CYC: 65 SL:162
837B  10 FB     BPL $8378                       A:10 X:00 Y:F0 P:25 SP:FA CYC: 77 SL:162
8378  AD 02 20  LDA $2002 = FF                  A:10 X:00 Y:F0 P:25 SP:FA CYC: 86 SL:162
837B  10 FB     BPL $8378                       A:10 X:00 Y:F0 P:25 SP:FA CYC: 98 SL:162
8378  AD 02 20  LDA $2002 = FF                  A:10 X:00 Y:F0 P:25 SP:FA CYC:107 SL:162
837B  10 FB     BPL $8378                       A:10 X:00 Y:F0 P:25 SP:FA CYC:119 SL:162
8378  AD 02 20  LDA $2002 = FF                  A:10 X:00 Y:F0 P:25 SP:FA CYC:128 SL:162
837B  10 FB     BPL $8378                       A:10 X:00 Y:F0 P:25 SP:FA CYC:140 SL:162
8378  AD 02 20  LDA $2002 = FF                  A:10 X:00 Y:F0 P:25 SP:FA CYC:149 SL:162
837B  10 FB     BPL $8378                       A:10 X:00 Y:F0 P:25 SP:FA CYC:161 SL:162
8378  AD 02 20  LDA $2002 = FF                  A:10 X:00 Y:F0 P:25 SP:FA CYC:170 SL:162
837B  10 FB     BPL $8378                       A:10 X:00 Y:F0 P:25 SP:FA CYC:182 SL:162
8378  AD 02 20  LDA $2002 = FF                  A:10 X:00 Y:F0 P:25 SP:FA CYC:191 SL:162
837B  10 FB     BPL $8378                       A:10 X:00 Y:F0 P:25 SP:FA CYC:203 SL:162
8378  AD 02 20  LDA $2002 = FF                  A:10 X:00 Y:F0 P:25 SP:FA CYC:212 SL:162
837B  10 FB     BPL $8378                       A:10 X:00 Y:F0 P:25 SP:FA CYC:224 SL:162
8378  AD 02 20  LDA $2002 = FF                  A:10 X:00 Y:F0 P:25 SP:FA CYC:233 SL:162
837B  10 FB     BPL $8378                       A:10 X:00 Y:F0 P:25 SP:FA CYC:245 SL:162
8378  AD 02 20  LDA $2002 = FF                  A:10 X:00 Y:F0 P:25 SP:FA CYC:254 SL:162
837B  10 FB     BPL $8378                       A:10 X:00 Y:F0 P:25 SP:FA CYC:266 SL:162
8378  AD 02 20  LDA $2002 = FF                  A:10 X:00 Y:F0 P:25 SP:FA CYC:275 SL:162
837B  10 FB     BPL $8378                       A:10 X:00 Y:F0 P:25 SP:FA CYC:287 SL:162
8378  AD 02 20  LDA $2002 = FF                  A:10 X:00 Y:F0 P:25 SP:FA CYC:296 SL:162
837B  10 FB     BPL $8378                       A:10 X:00 Y:F0 P:25 SP:FA CYC:308 SL:162
8378  AD 02 20  LDA $2002 = FF                  A:10 X:00 Y:F0 P:25 SP:FA CYC:317 SL:162
837B  10 FB     BPL $8378                       A:10 X:00 Y:F0 P:25 SP:FA CYC:329 SL:162
8378  AD 02 20  LDA $2002 = FF                  A:10 X:00 Y:F0 P:25 SP:FA CYC:338 SL:162
837B  10 FB     BPL $8378                       A:10 X:00 Y:F0 P:25 SP:FA CYC:  9 SL:163
8378  AD 02 20  LDA $2002 = FF                  A:10 X:00 Y:F0 P:25 SP:FA CYC: 18 SL:163
837B  10 FB     BPL $8378                       A:10 X:00 Y:F0 P:25 SP:FA CYC: 30 SL:163
8378  AD 02 20  LDA $2002 = FF                  A:10 X:00 Y:F0 P:25 SP:FA CYC: 39 SL:163
837B  10 FB     BPL $8378                       A:10 X:00 Y:F0 P:25 SP:FA CYC: 51 SL:163
8378  AD 02 20  LDA $2002 = FF                  A:10 X:00 Y:F0 P:25 SP:FA CYC: 60 SL:163
837B  10 FB     BPL $8378                       A:10 X:00 Y:F0 P:25 SP:FA CYC: 72 SL:163
8378  AD 02 20  LDA $2002 = FF                  A:10 X:00 Y:F0 P:25 SP:FA CYC: 81 SL:163
837B  10 FB     BPL $8378                       A:10 X:00 Y:F0 P:25 SP:FA CYC: 93 SL:163
8378  AD 02 20  LDA $2002 = FF                  A:10 X:00 Y:F0 P:25 SP:FA CYC:102 SL:163
837B  10 FB     BPL $8378                       A:10 X:00 Y:F0 P:25 SP:FA CYC:114 SL:163
8378  AD 02 20  LDA $2002 = FF                  A:10 X:00 Y:F0 P:25 SP:FA CYC:123 SL:163
837B  10 FB     BPL $8378                       A:10 X:00 Y:F0 P:25 SP:FA CYC:135 SL:163
8378  AD 02 20  LDA $2002 = FF                  A:10 X:00 Y:F0 P:25 SP:FA CYC:144 SL:163
837B  10 FB     BPL $8378                       A:10 X:00 Y:F0 P:25 SP:FA CYC:156 SL:163
8378  AD 02 20  LDA $2002 = FF                  A:10 X:00 Y:F0 P:25 SP:FA CYC:165 SL:163
837B  10 FB     BPL $8378                       A:10 X:00 Y:F0 P:25 SP:FA CYC:177 SL:163
8378  AD 02 20  LDA $2002 = FF                  A:10 X:00 Y:F0 P:25 SP:FA CYC:186 SL:163
837B  10 FB     BPL $8378                       A:10 X:00 Y:F0 P:25 SP:FA CYC:198 SL:163
8378  AD 02 20  LDA $2002 = FF                  A:10 X:00 Y:F0 P:25 SP:FA CYC:207 SL:163
837B  10 FB     BPL $8378                       A:10 X:00 Y:F0 P:25 SP:FA CYC:219 SL:163
8378  AD 02 20  LDA $2002 = FF                  A:10 X:00 Y:F0 P:25 SP:FA CYC:228 SL:163
837B  10 FB     BPL $8378                       A:10 X:00 Y:F0 P:25 SP:FA CYC:240 SL:163
8378  AD 02 20  LDA $2002 = FF                  A:10 X:00 Y:F0 P:25 SP:FA CYC:249 SL:163
837B  10 FB     BPL $8378                       A:10 X:00 Y:F0 P:25 SP:FA CYC:261 SL:163
8378  AD 02 20  LDA $2002 = FF                  A:10 X:00 Y:F0 P:25 SP:FA CYC:270 SL:163
837B  10 FB     BPL $8378                       A:10 X:00 Y:F0 P:25 SP:FA CYC:282 SL:163
8378  AD 02 20  LDA $2002 = FF                  A:10 X:00 Y:F0 P:25 SP:FA CYC:291 SL:163
837B  10 FB     BPL $8378                       A:10 X:00 Y:F0 P:25 SP:FA CYC:303 SL:163
8378  AD 02 20  LDA $2002 = FF                  A:10 X:00 Y:F0 P:25 SP:FA CYC:312 SL:163
837B  10 FB     BPL $8378                       A:10 X:00 Y:F0 P:25 SP:FA CYC:324 SL:163
8378  AD 02 20  LDA $2002 = FF                  A:10 X:00 Y:F0 P:25 SP:FA CYC:333 SL:163
837B  10 FB     BPL $8378                       A:10 X:00 Y:F0 P:25 SP:FA CYC:  4 SL:164
8378  AD 02 20  LDA $2002 = FF                  A:10 X:00 Y:F0 P:25 SP:FA CYC: 13 SL:164
837B  10 FB     BPL $8378                       A:10 X:00 Y:F0 P:25 SP:FA CYC: 25 SL:164
8378  AD 02 20  LDA $2002 = FF                  A:10 X:00 Y:F0 P:25 SP:FA CYC: 34 SL:164
837B  10 FB     BPL $8378                       A:10 X:00 Y:F0 P:25 SP:FA CYC: 46 SL:164
8378  AD 02 20  LDA $2002 = FF                  A:10 X:00 Y:F0 P:25 SP:FA CYC: 55 SL:164
837B  10 FB     BPL $8378                       A:10 X:00 Y:F0 P:25 SP:FA CYC: 67 SL:164
8378  AD 02 20  LDA $2002 = FF                  A:10 X:00 Y:F0 P:25 SP:FA CYC: 76 SL:164
837B  10 FB     BPL $8378                       A:10 X:00 Y:F0 P:25 SP:FA CYC: 88 SL:164
8378  AD 02 20  LDA $2002 = FF                  A:10 X:00 Y:F0 P:25 SP:FA CYC: 97 SL:164
837B  10 FB     BPL $8378                       A:10 X:00 Y:F0 P:25 SP:FA CYC:109 SL:164
8378  AD 02 20  LDA $2002 = FF                  A:10 X:00 Y:F0 P:25 SP:FA CYC:118 SL:164
837B  10 FB     BPL $8378                       A:10 X:00 Y:F0 P:25 SP:FA CYC:130 SL:164
8378  AD 02 20  LDA $2002 = FF                  A:10 X:00 Y:F0 P:25 SP:FA CYC:139 SL:164
837B  10 FB     BPL $8378                       A:10 X:00 Y:F0 P:25 SP:FA CYC:151 SL:164
8378  AD 02 20  LDA $2002 = FF                  A:10 X:00 Y:F0 P:25 SP:FA CYC:160 SL:164
837B  10 FB     BPL $8378                       A:10 X:00 Y:F0 P:25 SP:FA CYC:172 SL:164
8378  AD 02 20  LDA $2002 = FF                  A:10 X:00 Y:F0 P:25 SP:FA CYC:181 SL:164
837B  10 FB     BPL $8378                       A:10 X:00 Y:F0 P:25 SP:FA CYC:193 SL:164
8378  AD 02 20  LDA $2002 = FF                  A:10 X:00 Y:F0 P:25 SP:FA CYC:202 SL:164
837B  10 FB     BPL $8378                       A:10 X:00 Y:F0 P:25 SP:FA CYC:214 SL:164
8378  AD 02 20  LDA $2002 = FF                  A:10 X:00 Y:F0 P:25 SP:FA CYC:223 SL:164
837B  10 FB     BPL $8378                       A:10 X:00 Y:F0 P:25 SP:FA CYC:235 SL:164
8378  AD 02 20  LDA $2002 = FF                  A:10 X:00 Y:F0 P:25 SP:FA CYC:244 SL:164
837B  10 FB     BPL $8378                       A:10 X:00 Y:F0 P:25 SP:FA CYC:256 SL:164
8378  AD 02 20  LDA $2002 = FF                  A:10 X:00 Y:F0 P:25 SP:FA CYC:265 SL:164
837B  10 FB     BPL $8378                       A:10 X:00 Y:F0 P:25 SP:FA CYC:277 SL:164
8378  AD 02 20  LDA $2002 = FF                  A:10 X:00 Y:F0 P:25 SP:FA CYC:286 SL:164
837B  10 FB     BPL $8378                       A:10 X:00 Y:F0 P:25 SP:FA CYC:298 SL:164
8378  AD 02 20  LDA $2002 = FF                  A:10 X:00 Y:F0 P:25 SP:FA CYC:307 SL:164
837B  10 FB     BPL $8378                       A:10 X:00 Y:F0 P:25 SP:FA CYC:319 SL:164
8378  AD 02 20  LDA $2002 = FF                  A:10 X:00 Y:F0 P:25 SP:FA CYC:328 SL:164
837B  10 FB     BPL $8378                       A:10 X:00 Y:F0 P:25 SP:FA CYC:340 SL:164
8378  AD 02 20  LDA $2002 = FF                  A:10 X:00 Y:F0 P:25 SP:FA CYC:  8 SL:165
837B  10 FB     BPL $8378                       A:10 X:00 Y:F0 P:25 SP:FA CYC: 20 SL:165
8378  AD 02 20  LDA $2002 = FF                  A:10 X:00 Y:F0 P:25 SP:FA CYC: 29 SL:165
837B  10 FB     BPL $8378                       A:10 X:00 Y:F0 P:25 SP:FA CYC: 41 SL:165
8378  AD 02 20  LDA $2002 = FF                  A:10 X:00 Y:F0 P:25 SP:FA CYC: 50 SL:165
837B  10 FB     BPL $8378                       A:10 X:00 Y:F0 P:25 SP:FA CYC: 62 SL:165
8378  AD 02 20  LDA $2002 = FF                  A:10 X:00 Y:F0 P:25 SP:FA CYC: 71 SL:165
837B  10 FB     BPL $8378                       A:10 X:00 Y:F0 P:25 SP:FA CYC: 83 SL:165
8378  AD 02 20  LDA $2002 = FF                  A:10 X:00 Y:F0 P:25 SP:FA CYC: 92 SL:165
837B  10 FB     BPL $8378                       A:10 X:00 Y:F0 P:25 SP:FA CYC:104 SL:165
8378  AD 02 20  LDA $2002 = FF                  A:10 X:00 Y:F0 P:25 SP:FA CYC:113 SL:165
837B  10 FB     BPL $8378                       A:10 X:00 Y:F0 P:25 SP:FA CYC:125 SL:165
8378  AD 02 20  LDA $2002 = FF                  A:10 X:00 Y:F0 P:25 SP:FA CYC:134 SL:165
837B  10 FB     BPL $8378                       A:10 X:00 Y:F0 P:25 SP:FA CYC:146 SL:165
8378  AD 02 20  LDA $2002 = FF                  A:10 X:00 Y:F0 P:25 SP:FA CYC:155 SL:165
837B  10 FB     BPL $8378                       A:10 X:00 Y:F0 P:25 SP:FA CYC:167 SL:165
8378  AD 02 20  LDA $2002 = FF                  A:10 X:00 Y:F0 P:25 SP:FA CYC:176 SL:165
837B  10 FB     BPL $8378                       A:10 X:00 Y:F0 P:25 SP:FA CYC:188 SL:165
8378  AD 02 20  LDA $2002 = FF                  A:10 X:00 Y:F0 P:25 SP:FA CYC:197 SL:165
837B  10 FB     BPL $8378                       A:10 X:00 Y:F0 P:25 SP:FA CYC:209 SL:165
8378  AD 02 20  LDA $2002 = FF                  A:10 X:00 Y:F0 P:25 SP:FA CYC:218 SL:165
837B  10 FB     BPL $8378                       A:10 X:00 Y:F0 P:25 SP:FA CYC:230 SL:165
8378  AD 02 20  LDA $2002 = FF                  A:10 X:00 Y:F0 P:25 SP:FA CYC:239 SL:165
837B  10 FB     BPL $8378                       A:10 X:00 Y:F0 P:25 SP:FA CYC:251 SL:165
8378  AD 02 20  LDA $2002 = FF                  A:10 X:00 Y:F0 P:25 SP:FA CYC:260 SL:165
837B  10 FB     BPL $8378                       A:10 X:00 Y:F0 P:25 SP:FA CYC:272 SL:165
8378  AD 02 20  LDA $2002 = FF                  A:10 X:00 Y:F0 P:25 SP:FA CYC:281 SL:165
837B  10 FB     BPL $8378                       A:10 X:00 Y:F0 P:25 SP:FA CYC:293 SL:165
8378  AD 02 20  LDA $2002 = FF                  A:10 X:00 Y:F0 P:25 SP:FA CYC:302 SL:165
837B  10 FB     BPL $8378                       A:10 X:00 Y:F0 P:25 SP:FA CYC:314 SL:165
8378  AD 02 20  LDA $2002 = FF                  A:10 X:00 Y:F0 P:25 SP:FA CYC:323 SL:165
837B  10 FB     BPL $8378                       A:10 X:00 Y:F0 P:25 SP:FA CYC:335 SL:165
8378  AD 02 20  LDA $2002 = FF                  A:10 X:00 Y:F0 P:25 SP:FA CYC:  3 SL:166
837B  10 FB     BPL $8378                       A:10 X:00 Y:F0 P:25 SP:FA CYC: 15 SL:166
8378  AD 02 20  LDA $2002 = FF                  A:10 X:00 Y:F0 P:25 SP:FA CYC: 24 SL:166
837B  10 FB     BPL $8378                       A:10 X:00 Y:F0 P:25 SP:FA CYC: 36 SL:166
8378  AD 02 20  LDA $2002 = FF                  A:10 X:00 Y:F0 P:25 SP:FA CYC: 45 SL:166
837B  10 FB     BPL $8378                       A:10 X:00 Y:F0 P:25 SP:FA CYC: 57 SL:166
8378  AD 02 20  LDA $2002 = FF                  A:10 X:00 Y:F0 P:25 SP:FA CYC: 66 SL:166
837B  10 FB     BPL $8378                       A:10 X:00 Y:F0 P:25 SP:FA CYC: 78 SL:166
8378  AD 02 20  LDA $2002 = FF                  A:10 X:00 Y:F0 P:25 SP:FA CYC: 87 SL:166
837B  10 FB     BPL $8378                       A:10 X:00 Y:F0 P:25 SP:FA CYC: 99 SL:166
8378  AD 02 20  LDA $2002 = FF                  A:10 X:00 Y:F0 P:25 SP:FA CYC:108 SL:166
837B  10 FB     BPL $8378                       A:10 X:00 Y:F0 P:25 SP:FA CYC:120 SL:166
8378  AD 02 20  LDA $2002 = FF                  A:10 X:00 Y:F0 P:25 SP:FA CYC:129 SL:166
837B  10 FB     BPL $8378                       A:10 X:00 Y:F0 P:25 SP:FA CYC:141 SL:166
8378  AD 02 20  LDA $2002 = FF                  A:10 X:00 Y:F0 P:25 SP:FA CYC:150 SL:166
837B  10 FB     BPL $8378                       A:10 X:00 Y:F0 P:25 SP:FA CYC:162 SL:166
8378  AD 02 20  LDA $2002 = FF                  A:10 X:00 Y:F0 P:25 SP:FA CYC:171 SL:166
837B  10 FB     BPL $8378                       A:10 X:00 Y:F0 P:25 SP:FA CYC:183 SL:166
8378  AD 02 20  LDA $2002 = FF                  A:10 X:00 Y:F0 P:25 SP:FA CYC:192 SL:166
837B  10 FB     BPL $8378                       A:10 X:00 Y:F0 P:25 SP:FA CYC:204 SL:166
8378  AD 02 20  LDA $2002 = FF                  A:10 X:00 Y:F0 P:25 SP:FA CYC:213 SL:166
837B  10 FB     BPL $8378                       A:10 X:00 Y:F0 P:25 SP:FA CYC:225 SL:166
8378  AD 02 20  LDA $2002 = FF                  A:10 X:00 Y:F0 P:25 SP:FA CYC:234 SL:166
837B  10 FB     BPL $8378                       A:10 X:00 Y:F0 P:25 SP:FA CYC:246 SL:166
8378  AD 02 20  LDA $2002 = FF                  A:10 X:00 Y:F0 P:25 SP:FA CYC:255 SL:166
837B  10 FB     BPL $8378                       A:10 X:00 Y:F0 P:25 SP:FA CYC:267 SL:166
8378  AD 02 20  LDA $2002 = FF                  A:10 X:00 Y:F0 P:25 SP:FA CYC:276 SL:166
837B  10 FB     BPL $8378                       A:10 X:00 Y:F0 P:25 SP:FA CYC:288 SL:166
8378  AD 02 20  LDA $2002 = FF                  A:10 X:00 Y:F0 P:25 SP:FA CYC:297 SL:166
837B  10 FB     BPL $8378                       A:10 X:00 Y:F0 P:25 SP:FA CYC:309 SL:166
8378  AD 02 20  LDA $2002 = FF                  A:10 X:00 Y:F0 P:25 SP:FA CYC:318 SL:166
837B  10 FB     BPL $8378                       A:10 X:00 Y:F0 P:25 SP:FA CYC:330 SL:166
8378  AD 02 20  LDA $2002 = FF                  A:10 X:00 Y:F0 P:25 SP:FA CYC:339 SL:166
837B  10 FB     BPL $8378                       A:10 X:00 Y:F0 P:25 SP:FA CYC: 10 SL:167
8378  AD 02 20  LDA $2002 = FF                  A:10 X:00 Y:F0 P:25 SP:FA CYC: 19 SL:167
837B  10 FB     BPL $8378                       A:10 X:00 Y:F0 P:25 SP:FA CYC: 31 SL:167
8378  AD 02 20  LDA $2002 = FF                  A:10 X:00 Y:F0 P:25 SP:FA CYC: 40 SL:167
837B  10 FB     BPL $8378                       A:10 X:00 Y:F0 P:25 SP:FA CYC: 52 SL:167
8378  AD 02 20  LDA $2002 = FF                  A:10 X:00 Y:F0 P:25 SP:FA CYC: 61 SL:167
837B  10 FB     BPL $8378                       A:10 X:00 Y:F0 P:25 SP:FA CYC: 73 SL:167
8378  AD 02 20  LDA $2002 = FF                  A:10 X:00 Y:F0 P:25 SP:FA CYC: 82 SL:167
837B  10 FB     BPL $8378                       A:10 X:00 Y:F0 P:25 SP:FA CYC: 94 SL:167
8378  AD 02 20  LDA $2002 = FF                  A:10 X:00 Y:F0 P:25 SP:FA CYC:103 SL:167
837B  10 FB     BPL $8378                       A:10 X:00 Y:F0 P:25 SP:FA CYC:115 SL:167
8378  AD 02 20  LDA $2002 = FF                  A:10 X:00 Y:F0 P:25 SP:FA CYC:124 SL:167
837B  10 FB     BPL $8378                       A:10 X:00 Y:F0 P:25 SP:FA CYC:136 SL:167
8378  AD 02 20  LDA $2002 = FF                  A:10 X:00 Y:F0 P:25 SP:FA CYC:145 SL:167
837B  10 FB     BPL $8378                       A:10 X:00 Y:F0 P:25 SP:FA CYC:157 SL:167
8378  AD 02 20  LDA $2002 = FF                  A:10 X:00 Y:F0 P:25 SP:FA CYC:166 SL:167
837B  10 FB     BPL $8378                       A:10 X:00 Y:F0 P:25 SP:FA CYC:178 SL:167
8378  AD 02 20  LDA $2002 = FF                  A:10 X:00 Y:F0 P:25 SP:FA CYC:187 SL:167
837B  10 FB     BPL $8378                       A:10 X:00 Y:F0 P:25 SP:FA CYC:199 SL:167
8378  AD 02 20  LDA $2002 = FF                  A:10 X:00 Y:F0 P:25 SP:FA CYC:208 SL:167
837B  10 FB     BPL $8378                       A:10 X:00 Y:F0 P:25 SP:FA CYC:220 SL:167
8378  AD 02 20  LDA $2002 = FF                  A:10 X:00 Y:F0 P:25 SP:FA CYC:229 SL:167
837B  10 FB     BPL $8378                       A:10 X:00 Y:F0 P:25 SP:FA CYC:241 SL:167
8378  AD 02 20  LDA $2002 = FF                  A:10 X:00 Y:F0 P:25 SP:FA CYC:250 SL:167
837B  10 FB     BPL $8378                       A:10 X:00 Y:F0 P:25 SP:FA CYC:262 SL:167
8378  AD 02 20  LDA $2002 = FF                  A:10 X:00 Y:F0 P:25 SP:FA CYC:271 SL:167
837B  10 FB     BPL $8378                       A:10 X:00 Y:F0 P:25 SP:FA CYC:283 SL:167
8378  AD 02 20  LDA $2002 = FF                  A:10 X:00 Y:F0 P:25 SP:FA CYC:292 SL:167
837B  10 FB     BPL $8378                       A:10 X:00 Y:F0 P:25 SP:FA CYC:304 SL:167
8378  AD 02 20  LDA $2002 = FF                  A:10 X:00 Y:F0 P:25 SP:FA CYC:313 SL:167
837B  10 FB     BPL $8378                       A:10 X:00 Y:F0 P:25 SP:FA CYC:325 SL:167
8378  AD 02 20  LDA $2002 = FF                  A:10 X:00 Y:F0 P:25 SP:FA CYC:334 SL:167
837B  10 FB     BPL $8378                       A:10 X:00 Y:F0 P:25 SP:FA CYC:  5 SL:168
8378  AD 02 20  LDA $2002 = FF                  A:10 X:00 Y:F0 P:25 SP:FA CYC: 14 SL:168
837B  10 FB     BPL $8378                       A:10 X:00 Y:F0 P:25 SP:FA CYC: 26 SL:168
8378  AD 02 20  LDA $2002 = FF                  A:10 X:00 Y:F0 P:25 SP:FA CYC: 35 SL:168
837B  10 FB     BPL $8378                       A:10 X:00 Y:F0 P:25 SP:FA CYC: 47 SL:168
8378  AD 02 20  LDA $2002 = FF                  A:10 X:00 Y:F0 P:25 SP:FA CYC: 56 SL:168
837B  10 FB     BPL $8378                       A:10 X:00 Y:F0 P:25 SP:FA CYC: 68 SL:168
8378  AD 02 20  LDA $2002 = FF                  A:10 X:00 Y:F0 P:25 SP:FA CYC: 77 SL:168
837B  10 FB     BPL $8378                       A:10 X:00 Y:F0 P:25 SP:FA CYC: 89 SL:168
8378  AD 02 20  LDA $2002 = FF                  A:10 X:00 Y:F0 P:25 SP:FA CYC: 98 SL:168
837B  10 FB     BPL $8378                       A:10 X:00 Y:F0 P:25 SP:FA CYC:110 SL:168
8378  AD 02 20  LDA $2002 = FF                  A:10 X:00 Y:F0 P:25 SP:FA CYC:119 SL:168
837B  10 FB     BPL $8378                       A:10 X:00 Y:F0 P:25 SP:FA CYC:131 SL:168
8378  AD 02 20  LDA $2002 = FF                  A:10 X:00 Y:F0 P:25 SP:FA CYC:140 SL:168
837B  10 FB     BPL $8378                       A:10 X:00 Y:F0 P:25 SP:FA CYC:152 SL:168
8378  AD 02 20  LDA $2002 = FF                  A:10 X:00 Y:F0 P:25 SP:FA CYC:161 SL:168
837B  10 FB     BPL $8378                       A:10 X:00 Y:F0 P:25 SP:FA CYC:173 SL:168
8378  AD 02 20  LDA $2002 = FF                  A:10 X:00 Y:F0 P:25 SP:FA CYC:182 SL:168
837B  10 FB     BPL $8378                       A:10 X:00 Y:F0 P:25 SP:FA CYC:194 SL:168
8378  AD 02 20  LDA $2002 = FF                  A:10 X:00 Y:F0 P:25 SP:FA CYC:203 SL:168
837B  10 FB     BPL $8378                       A:10 X:00 Y:F0 P:25 SP:FA CYC:215 SL:168
8378  AD 02 20  LDA $2002 = FF                  A:10 X:00 Y:F0 P:25 SP:FA CYC:224 SL:168
837B  10 FB     BPL $8378                       A:10 X:00 Y:F0 P:25 SP:FA CYC:236 SL:168
8378  AD 02 20  LDA $2002 = FF                  A:10 X:00 Y:F0 P:25 SP:FA CYC:245 SL:168
837B  10 FB     BPL $8378                       A:10 X:00 Y:F0 P:25 SP:FA CYC:257 SL:168
8378  AD 02 20  LDA $2002 = FF                  A:10 X:00 Y:F0 P:25 SP:FA CYC:266 SL:168
837B  10 FB     BPL $8378                       A:10 X:00 Y:F0 P:25 SP:FA CYC:278 SL:168
8378  AD 02 20  LDA $2002 = FF                  A:10 X:00 Y:F0 P:25 SP:FA CYC:287 SL:168
837B  10 FB     BPL $8378                       A:10 X:00 Y:F0 P:25 SP:FA CYC:299 SL:168
8378  AD 02 20  LDA $2002 = FF                  A:10 X:00 Y:F0 P:25 SP:FA CYC:308 SL:168
837B  10 FB     BPL $8378                       A:10 X:00 Y:F0 P:25 SP:FA CYC:320 SL:168
8378  AD 02 20  LDA $2002 = FF                  A:10 X:00 Y:F0 P:25 SP:FA CYC:329 SL:168
837B  10 FB     BPL $8378                       A:10 X:00 Y:F0 P:25 SP:FA CYC:  0 SL:169
8378  AD 02 20  LDA $2002 = FF                  A:10 X:00 Y:F0 P:25 SP:FA CYC:  9 SL:169
837B  10 FB     BPL $8378                       A:10 X:00 Y:F0 P:25 SP:FA CYC: 21 SL:169
8378  AD 02 20  LDA $2002 = FF                  A:10 X:00 Y:F0 P:25 SP:FA CYC: 30 SL:169
837B  10 FB     BPL $8378                       A:10 X:00 Y:F0 P:25 SP:FA CYC: 42 SL:169
8378  AD 02 20  LDA $2002 = FF                  A:10 X:00 Y:F0 P:25 SP:FA CYC: 51 SL:169
837B  10 FB     BPL $8378                       A:10 X:00 Y:F0 P:25 SP:FA CYC: 63 SL:169
8378  AD 02 20  LDA $2002 = FF                  A:10 X:00 Y:F0 P:25 SP:FA CYC: 72 SL:169
837B  10 FB     BPL $8378                       A:10 X:00 Y:F0 P:25 SP:FA CYC: 84 SL:169
8378  AD 02 20  LDA $2002 = FF                  A:10 X:00 Y:F0 P:25 SP:FA CYC: 93 SL:169
837B  10 FB     BPL $8378                       A:10 X:00 Y:F0 P:25 SP:FA CYC:105 SL:169
8378  AD 02 20  LDA $2002 = FF                  A:10 X:00 Y:F0 P:25 SP:FA CYC:114 SL:169
837B  10 FB     BPL $8378                       A:10 X:00 Y:F0 P:25 SP:FA CYC:126 SL:169
8378  AD 02 20  LDA $2002 = FF                  A:10 X:00 Y:F0 P:25 SP:FA CYC:135 SL:169
837B  10 FB     BPL $8378                       A:10 X:00 Y:F0 P:25 SP:FA CYC:147 SL:169
8378  AD 02 20  LDA $2002 = FF                  A:10 X:00 Y:F0 P:25 SP:FA CYC:156 SL:169
837B  10 FB     BPL $8378                       A:10 X:00 Y:F0 P:25 SP:FA CYC:168 SL:169
8378  AD 02 20  LDA $2002 = FF                  A:10 X:00 Y:F0 P:25 SP:FA CYC:177 SL:169
837B  10 FB     BPL $8378                       A:10 X:00 Y:F0 P:25 SP:FA CYC:189 SL:169
8378  AD 02 20  LDA $2002 = FF                  A:10 X:00 Y:F0 P:25 SP:FA CYC:198 SL:169
837B  10 FB     BPL $8378                       A:10 X:00 Y:F0 P:25 SP:FA CYC:210 SL:169
8378  AD 02 20  LDA $2002 = FF                  A:10 X:00 Y:F0 P:25 SP:FA CYC:219 SL:169
837B  10 FB     BPL $8378                       A:10 X:00 Y:F0 P:25 SP:FA CYC:231 SL:169
8378  AD 02 20  LDA $2002 = FF                  A:10 X:00 Y:F0 P:25 SP:FA CYC:240 SL:169
837B  10 FB     BPL $8378                       A:10 X:00 Y:F0 P:25 SP:FA CYC:252 SL:169
8378  AD 02 20  LDA $2002 = FF                  A:10 X:00 Y:F0 P:25 SP:FA CYC:261 SL:169
837B  10 FB     BPL $8378                       A:10 X:00 Y:F0 P:25 SP:FA CYC:273 SL:169
8378  AD 02 20  LDA $2002 = FF                  A:10 X:00 Y:F0 P:25 SP:FA CYC:282 SL:169
837B  10 FB     BPL $8378                       A:10 X:00 Y:F0 P:25 SP:FA CYC:294 SL:169
8378  AD 02 20  LDA $2002 = FF                  A:10 X:00 Y:F0 P:25 SP:FA CYC:303 SL:169
837B  10 FB     BPL $8378                       A:10 X:00 Y:F0 P:25 SP:FA CYC:315 SL:169
8378  AD 02 20  LDA $2002 = FF                  A:10 X:00 Y:F0 P:25 SP:FA CYC:324 SL:169
837B  10 FB     BPL $8378                       A:10 X:00 Y:F0 P:25 SP:FA CYC:336 SL:169
8378  AD 02 20  LDA $2002 = FF                  A:10 X:00 Y:F0 P:25 SP:FA CYC:  4 SL:170
837B  10 FB     BPL $8378                       A:10 X:00 Y:F0 P:25 SP:FA CYC: 16 SL:170
8378  AD 02 20  LDA $2002 = FF                  A:10 X:00 Y:F0 P:25 SP:FA CYC: 25 SL:170
837B  10 FB     BPL $8378                       A:10 X:00 Y:F0 P:25 SP:FA CYC: 37 SL:170
8378  AD 02 20  LDA $2002 = FF                  A:10 X:00 Y:F0 P:25 SP:FA CYC: 46 SL:170
837B  10 FB     BPL $8378                       A:10 X:00 Y:F0 P:25 SP:FA CYC: 58 SL:170
8378  AD 02 20  LDA $2002 = FF                  A:10 X:00 Y:F0 P:25 SP:FA CYC: 67 SL:170
837B  10 FB     BPL $8378                       A:10 X:00 Y:F0 P:25 SP:FA CYC: 79 SL:170
8378  AD 02 20  LDA $2002 = FF                  A:10 X:00 Y:F0 P:25 SP:FA CYC: 88 SL:170
837B  10 FB     BPL $8378                       A:10 X:00 Y:F0 P:25 SP:FA CYC:100 SL:170
8378  AD 02 20  LDA $2002 = FF                  A:10 X:00 Y:F0 P:25 SP:FA CYC:109 SL:170
837B  10 FB     BPL $8378                       A:10 X:00 Y:F0 P:25 SP:FA CYC:121 SL:170
8378  AD 02 20  LDA $2002 = FF                  A:10 X:00 Y:F0 P:25 SP:FA CYC:130 SL:170
837B  10 FB     BPL $8378                       A:10 X:00 Y:F0 P:25 SP:FA CYC:142 SL:170
8378  AD 02 20  LDA $2002 = FF                  A:10 X:00 Y:F0 P:25 SP:FA CYC:151 SL:170
837B  10 FB     BPL $8378                       A:10 X:00 Y:F0 P:25 SP:FA CYC:163 SL:170
8378  AD 02 20  LDA $2002 = FF                  A:10 X:00 Y:F0 P:25 SP:FA CYC:172 SL:170
837B  10 FB     BPL $8378                       A:10 X:00 Y:F0 P:25 SP:FA CYC:184 SL:170
8378  AD 02 20  LDA $2002 = FF                  A:10 X:00 Y:F0 P:25 SP:FA CYC:193 SL:170
837B  10 FB     BPL $8378                       A:10 X:00 Y:F0 P:25 SP:FA CYC:205 SL:170
8378  AD 02 20  LDA $2002 = FF                  A:10 X:00 Y:F0 P:25 SP:FA CYC:214 SL:170
837B  10 FB     BPL $8378                       A:10 X:00 Y:F0 P:25 SP:FA CYC:226 SL:170
8378  AD 02 20  LDA $2002 = FF                  A:10 X:00 Y:F0 P:25 SP:FA CYC:235 SL:170
837B  10 FB     BPL $8378                       A:10 X:00 Y:F0 P:25 SP:FA CYC:247 SL:170
8378  AD 02 20  LDA $2002 = FF                  A:10 X:00 Y:F0 P:25 SP:FA CYC:256 SL:170
837B  10 FB     BPL $8378                       A:10 X:00 Y:F0 P:25 SP:FA CYC:268 SL:170
8378  AD 02 20  LDA $2002 = FF                  A:10 X:00 Y:F0 P:25 SP:FA CYC:277 SL:170
837B  10 FB     BPL $8378                       A:10 X:00 Y:F0 P:25 SP:FA CYC:289 SL:170
8378  AD 02 20  LDA $2002 = FF                  A:10 X:00 Y:F0 P:25 SP:FA CYC:298 SL:170
837B  10 FB     BPL $8378                       A:10 X:00 Y:F0 P:25 SP:FA CYC:310 SL:170
8378  AD 02 20  LDA $2002 = FF                  A:10 X:00 Y:F0 P:25 SP:FA CYC:319 SL:170
837B  10 FB     BPL $8378                       A:10 X:00 Y:F0 P:25 SP:FA CYC:331 SL:170
8378  AD 02 20  LDA $2002 = FF                  A:10 X:00 Y:F0 P:25 SP:FA CYC:340 SL:170
837B  10 FB     BPL $8378                       A:10 X:00 Y:F0 P:25 SP:FA CYC: 11 SL:171
8378  AD 02 20  LDA $2002 = FF                  A:10 X:00 Y:F0 P:25 SP:FA CYC: 20 SL:171
837B  10 FB     BPL $8378                       A:10 X:00 Y:F0 P:25 SP:FA CYC: 32 SL:171
8378  AD 02 20  LDA $2002 = FF                  A:10 X:00 Y:F0 P:25 SP:FA CYC: 41 SL:171
837B  10 FB     BPL $8378                       A:10 X:00 Y:F0 P:25 SP:FA CYC: 53 SL:171
8378  AD 02 20  LDA $2002 = FF                  A:10 X:00 Y:F0 P:25 SP:FA CYC: 62 SL:171
837B  10 FB     BPL $8378                       A:10 X:00 Y:F0 P:25 SP:FA CYC: 74 SL:171
8378  AD 02 20  LDA $2002 = FF                  A:10 X:00 Y:F0 P:25 SP:FA CYC: 83 SL:171
837B  10 FB     BPL $8378                       A:10 X:00 Y:F0 P:25 SP:FA CYC: 95 SL:171
8378  AD 02 20  LDA $2002 = FF                  A:10 X:00 Y:F0 P:25 SP:FA CYC:104 SL:171
837B  10 FB     BPL $8378                       A:10 X:00 Y:F0 P:25 SP:FA CYC:116 SL:171
8378  AD 02 20  LDA $2002 = FF                  A:10 X:00 Y:F0 P:25 SP:FA CYC:125 SL:171
837B  10 FB     BPL $8378                       A:10 X:00 Y:F0 P:25 SP:FA CYC:137 SL:171
8378  AD 02 20  LDA $2002 = FF                  A:10 X:00 Y:F0 P:25 SP:FA CYC:146 SL:171
837B  10 FB     BPL $8378                       A:10 X:00 Y:F0 P:25 SP:FA CYC:158 SL:171
8378  AD 02 20  LDA $2002 = FF                  A:10 X:00 Y:F0 P:25 SP:FA CYC:167 SL:171
837B  10 FB     BPL $8378                       A:10 X:00 Y:F0 P:25 SP:FA CYC:179 SL:171
8378  AD 02 20  LDA $2002 = FF                  A:10 X:00 Y:F0 P:25 SP:FA CYC:188 SL:171
837B  10 FB     BPL $8378                       A:10 X:00 Y:F0 P:25 SP:FA CYC:200 SL:171
8378  AD 02 20  LDA $2002 = FF                  A:10 X:00 Y:F0 P:25 SP:FA CYC:209 SL:171
837B  10 FB     BPL $8378                       A:10 X:00 Y:F0 P:25 SP:FA CYC:221 SL:171
8378  AD 02 20  LDA $2002 = FF                  A:10 X:00 Y:F0 P:25 SP:FA CYC:230 SL:171
837B  10 FB     BPL $8378                       A:10 X:00 Y:F0 P:25 SP:FA CYC:242 SL:171
8378  AD 02 20  LDA $2002 = FF                  A:10 X:00 Y:F0 P:25 SP:FA CYC:251 SL:171
837B  10 FB     BPL $8378                       A:10 X:00 Y:F0 P:25 SP:FA CYC:263 SL:171
8378  AD 02 20  LDA $2002 = FF                  A:10 X:00 Y:F0 P:25 SP:FA CYC:272 SL:171
837B  10 FB     BPL $8378                       A:10 X:00 Y:F0 P:25 SP:FA CYC:284 SL:171
8378  AD 02 20  LDA $2002 = FF                  A:10 X:00 Y:F0 P:25 SP:FA CYC:293 SL:171
837B  10 FB     BPL $8378                       A:10 X:00 Y:F0 P:25 SP:FA CYC:305 SL:171
8378  AD 02 20  LDA $2002 = FF                  A:10 X:00 Y:F0 P:25 SP:FA CYC:314 SL:171
837B  10 FB     BPL $8378                       A:10 X:00 Y:F0 P:25 SP:FA CYC:326 SL:171
8378  AD 02 20  LDA $2002 = FF                  A:10 X:00 Y:F0 P:25 SP:FA CYC:335 SL:171
837B  10 FB     BPL $8378                       A:10 X:00 Y:F0 P:25 SP:FA CYC:  6 SL:172
8378  AD 02 20  LDA $2002 = FF                  A:10 X:00 Y:F0 P:25 SP:FA CYC: 15 SL:172
837B  10 FB     BPL $8378                       A:10 X:00 Y:F0 P:25 SP:FA CYC: 27 SL:172
8378  AD 02 20  LDA $2002 = FF                  A:10 X:00 Y:F0 P:25 SP:FA CYC: 36 SL:172
837B  10 FB     BPL $8378                       A:10 X:00 Y:F0 P:25 SP:FA CYC: 48 SL:172
8378  AD 02 20  LDA $2002 = FF                  A:10 X:00 Y:F0 P:25 SP:FA CYC: 57 SL:172
837B  10 FB     BPL $8378                       A:10 X:00 Y:F0 P:25 SP:FA CYC: 69 SL:172
8378  AD 02 20  LDA $2002 = FF                  A:10 X:00 Y:F0 P:25 SP:FA CYC: 78 SL:172
837B  10 FB     BPL $8378                       A:10 X:00 Y:F0 P:25 SP:FA CYC: 90 SL:172
8378  AD 02 20  LDA $2002 = FF                  A:10 X:00 Y:F0 P:25 SP:FA CYC: 99 SL:172
837B  10 FB     BPL $8378                       A:10 X:00 Y:F0 P:25 SP:FA CYC:111 SL:172
8378  AD 02 20  LDA $2002 = FF                  A:10 X:00 Y:F0 P:25 SP:FA CYC:120 SL:172
837B  10 FB     BPL $8378                       A:10 X:00 Y:F0 P:25 SP:FA CYC:132 SL:172
8378  AD 02 20  LDA $2002 = FF                  A:10 X:00 Y:F0 P:25 SP:FA CYC:141 SL:172
837B  10 FB     BPL $8378                       A:10 X:00 Y:F0 P:25 SP:FA CYC:153 SL:172
8378  AD 02 20  LDA $2002 = FF                  A:10 X:00 Y:F0 P:25 SP:FA CYC:162 SL:172
837B  10 FB     BPL $8378                       A:10 X:00 Y:F0 P:25 SP:FA CYC:174 SL:172
8378  AD 02 20  LDA $2002 = FF                  A:10 X:00 Y:F0 P:25 SP:FA CYC:183 SL:172
837B  10 FB     BPL $8378                       A:10 X:00 Y:F0 P:25 SP:FA CYC:195 SL:172
8378  AD 02 20  LDA $2002 = FF                  A:10 X:00 Y:F0 P:25 SP:FA CYC:204 SL:172
837B  10 FB     BPL $8378                       A:10 X:00 Y:F0 P:25 SP:FA CYC:216 SL:172
8378  AD 02 20  LDA $2002 = FF                  A:10 X:00 Y:F0 P:25 SP:FA CYC:225 SL:172
837B  10 FB     BPL $8378                       A:10 X:00 Y:F0 P:25 SP:FA CYC:237 SL:172
8378  AD 02 20  LDA $2002 = FF                  A:10 X:00 Y:F0 P:25 SP:FA CYC:246 SL:172
837B  10 FB     BPL $8378                       A:10 X:00 Y:F0 P:25 SP:FA CYC:258 SL:172
8378  AD 02 20  LDA $2002 = FF                  A:10 X:00 Y:F0 P:25 SP:FA CYC:267 SL:172
837B  10 FB     BPL $8378                       A:10 X:00 Y:F0 P:25 SP:FA CYC:279 SL:172
8378  AD 02 20  LDA $2002 = FF                  A:10 X:00 Y:F0 P:25 SP:FA CYC:288 SL:172
837B  10 FB     BPL $8378                       A:10 X:00 Y:F0 P:25 SP:FA CYC:300 SL:172
8378  AD 02 20  LDA $2002 = FF                  A:10 X:00 Y:F0 P:25 SP:FA CYC:309 SL:172
837B  10 FB     BPL $8378                       A:10 X:00 Y:F0 P:25 SP:FA CYC:321 SL:172
8378  AD 02 20  LDA $2002 = FF                  A:10 X:00 Y:F0 P:25 SP:FA CYC:330 SL:172
837B  10 FB     BPL $8378                       A:10 X:00 Y:F0 P:25 SP:FA CYC:  1 SL:173
8378  AD 02 20  LDA $2002 = FF                  A:10 X:00 Y:F0 P:25 SP:FA CYC: 10 SL:173
837B  10 FB     BPL $8378                       A:10 X:00 Y:F0 P:25 SP:FA CYC: 22 SL:173
8378  AD 02 20  LDA $2002 = FF                  A:10 X:00 Y:F0 P:25 SP:FA CYC: 31 SL:173
837B  10 FB     BPL $8378                       A:10 X:00 Y:F0 P:25 SP:FA CYC: 43 SL:173
8378  AD 02 20  LDA $2002 = FF                  A:10 X:00 Y:F0 P:25 SP:FA CYC: 52 SL:173
837B  10 FB     BPL $8378                       A:10 X:00 Y:F0 P:25 SP:FA CYC: 64 SL:173
8378  AD 02 20  LDA $2002 = FF                  A:10 X:00 Y:F0 P:25 SP:FA CYC: 73 SL:173
837B  10 FB     BPL $8378                       A:10 X:00 Y:F0 P:25 SP:FA CYC: 85 SL:173
8378  AD 02 20  LDA $2002 = FF                  A:10 X:00 Y:F0 P:25 SP:FA CYC: 94 SL:173
837B  10 FB     BPL $8378                       A:10 X:00 Y:F0 P:25 SP:FA CYC:106 SL:173
8378  AD 02 20  LDA $2002 = FF                  A:10 X:00 Y:F0 P:25 SP:FA CYC:115 SL:173
837B  10 FB     BPL $8378                       A:10 X:00 Y:F0 P:25 SP:FA CYC:127 SL:173
8378  AD 02 20  LDA $2002 = FF                  A:10 X:00 Y:F0 P:25 SP:FA CYC:136 SL:173
837B  10 FB     BPL $8378                       A:10 X:00 Y:F0 P:25 SP:FA CYC:148 SL:173
8378  AD 02 20  LDA $2002 = FF                  A:10 X:00 Y:F0 P:25 SP:FA CYC:157 SL:173
837B  10 FB     BPL $8378                       A:10 X:00 Y:F0 P:25 SP:FA CYC:169 SL:173
8378  AD 02 20  LDA $2002 = FF                  A:10 X:00 Y:F0 P:25 SP:FA CYC:178 SL:173
837B  10 FB     BPL $8378                       A:10 X:00 Y:F0 P:25 SP:FA CYC:190 SL:173
8378  AD 02 20  LDA $2002 = FF                  A:10 X:00 Y:F0 P:25 SP:FA CYC:199 SL:173
837B  10 FB     BPL $8378                       A:10 X:00 Y:F0 P:25 SP:FA CYC:211 SL:173
8378  AD 02 20  LDA $2002 = FF                  A:10 X:00 Y:F0 P:25 SP:FA CYC:220 SL:173
837B  10 FB     BPL $8378                       A:10 X:00 Y:F0 P:25 SP:FA CYC:232 SL:173
8378  AD 02 20  LDA $2002 = FF                  A:10 X:00 Y:F0 P:25 SP:FA CYC:241 SL:173
837B  10 FB     BPL $8378                       A:10 X:00 Y:F0 P:25 SP:FA CYC:253 SL:173
8378  AD 02 20  LDA $2002 = FF                  A:10 X:00 Y:F0 P:25 SP:FA CYC:262 SL:173
837B  10 FB     BPL $8378                       A:10 X:00 Y:F0 P:25 SP:FA CYC:274 SL:173
8378  AD 02 20  LDA $2002 = FF                  A:10 X:00 Y:F0 P:25 SP:FA CYC:283 SL:173
837B  10 FB     BPL $8378                       A:10 X:00 Y:F0 P:25 SP:FA CYC:295 SL:173
8378  AD 02 20  LDA $2002 = FF                  A:10 X:00 Y:F0 P:25 SP:FA CYC:304 SL:173
837B  10 FB     BPL $8378                       A:10 X:00 Y:F0 P:25 SP:FA CYC:316 SL:173
8378  AD 02 20  LDA $2002 = FF                  A:10 X:00 Y:F0 P:25 SP:FA CYC:325 SL:173
837B  10 FB     BPL $8378                       A:10 X:00 Y:F0 P:25 SP:FA CYC:337 SL:173
8378  AD 02 20  LDA $2002 = FF                  A:10 X:00 Y:F0 P:25 SP:FA CYC:  5 SL:174
837B  10 FB     BPL $8378                       A:10 X:00 Y:F0 P:25 SP:FA CYC: 17 SL:174
8378  AD 02 20  LDA $2002 = FF                  A:10 X:00 Y:F0 P:25 SP:FA CYC: 26 SL:174
837B  10 FB     BPL $8378                       A:10 X:00 Y:F0 P:25 SP:FA CYC: 38 SL:174
8378  AD 02 20  LDA $2002 = FF                  A:10 X:00 Y:F0 P:25 SP:FA CYC: 47 SL:174
837B  10 FB     BPL $8378                       A:10 X:00 Y:F0 P:25 SP:FA CYC: 59 SL:174
8378  AD 02 20  LDA $2002 = FF                  A:10 X:00 Y:F0 P:25 SP:FA CYC: 68 SL:174
837B  10 FB     BPL $8378                       A:10 X:00 Y:F0 P:25 SP:FA CYC: 80 SL:174
8378  AD 02 20  LDA $2002 = FF                  A:10 X:00 Y:F0 P:25 SP:FA CYC: 89 SL:174
837B  10 FB     BPL $8378                       A:10 X:00 Y:F0 P:25 SP:FA CYC:101 SL:174
8378  AD 02 20  LDA $2002 = FF                  A:10 X:00 Y:F0 P:25 SP:FA CYC:110 SL:174
837B  10 FB     BPL $8378                       A:10 X:00 Y:F0 P:25 SP:FA CYC:122 SL:174
8378  AD 02 20  LDA $2002 = FF                  A:10 X:00 Y:F0 P:25 SP:FA CYC:131 SL:174
837B  10 FB     BPL $8378                       A:10 X:00 Y:F0 P:25 SP:FA CYC:143 SL:174
8378  AD 02 20  LDA $2002 = FF                  A:10 X:00 Y:F0 P:25 SP:FA CYC:152 SL:174
837B  10 FB     BPL $8378                       A:10 X:00 Y:F0 P:25 SP:FA CYC:164 SL:174
8378  AD 02 20  LDA $2002 = FF                  A:10 X:00 Y:F0 P:25 SP:FA CYC:173 SL:174
837B  10 FB     BPL $8378                       A:10 X:00 Y:F0 P:25 SP:FA CYC:185 SL:174
8378  AD 02 20  LDA $2002 = FF                  A:10 X:00 Y:F0 P:25 SP:FA CYC:194 SL:174
837B  10 FB     BPL $8378                       A:10 X:00 Y:F0 P:25 SP:FA CYC:206 SL:174
8378  AD 02 20  LDA $2002 = FF                  A:10 X:00 Y:F0 P:25 SP:FA CYC:215 SL:174
837B  10 FB     BPL $8378                       A:10 X:00 Y:F0 P:25 SP:FA CYC:227 SL:174
8378  AD 02 20  LDA $2002 = FF                  A:10 X:00 Y:F0 P:25 SP:FA CYC:236 SL:174
837B  10 FB     BPL $8378                       A:10 X:00 Y:F0 P:25 SP:FA CYC:248 SL:174
8378  AD 02 20  LDA $2002 = FF                  A:10 X:00 Y:F0 P:25 SP:FA CYC:257 SL:174
837B  10 FB     BPL $8378                       A:10 X:00 Y:F0 P:25 SP:FA CYC:269 SL:174
8378  AD 02 20  LDA $2002 = FF                  A:10 X:00 Y:F0 P:25 SP:FA CYC:278 SL:174
837B  10 FB     BPL $8378                       A:10 X:00 Y:F0 P:25 SP:FA CYC:290 SL:174
8378  AD 02 20  LDA $2002 = FF                  A:10 X:00 Y:F0 P:25 SP:FA CYC:299 SL:174
837B  10 FB     BPL $8378                       A:10 X:00 Y:F0 P:25 SP:FA CYC:311 SL:174
8378  AD 02 20  LDA $2002 = FF                  A:10 X:00 Y:F0 P:25 SP:FA CYC:320 SL:174
837B  10 FB     BPL $8378                       A:10 X:00 Y:F0 P:25 SP:FA CYC:332 SL:174
8378  AD 02 20  LDA $2002 = FF                  A:10 X:00 Y:F0 P:25 SP:FA CYC:  0 SL:175
837B  10 FB     BPL $8378                       A:10 X:00 Y:F0 P:25 SP:FA CYC: 12 SL:175
8378  AD 02 20  LDA $2002 = FF                  A:10 X:00 Y:F0 P:25 SP:FA CYC: 21 SL:175
837B  10 FB     BPL $8378                       A:10 X:00 Y:F0 P:25 SP:FA CYC: 33 SL:175
8378  AD 02 20  LDA $2002 = FF                  A:10 X:00 Y:F0 P:25 SP:FA CYC: 42 SL:175
837B  10 FB     BPL $8378                       A:10 X:00 Y:F0 P:25 SP:FA CYC: 54 SL:175
8378  AD 02 20  LDA $2002 = FF                  A:10 X:00 Y:F0 P:25 SP:FA CYC: 63 SL:175
837B  10 FB     BPL $8378                       A:10 X:00 Y:F0 P:25 SP:FA CYC: 75 SL:175
8378  AD 02 20  LDA $2002 = FF                  A:10 X:00 Y:F0 P:25 SP:FA CYC: 84 SL:175
837B  10 FB     BPL $8378                       A:10 X:00 Y:F0 P:25 SP:FA CYC: 96 SL:175
8378  AD 02 20  LDA $2002 = FF                  A:10 X:00 Y:F0 P:25 SP:FA CYC:105 SL:175
837B  10 FB     BPL $8378                       A:10 X:00 Y:F0 P:25 SP:FA CYC:117 SL:175
8378  AD 02 20  LDA $2002 = FF                  A:10 X:00 Y:F0 P:25 SP:FA CYC:126 SL:175
837B  10 FB     BPL $8378                       A:10 X:00 Y:F0 P:25 SP:FA CYC:138 SL:175
8378  AD 02 20  LDA $2002 = FF                  A:10 X:00 Y:F0 P:25 SP:FA CYC:147 SL:175
837B  10 FB     BPL $8378                       A:10 X:00 Y:F0 P:25 SP:FA CYC:159 SL:175
8378  AD 02 20  LDA $2002 = FF                  A:10 X:00 Y:F0 P:25 SP:FA CYC:168 SL:175
837B  10 FB     BPL $8378                       A:10 X:00 Y:F0 P:25 SP:FA CYC:180 SL:175
8378  AD 02 20  LDA $2002 = FF                  A:10 X:00 Y:F0 P:25 SP:FA CYC:189 SL:175
837B  10 FB     BPL $8378                       A:10 X:00 Y:F0 P:25 SP:FA CYC:201 SL:175
8378  AD 02 20  LDA $2002 = FF                  A:10 X:00 Y:F0 P:25 SP:FA CYC:210 SL:175
837B  10 FB     BPL $8378                       A:10 X:00 Y:F0 P:25 SP:FA CYC:222 SL:175
8378  AD 02 20  LDA $2002 = FF                  A:10 X:00 Y:F0 P:25 SP:FA CYC:231 SL:175
837B  10 FB     BPL $8378                       A:10 X:00 Y:F0 P:25 SP:FA CYC:243 SL:175
8378  AD 02 20  LDA $2002 = FF                  A:10 X:00 Y:F0 P:25 SP:FA CYC:252 SL:175
837B  10 FB     BPL $8378                       A:10 X:00 Y:F0 P:25 SP:FA CYC:264 SL:175
8378  AD 02 20  LDA $2002 = FF                  A:10 X:00 Y:F0 P:25 SP:FA CYC:273 SL:175
837B  10 FB     BPL $8378                       A:10 X:00 Y:F0 P:25 SP:FA CYC:285 SL:175
8378  AD 02 20  LDA $2002 = FF                  A:10 X:00 Y:F0 P:25 SP:FA CYC:294 SL:175
837B  10 FB     BPL $8378                       A:10 X:00 Y:F0 P:25 SP:FA CYC:306 SL:175
8378  AD 02 20  LDA $2002 = FF                  A:10 X:00 Y:F0 P:25 SP:FA CYC:315 SL:175
837B  10 FB     BPL $8378                       A:10 X:00 Y:F0 P:25 SP:FA CYC:327 SL:175
8378  AD 02 20  LDA $2002 = FF                  A:10 X:00 Y:F0 P:25 SP:FA CYC:336 SL:175
837B  10 FB     BPL $8378                       A:10 X:00 Y:F0 P:25 SP:FA CYC:  7 SL:176
8378  AD 02 20  LDA $2002 = FF                  A:10 X:00 Y:F0 P:25 SP:FA CYC: 16 SL:176
837B  10 FB     BPL $8378                       A:10 X:00 Y:F0 P:25 SP:FA CYC: 28 SL:176
8378  AD 02 20  LDA $2002 = FF                  A:10 X:00 Y:F0 P:25 SP:FA CYC: 37 SL:176
837B  10 FB     BPL $8378                       A:10 X:00 Y:F0 P:25 SP:FA CYC: 49 SL:176
8378  AD 02 20  LDA $2002 = FF                  A:10 X:00 Y:F0 P:25 SP:FA CYC: 58 SL:176
837B  10 FB     BPL $8378                       A:10 X:00 Y:F0 P:25 SP:FA CYC: 70 SL:176
8378  AD 02 20  LDA $2002 = FF                  A:10 X:00 Y:F0 P:25 SP:FA CYC: 79 SL:176
837B  10 FB     BPL $8378                       A:10 X:00 Y:F0 P:25 SP:FA CYC: 91 SL:176
8378  AD 02 20  LDA $2002 = FF                  A:10 X:00 Y:F0 P:25 SP:FA CYC:100 SL:176
837B  10 FB     BPL $8378                       A:10 X:00 Y:F0 P:25 SP:FA CYC:112 SL:176
8378  AD 02 20  LDA $2002 = FF                  A:10 X:00 Y:F0 P:25 SP:FA CYC:121 SL:176
837B  10 FB     BPL $8378                       A:10 X:00 Y:F0 P:25 SP:FA CYC:133 SL:176
8378  AD 02 20  LDA $2002 = FF                  A:10 X:00 Y:F0 P:25 SP:FA CYC:142 SL:176
837B  10 FB     BPL $8378                       A:10 X:00 Y:F0 P:25 SP:FA CYC:154 SL:176
8378  AD 02 20  LDA $2002 = FF                  A:10 X:00 Y:F0 P:25 SP:FA CYC:163 SL:176
837B  10 FB     BPL $8378                       A:10 X:00 Y:F0 P:25 SP:FA CYC:175 SL:176
8378  AD 02 20  LDA $2002 = FF                  A:10 X:00 Y:F0 P:25 SP:FA CYC:184 SL:176
837B  10 FB     BPL $8378                       A:10 X:00 Y:F0 P:25 SP:FA CYC:196 SL:176
8378  AD 02 20  LDA $2002 = FF                  A:10 X:00 Y:F0 P:25 SP:FA CYC:205 SL:176
837B  10 FB     BPL $8378                       A:10 X:00 Y:F0 P:25 SP:FA CYC:217 SL:176
8378  AD 02 20  LDA $2002 = FF                  A:10 X:00 Y:F0 P:25 SP:FA CYC:226 SL:176
837B  10 FB     BPL $8378                       A:10 X:00 Y:F0 P:25 SP:FA CYC:238 SL:176
8378  AD 02 20  LDA $2002 = FF                  A:10 X:00 Y:F0 P:25 SP:FA CYC:247 SL:176
837B  10 FB     BPL $8378                       A:10 X:00 Y:F0 P:25 SP:FA CYC:259 SL:176
8378  AD 02 20  LDA $2002 = FF                  A:10 X:00 Y:F0 P:25 SP:FA CYC:268 SL:176
837B  10 FB     BPL $8378                       A:10 X:00 Y:F0 P:25 SP:FA CYC:280 SL:176
8378  AD 02 20  LDA $2002 = FF                  A:10 X:00 Y:F0 P:25 SP:FA CYC:289 SL:176
837B  10 FB     BPL $8378                       A:10 X:00 Y:F0 P:25 SP:FA CYC:301 SL:176
8378  AD 02 20  LDA $2002 = FF                  A:10 X:00 Y:F0 P:25 SP:FA CYC:310 SL:176
837B  10 FB     BPL $8378                       A:10 X:00 Y:F0 P:25 SP:FA CYC:322 SL:176
8378  AD 02 20  LDA $2002 = FF                  A:10 X:00 Y:F0 P:25 SP:FA CYC:331 SL:176
837B  10 FB     BPL $8378                       A:10 X:00 Y:F0 P:25 SP:FA CYC:  2 SL:177
8378  AD 02 20  LDA $2002 = FF                  A:10 X:00 Y:F0 P:25 SP:FA CYC: 11 SL:177
837B  10 FB     BPL $8378                       A:10 X:00 Y:F0 P:25 SP:FA CYC: 23 SL:177
8378  AD 02 20  LDA $2002 = FF                  A:10 X:00 Y:F0 P:25 SP:FA CYC: 32 SL:177
837B  10 FB     BPL $8378                       A:10 X:00 Y:F0 P:25 SP:FA CYC: 44 SL:177
8378  AD 02 20  LDA $2002 = FF                  A:10 X:00 Y:F0 P:25 SP:FA CYC: 53 SL:177
837B  10 FB     BPL $8378                       A:10 X:00 Y:F0 P:25 SP:FA CYC: 65 SL:177
8378  AD 02 20  LDA $2002 = FF                  A:10 X:00 Y:F0 P:25 SP:FA CYC: 74 SL:177
837B  10 FB     BPL $8378                       A:10 X:00 Y:F0 P:25 SP:FA CYC: 86 SL:177
8378  AD 02 20  LDA $2002 = FF                  A:10 X:00 Y:F0 P:25 SP:FA CYC: 95 SL:177
837B  10 FB     BPL $8378                       A:10 X:00 Y:F0 P:25 SP:FA CYC:107 SL:177
8378  AD 02 20  LDA $2002 = FF                  A:10 X:00 Y:F0 P:25 SP:FA CYC:116 SL:177
837B  10 FB     BPL $8378                       A:10 X:00 Y:F0 P:25 SP:FA CYC:128 SL:177
8378  AD 02 20  LDA $2002 = FF                  A:10 X:00 Y:F0 P:25 SP:FA CYC:137 SL:177
837B  10 FB     BPL $8378                       A:10 X:00 Y:F0 P:25 SP:FA CYC:149 SL:177
8378  AD 02 20  LDA $2002 = FF                  A:10 X:00 Y:F0 P:25 SP:FA CYC:158 SL:177
837B  10 FB     BPL $8378                       A:10 X:00 Y:F0 P:25 SP:FA CYC:170 SL:177
8378  AD 02 20  LDA $2002 = FF                  A:10 X:00 Y:F0 P:25 SP:FA CYC:179 SL:177
837B  10 FB     BPL $8378                       A:10 X:00 Y:F0 P:25 SP:FA CYC:191 SL:177
8378  AD 02 20  LDA $2002 = FF                  A:10 X:00 Y:F0 P:25 SP:FA CYC:200 SL:177
837B  10 FB     BPL $8378                       A:10 X:00 Y:F0 P:25 SP:FA CYC:212 SL:177
8378  AD 02 20  LDA $2002 = FF                  A:10 X:00 Y:F0 P:25 SP:FA CYC:221 SL:177
837B  10 FB     BPL $8378                       A:10 X:00 Y:F0 P:25 SP:FA CYC:233 SL:177
8378  AD 02 20  LDA $2002 = FF                  A:10 X:00 Y:F0 P:25 SP:FA CYC:242 SL:177
837B  10 FB     BPL $8378                       A:10 X:00 Y:F0 P:25 SP:FA CYC:254 SL:177
8378  AD 02 20  LDA $2002 = FF                  A:10 X:00 Y:F0 P:25 SP:FA CYC:263 SL:177
837B  10 FB     BPL $8378                       A:10 X:00 Y:F0 P:25 SP:FA CYC:275 SL:177
8378  AD 02 20  LDA $2002 = FF                  A:10 X:00 Y:F0 P:25 SP:FA CYC:284 SL:177
837B  10 FB     BPL $8378                       A:10 X:00 Y:F0 P:25 SP:FA CYC:296 SL:177
8378  AD 02 20  LDA $2002 = FF                  A:10 X:00 Y:F0 P:25 SP:FA CYC:305 SL:177
837B  10 FB     BPL $8378                       A:10 X:00 Y:F0 P:25 SP:FA CYC:317 SL:177
8378  AD 02 20  LDA $2002 = FF                  A:10 X:00 Y:F0 P:25 SP:FA CYC:326 SL:177
837B  10 FB     BPL $8378                       A:10 X:00 Y:F0 P:25 SP:FA CYC:338 SL:177
8378  AD 02 20  LDA $2002 = FF                  A:10 X:00 Y:F0 P:25 SP:FA CYC:  6 SL:178
837B  10 FB     BPL $8378                       A:10 X:00 Y:F0 P:25 SP:FA CYC: 18 SL:178
8378  AD 02 20  LDA $2002 = FF                  A:10 X:00 Y:F0 P:25 SP:FA CYC: 27 SL:178
837B  10 FB     BPL $8378                       A:10 X:00 Y:F0 P:25 SP:FA CYC: 39 SL:178
8378  AD 02 20  LDA $2002 = FF                  A:10 X:00 Y:F0 P:25 SP:FA CYC: 48 SL:178
837B  10 FB     BPL $8378                       A:10 X:00 Y:F0 P:25 SP:FA CYC: 60 SL:178
8378  AD 02 20  LDA $2002 = FF                  A:10 X:00 Y:F0 P:25 SP:FA CYC: 69 SL:178
837B  10 FB     BPL $8378                       A:10 X:00 Y:F0 P:25 SP:FA CYC: 81 SL:178
8378  AD 02 20  LDA $2002 = FF                  A:10 X:00 Y:F0 P:25 SP:FA CYC: 90 SL:178
837B  10 FB     BPL $8378                       A:10 X:00 Y:F0 P:25 SP:FA CYC:102 SL:178
8378  AD 02 20  LDA $2002 = FF                  A:10 X:00 Y:F0 P:25 SP:FA CYC:111 SL:178
837B  10 FB     BPL $8378                       A:10 X:00 Y:F0 P:25 SP:FA CYC:123 SL:178
8378  AD 02 20  LDA $2002 = FF                  A:10 X:00 Y:F0 P:25 SP:FA CYC:132 SL:178
837B  10 FB     BPL $8378                       A:10 X:00 Y:F0 P:25 SP:FA CYC:144 SL:178
8378  AD 02 20  LDA $2002 = FF                  A:10 X:00 Y:F0 P:25 SP:FA CYC:153 SL:178
837B  10 FB     BPL $8378                       A:10 X:00 Y:F0 P:25 SP:FA CYC:165 SL:178
8378  AD 02 20  LDA $2002 = FF                  A:10 X:00 Y:F0 P:25 SP:FA CYC:174 SL:178
837B  10 FB     BPL $8378                       A:10 X:00 Y:F0 P:25 SP:FA CYC:186 SL:178
8378  AD 02 20  LDA $2002 = FF                  A:10 X:00 Y:F0 P:25 SP:FA CYC:195 SL:178
837B  10 FB     BPL $8378                       A:10 X:00 Y:F0 P:25 SP:FA CYC:207 SL:178
8378  AD 02 20  LDA $2002 = FF                  A:10 X:00 Y:F0 P:25 SP:FA CYC:216 SL:178
837B  10 FB     BPL $8378                       A:10 X:00 Y:F0 P:25 SP:FA CYC:228 SL:178
8378  AD 02 20  LDA $2002 = FF                  A:10 X:00 Y:F0 P:25 SP:FA CYC:237 SL:178
837B  10 FB     BPL $8378                       A:10 X:00 Y:F0 P:25 SP:FA CYC:249 SL:178
8378  AD 02 20  LDA $2002 = FF                  A:10 X:00 Y:F0 P:25 SP:FA CYC:258 SL:178
837B  10 FB     BPL $8378                       A:10 X:00 Y:F0 P:25 SP:FA CYC:270 SL:178
8378  AD 02 20  LDA $2002 = FF                  A:10 X:00 Y:F0 P:25 SP:FA CYC:279 SL:178
837B  10 FB     BPL $8378                       A:10 X:00 Y:F0 P:25 SP:FA CYC:291 SL:178
8378  AD 02 20  LDA $2002 = FF                  A:10 X:00 Y:F0 P:25 SP:FA CYC:300 SL:178
837B  10 FB     BPL $8378                       A:10 X:00 Y:F0 P:25 SP:FA CYC:312 SL:178
8378  AD 02 20  LDA $2002 = FF                  A:10 X:00 Y:F0 P:25 SP:FA CYC:321 SL:178
837B  10 FB     BPL $8378                       A:10 X:00 Y:F0 P:25 SP:FA CYC:333 SL:178
8378  AD 02 20  LDA $2002 = FF                  A:10 X:00 Y:F0 P:25 SP:FA CYC:  1 SL:179
837B  10 FB     BPL $8378                       A:10 X:00 Y:F0 P:25 SP:FA CYC: 13 SL:179
8378  AD 02 20  LDA $2002 = FF                  A:10 X:00 Y:F0 P:25 SP:FA CYC: 22 SL:179
837B  10 FB     BPL $8378                       A:10 X:00 Y:F0 P:25 SP:FA CYC: 34 SL:179
8378  AD 02 20  LDA $2002 = FF                  A:10 X:00 Y:F0 P:25 SP:FA CYC: 43 SL:179
837B  10 FB     BPL $8378                       A:10 X:00 Y:F0 P:25 SP:FA CYC: 55 SL:179
8378  AD 02 20  LDA $2002 = FF                  A:10 X:00 Y:F0 P:25 SP:FA CYC: 64 SL:179
837B  10 FB     BPL $8378                       A:10 X:00 Y:F0 P:25 SP:FA CYC: 76 SL:179
8378  AD 02 20  LDA $2002 = FF                  A:10 X:00 Y:F0 P:25 SP:FA CYC: 85 SL:179
837B  10 FB     BPL $8378                       A:10 X:00 Y:F0 P:25 SP:FA CYC: 97 SL:179
8378  AD 02 20  LDA $2002 = FF                  A:10 X:00 Y:F0 P:25 SP:FA CYC:106 SL:179
837B  10 FB     BPL $8378                       A:10 X:00 Y:F0 P:25 SP:FA CYC:118 SL:179
8378  AD 02 20  LDA $2002 = FF                  A:10 X:00 Y:F0 P:25 SP:FA CYC:127 SL:179
837B  10 FB     BPL $8378                       A:10 X:00 Y:F0 P:25 SP:FA CYC:139 SL:179
8378  AD 02 20  LDA $2002 = FF                  A:10 X:00 Y:F0 P:25 SP:FA CYC:148 SL:179
837B  10 FB     BPL $8378                       A:10 X:00 Y:F0 P:25 SP:FA CYC:160 SL:179
8378  AD 02 20  LDA $2002 = FF                  A:10 X:00 Y:F0 P:25 SP:FA CYC:169 SL:179
837B  10 FB     BPL $8378                       A:10 X:00 Y:F0 P:25 SP:FA CYC:181 SL:179
8378  AD 02 20  LDA $2002 = FF                  A:10 X:00 Y:F0 P:25 SP:FA CYC:190 SL:179
837B  10 FB     BPL $8378                       A:10 X:00 Y:F0 P:25 SP:FA CYC:202 SL:179
8378  AD 02 20  LDA $2002 = FF                  A:10 X:00 Y:F0 P:25 SP:FA CYC:211 SL:179
837B  10 FB     BPL $8378                       A:10 X:00 Y:F0 P:25 SP:FA CYC:223 SL:179
8378  AD 02 20  LDA $2002 = FF                  A:10 X:00 Y:F0 P:25 SP:FA CYC:232 SL:179
837B  10 FB     BPL $8378                       A:10 X:00 Y:F0 P:25 SP:FA CYC:244 SL:179
8378  AD 02 20  LDA $2002 = FF                  A:10 X:00 Y:F0 P:25 SP:FA CYC:253 SL:179
837B  10 FB     BPL $8378                       A:10 X:00 Y:F0 P:25 SP:FA CYC:265 SL:179
8378  AD 02 20  LDA $2002 = FF                  A:10 X:00 Y:F0 P:25 SP:FA CYC:274 SL:179
837B  10 FB     BPL $8378                       A:10 X:00 Y:F0 P:25 SP:FA CYC:286 SL:179
8378  AD 02 20  LDA $2002 = FF                  A:10 X:00 Y:F0 P:25 SP:FA CYC:295 SL:179
837B  10 FB     BPL $8378                       A:10 X:00 Y:F0 P:25 SP:FA CYC:307 SL:179
8378  AD 02 20  LDA $2002 = FF                  A:10 X:00 Y:F0 P:25 SP:FA CYC:316 SL:179
837B  10 FB     BPL $8378                       A:10 X:00 Y:F0 P:25 SP:FA CYC:328 SL:179
8378  AD 02 20  LDA $2002 = FF                  A:10 X:00 Y:F0 P:25 SP:FA CYC:337 SL:179
837B  10 FB     BPL $8378                       A:10 X:00 Y:F0 P:25 SP:FA CYC:  8 SL:180
8378  AD 02 20  LDA $2002 = FF                  A:10 X:00 Y:F0 P:25 SP:FA CYC: 17 SL:180
837B  10 FB     BPL $8378                       A:10 X:00 Y:F0 P:25 SP:FA CYC: 29 SL:180
8378  AD 02 20  LDA $2002 = FF                  A:10 X:00 Y:F0 P:25 SP:FA CYC: 38 SL:180
837B  10 FB     BPL $8378                       A:10 X:00 Y:F0 P:25 SP:FA CYC: 50 SL:180
8378  AD 02 20  LDA $2002 = FF                  A:10 X:00 Y:F0 P:25 SP:FA CYC: 59 SL:180
837B  10 FB     BPL $8378                       A:10 X:00 Y:F0 P:25 SP:FA CYC: 71 SL:180
8378  AD 02 20  LDA $2002 = FF                  A:10 X:00 Y:F0 P:25 SP:FA CYC: 80 SL:180
837B  10 FB     BPL $8378                       A:10 X:00 Y:F0 P:25 SP:FA CYC: 92 SL:180
8378  AD 02 20  LDA $2002 = FF                  A:10 X:00 Y:F0 P:25 SP:FA CYC:101 SL:180
837B  10 FB     BPL $8378                       A:10 X:00 Y:F0 P:25 SP:FA CYC:113 SL:180
8378  AD 02 20  LDA $2002 = FF                  A:10 X:00 Y:F0 P:25 SP:FA CYC:122 SL:180
837B  10 FB     BPL $8378                       A:10 X:00 Y:F0 P:25 SP:FA CYC:134 SL:180
8378  AD 02 20  LDA $2002 = FF                  A:10 X:00 Y:F0 P:25 SP:FA CYC:143 SL:180
837B  10 FB     BPL $8378                       A:10 X:00 Y:F0 P:25 SP:FA CYC:155 SL:180
8378  AD 02 20  LDA $2002 = FF                  A:10 X:00 Y:F0 P:25 SP:FA CYC:164 SL:180
837B  10 FB     BPL $8378                       A:10 X:00 Y:F0 P:25 SP:FA CYC:176 SL:180
8378  AD 02 20  LDA $2002 = FF                  A:10 X:00 Y:F0 P:25 SP:FA CYC:185 SL:180
837B  10 FB     BPL $8378                       A:10 X:00 Y:F0 P:25 SP:FA CYC:197 SL:180
8378  AD 02 20  LDA $2002 = FF                  A:10 X:00 Y:F0 P:25 SP:FA CYC:206 SL:180
837B  10 FB     BPL $8378                       A:10 X:00 Y:F0 P:25 SP:FA CYC:218 SL:180
8378  AD 02 20  LDA $2002 = FF                  A:10 X:00 Y:F0 P:25 SP:FA CYC:227 SL:180
837B  10 FB     BPL $8378                       A:10 X:00 Y:F0 P:25 SP:FA CYC:239 SL:180
8378  AD 02 20  LDA $2002 = FF                  A:10 X:00 Y:F0 P:25 SP:FA CYC:248 SL:180
837B  10 FB     BPL $8378                       A:10 X:00 Y:F0 P:25 SP:FA CYC:260 SL:180
8378  AD 02 20  LDA $2002 = FF                  A:10 X:00 Y:F0 P:25 SP:FA CYC:269 SL:180
837B  10 FB     BPL $8378                       A:10 X:00 Y:F0 P:25 SP:FA CYC:281 SL:180
8378  AD 02 20  LDA $2002 = FF                  A:10 X:00 Y:F0 P:25 SP:FA CYC:290 SL:180
837B  10 FB     BPL $8378                       A:10 X:00 Y:F0 P:25 SP:FA CYC:302 SL:180
8378  AD 02 20  LDA $2002 = FF                  A:10 X:00 Y:F0 P:25 SP:FA CYC:311 SL:180
837B  10 FB     BPL $8378                       A:10 X:00 Y:F0 P:25 SP:FA CYC:323 SL:180
8378  AD 02 20  LDA $2002 = FF                  A:10 X:00 Y:F0 P:25 SP:FA CYC:332 SL:180
837B  10 FB     BPL $8378                       A:10 X:00 Y:F0 P:25 SP:FA CYC:  3 SL:181
8378  AD 02 20  LDA $2002 = FF                  A:10 X:00 Y:F0 P:25 SP:FA CYC: 12 SL:181
837B  10 FB     BPL $8378                       A:10 X:00 Y:F0 P:25 SP:FA CYC: 24 SL:181
8378  AD 02 20  LDA $2002 = FF                  A:10 X:00 Y:F0 P:25 SP:FA CYC: 33 SL:181
837B  10 FB     BPL $8378                       A:10 X:00 Y:F0 P:25 SP:FA CYC: 45 SL:181
8378  AD 02 20  LDA $2002 = FF                  A:10 X:00 Y:F0 P:25 SP:FA CYC: 54 SL:181
837B  10 FB     BPL $8378                       A:10 X:00 Y:F0 P:25 SP:FA CYC: 66 SL:181
8378  AD 02 20  LDA $2002 = FF                  A:10 X:00 Y:F0 P:25 SP:FA CYC: 75 SL:181
837B  10 FB     BPL $8378                       A:10 X:00 Y:F0 P:25 SP:FA CYC: 87 SL:181
8378  AD 02 20  LDA $2002 = FF                  A:10 X:00 Y:F0 P:25 SP:FA CYC: 96 SL:181
837B  10 FB     BPL $8378                       A:10 X:00 Y:F0 P:25 SP:FA CYC:108 SL:181
8378  AD 02 20  LDA $2002 = FF                  A:10 X:00 Y:F0 P:25 SP:FA CYC:117 SL:181
837B  10 FB     BPL $8378                       A:10 X:00 Y:F0 P:25 SP:FA CYC:129 SL:181
8378  AD 02 20  LDA $2002 = FF                  A:10 X:00 Y:F0 P:25 SP:FA CYC:138 SL:181
837B  10 FB     BPL $8378                       A:10 X:00 Y:F0 P:25 SP:FA CYC:150 SL:181
8378  AD 02 20  LDA $2002 = FF                  A:10 X:00 Y:F0 P:25 SP:FA CYC:159 SL:181
837B  10 FB     BPL $8378                       A:10 X:00 Y:F0 P:25 SP:FA CYC:171 SL:181
8378  AD 02 20  LDA $2002 = FF                  A:10 X:00 Y:F0 P:25 SP:FA CYC:180 SL:181
837B  10 FB     BPL $8378                       A:10 X:00 Y:F0 P:25 SP:FA CYC:192 SL:181
8378  AD 02 20  LDA $2002 = FF                  A:10 X:00 Y:F0 P:25 SP:FA CYC:201 SL:181
837B  10 FB     BPL $8378                       A:10 X:00 Y:F0 P:25 SP:FA CYC:213 SL:181
8378  AD 02 20  LDA $2002 = FF                  A:10 X:00 Y:F0 P:25 SP:FA CYC:222 SL:181
837B  10 FB     BPL $8378                       A:10 X:00 Y:F0 P:25 SP:FA CYC:234 SL:181
8378  AD 02 20  LDA $2002 = FF                  A:10 X:00 Y:F0 P:25 SP:FA CYC:243 SL:181
837B  10 FB     BPL $8378                       A:10 X:00 Y:F0 P:25 SP:FA CYC:255 SL:181
8378  AD 02 20  LDA $2002 = FF                  A:10 X:00 Y:F0 P:25 SP:FA CYC:264 SL:181
837B  10 FB     BPL $8378                       A:10 X:00 Y:F0 P:25 SP:FA CYC:276 SL:181
8378  AD 02 20  LDA $2002 = FF                  A:10 X:00 Y:F0 P:25 SP:FA CYC:285 SL:181
837B  10 FB     BPL $8378                       A:10 X:00 Y:F0 P:25 SP:FA CYC:297 SL:181
8378  AD 02 20  LDA $2002 = FF                  A:10 X:00 Y:F0 P:25 SP:FA CYC:306 SL:181
837B  10 FB     BPL $8378                       A:10 X:00 Y:F0 P:25 SP:FA CYC:318 SL:181
8378  AD 02 20  LDA $2002 = FF                  A:10 X:00 Y:F0 P:25 SP:FA CYC:327 SL:181
837B  10 FB     BPL $8378                       A:10 X:00 Y:F0 P:25 SP:FA CYC:339 SL:181
8378  AD 02 20  LDA $2002 = FF                  A:10 X:00 Y:F0 P:25 SP:FA CYC:  7 SL:182
837B  10 FB     BPL $8378                       A:10 X:00 Y:F0 P:25 SP:FA CYC: 19 SL:182
8378  AD 02 20  LDA $2002 = FF                  A:10 X:00 Y:F0 P:25 SP:FA CYC: 28 SL:182
837B  10 FB     BPL $8378                       A:10 X:00 Y:F0 P:25 SP:FA CYC: 40 SL:182
8378  AD 02 20  LDA $2002 = FF                  A:10 X:00 Y:F0 P:25 SP:FA CYC: 49 SL:182
837B  10 FB     BPL $8378                       A:10 X:00 Y:F0 P:25 SP:FA CYC: 61 SL:182
8378  AD 02 20  LDA $2002 = FF                  A:10 X:00 Y:F0 P:25 SP:FA CYC: 70 SL:182
837B  10 FB     BPL $8378                       A:10 X:00 Y:F0 P:25 SP:FA CYC: 82 SL:182
8378  AD 02 20  LDA $2002 = FF                  A:10 X:00 Y:F0 P:25 SP:FA CYC: 91 SL:182
837B  10 FB     BPL $8378                       A:10 X:00 Y:F0 P:25 SP:FA CYC:103 SL:182
8378  AD 02 20  LDA $2002 = FF                  A:10 X:00 Y:F0 P:25 SP:FA CYC:112 SL:182
837B  10 FB     BPL $8378                       A:10 X:00 Y:F0 P:25 SP:FA CYC:124 SL:182
8378  AD 02 20  LDA $2002 = FF                  A:10 X:00 Y:F0 P:25 SP:FA CYC:133 SL:182
837B  10 FB     BPL $8378                       A:10 X:00 Y:F0 P:25 SP:FA CYC:145 SL:182
8378  AD 02 20  LDA $2002 = FF                  A:10 X:00 Y:F0 P:25 SP:FA CYC:154 SL:182
837B  10 FB     BPL $8378                       A:10 X:00 Y:F0 P:25 SP:FA CYC:166 SL:182
8378  AD 02 20  LDA $2002 = FF                  A:10 X:00 Y:F0 P:25 SP:FA CYC:175 SL:182
837B  10 FB     BPL $8378                       A:10 X:00 Y:F0 P:25 SP:FA CYC:187 SL:182
8378  AD 02 20  LDA $2002 = FF                  A:10 X:00 Y:F0 P:25 SP:FA CYC:196 SL:182
837B  10 FB     BPL $8378                       A:10 X:00 Y:F0 P:25 SP:FA CYC:208 SL:182
8378  AD 02 20  LDA $2002 = FF                  A:10 X:00 Y:F0 P:25 SP:FA CYC:217 SL:182
837B  10 FB     BPL $8378                       A:10 X:00 Y:F0 P:25 SP:FA CYC:229 SL:182
8378  AD 02 20  LDA $2002 = FF                  A:10 X:00 Y:F0 P:25 SP:FA CYC:238 SL:182
837B  10 FB     BPL $8378                       A:10 X:00 Y:F0 P:25 SP:FA CYC:250 SL:182
8378  AD 02 20  LDA $2002 = FF                  A:10 X:00 Y:F0 P:25 SP:FA CYC:259 SL:182
837B  10 FB     BPL $8378                       A:10 X:00 Y:F0 P:25 SP:FA CYC:271 SL:182
8378  AD 02 20  LDA $2002 = FF                  A:10 X:00 Y:F0 P:25 SP:FA CYC:280 SL:182
837B  10 FB     BPL $8378                       A:10 X:00 Y:F0 P:25 SP:FA CYC:292 SL:182
8378  AD 02 20  LDA $2002 = FF                  A:10 X:00 Y:F0 P:25 SP:FA CYC:301 SL:182
837B  10 FB     BPL $8378                       A:10 X:00 Y:F0 P:25 SP:FA CYC:313 SL:182
8378  AD 02 20  LDA $2002 = FF                  A:10 X:00 Y:F0 P:25 SP:FA CYC:322 SL:182
837B  10 FB     BPL $8378                       A:10 X:00 Y:F0 P:25 SP:FA CYC:334 SL:182
8378  AD 02 20  LDA $2002 = FF                  A:10 X:00 Y:F0 P:25 SP:FA CYC:  2 SL:183
837B  10 FB     BPL $8378                       A:10 X:00 Y:F0 P:25 SP:FA CYC: 14 SL:183
8378  AD 02 20  LDA $2002 = FF                  A:10 X:00 Y:F0 P:25 SP:FA CYC: 23 SL:183
837B  10 FB     BPL $8378                       A:10 X:00 Y:F0 P:25 SP:FA CYC: 35 SL:183
8378  AD 02 20  LDA $2002 = FF                  A:10 X:00 Y:F0 P:25 SP:FA CYC: 44 SL:183
837B  10 FB     BPL $8378                       A:10 X:00 Y:F0 P:25 SP:FA CYC: 56 SL:183
8378  AD 02 20  LDA $2002 = FF                  A:10 X:00 Y:F0 P:25 SP:FA CYC: 65 SL:183
837B  10 FB     BPL $8378                       A:10 X:00 Y:F0 P:25 SP:FA CYC: 77 SL:183
8378  AD 02 20  LDA $2002 = FF                  A:10 X:00 Y:F0 P:25 SP:FA CYC: 86 SL:183
837B  10 FB     BPL $8378                       A:10 X:00 Y:F0 P:25 SP:FA CYC: 98 SL:183
8378  AD 02 20  LDA $2002 = FF                  A:10 X:00 Y:F0 P:25 SP:FA CYC:107 SL:183
837B  10 FB     BPL $8378                       A:10 X:00 Y:F0 P:25 SP:FA CYC:119 SL:183
8378  AD 02 20  LDA $2002 = FF                  A:10 X:00 Y:F0 P:25 SP:FA CYC:128 SL:183
837B  10 FB     BPL $8378                       A:10 X:00 Y:F0 P:25 SP:FA CYC:140 SL:183
8378  AD 02 20  LDA $2002 = FF                  A:10 X:00 Y:F0 P:25 SP:FA CYC:149 SL:183
837B  10 FB     BPL $8378                       A:10 X:00 Y:F0 P:25 SP:FA CYC:161 SL:183
8378  AD 02 20  LDA $2002 = FF                  A:10 X:00 Y:F0 P:25 SP:FA CYC:170 SL:183
837B  10 FB     BPL $8378                       A:10 X:00 Y:F0 P:25 SP:FA CYC:182 SL:183
8378  AD 02 20  LDA $2002 = FF                  A:10 X:00 Y:F0 P:25 SP:FA CYC:191 SL:183
837B  10 FB     BPL $8378                       A:10 X:00 Y:F0 P:25 SP:FA CYC:203 SL:183
8378  AD 02 20  LDA $2002 = FF                  A:10 X:00 Y:F0 P:25 SP:FA CYC:212 SL:183
837B  10 FB     BPL $8378                       A:10 X:00 Y:F0 P:25 SP:FA CYC:224 SL:183
8378  AD 02 20  LDA $2002 = FF                  A:10 X:00 Y:F0 P:25 SP:FA CYC:233 SL:183
837B  10 FB     BPL $8378                       A:10 X:00 Y:F0 P:25 SP:FA CYC:245 SL:183
8378  AD 02 20  LDA $2002 = FF                  A:10 X:00 Y:F0 P:25 SP:FA CYC:254 SL:183
837B  10 FB     BPL $8378                       A:10 X:00 Y:F0 P:25 SP:FA CYC:266 SL:183
8378  AD 02 20  LDA $2002 = FF                  A:10 X:00 Y:F0 P:25 SP:FA CYC:275 SL:183
837B  10 FB     BPL $8378                       A:10 X:00 Y:F0 P:25 SP:FA CYC:287 SL:183
8378  AD 02 20  LDA $2002 = FF                  A:10 X:00 Y:F0 P:25 SP:FA CYC:296 SL:183
837B  10 FB     BPL $8378                       A:10 X:00 Y:F0 P:25 SP:FA CYC:308 SL:183
8378  AD 02 20  LDA $2002 = FF                  A:10 X:00 Y:F0 P:25 SP:FA CYC:317 SL:183
837B  10 FB     BPL $8378                       A:10 X:00 Y:F0 P:25 SP:FA CYC:329 SL:183
8378  AD 02 20  LDA $2002 = FF                  A:10 X:00 Y:F0 P:25 SP:FA CYC:338 SL:183
837B  10 FB     BPL $8378                       A:10 X:00 Y:F0 P:25 SP:FA CYC:  9 SL:184
8378  AD 02 20  LDA $2002 = FF                  A:10 X:00 Y:F0 P:25 SP:FA CYC: 18 SL:184
837B  10 FB     BPL $8378                       A:10 X:00 Y:F0 P:25 SP:FA CYC: 30 SL:184
8378  AD 02 20  LDA $2002 = FF                  A:10 X:00 Y:F0 P:25 SP:FA CYC: 39 SL:184
837B  10 FB     BPL $8378                       A:10 X:00 Y:F0 P:25 SP:FA CYC: 51 SL:184
8378  AD 02 20  LDA $2002 = FF                  A:10 X:00 Y:F0 P:25 SP:FA CYC: 60 SL:184
837B  10 FB     BPL $8378                       A:10 X:00 Y:F0 P:25 SP:FA CYC: 72 SL:184
8378  AD 02 20  LDA $2002 = FF                  A:10 X:00 Y:F0 P:25 SP:FA CYC: 81 SL:184
837B  10 FB     BPL $8378                       A:10 X:00 Y:F0 P:25 SP:FA CYC: 93 SL:184
8378  AD 02 20  LDA $2002 = FF                  A:10 X:00 Y:F0 P:25 SP:FA CYC:102 SL:184
837B  10 FB     BPL $8378                       A:10 X:00 Y:F0 P:25 SP:FA CYC:114 SL:184
8378  AD 02 20  LDA $2002 = FF                  A:10 X:00 Y:F0 P:25 SP:FA CYC:123 SL:184
837B  10 FB     BPL $8378                       A:10 X:00 Y:F0 P:25 SP:FA CYC:135 SL:184
8378  AD 02 20  LDA $2002 = FF                  A:10 X:00 Y:F0 P:25 SP:FA CYC:144 SL:184
837B  10 FB     BPL $8378                       A:10 X:00 Y:F0 P:25 SP:FA CYC:156 SL:184
8378  AD 02 20  LDA $2002 = FF                  A:10 X:00 Y:F0 P:25 SP:FA CYC:165 SL:184
837B  10 FB     BPL $8378                       A:10 X:00 Y:F0 P:25 SP:FA CYC:177 SL:184
8378  AD 02 20  LDA $2002 = FF                  A:10 X:00 Y:F0 P:25 SP:FA CYC:186 SL:184
837B  10 FB     BPL $8378                       A:10 X:00 Y:F0 P:25 SP:FA CYC:198 SL:184
8378  AD 02 20  LDA $2002 = FF                  A:10 X:00 Y:F0 P:25 SP:FA CYC:207 SL:184
837B  10 FB     BPL $8378                       A:10 X:00 Y:F0 P:25 SP:FA CYC:219 SL:184
8378  AD 02 20  LDA $2002 = FF                  A:10 X:00 Y:F0 P:25 SP:FA CYC:228 SL:184
837B  10 FB     BPL $8378                       A:10 X:00 Y:F0 P:25 SP:FA CYC:240 SL:184
8378  AD 02 20  LDA $2002 = FF                  A:10 X:00 Y:F0 P:25 SP:FA CYC:249 SL:184
837B  10 FB     BPL $8378                       A:10 X:00 Y:F0 P:25 SP:FA CYC:261 SL:184
8378  AD 02 20  LDA $2002 = FF                  A:10 X:00 Y:F0 P:25 SP:FA CYC:270 SL:184
837B  10 FB     BPL $8378                       A:10 X:00 Y:F0 P:25 SP:FA CYC:282 SL:184
8378  AD 02 20  LDA $2002 = FF                  A:10 X:00 Y:F0 P:25 SP:FA CYC:291 SL:184
837B  10 FB     BPL $8378                       A:10 X:00 Y:F0 P:25 SP:FA CYC:303 SL:184
8378  AD 02 20  LDA $2002 = FF                  A:10 X:00 Y:F0 P:25 SP:FA CYC:312 SL:184
837B  10 FB     BPL $8378                       A:10 X:00 Y:F0 P:25 SP:FA CYC:324 SL:184
8378  AD 02 20  LDA $2002 = FF                  A:10 X:00 Y:F0 P:25 SP:FA CYC:333 SL:184
837B  10 FB     BPL $8378                       A:10 X:00 Y:F0 P:25 SP:FA CYC:  4 SL:185
8378  AD 02 20  LDA $2002 = FF                  A:10 X:00 Y:F0 P:25 SP:FA CYC: 13 SL:185
837B  10 FB     BPL $8378                       A:10 X:00 Y:F0 P:25 SP:FA CYC: 25 SL:185
8378  AD 02 20  LDA $2002 = FF                  A:10 X:00 Y:F0 P:25 SP:FA CYC: 34 SL:185
837B  10 FB     BPL $8378                       A:10 X:00 Y:F0 P:25 SP:FA CYC: 46 SL:185
8378  AD 02 20  LDA $2002 = FF                  A:10 X:00 Y:F0 P:25 SP:FA CYC: 55 SL:185
837B  10 FB     BPL $8378                       A:10 X:00 Y:F0 P:25 SP:FA CYC: 67 SL:185
8378  AD 02 20  LDA $2002 = FF                  A:10 X:00 Y:F0 P:25 SP:FA CYC: 76 SL:185
837B  10 FB     BPL $8378                       A:10 X:00 Y:F0 P:25 SP:FA CYC: 88 SL:185
8378  AD 02 20  LDA $2002 = FF                  A:10 X:00 Y:F0 P:25 SP:FA CYC: 97 SL:185
837B  10 FB     BPL $8378                       A:10 X:00 Y:F0 P:25 SP:FA CYC:109 SL:185
8378  AD 02 20  LDA $2002 = FF                  A:10 X:00 Y:F0 P:25 SP:FA CYC:118 SL:185
837B  10 FB     BPL $8378                       A:10 X:00 Y:F0 P:25 SP:FA CYC:130 SL:185
8378  AD 02 20  LDA $2002 = FF                  A:10 X:00 Y:F0 P:25 SP:FA CYC:139 SL:185
837B  10 FB     BPL $8378                       A:10 X:00 Y:F0 P:25 SP:FA CYC:151 SL:185
8378  AD 02 20  LDA $2002 = FF                  A:10 X:00 Y:F0 P:25 SP:FA CYC:160 SL:185
837B  10 FB     BPL $8378                       A:10 X:00 Y:F0 P:25 SP:FA CYC:172 SL:185
8378  AD 02 20  LDA $2002 = FF                  A:10 X:00 Y:F0 P:25 SP:FA CYC:181 SL:185
837B  10 FB     BPL $8378                       A:10 X:00 Y:F0 P:25 SP:FA CYC:193 SL:185
8378  AD 02 20  LDA $2002 = FF                  A:10 X:00 Y:F0 P:25 SP:FA CYC:202 SL:185
837B  10 FB     BPL $8378                       A:10 X:00 Y:F0 P:25 SP:FA CYC:214 SL:185
8378  AD 02 20  LDA $2002 = FF                  A:10 X:00 Y:F0 P:25 SP:FA CYC:223 SL:185
837B  10 FB     BPL $8378                       A:10 X:00 Y:F0 P:25 SP:FA CYC:235 SL:185
8378  AD 02 20  LDA $2002 = FF                  A:10 X:00 Y:F0 P:25 SP:FA CYC:244 SL:185
837B  10 FB     BPL $8378                       A:10 X:00 Y:F0 P:25 SP:FA CYC:256 SL:185
8378  AD 02 20  LDA $2002 = FF                  A:10 X:00 Y:F0 P:25 SP:FA CYC:265 SL:185
837B  10 FB     BPL $8378                       A:10 X:00 Y:F0 P:25 SP:FA CYC:277 SL:185
8378  AD 02 20  LDA $2002 = FF                  A:10 X:00 Y:F0 P:25 SP:FA CYC:286 SL:185
837B  10 FB     BPL $8378                       A:10 X:00 Y:F0 P:25 SP:FA CYC:298 SL:185
8378  AD 02 20  LDA $2002 = FF                  A:10 X:00 Y:F0 P:25 SP:FA CYC:307 SL:185
837B  10 FB     BPL $8378                       A:10 X:00 Y:F0 P:25 SP:FA CYC:319 SL:185
8378  AD 02 20  LDA $2002 = FF                  A:10 X:00 Y:F0 P:25 SP:FA CYC:328 SL:185
837B  10 FB     BPL $8378                       A:10 X:00 Y:F0 P:25 SP:FA CYC:340 SL:185
8378  AD 02 20  LDA $2002 = FF                  A:10 X:00 Y:F0 P:25 SP:FA CYC:  8 SL:186
837B  10 FB     BPL $8378                       A:10 X:00 Y:F0 P:25 SP:FA CYC: 20 SL:186
8378  AD 02 20  LDA $2002 = FF                  A:10 X:00 Y:F0 P:25 SP:FA CYC: 29 SL:186
837B  10 FB     BPL $8378                       A:10 X:00 Y:F0 P:25 SP:FA CYC: 41 SL:186
8378  AD 02 20  LDA $2002 = FF                  A:10 X:00 Y:F0 P:25 SP:FA CYC: 50 SL:186
837B  10 FB     BPL $8378                       A:10 X:00 Y:F0 P:25 SP:FA CYC: 62 SL:186
8378  AD 02 20  LDA $2002 = FF                  A:10 X:00 Y:F0 P:25 SP:FA CYC: 71 SL:186
837B  10 FB     BPL $8378                       A:10 X:00 Y:F0 P:25 SP:FA CYC: 83 SL:186
8378  AD 02 20  LDA $2002 = FF                  A:10 X:00 Y:F0 P:25 SP:FA CYC: 92 SL:186
837B  10 FB     BPL $8378                       A:10 X:00 Y:F0 P:25 SP:FA CYC:104 SL:186
8378  AD 02 20  LDA $2002 = FF                  A:10 X:00 Y:F0 P:25 SP:FA CYC:113 SL:186
837B  10 FB     BPL $8378                       A:10 X:00 Y:F0 P:25 SP:FA CYC:125 SL:186
8378  AD 02 20  LDA $2002 = FF                  A:10 X:00 Y:F0 P:25 SP:FA CYC:134 SL:186
837B  10 FB     BPL $8378                       A:10 X:00 Y:F0 P:25 SP:FA CYC:146 SL:186
8378  AD 02 20  LDA $2002 = FF                  A:10 X:00 Y:F0 P:25 SP:FA CYC:155 SL:186
837B  10 FB     BPL $8378                       A:10 X:00 Y:F0 P:25 SP:FA CYC:167 SL:186
8378  AD 02 20  LDA $2002 = FF                  A:10 X:00 Y:F0 P:25 SP:FA CYC:176 SL:186
837B  10 FB     BPL $8378                       A:10 X:00 Y:F0 P:25 SP:FA CYC:188 SL:186
8378  AD 02 20  LDA $2002 = FF                  A:10 X:00 Y:F0 P:25 SP:FA CYC:197 SL:186
837B  10 FB     BPL $8378                       A:10 X:00 Y:F0 P:25 SP:FA CYC:209 SL:186
8378  AD 02 20  LDA $2002 = FF                  A:10 X:00 Y:F0 P:25 SP:FA CYC:218 SL:186
837B  10 FB     BPL $8378                       A:10 X:00 Y:F0 P:25 SP:FA CYC:230 SL:186
8378  AD 02 20  LDA $2002 = FF                  A:10 X:00 Y:F0 P:25 SP:FA CYC:239 SL:186
837B  10 FB     BPL $8378                       A:10 X:00 Y:F0 P:25 SP:FA CYC:251 SL:186
8378  AD 02 20  LDA $2002 = FF                  A:10 X:00 Y:F0 P:25 SP:FA CYC:260 SL:186
837B  10 FB     BPL $8378                       A:10 X:00 Y:F0 P:25 SP:FA CYC:272 SL:186
8378  AD 02 20  LDA $2002 = FF                  A:10 X:00 Y:F0 P:25 SP:FA CYC:281 SL:186
837B  10 FB     BPL $8378                       A:10 X:00 Y:F0 P:25 SP:FA CYC:293 SL:186
8378  AD 02 20  LDA $2002 = FF                  A:10 X:00 Y:F0 P:25 SP:FA CYC:302 SL:186
837B  10 FB     BPL $8378                       A:10 X:00 Y:F0 P:25 SP:FA CYC:314 SL:186
8378  AD 02 20  LDA $2002 = FF                  A:10 X:00 Y:F0 P:25 SP:FA CYC:323 SL:186
837B  10 FB     BPL $8378                       A:10 X:00 Y:F0 P:25 SP:FA CYC:335 SL:186
8378  AD 02 20  LDA $2002 = FF                  A:10 X:00 Y:F0 P:25 SP:FA CYC:  3 SL:187
837B  10 FB     BPL $8378                       A:10 X:00 Y:F0 P:25 SP:FA CYC: 15 SL:187
8378  AD 02 20  LDA $2002 = FF                  A:10 X:00 Y:F0 P:25 SP:FA CYC: 24 SL:187
837B  10 FB     BPL $8378                       A:10 X:00 Y:F0 P:25 SP:FA CYC: 36 SL:187
8378  AD 02 20  LDA $2002 = FF                  A:10 X:00 Y:F0 P:25 SP:FA CYC: 45 SL:187
837B  10 FB     BPL $8378                       A:10 X:00 Y:F0 P:25 SP:FA CYC: 57 SL:187
8378  AD 02 20  LDA $2002 = FF                  A:10 X:00 Y:F0 P:25 SP:FA CYC: 66 SL:187
837B  10 FB     BPL $8378                       A:10 X:00 Y:F0 P:25 SP:FA CYC: 78 SL:187
8378  AD 02 20  LDA $2002 = FF                  A:10 X:00 Y:F0 P:25 SP:FA CYC: 87 SL:187
837B  10 FB     BPL $8378                       A:10 X:00 Y:F0 P:25 SP:FA CYC: 99 SL:187
8378  AD 02 20  LDA $2002 = FF                  A:10 X:00 Y:F0 P:25 SP:FA CYC:108 SL:187
837B  10 FB     BPL $8378                       A:10 X:00 Y:F0 P:25 SP:FA CYC:120 SL:187
8378  AD 02 20  LDA $2002 = FF                  A:10 X:00 Y:F0 P:25 SP:FA CYC:129 SL:187
837B  10 FB     BPL $8378                       A:10 X:00 Y:F0 P:25 SP:FA CYC:141 SL:187
8378  AD 02 20  LDA $2002 = FF                  A:10 X:00 Y:F0 P:25 SP:FA CYC:150 SL:187
837B  10 FB     BPL $8378                       A:10 X:00 Y:F0 P:25 SP:FA CYC:162 SL:187
8378  AD 02 20  LDA $2002 = FF                  A:10 X:00 Y:F0 P:25 SP:FA CYC:171 SL:187
837B  10 FB     BPL $8378                       A:10 X:00 Y:F0 P:25 SP:FA CYC:183 SL:187
8378  AD 02 20  LDA $2002 = FF                  A:10 X:00 Y:F0 P:25 SP:FA CYC:192 SL:187
837B  10 FB     BPL $8378                       A:10 X:00 Y:F0 P:25 SP:FA CYC:204 SL:187
8378  AD 02 20  LDA $2002 = FF                  A:10 X:00 Y:F0 P:25 SP:FA CYC:213 SL:187
837B  10 FB     BPL $8378                       A:10 X:00 Y:F0 P:25 SP:FA CYC:225 SL:187
8378  AD 02 20  LDA $2002 = FF                  A:10 X:00 Y:F0 P:25 SP:FA CYC:234 SL:187
837B  10 FB     BPL $8378                       A:10 X:00 Y:F0 P:25 SP:FA CYC:246 SL:187
8378  AD 02 20  LDA $2002 = FF                  A:10 X:00 Y:F0 P:25 SP:FA CYC:255 SL:187
837B  10 FB     BPL $8378                       A:10 X:00 Y:F0 P:25 SP:FA CYC:267 SL:187
8378  AD 02 20  LDA $2002 = FF                  A:10 X:00 Y:F0 P:25 SP:FA CYC:276 SL:187
837B  10 FB     BPL $8378                       A:10 X:00 Y:F0 P:25 SP:FA CYC:288 SL:187
8378  AD 02 20  LDA $2002 = FF                  A:10 X:00 Y:F0 P:25 SP:FA CYC:297 SL:187
837B  10 FB     BPL $8378                       A:10 X:00 Y:F0 P:25 SP:FA CYC:309 SL:187
8378  AD 02 20  LDA $2002 = FF                  A:10 X:00 Y:F0 P:25 SP:FA CYC:318 SL:187
837B  10 FB     BPL $8378                       A:10 X:00 Y:F0 P:25 SP:FA CYC:330 SL:187
8378  AD 02 20  LDA $2002 = FF                  A:10 X:00 Y:F0 P:25 SP:FA CYC:339 SL:187
837B  10 FB     BPL $8378                       A:10 X:00 Y:F0 P:25 SP:FA CYC: 10 SL:188
8378  AD 02 20  LDA $2002 = FF                  A:10 X:00 Y:F0 P:25 SP:FA CYC: 19 SL:188
837B  10 FB     BPL $8378                       A:10 X:00 Y:F0 P:25 SP:FA CYC: 31 SL:188
8378  AD 02 20  LDA $2002 = FF                  A:10 X:00 Y:F0 P:25 SP:FA CYC: 40 SL:188
837B  10 FB     BPL $8378                       A:10 X:00 Y:F0 P:25 SP:FA CYC: 52 SL:188
8378  AD 02 20  LDA $2002 = FF                  A:10 X:00 Y:F0 P:25 SP:FA CYC: 61 SL:188
837B  10 FB     BPL $8378                       A:10 X:00 Y:F0 P:25 SP:FA CYC: 73 SL:188
8378  AD 02 20  LDA $2002 = FF                  A:10 X:00 Y:F0 P:25 SP:FA CYC: 82 SL:188
837B  10 FB     BPL $8378                       A:10 X:00 Y:F0 P:25 SP:FA CYC: 94 SL:188
8378  AD 02 20  LDA $2002 = FF                  A:10 X:00 Y:F0 P:25 SP:FA CYC:103 SL:188
837B  10 FB     BPL $8378                       A:10 X:00 Y:F0 P:25 SP:FA CYC:115 SL:188
8378  AD 02 20  LDA $2002 = FF                  A:10 X:00 Y:F0 P:25 SP:FA CYC:124 SL:188
837B  10 FB     BPL $8378                       A:10 X:00 Y:F0 P:25 SP:FA CYC:136 SL:188
8378  AD 02 20  LDA $2002 = FF                  A:10 X:00 Y:F0 P:25 SP:FA CYC:145 SL:188
837B  10 FB     BPL $8378                       A:10 X:00 Y:F0 P:25 SP:FA CYC:157 SL:188
8378  AD 02 20  LDA $2002 = FF                  A:10 X:00 Y:F0 P:25 SP:FA CYC:166 SL:188
837B  10 FB     BPL $8378                       A:10 X:00 Y:F0 P:25 SP:FA CYC:178 SL:188
8378  AD 02 20  LDA $2002 = FF                  A:10 X:00 Y:F0 P:25 SP:FA CYC:187 SL:188
837B  10 FB     BPL $8378                       A:10 X:00 Y:F0 P:25 SP:FA CYC:199 SL:188
8378  AD 02 20  LDA $2002 = FF                  A:10 X:00 Y:F0 P:25 SP:FA CYC:208 SL:188
837B  10 FB     BPL $8378                       A:10 X:00 Y:F0 P:25 SP:FA CYC:220 SL:188
8378  AD 02 20  LDA $2002 = FF                  A:10 X:00 Y:F0 P:25 SP:FA CYC:229 SL:188
837B  10 FB     BPL $8378                       A:10 X:00 Y:F0 P:25 SP:FA CYC:241 SL:188
8378  AD 02 20  LDA $2002 = FF                  A:10 X:00 Y:F0 P:25 SP:FA CYC:250 SL:188
837B  10 FB     BPL $8378                       A:10 X:00 Y:F0 P:25 SP:FA CYC:262 SL:188
8378  AD 02 20  LDA $2002 = FF                  A:10 X:00 Y:F0 P:25 SP:FA CYC:271 SL:188
837B  10 FB     BPL $8378                       A:10 X:00 Y:F0 P:25 SP:FA CYC:283 SL:188
8378  AD 02 20  LDA $2002 = FF                  A:10 X:00 Y:F0 P:25 SP:FA CYC:292 SL:188
837B  10 FB     BPL $8378                       A:10 X:00 Y:F0 P:25 SP:FA CYC:304 SL:188
8378  AD 02 20  LDA $2002 = FF                  A:10 X:00 Y:F0 P:25 SP:FA CYC:313 SL:188
837B  10 FB     BPL $8378                       A:10 X:00 Y:F0 P:25 SP:FA CYC:325 SL:188
8378  AD 02 20  LDA $2002 = FF                  A:10 X:00 Y:F0 P:25 SP:FA CYC:334 SL:188
837B  10 FB     BPL $8378                       A:10 X:00 Y:F0 P:25 SP:FA CYC:  5 SL:189
8378  AD 02 20  LDA $2002 = FF                  A:10 X:00 Y:F0 P:25 SP:FA CYC: 14 SL:189
837B  10 FB     BPL $8378                       A:10 X:00 Y:F0 P:25 SP:FA CYC: 26 SL:189
8378  AD 02 20  LDA $2002 = FF                  A:10 X:00 Y:F0 P:25 SP:FA CYC: 35 SL:189
837B  10 FB     BPL $8378                       A:10 X:00 Y:F0 P:25 SP:FA CYC: 47 SL:189
8378  AD 02 20  LDA $2002 = FF                  A:10 X:00 Y:F0 P:25 SP:FA CYC: 56 SL:189
837B  10 FB     BPL $8378                       A:10 X:00 Y:F0 P:25 SP:FA CYC: 68 SL:189
8378  AD 02 20  LDA $2002 = FF                  A:10 X:00 Y:F0 P:25 SP:FA CYC: 77 SL:189
837B  10 FB     BPL $8378                       A:10 X:00 Y:F0 P:25 SP:FA CYC: 89 SL:189
8378  AD 02 20  LDA $2002 = FF                  A:10 X:00 Y:F0 P:25 SP:FA CYC: 98 SL:189
837B  10 FB     BPL $8378                       A:10 X:00 Y:F0 P:25 SP:FA CYC:110 SL:189
8378  AD 02 20  LDA $2002 = FF                  A:10 X:00 Y:F0 P:25 SP:FA CYC:119 SL:189
837B  10 FB     BPL $8378                       A:10 X:00 Y:F0 P:25 SP:FA CYC:131 SL:189
8378  AD 02 20  LDA $2002 = FF                  A:10 X:00 Y:F0 P:25 SP:FA CYC:140 SL:189
837B  10 FB     BPL $8378                       A:10 X:00 Y:F0 P:25 SP:FA CYC:152 SL:189
8378  AD 02 20  LDA $2002 = FF                  A:10 X:00 Y:F0 P:25 SP:FA CYC:161 SL:189
837B  10 FB     BPL $8378                       A:10 X:00 Y:F0 P:25 SP:FA CYC:173 SL:189
8378  AD 02 20  LDA $2002 = FF                  A:10 X:00 Y:F0 P:25 SP:FA CYC:182 SL:189
837B  10 FB     BPL $8378                       A:10 X:00 Y:F0 P:25 SP:FA CYC:194 SL:189
8378  AD 02 20  LDA $2002 = FF                  A:10 X:00 Y:F0 P:25 SP:FA CYC:203 SL:189
837B  10 FB     BPL $8378                       A:10 X:00 Y:F0 P:25 SP:FA CYC:215 SL:189
8378  AD 02 20  LDA $2002 = FF                  A:10 X:00 Y:F0 P:25 SP:FA CYC:224 SL:189
837B  10 FB     BPL $8378                       A:10 X:00 Y:F0 P:25 SP:FA CYC:236 SL:189
8378  AD 02 20  LDA $2002 = FF                  A:10 X:00 Y:F0 P:25 SP:FA CYC:245 SL:189
837B  10 FB     BPL $8378                       A:10 X:00 Y:F0 P:25 SP:FA CYC:257 SL:189
8378  AD 02 20  LDA $2002 = FF                  A:10 X:00 Y:F0 P:25 SP:FA CYC:266 SL:189
837B  10 FB     BPL $8378                       A:10 X:00 Y:F0 P:25 SP:FA CYC:278 SL:189
8378  AD 02 20  LDA $2002 = FF                  A:10 X:00 Y:F0 P:25 SP:FA CYC:287 SL:189
837B  10 FB     BPL $8378                       A:10 X:00 Y:F0 P:25 SP:FA CYC:299 SL:189
8378  AD 02 20  LDA $2002 = FF                  A:10 X:00 Y:F0 P:25 SP:FA CYC:308 SL:189
837B  10 FB     BPL $8378                       A:10 X:00 Y:F0 P:25 SP:FA CYC:320 SL:189
8378  AD 02 20  LDA $2002 = FF                  A:10 X:00 Y:F0 P:25 SP:FA CYC:329 SL:189
837B  10 FB     BPL $8378                       A:10 X:00 Y:F0 P:25 SP:FA CYC:  0 SL:190
8378  AD 02 20  LDA $2002 = FF                  A:10 X:00 Y:F0 P:25 SP:FA CYC:  9 SL:190
837B  10 FB     BPL $8378                       A:10 X:00 Y:F0 P:25 SP:FA CYC: 21 SL:190
8378  AD 02 20  LDA $2002 = FF                  A:10 X:00 Y:F0 P:25 SP:FA CYC: 30 SL:190
837B  10 FB     BPL $8378                       A:10 X:00 Y:F0 P:25 SP:FA CYC: 42 SL:190
8378  AD 02 20  LDA $2002 = FF                  A:10 X:00 Y:F0 P:25 SP:FA CYC: 51 SL:190
837B  10 FB     BPL $8378                       A:10 X:00 Y:F0 P:25 SP:FA CYC: 63 SL:190
8378  AD 02 20  LDA $2002 = FF                  A:10 X:00 Y:F0 P:25 SP:FA CYC: 72 SL:190
837B  10 FB     BPL $8378                       A:10 X:00 Y:F0 P:25 SP:FA CYC: 84 SL:190
8378  AD 02 20  LDA $2002 = FF                  A:10 X:00 Y:F0 P:25 SP:FA CYC: 93 SL:190
837B  10 FB     BPL $8378                       A:10 X:00 Y:F0 P:25 SP:FA CYC:105 SL:190
8378  AD 02 20  LDA $2002 = FF                  A:10 X:00 Y:F0 P:25 SP:FA CYC:114 SL:190
837B  10 FB     BPL $8378                       A:10 X:00 Y:F0 P:25 SP:FA CYC:126 SL:190
8378  AD 02 20  LDA $2002 = FF                  A:10 X:00 Y:F0 P:25 SP:FA CYC:135 SL:190
837B  10 FB     BPL $8378                       A:10 X:00 Y:F0 P:25 SP:FA CYC:147 SL:190
8378  AD 02 20  LDA $2002 = FF                  A:10 X:00 Y:F0 P:25 SP:FA CYC:156 SL:190
837B  10 FB     BPL $8378                       A:10 X:00 Y:F0 P:25 SP:FA CYC:168 SL:190
8378  AD 02 20  LDA $2002 = FF                  A:10 X:00 Y:F0 P:25 SP:FA CYC:177 SL:190
837B  10 FB     BPL $8378                       A:10 X:00 Y:F0 P:25 SP:FA CYC:189 SL:190
8378  AD 02 20  LDA $2002 = FF                  A:10 X:00 Y:F0 P:25 SP:FA CYC:198 SL:190
837B  10 FB     BPL $8378                       A:10 X:00 Y:F0 P:25 SP:FA CYC:210 SL:190
8378  AD 02 20  LDA $2002 = FF                  A:10 X:00 Y:F0 P:25 SP:FA CYC:219 SL:190
837B  10 FB     BPL $8378                       A:10 X:00 Y:F0 P:25 SP:FA CYC:231 SL:190
8378  AD 02 20  LDA $2002 = FF                  A:10 X:00 Y:F0 P:25 SP:FA CYC:240 SL:190
837B  10 FB     BPL $8378                       A:10 X:00 Y:F0 P:25 SP:FA CYC:252 SL:190
8378  AD 02 20  LDA $2002 = FF                  A:10 X:00 Y:F0 P:25 SP:FA CYC:261 SL:190
837B  10 FB     BPL $8378                       A:10 X:00 Y:F0 P:25 SP:FA CYC:273 SL:190
8378  AD 02 20  LDA $2002 = FF                  A:10 X:00 Y:F0 P:25 SP:FA CYC:282 SL:190
837B  10 FB     BPL $8378                       A:10 X:00 Y:F0 P:25 SP:FA CYC:294 SL:190
8378  AD 02 20  LDA $2002 = FF                  A:10 X:00 Y:F0 P:25 SP:FA CYC:303 SL:190
837B  10 FB     BPL $8378                       A:10 X:00 Y:F0 P:25 SP:FA CYC:315 SL:190
8378  AD 02 20  LDA $2002 = FF                  A:10 X:00 Y:F0 P:25 SP:FA CYC:324 SL:190
837B  10 FB     BPL $8378                       A:10 X:00 Y:F0 P:25 SP:FA CYC:336 SL:190
8378  AD 02 20  LDA $2002 = FF                  A:10 X:00 Y:F0 P:25 SP:FA CYC:  4 SL:191
837B  10 FB     BPL $8378                       A:10 X:00 Y:F0 P:25 SP:FA CYC: 16 SL:191
8378  AD 02 20  LDA $2002 = FF                  A:10 X:00 Y:F0 P:25 SP:FA CYC: 25 SL:191
837B  10 FB     BPL $8378                       A:10 X:00 Y:F0 P:25 SP:FA CYC: 37 SL:191
8378  AD 02 20  LDA $2002 = FF                  A:10 X:00 Y:F0 P:25 SP:FA CYC: 46 SL:191
837B  10 FB     BPL $8378                       A:10 X:00 Y:F0 P:25 SP:FA CYC: 58 SL:191
8378  AD 02 20  LDA $2002 = FF                  A:10 X:00 Y:F0 P:25 SP:FA CYC: 67 SL:191
837B  10 FB     BPL $8378                       A:10 X:00 Y:F0 P:25 SP:FA CYC: 79 SL:191
8378  AD 02 20  LDA $2002 = FF                  A:10 X:00 Y:F0 P:25 SP:FA CYC: 88 SL:191
837B  10 FB     BPL $8378                       A:10 X:00 Y:F0 P:25 SP:FA CYC:100 SL:191
8378  AD 02 20  LDA $2002 = FF                  A:10 X:00 Y:F0 P:25 SP:FA CYC:109 SL:191
837B  10 FB     BPL $8378                       A:10 X:00 Y:F0 P:25 SP:FA CYC:121 SL:191
8378  AD 02 20  LDA $2002 = FF                  A:10 X:00 Y:F0 P:25 SP:FA CYC:130 SL:191
837B  10 FB     BPL $8378                       A:10 X:00 Y:F0 P:25 SP:FA CYC:142 SL:191
8378  AD 02 20  LDA $2002 = FF                  A:10 X:00 Y:F0 P:25 SP:FA CYC:151 SL:191
837B  10 FB     BPL $8378                       A:10 X:00 Y:F0 P:25 SP:FA CYC:163 SL:191
8378  AD 02 20  LDA $2002 = FF                  A:10 X:00 Y:F0 P:25 SP:FA CYC:172 SL:191
837B  10 FB     BPL $8378                       A:10 X:00 Y:F0 P:25 SP:FA CYC:184 SL:191
8378  AD 02 20  LDA $2002 = FF                  A:10 X:00 Y:F0 P:25 SP:FA CYC:193 SL:191
837B  10 FB     BPL $8378                       A:10 X:00 Y:F0 P:25 SP:FA CYC:205 SL:191
8378  AD 02 20  LDA $2002 = FF                  A:10 X:00 Y:F0 P:25 SP:FA CYC:214 SL:191
837B  10 FB     BPL $8378                       A:10 X:00 Y:F0 P:25 SP:FA CYC:226 SL:191
8378  AD 02 20  LDA $2002 = FF                  A:10 X:00 Y:F0 P:25 SP:FA CYC:235 SL:191
837B  10 FB     BPL $8378                       A:10 X:00 Y:F0 P:25 SP:FA CYC:247 SL:191
8378  AD 02 20  LDA $2002 = FF                  A:10 X:00 Y:F0 P:25 SP:FA CYC:256 SL:191
837B  10 FB     BPL $8378                       A:10 X:00 Y:F0 P:25 SP:FA CYC:268 SL:191
8378  AD 02 20  LDA $2002 = FF                  A:10 X:00 Y:F0 P:25 SP:FA CYC:277 SL:191
837B  10 FB     BPL $8378                       A:10 X:00 Y:F0 P:25 SP:FA CYC:289 SL:191
8378  AD 02 20  LDA $2002 = FF                  A:10 X:00 Y:F0 P:25 SP:FA CYC:298 SL:191
837B  10 FB     BPL $8378                       A:10 X:00 Y:F0 P:25 SP:FA CYC:310 SL:191
8378  AD 02 20  LDA $2002 = FF                  A:10 X:00 Y:F0 P:25 SP:FA CYC:319 SL:191
837B  10 FB     BPL $8378                       A:10 X:00 Y:F0 P:25 SP:FA CYC:331 SL:191
8378  AD 02 20  LDA $2002 = FF                  A:10 X:00 Y:F0 P:25 SP:FA CYC:340 SL:191
837B  10 FB     BPL $8378                       A:10 X:00 Y:F0 P:25 SP:FA CYC: 11 SL:192
8378  AD 02 20  LDA $2002 = FF                  A:10 X:00 Y:F0 P:25 SP:FA CYC: 20 SL:192
837B  10 FB     BPL $8378                       A:10 X:00 Y:F0 P:25 SP:FA CYC: 32 SL:192
8378  AD 02 20  LDA $2002 = FF                  A:10 X:00 Y:F0 P:25 SP:FA CYC: 41 SL:192
837B  10 FB     BPL $8378                       A:10 X:00 Y:F0 P:25 SP:FA CYC: 53 SL:192
8378  AD 02 20  LDA $2002 = FF                  A:10 X:00 Y:F0 P:25 SP:FA CYC: 62 SL:192
837B  10 FB     BPL $8378                       A:10 X:00 Y:F0 P:25 SP:FA CYC: 74 SL:192
8378  AD 02 20  LDA $2002 = FF                  A:10 X:00 Y:F0 P:25 SP:FA CYC: 83 SL:192
837B  10 FB     BPL $8378                       A:10 X:00 Y:F0 P:25 SP:FA CYC: 95 SL:192
8378  AD 02 20  LDA $2002 = FF                  A:10 X:00 Y:F0 P:25 SP:FA CYC:104 SL:192
837B  10 FB     BPL $8378                       A:10 X:00 Y:F0 P:25 SP:FA CYC:116 SL:192
8378  AD 02 20  LDA $2002 = FF                  A:10 X:00 Y:F0 P:25 SP:FA CYC:125 SL:192
837B  10 FB     BPL $8378                       A:10 X:00 Y:F0 P:25 SP:FA CYC:137 SL:192
8378  AD 02 20  LDA $2002 = FF                  A:10 X:00 Y:F0 P:25 SP:FA CYC:146 SL:192
837B  10 FB     BPL $8378                       A:10 X:00 Y:F0 P:25 SP:FA CYC:158 SL:192
8378  AD 02 20  LDA $2002 = FF                  A:10 X:00 Y:F0 P:25 SP:FA CYC:167 SL:192
837B  10 FB     BPL $8378                       A:10 X:00 Y:F0 P:25 SP:FA CYC:179 SL:192
8378  AD 02 20  LDA $2002 = FF                  A:10 X:00 Y:F0 P:25 SP:FA CYC:188 SL:192
837B  10 FB     BPL $8378                       A:10 X:00 Y:F0 P:25 SP:FA CYC:200 SL:192
8378  AD 02 20  LDA $2002 = FF                  A:10 X:00 Y:F0 P:25 SP:FA CYC:209 SL:192
837B  10 FB     BPL $8378                       A:10 X:00 Y:F0 P:25 SP:FA CYC:221 SL:192
8378  AD 02 20  LDA $2002 = FF                  A:10 X:00 Y:F0 P:25 SP:FA CYC:230 SL:192
837B  10 FB     BPL $8378                       A:10 X:00 Y:F0 P:25 SP:FA CYC:242 SL:192
8378  AD 02 20  LDA $2002 = FF                  A:10 X:00 Y:F0 P:25 SP:FA CYC:251 SL:192
837B  10 FB     BPL $8378                       A:10 X:00 Y:F0 P:25 SP:FA CYC:263 SL:192
8378  AD 02 20  LDA $2002 = FF                  A:10 X:00 Y:F0 P:25 SP:FA CYC:272 SL:192
837B  10 FB     BPL $8378                       A:10 X:00 Y:F0 P:25 SP:FA CYC:284 SL:192
8378  AD 02 20  LDA $2002 = FF                  A:10 X:00 Y:F0 P:25 SP:FA CYC:293 SL:192
837B  10 FB     BPL $8378                       A:10 X:00 Y:F0 P:25 SP:FA CYC:305 SL:192
8378  AD 02 20  LDA $2002 = FF                  A:10 X:00 Y:F0 P:25 SP:FA CYC:314 SL:192
837B  10 FB     BPL $8378                       A:10 X:00 Y:F0 P:25 SP:FA CYC:326 SL:192
8378  AD 02 20  LDA $2002 = FF                  A:10 X:00 Y:F0 P:25 SP:FA CYC:335 SL:192
837B  10 FB     BPL $8378                       A:10 X:00 Y:F0 P:25 SP:FA CYC:  6 SL:193
8378  AD 02 20  LDA $2002 = FF                  A:10 X:00 Y:F0 P:25 SP:FA CYC: 15 SL:193
837B  10 FB     BPL $8378                       A:10 X:00 Y:F0 P:25 SP:FA CYC: 27 SL:193
8378  AD 02 20  LDA $2002 = FF                  A:10 X:00 Y:F0 P:25 SP:FA CYC: 36 SL:193
837B  10 FB     BPL $8378                       A:10 X:00 Y:F0 P:25 SP:FA CYC: 48 SL:193
8378  AD 02 20  LDA $2002 = FF                  A:10 X:00 Y:F0 P:25 SP:FA CYC: 57 SL:193
837B  10 FB     BPL $8378                       A:10 X:00 Y:F0 P:25 SP:FA CYC: 69 SL:193
8378  AD 02 20  LDA $2002 = FF                  A:10 X:00 Y:F0 P:25 SP:FA CYC: 78 SL:193
837B  10 FB     BPL $8378                       A:10 X:00 Y:F0 P:25 SP:FA CYC: 90 SL:193
8378  AD 02 20  LDA $2002 = FF                  A:10 X:00 Y:F0 P:25 SP:FA CYC: 99 SL:193
837B  10 FB     BPL $8378                       A:10 X:00 Y:F0 P:25 SP:FA CYC:111 SL:193
8378  AD 02 20  LDA $2002 = FF                  A:10 X:00 Y:F0 P:25 SP:FA CYC:120 SL:193
837B  10 FB     BPL $8378                       A:10 X:00 Y:F0 P:25 SP:FA CYC:132 SL:193
8378  AD 02 20  LDA $2002 = FF                  A:10 X:00 Y:F0 P:25 SP:FA CYC:141 SL:193
837B  10 FB     BPL $8378                       A:10 X:00 Y:F0 P:25 SP:FA CYC:153 SL:193
8378  AD 02 20  LDA $2002 = FF                  A:10 X:00 Y:F0 P:25 SP:FA CYC:162 SL:193
837B  10 FB     BPL $8378                       A:10 X:00 Y:F0 P:25 SP:FA CYC:174 SL:193
8378  AD 02 20  LDA $2002 = FF                  A:10 X:00 Y:F0 P:25 SP:FA CYC:183 SL:193
837B  10 FB     BPL $8378                       A:10 X:00 Y:F0 P:25 SP:FA CYC:195 SL:193
8378  AD 02 20  LDA $2002 = FF                  A:10 X:00 Y:F0 P:25 SP:FA CYC:204 SL:193
837B  10 FB     BPL $8378                       A:10 X:00 Y:F0 P:25 SP:FA CYC:216 SL:193
8378  AD 02 20  LDA $2002 = FF                  A:10 X:00 Y:F0 P:25 SP:FA CYC:225 SL:193
837B  10 FB     BPL $8378                       A:10 X:00 Y:F0 P:25 SP:FA CYC:237 SL:193
8378  AD 02 20  LDA $2002 = FF                  A:10 X:00 Y:F0 P:25 SP:FA CYC:246 SL:193
837B  10 FB     BPL $8378                       A:10 X:00 Y:F0 P:25 SP:FA CYC:258 SL:193
8378  AD 02 20  LDA $2002 = FF                  A:10 X:00 Y:F0 P:25 SP:FA CYC:267 SL:193
837B  10 FB     BPL $8378                       A:10 X:00 Y:F0 P:25 SP:FA CYC:279 SL:193
8378  AD 02 20  LDA $2002 = FF                  A:10 X:00 Y:F0 P:25 SP:FA CYC:288 SL:193
837B  10 FB     BPL $8378                       A:10 X:00 Y:F0 P:25 SP:FA CYC:300 SL:193
8378  AD 02 20  LDA $2002 = FF                  A:10 X:00 Y:F0 P:25 SP:FA CYC:309 SL:193
837B  10 FB     BPL $8378                       A:10 X:00 Y:F0 P:25 SP:FA CYC:321 SL:193
8378  AD 02 20  LDA $2002 = FF                  A:10 X:00 Y:F0 P:25 SP:FA CYC:330 SL:193
837B  10 FB     BPL $8378                       A:10 X:00 Y:F0 P:25 SP:FA CYC:  1 SL:194
8378  AD 02 20  LDA $2002 = FF                  A:10 X:00 Y:F0 P:25 SP:FA CYC: 10 SL:194
837B  10 FB     BPL $8378                       A:10 X:00 Y:F0 P:25 SP:FA CYC: 22 SL:194
8378  AD 02 20  LDA $2002 = FF                  A:10 X:00 Y:F0 P:25 SP:FA CYC: 31 SL:194
837B  10 FB     BPL $8378                       A:10 X:00 Y:F0 P:25 SP:FA CYC: 43 SL:194
8378  AD 02 20  LDA $2002 = FF                  A:10 X:00 Y:F0 P:25 SP:FA CYC: 52 SL:194
837B  10 FB     BPL $8378                       A:10 X:00 Y:F0 P:25 SP:FA CYC: 64 SL:194
8378  AD 02 20  LDA $2002 = FF                  A:10 X:00 Y:F0 P:25 SP:FA CYC: 73 SL:194
837B  10 FB     BPL $8378                       A:10 X:00 Y:F0 P:25 SP:FA CYC: 85 SL:194
8378  AD 02 20  LDA $2002 = FF                  A:10 X:00 Y:F0 P:25 SP:FA CYC: 94 SL:194
837B  10 FB     BPL $8378                       A:10 X:00 Y:F0 P:25 SP:FA CYC:106 SL:194
8378  AD 02 20  LDA $2002 = FF                  A:10 X:00 Y:F0 P:25 SP:FA CYC:115 SL:194
837B  10 FB     BPL $8378                       A:10 X:00 Y:F0 P:25 SP:FA CYC:127 SL:194
8378  AD 02 20  LDA $2002 = FF                  A:10 X:00 Y:F0 P:25 SP:FA CYC:136 SL:194
837B  10 FB     BPL $8378                       A:10 X:00 Y:F0 P:25 SP:FA CYC:148 SL:194
8378  AD 02 20  LDA $2002 = FF                  A:10 X:00 Y:F0 P:25 SP:FA CYC:157 SL:194
837B  10 FB     BPL $8378                       A:10 X:00 Y:F0 P:25 SP:FA CYC:169 SL:194
8378  AD 02 20  LDA $2002 = FF                  A:10 X:00 Y:F0 P:25 SP:FA CYC:178 SL:194
837B  10 FB     BPL $8378                       A:10 X:00 Y:F0 P:25 SP:FA CYC:190 SL:194
8378  AD 02 20  LDA $2002 = FF                  A:10 X:00 Y:F0 P:25 SP:FA CYC:199 SL:194
837B  10 FB     BPL $8378                       A:10 X:00 Y:F0 P:25 SP:FA CYC:211 SL:194
8378  AD 02 20  LDA $2002 = FF                  A:10 X:00 Y:F0 P:25 SP:FA CYC:220 SL:194
837B  10 FB     BPL $8378                       A:10 X:00 Y:F0 P:25 SP:FA CYC:232 SL:194
8378  AD 02 20  LDA $2002 = FF                  A:10 X:00 Y:F0 P:25 SP:FA CYC:241 SL:194
837B  10 FB     BPL $8378                       A:10 X:00 Y:F0 P:25 SP:FA CYC:253 SL:194
8378  AD 02 20  LDA $2002 = FF                  A:10 X:00 Y:F0 P:25 SP:FA CYC:262 SL:194
837B  10 FB     BPL $8378                       A:10 X:00 Y:F0 P:25 SP:FA CYC:274 SL:194
8378  AD 02 20  LDA $2002 = FF                  A:10 X:00 Y:F0 P:25 SP:FA CYC:283 SL:194
837B  10 FB     BPL $8378                       A:10 X:00 Y:F0 P:25 SP:FA CYC:295 SL:194
8378  AD 02 20  LDA $2002 = FF                  A:10 X:00 Y:F0 P:25 SP:FA CYC:304 SL:194
837B  10 FB     BPL $8378                       A:10 X:00 Y:F0 P:25 SP:FA CYC:316 SL:194
8378  AD 02 20  LDA $2002 = FF                  A:10 X:00 Y:F0 P:25 SP:FA CYC:325 SL:194
837B  10 FB     BPL $8378                       A:10 X:00 Y:F0 P:25 SP:FA CYC:337 SL:194
8378  AD 02 20  LDA $2002 = FF                  A:10 X:00 Y:F0 P:25 SP:FA CYC:  5 SL:195
837B  10 FB     BPL $8378                       A:10 X:00 Y:F0 P:25 SP:FA CYC: 17 SL:195
8378  AD 02 20  LDA $2002 = FF                  A:10 X:00 Y:F0 P:25 SP:FA CYC: 26 SL:195
837B  10 FB     BPL $8378                       A:10 X:00 Y:F0 P:25 SP:FA CYC: 38 SL:195
8378  AD 02 20  LDA $2002 = FF                  A:10 X:00 Y:F0 P:25 SP:FA CYC: 47 SL:195
837B  10 FB     BPL $8378                       A:10 X:00 Y:F0 P:25 SP:FA CYC: 59 SL:195
8378  AD 02 20  LDA $2002 = FF                  A:10 X:00 Y:F0 P:25 SP:FA CYC: 68 SL:195
837B  10 FB     BPL $8378                       A:10 X:00 Y:F0 P:25 SP:FA CYC: 80 SL:195
8378  AD 02 20  LDA $2002 = FF                  A:10 X:00 Y:F0 P:25 SP:FA CYC: 89 SL:195
837B  10 FB     BPL $8378                       A:10 X:00 Y:F0 P:25 SP:FA CYC:101 SL:195
8378  AD 02 20  LDA $2002 = FF                  A:10 X:00 Y:F0 P:25 SP:FA CYC:110 SL:195
837B  10 FB     BPL $8378                       A:10 X:00 Y:F0 P:25 SP:FA CYC:122 SL:195
8378  AD 02 20  LDA $2002 = FF                  A:10 X:00 Y:F0 P:25 SP:FA CYC:131 SL:195
837B  10 FB     BPL $8378                       A:10 X:00 Y:F0 P:25 SP:FA CYC:143 SL:195
8378  AD 02 20  LDA $2002 = FF                  A:10 X:00 Y:F0 P:25 SP:FA CYC:152 SL:195
837B  10 FB     BPL $8378                       A:10 X:00 Y:F0 P:25 SP:FA CYC:164 SL:195
8378  AD 02 20  LDA $2002 = FF                  A:10 X:00 Y:F0 P:25 SP:FA CYC:173 SL:195
837B  10 FB     BPL $8378                       A:10 X:00 Y:F0 P:25 SP:FA CYC:185 SL:195
8378  AD 02 20  LDA $2002 = FF                  A:10 X:00 Y:F0 P:25 SP:FA CYC:194 SL:195
837B  10 FB     BPL $8378                       A:10 X:00 Y:F0 P:25 SP:FA CYC:206 SL:195
8378  AD 02 20  LDA $2002 = FF                  A:10 X:00 Y:F0 P:25 SP:FA CYC:215 SL:195
837B  10 FB     BPL $8378                       A:10 X:00 Y:F0 P:25 SP:FA CYC:227 SL:195
8378  AD 02 20  LDA $2002 = FF                  A:10 X:00 Y:F0 P:25 SP:FA CYC:236 SL:195
837B  10 FB     BPL $8378                       A:10 X:00 Y:F0 P:25 SP:FA CYC:248 SL:195
8378  AD 02 20  LDA $2002 = FF                  A:10 X:00 Y:F0 P:25 SP:FA CYC:257 SL:195
837B  10 FB     BPL $8378                       A:10 X:00 Y:F0 P:25 SP:FA CYC:269 SL:195
8378  AD 02 20  LDA $2002 = FF                  A:10 X:00 Y:F0 P:25 SP:FA CYC:278 SL:195
837B  10 FB     BPL $8378                       A:10 X:00 Y:F0 P:25 SP:FA CYC:290 SL:195
8378  AD 02 20  LDA $2002 = FF                  A:10 X:00 Y:F0 P:25 SP:FA CYC:299 SL:195
837B  10 FB     BPL $8378                       A:10 X:00 Y:F0 P:25 SP:FA CYC:311 SL:195
8378  AD 02 20  LDA $2002 = FF                  A:10 X:00 Y:F0 P:25 SP:FA CYC:320 SL:195
837B  10 FB     BPL $8378                       A:10 X:00 Y:F0 P:25 SP:FA CYC:332 SL:195
8378  AD 02 20  LDA $2002 = FF                  A:10 X:00 Y:F0 P:25 SP:FA CYC:  0 SL:196
837B  10 FB     BPL $8378                       A:10 X:00 Y:F0 P:25 SP:FA CYC: 12 SL:196
8378  AD 02 20  LDA $2002 = FF                  A:10 X:00 Y:F0 P:25 SP:FA CYC: 21 SL:196
837B  10 FB     BPL $8378                       A:10 X:00 Y:F0 P:25 SP:FA CYC: 33 SL:196
8378  AD 02 20  LDA $2002 = FF                  A:10 X:00 Y:F0 P:25 SP:FA CYC: 42 SL:196
837B  10 FB     BPL $8378                       A:10 X:00 Y:F0 P:25 SP:FA CYC: 54 SL:196
8378  AD 02 20  LDA $2002 = FF                  A:10 X:00 Y:F0 P:25 SP:FA CYC: 63 SL:196
837B  10 FB     BPL $8378                       A:10 X:00 Y:F0 P:25 SP:FA CYC: 75 SL:196
8378  AD 02 20  LDA $2002 = FF                  A:10 X:00 Y:F0 P:25 SP:FA CYC: 84 SL:196
837B  10 FB     BPL $8378                       A:10 X:00 Y:F0 P:25 SP:FA CYC: 96 SL:196
8378  AD 02 20  LDA $2002 = FF                  A:10 X:00 Y:F0 P:25 SP:FA CYC:105 SL:196
837B  10 FB     BPL $8378                       A:10 X:00 Y:F0 P:25 SP:FA CYC:117 SL:196
8378  AD 02 20  LDA $2002 = FF                  A:10 X:00 Y:F0 P:25 SP:FA CYC:126 SL:196
837B  10 FB     BPL $8378                       A:10 X:00 Y:F0 P:25 SP:FA CYC:138 SL:196
8378  AD 02 20  LDA $2002 = FF                  A:10 X:00 Y:F0 P:25 SP:FA CYC:147 SL:196
837B  10 FB     BPL $8378                       A:10 X:00 Y:F0 P:25 SP:FA CYC:159 SL:196
8378  AD 02 20  LDA $2002 = FF                  A:10 X:00 Y:F0 P:25 SP:FA CYC:168 SL:196
837B  10 FB     BPL $8378                       A:10 X:00 Y:F0 P:25 SP:FA CYC:180 SL:196
8378  AD 02 20  LDA $2002 = FF                  A:10 X:00 Y:F0 P:25 SP:FA CYC:189 SL:196
837B  10 FB     BPL $8378                       A:10 X:00 Y:F0 P:25 SP:FA CYC:201 SL:196
8378  AD 02 20  LDA $2002 = FF                  A:10 X:00 Y:F0 P:25 SP:FA CYC:210 SL:196
837B  10 FB     BPL $8378                       A:10 X:00 Y:F0 P:25 SP:FA CYC:222 SL:196
8378  AD 02 20  LDA $2002 = FF                  A:10 X:00 Y:F0 P:25 SP:FA CYC:231 SL:196
837B  10 FB     BPL $8378                       A:10 X:00 Y:F0 P:25 SP:FA CYC:243 SL:196
8378  AD 02 20  LDA $2002 = FF                  A:10 X:00 Y:F0 P:25 SP:FA CYC:252 SL:196
837B  10 FB     BPL $8378                       A:10 X:00 Y:F0 P:25 SP:FA CYC:264 SL:196
8378  AD 02 20  LDA $2002 = FF                  A:10 X:00 Y:F0 P:25 SP:FA CYC:273 SL:196
837B  10 FB     BPL $8378                       A:10 X:00 Y:F0 P:25 SP:FA CYC:285 SL:196
8378  AD 02 20  LDA $2002 = FF                  A:10 X:00 Y:F0 P:25 SP:FA CYC:294 SL:196
837B  10 FB     BPL $8378                       A:10 X:00 Y:F0 P:25 SP:FA CYC:306 SL:196
8378  AD 02 20  LDA $2002 = FF                  A:10 X:00 Y:F0 P:25 SP:FA CYC:315 SL:196
837B  10 FB     BPL $8378                       A:10 X:00 Y:F0 P:25 SP:FA CYC:327 SL:196
8378  AD 02 20  LDA $2002 = FF                  A:10 X:00 Y:F0 P:25 SP:FA CYC:336 SL:196
837B  10 FB     BPL $8378                       A:10 X:00 Y:F0 P:25 SP:FA CYC:  7 SL:197
8378  AD 02 20  LDA $2002 = FF                  A:10 X:00 Y:F0 P:25 SP:FA CYC: 16 SL:197
837B  10 FB     BPL $8378                       A:10 X:00 Y:F0 P:25 SP:FA CYC: 28 SL:197
8378  AD 02 20  LDA $2002 = FF                  A:10 X:00 Y:F0 P:25 SP:FA CYC: 37 SL:197
837B  10 FB     BPL $8378                       A:10 X:00 Y:F0 P:25 SP:FA CYC: 49 SL:197
8378  AD 02 20  LDA $2002 = FF                  A:10 X:00 Y:F0 P:25 SP:FA CYC: 58 SL:197
837B  10 FB     BPL $8378                       A:10 X:00 Y:F0 P:25 SP:FA CYC: 70 SL:197
8378  AD 02 20  LDA $2002 = FF                  A:10 X:00 Y:F0 P:25 SP:FA CYC: 79 SL:197
837B  10 FB     BPL $8378                       A:10 X:00 Y:F0 P:25 SP:FA CYC: 91 SL:197
8378  AD 02 20  LDA $2002 = FF                  A:10 X:00 Y:F0 P:25 SP:FA CYC:100 SL:197
837B  10 FB     BPL $8378                       A:10 X:00 Y:F0 P:25 SP:FA CYC:112 SL:197
8378  AD 02 20  LDA $2002 = FF                  A:10 X:00 Y:F0 P:25 SP:FA CYC:121 SL:197
837B  10 FB     BPL $8378                       A:10 X:00 Y:F0 P:25 SP:FA CYC:133 SL:197
8378  AD 02 20  LDA $2002 = FF                  A:10 X:00 Y:F0 P:25 SP:FA CYC:142 SL:197
837B  10 FB     BPL $8378                       A:10 X:00 Y:F0 P:25 SP:FA CYC:154 SL:197
8378  AD 02 20  LDA $2002 = FF                  A:10 X:00 Y:F0 P:25 SP:FA CYC:163 SL:197
837B  10 FB     BPL $8378                       A:10 X:00 Y:F0 P:25 SP:FA CYC:175 SL:197
8378  AD 02 20  LDA $2002 = FF                  A:10 X:00 Y:F0 P:25 SP:FA CYC:184 SL:197
837B  10 FB     BPL $8378                       A:10 X:00 Y:F0 P:25 SP:FA CYC:196 SL:197
8378  AD 02 20  LDA $2002 = FF                  A:10 X:00 Y:F0 P:25 SP:FA CYC:205 SL:197
837B  10 FB     BPL $8378                       A:10 X:00 Y:F0 P:25 SP:FA CYC:217 SL:197
8378  AD 02 20  LDA $2002 = FF                  A:10 X:00 Y:F0 P:25 SP:FA CYC:226 SL:197
837B  10 FB     BPL $8378                       A:10 X:00 Y:F0 P:25 SP:FA CYC:238 SL:197
8378  AD 02 20  LDA $2002 = FF                  A:10 X:00 Y:F0 P:25 SP:FA CYC:247 SL:197
837B  10 FB     BPL $8378                       A:10 X:00 Y:F0 P:25 SP:FA CYC:259 SL:197
8378  AD 02 20  LDA $2002 = FF                  A:10 X:00 Y:F0 P:25 SP:FA CYC:268 SL:197
837B  10 FB     BPL $8378                       A:10 X:00 Y:F0 P:25 SP:FA CYC:280 SL:197
8378  AD 02 20  LDA $2002 = FF                  A:10 X:00 Y:F0 P:25 SP:FA CYC:289 SL:197
837B  10 FB     BPL $8378                       A:10 X:00 Y:F0 P:25 SP:FA CYC:301 SL:197
8378  AD 02 20  LDA $2002 = FF                  A:10 X:00 Y:F0 P:25 SP:FA CYC:310 SL:197
837B  10 FB     BPL $8378                       A:10 X:00 Y:F0 P:25 SP:FA CYC:322 SL:197
8378  AD 02 20  LDA $2002 = FF                  A:10 X:00 Y:F0 P:25 SP:FA CYC:331 SL:197
837B  10 FB     BPL $8378                       A:10 X:00 Y:F0 P:25 SP:FA CYC:  2 SL:198
8378  AD 02 20  LDA $2002 = FF                  A:10 X:00 Y:F0 P:25 SP:FA CYC: 11 SL:198
837B  10 FB     BPL $8378                       A:10 X:00 Y:F0 P:25 SP:FA CYC: 23 SL:198
8378  AD 02 20  LDA $2002 = FF                  A:10 X:00 Y:F0 P:25 SP:FA CYC: 32 SL:198
837B  10 FB     BPL $8378                       A:10 X:00 Y:F0 P:25 SP:FA CYC: 44 SL:198
8378  AD 02 20  LDA $2002 = FF                  A:10 X:00 Y:F0 P:25 SP:FA CYC: 53 SL:198
837B  10 FB     BPL $8378                       A:10 X:00 Y:F0 P:25 SP:FA CYC: 65 SL:198
8378  AD 02 20  LDA $2002 = FF                  A:10 X:00 Y:F0 P:25 SP:FA CYC: 74 SL:198
837B  10 FB     BPL $8378                       A:10 X:00 Y:F0 P:25 SP:FA CYC: 86 SL:198
8378  AD 02 20  LDA $2002 = FF                  A:10 X:00 Y:F0 P:25 SP:FA CYC: 95 SL:198
837B  10 FB     BPL $8378                       A:10 X:00 Y:F0 P:25 SP:FA CYC:107 SL:198
8378  AD 02 20  LDA $2002 = FF                  A:10 X:00 Y:F0 P:25 SP:FA CYC:116 SL:198
837B  10 FB     BPL $8378                       A:10 X:00 Y:F0 P:25 SP:FA CYC:128 SL:198
8378  AD 02 20  LDA $2002 = FF                  A:10 X:00 Y:F0 P:25 SP:FA CYC:137 SL:198
837B  10 FB     BPL $8378                       A:10 X:00 Y:F0 P:25 SP:FA CYC:149 SL:198
8378  AD 02 20  LDA $2002 = FF                  A:10 X:00 Y:F0 P:25 SP:FA CYC:158 SL:198
837B  10 FB     BPL $8378                       A:10 X:00 Y:F0 P:25 SP:FA CYC:170 SL:198
8378  AD 02 20  LDA $2002 = FF                  A:10 X:00 Y:F0 P:25 SP:FA CYC:179 SL:198
837B  10 FB     BPL $8378                       A:10 X:00 Y:F0 P:25 SP:FA CYC:191 SL:198
8378  AD 02 20  LDA $2002 = FF                  A:10 X:00 Y:F0 P:25 SP:FA CYC:200 SL:198
837B  10 FB     BPL $8378                       A:10 X:00 Y:F0 P:25 SP:FA CYC:212 SL:198
8378  AD 02 20  LDA $2002 = FF                  A:10 X:00 Y:F0 P:25 SP:FA CYC:221 SL:198
837B  10 FB     BPL $8378                       A:10 X:00 Y:F0 P:25 SP:FA CYC:233 SL:198
8378  AD 02 20  LDA $2002 = FF                  A:10 X:00 Y:F0 P:25 SP:FA CYC:242 SL:198
837B  10 FB     BPL $8378                       A:10 X:00 Y:F0 P:25 SP:FA CYC:254 SL:198
8378  AD 02 20  LDA $2002 = FF                  A:10 X:00 Y:F0 P:25 SP:FA CYC:263 SL:198
837B  10 FB     BPL $8378                       A:10 X:00 Y:F0 P:25 SP:FA CYC:275 SL:198
8378  AD 02 20  LDA $2002 = FF                  A:10 X:00 Y:F0 P:25 SP:FA CYC:284 SL:198
837B  10 FB     BPL $8378                       A:10 X:00 Y:F0 P:25 SP:FA CYC:296 SL:198
8378  AD 02 20  LDA $2002 = FF                  A:10 X:00 Y:F0 P:25 SP:FA CYC:305 SL:198
837B  10 FB     BPL $8378                       A:10 X:00 Y:F0 P:25 SP:FA CYC:317 SL:198
8378  AD 02 20  LDA $2002 = FF                  A:10 X:00 Y:F0 P:25 SP:FA CYC:326 SL:198
837B  10 FB     BPL $8378                       A:10 X:00 Y:F0 P:25 SP:FA CYC:338 SL:198
8378  AD 02 20  LDA $2002 = FF                  A:10 X:00 Y:F0 P:25 SP:FA CYC:  6 SL:199
837B  10 FB     BPL $8378                       A:10 X:00 Y:F0 P:25 SP:FA CYC: 18 SL:199
8378  AD 02 20  LDA $2002 = FF                  A:10 X:00 Y:F0 P:25 SP:FA CYC: 27 SL:199
837B  10 FB     BPL $8378                       A:10 X:00 Y:F0 P:25 SP:FA CYC: 39 SL:199
8378  AD 02 20  LDA $2002 = FF                  A:10 X:00 Y:F0 P:25 SP:FA CYC: 48 SL:199
837B  10 FB     BPL $8378                       A:10 X:00 Y:F0 P:25 SP:FA CYC: 60 SL:199
8378  AD 02 20  LDA $2002 = FF                  A:10 X:00 Y:F0 P:25 SP:FA CYC: 69 SL:199
837B  10 FB     BPL $8378                       A:10 X:00 Y:F0 P:25 SP:FA CYC: 81 SL:199
8378  AD 02 20  LDA $2002 = FF                  A:10 X:00 Y:F0 P:25 SP:FA CYC: 90 SL:199
837B  10 FB     BPL $8378                       A:10 X:00 Y:F0 P:25 SP:FA CYC:102 SL:199
8378  AD 02 20  LDA $2002 = FF                  A:10 X:00 Y:F0 P:25 SP:FA CYC:111 SL:199
837B  10 FB     BPL $8378                       A:10 X:00 Y:F0 P:25 SP:FA CYC:123 SL:199
8378  AD 02 20  LDA $2002 = FF                  A:10 X:00 Y:F0 P:25 SP:FA CYC:132 SL:199
837B  10 FB     BPL $8378                       A:10 X:00 Y:F0 P:25 SP:FA CYC:144 SL:199
8378  AD 02 20  LDA $2002 = FF                  A:10 X:00 Y:F0 P:25 SP:FA CYC:153 SL:199
837B  10 FB     BPL $8378                       A:10 X:00 Y:F0 P:25 SP:FA CYC:165 SL:199
8378  AD 02 20  LDA $2002 = FF                  A:10 X:00 Y:F0 P:25 SP:FA CYC:174 SL:199
837B  10 FB     BPL $8378                       A:10 X:00 Y:F0 P:25 SP:FA CYC:186 SL:199
8378  AD 02 20  LDA $2002 = FF                  A:10 X:00 Y:F0 P:25 SP:FA CYC:195 SL:199
837B  10 FB     BPL $8378                       A:10 X:00 Y:F0 P:25 SP:FA CYC:207 SL:199
8378  AD 02 20  LDA $2002 = FF                  A:10 X:00 Y:F0 P:25 SP:FA CYC:216 SL:199
837B  10 FB     BPL $8378                       A:10 X:00 Y:F0 P:25 SP:FA CYC:228 SL:199
8378  AD 02 20  LDA $2002 = FF                  A:10 X:00 Y:F0 P:25 SP:FA CYC:237 SL:199
837B  10 FB     BPL $8378                       A:10 X:00 Y:F0 P:25 SP:FA CYC:249 SL:199
8378  AD 02 20  LDA $2002 = FF                  A:10 X:00 Y:F0 P:25 SP:FA CYC:258 SL:199
837B  10 FB     BPL $8378                       A:10 X:00 Y:F0 P:25 SP:FA CYC:270 SL:199
8378  AD 02 20  LDA $2002 = FF                  A:10 X:00 Y:F0 P:25 SP:FA CYC:279 SL:199
837B  10 FB     BPL $8378                       A:10 X:00 Y:F0 P:25 SP:FA CYC:291 SL:199
8378  AD 02 20  LDA $2002 = FF                  A:10 X:00 Y:F0 P:25 SP:FA CYC:300 SL:199
837B  10 FB     BPL $8378                       A:10 X:00 Y:F0 P:25 SP:FA CYC:312 SL:199
8378  AD 02 20  LDA $2002 = FF                  A:10 X:00 Y:F0 P:25 SP:FA CYC:321 SL:199
837B  10 FB     BPL $8378                       A:10 X:00 Y:F0 P:25 SP:FA CYC:333 SL:199
8378  AD 02 20  LDA $2002 = FF                  A:10 X:00 Y:F0 P:25 SP:FA CYC:  1 SL:200
837B  10 FB     BPL $8378                       A:10 X:00 Y:F0 P:25 SP:FA CYC: 13 SL:200
8378  AD 02 20  LDA $2002 = FF                  A:10 X:00 Y:F0 P:25 SP:FA CYC: 22 SL:200
837B  10 FB     BPL $8378                       A:10 X:00 Y:F0 P:25 SP:FA CYC: 34 SL:200
8378  AD 02 20  LDA $2002 = FF                  A:10 X:00 Y:F0 P:25 SP:FA CYC: 43 SL:200
837B  10 FB     BPL $8378                       A:10 X:00 Y:F0 P:25 SP:FA CYC: 55 SL:200
8378  AD 02 20  LDA $2002 = FF                  A:10 X:00 Y:F0 P:25 SP:FA CYC: 64 SL:200
837B  10 FB     BPL $8378                       A:10 X:00 Y:F0 P:25 SP:FA CYC: 76 SL:200
8378  AD 02 20  LDA $2002 = FF                  A:10 X:00 Y:F0 P:25 SP:FA CYC: 85 SL:200
837B  10 FB     BPL $8378                       A:10 X:00 Y:F0 P:25 SP:FA CYC: 97 SL:200
8378  AD 02 20  LDA $2002 = FF                  A:10 X:00 Y:F0 P:25 SP:FA CYC:106 SL:200
837B  10 FB     BPL $8378                       A:10 X:00 Y:F0 P:25 SP:FA CYC:118 SL:200
8378  AD 02 20  LDA $2002 = FF                  A:10 X:00 Y:F0 P:25 SP:FA CYC:127 SL:200
837B  10 FB     BPL $8378                       A:10 X:00 Y:F0 P:25 SP:FA CYC:139 SL:200
8378  AD 02 20  LDA $2002 = FF                  A:10 X:00 Y:F0 P:25 SP:FA CYC:148 SL:200
837B  10 FB     BPL $8378                       A:10 X:00 Y:F0 P:25 SP:FA CYC:160 SL:200
8378  AD 02 20  LDA $2002 = FF                  A:10 X:00 Y:F0 P:25 SP:FA CYC:169 SL:200
837B  10 FB     BPL $8378                       A:10 X:00 Y:F0 P:25 SP:FA CYC:181 SL:200
8378  AD 02 20  LDA $2002 = FF                  A:10 X:00 Y:F0 P:25 SP:FA CYC:190 SL:200
837B  10 FB     BPL $8378                       A:10 X:00 Y:F0 P:25 SP:FA CYC:202 SL:200
8378  AD 02 20  LDA $2002 = FF                  A:10 X:00 Y:F0 P:25 SP:FA CYC:211 SL:200
837B  10 FB     BPL $8378                       A:10 X:00 Y:F0 P:25 SP:FA CYC:223 SL:200
8378  AD 02 20  LDA $2002 = FF                  A:10 X:00 Y:F0 P:25 SP:FA CYC:232 SL:200
837B  10 FB     BPL $8378                       A:10 X:00 Y:F0 P:25 SP:FA CYC:244 SL:200
8378  AD 02 20  LDA $2002 = FF                  A:10 X:00 Y:F0 P:25 SP:FA CYC:253 SL:200
837B  10 FB     BPL $8378                       A:10 X:00 Y:F0 P:25 SP:FA CYC:265 SL:200
8378  AD 02 20  LDA $2002 = FF                  A:10 X:00 Y:F0 P:25 SP:FA CYC:274 SL:200
837B  10 FB     BPL $8378                       A:10 X:00 Y:F0 P:25 SP:FA CYC:286 SL:200
8378  AD 02 20  LDA $2002 = FF                  A:10 X:00 Y:F0 P:25 SP:FA CYC:295 SL:200
837B  10 FB     BPL $8378                       A:10 X:00 Y:F0 P:25 SP:FA CYC:307 SL:200
8378  AD 02 20  LDA $2002 = FF                  A:10 X:00 Y:F0 P:25 SP:FA CYC:316 SL:200
837B  10 FB     BPL $8378                       A:10 X:00 Y:F0 P:25 SP:FA CYC:328 SL:200
8378  AD 02 20  LDA $2002 = FF                  A:10 X:00 Y:F0 P:25 SP:FA CYC:337 SL:200
837B  10 FB     BPL $8378                       A:10 X:00 Y:F0 P:25 SP:FA CYC:  8 SL:201
8378  AD 02 20  LDA $2002 = FF                  A:10 X:00 Y:F0 P:25 SP:FA CYC: 17 SL:201
837B  10 FB     BPL $8378                       A:10 X:00 Y:F0 P:25 SP:FA CYC: 29 SL:201
8378  AD 02 20  LDA $2002 = FF                  A:10 X:00 Y:F0 P:25 SP:FA CYC: 38 SL:201
837B  10 FB     BPL $8378                       A:10 X:00 Y:F0 P:25 SP:FA CYC: 50 SL:201
8378  AD 02 20  LDA $2002 = FF                  A:10 X:00 Y:F0 P:25 SP:FA CYC: 59 SL:201
837B  10 FB     BPL $8378                       A:10 X:00 Y:F0 P:25 SP:FA CYC: 71 SL:201
8378  AD 02 20  LDA $2002 = FF                  A:10 X:00 Y:F0 P:25 SP:FA CYC: 80 SL:201
837B  10 FB     BPL $8378                       A:10 X:00 Y:F0 P:25 SP:FA CYC: 92 SL:201
8378  AD 02 20  LDA $2002 = FF                  A:10 X:00 Y:F0 P:25 SP:FA CYC:101 SL:201
837B  10 FB     BPL $8378                       A:10 X:00 Y:F0 P:25 SP:FA CYC:113 SL:201
8378  AD 02 20  LDA $2002 = FF                  A:10 X:00 Y:F0 P:25 SP:FA CYC:122 SL:201
837B  10 FB     BPL $8378                       A:10 X:00 Y:F0 P:25 SP:FA CYC:134 SL:201
8378  AD 02 20  LDA $2002 = FF                  A:10 X:00 Y:F0 P:25 SP:FA CYC:143 SL:201
837B  10 FB     BPL $8378                       A:10 X:00 Y:F0 P:25 SP:FA CYC:155 SL:201
8378  AD 02 20  LDA $2002 = FF                  A:10 X:00 Y:F0 P:25 SP:FA CYC:164 SL:201
837B  10 FB     BPL $8378                       A:10 X:00 Y:F0 P:25 SP:FA CYC:176 SL:201
8378  AD 02 20  LDA $2002 = FF                  A:10 X:00 Y:F0 P:25 SP:FA CYC:185 SL:201
837B  10 FB     BPL $8378                       A:10 X:00 Y:F0 P:25 SP:FA CYC:197 SL:201
8378  AD 02 20  LDA $2002 = FF                  A:10 X:00 Y:F0 P:25 SP:FA CYC:206 SL:201
837B  10 FB     BPL $8378                       A:10 X:00 Y:F0 P:25 SP:FA CYC:218 SL:201
8378  AD 02 20  LDA $2002 = FF                  A:10 X:00 Y:F0 P:25 SP:FA CYC:227 SL:201
837B  10 FB     BPL $8378                       A:10 X:00 Y:F0 P:25 SP:FA CYC:239 SL:201
8378  AD 02 20  LDA $2002 = FF                  A:10 X:00 Y:F0 P:25 SP:FA CYC:248 SL:201
837B  10 FB     BPL $8378                       A:10 X:00 Y:F0 P:25 SP:FA CYC:260 SL:201
8378  AD 02 20  LDA $2002 = FF                  A:10 X:00 Y:F0 P:25 SP:FA CYC:269 SL:201
837B  10 FB     BPL $8378                       A:10 X:00 Y:F0 P:25 SP:FA CYC:281 SL:201
8378  AD 02 20  LDA $2002 = FF                  A:10 X:00 Y:F0 P:25 SP:FA CYC:290 SL:201
837B  10 FB     BPL $8378                       A:10 X:00 Y:F0 P:25 SP:FA CYC:302 SL:201
8378  AD 02 20  LDA $2002 = FF                  A:10 X:00 Y:F0 P:25 SP:FA CYC:311 SL:201
837B  10 FB     BPL $8378                       A:10 X:00 Y:F0 P:25 SP:FA CYC:323 SL:201
8378  AD 02 20  LDA $2002 = FF                  A:10 X:00 Y:F0 P:25 SP:FA CYC:332 SL:201
837B  10 FB     BPL $8378                       A:10 X:00 Y:F0 P:25 SP:FA CYC:  3 SL:202
8378  AD 02 20  LDA $2002 = FF                  A:10 X:00 Y:F0 P:25 SP:FA CYC: 12 SL:202
837B  10 FB     BPL $8378                       A:10 X:00 Y:F0 P:25 SP:FA CYC: 24 SL:202
8378  AD 02 20  LDA $2002 = FF                  A:10 X:00 Y:F0 P:25 SP:FA CYC: 33 SL:202
837B  10 FB     BPL $8378                       A:10 X:00 Y:F0 P:25 SP:FA CYC: 45 SL:202
8378  AD 02 20  LDA $2002 = FF                  A:10 X:00 Y:F0 P:25 SP:FA CYC: 54 SL:202
837B  10 FB     BPL $8378                       A:10 X:00 Y:F0 P:25 SP:FA CYC: 66 SL:202
8378  AD 02 20  LDA $2002 = FF                  A:10 X:00 Y:F0 P:25 SP:FA CYC: 75 SL:202
837B  10 FB     BPL $8378                       A:10 X:00 Y:F0 P:25 SP:FA CYC: 87 SL:202
8378  AD 02 20  LDA $2002 = FF                  A:10 X:00 Y:F0 P:25 SP:FA CYC: 96 SL:202
837B  10 FB     BPL $8378                       A:10 X:00 Y:F0 P:25 SP:FA CYC:108 SL:202
8378  AD 02 20  LDA $2002 = FF                  A:10 X:00 Y:F0 P:25 SP:FA CYC:117 SL:202
837B  10 FB     BPL $8378                       A:10 X:00 Y:F0 P:25 SP:FA CYC:129 SL:202
8378  AD 02 20  LDA $2002 = FF                  A:10 X:00 Y:F0 P:25 SP:FA CYC:138 SL:202
837B  10 FB     BPL $8378                       A:10 X:00 Y:F0 P:25 SP:FA CYC:150 SL:202
8378  AD 02 20  LDA $2002 = FF                  A:10 X:00 Y:F0 P:25 SP:FA CYC:159 SL:202
837B  10 FB     BPL $8378                       A:10 X:00 Y:F0 P:25 SP:FA CYC:171 SL:202
8378  AD 02 20  LDA $2002 = FF                  A:10 X:00 Y:F0 P:25 SP:FA CYC:180 SL:202
837B  10 FB     BPL $8378                       A:10 X:00 Y:F0 P:25 SP:FA CYC:192 SL:202
8378  AD 02 20  LDA $2002 = FF                  A:10 X:00 Y:F0 P:25 SP:FA CYC:201 SL:202
837B  10 FB     BPL $8378                       A:10 X:00 Y:F0 P:25 SP:FA CYC:213 SL:202
8378  AD 02 20  LDA $2002 = FF                  A:10 X:00 Y:F0 P:25 SP:FA CYC:222 SL:202
837B  10 FB     BPL $8378                       A:10 X:00 Y:F0 P:25 SP:FA CYC:234 SL:202
8378  AD 02 20  LDA $2002 = FF                  A:10 X:00 Y:F0 P:25 SP:FA CYC:243 SL:202
837B  10 FB     BPL $8378                       A:10 X:00 Y:F0 P:25 SP:FA CYC:255 SL:202
8378  AD 02 20  LDA $2002 = FF                  A:10 X:00 Y:F0 P:25 SP:FA CYC:264 SL:202
837B  10 FB     BPL $8378                       A:10 X:00 Y:F0 P:25 SP:FA CYC:276 SL:202
8378  AD 02 20  LDA $2002 = FF                  A:10 X:00 Y:F0 P:25 SP:FA CYC:285 SL:202
837B  10 FB     BPL $8378                       A:10 X:00 Y:F0 P:25 SP:FA CYC:297 SL:202
8378  AD 02 20  LDA $2002 = FF                  A:10 X:00 Y:F0 P:25 SP:FA CYC:306 SL:202
837B  10 FB     BPL $8378                       A:10 X:00 Y:F0 P:25 SP:FA CYC:318 SL:202
8378  AD 02 20  LDA $2002 = FF                  A:10 X:00 Y:F0 P:25 SP:FA CYC:327 SL:202
837B  10 FB     BPL $8378                       A:10 X:00 Y:F0 P:25 SP:FA CYC:339 SL:202
8378  AD 02 20  LDA $2002 = FF                  A:10 X:00 Y:F0 P:25 SP:FA CYC:  7 SL:203
837B  10 FB     BPL $8378                       A:10 X:00 Y:F0 P:25 SP:FA CYC: 19 SL:203
8378  AD 02 20  LDA $2002 = FF                  A:10 X:00 Y:F0 P:25 SP:FA CYC: 28 SL:203
837B  10 FB     BPL $8378                       A:10 X:00 Y:F0 P:25 SP:FA CYC: 40 SL:203
8378  AD 02 20  LDA $2002 = FF                  A:10 X:00 Y:F0 P:25 SP:FA CYC: 49 SL:203
837B  10 FB     BPL $8378                       A:10 X:00 Y:F0 P:25 SP:FA CYC: 61 SL:203
8378  AD 02 20  LDA $2002 = FF                  A:10 X:00 Y:F0 P:25 SP:FA CYC: 70 SL:203
837B  10 FB     BPL $8378                       A:10 X:00 Y:F0 P:25 SP:FA CYC: 82 SL:203
8378  AD 02 20  LDA $2002 = FF                  A:10 X:00 Y:F0 P:25 SP:FA CYC: 91 SL:203
837B  10 FB     BPL $8378                       A:10 X:00 Y:F0 P:25 SP:FA CYC:103 SL:203
8378  AD 02 20  LDA $2002 = FF                  A:10 X:00 Y:F0 P:25 SP:FA CYC:112 SL:203
837B  10 FB     BPL $8378                       A:10 X:00 Y:F0 P:25 SP:FA CYC:124 SL:203
8378  AD 02 20  LDA $2002 = FF                  A:10 X:00 Y:F0 P:25 SP:FA CYC:133 SL:203
837B  10 FB     BPL $8378                       A:10 X:00 Y:F0 P:25 SP:FA CYC:145 SL:203
8378  AD 02 20  LDA $2002 = FF                  A:10 X:00 Y:F0 P:25 SP:FA CYC:154 SL:203
837B  10 FB     BPL $8378                       A:10 X:00 Y:F0 P:25 SP:FA CYC:166 SL:203
8378  AD 02 20  LDA $2002 = FF                  A:10 X:00 Y:F0 P:25 SP:FA CYC:175 SL:203
837B  10 FB     BPL $8378                       A:10 X:00 Y:F0 P:25 SP:FA CYC:187 SL:203
8378  AD 02 20  LDA $2002 = FF                  A:10 X:00 Y:F0 P:25 SP:FA CYC:196 SL:203
837B  10 FB     BPL $8378                       A:10 X:00 Y:F0 P:25 SP:FA CYC:208 SL:203
8378  AD 02 20  LDA $2002 = FF                  A:10 X:00 Y:F0 P:25 SP:FA CYC:217 SL:203
837B  10 FB     BPL $8378                       A:10 X:00 Y:F0 P:25 SP:FA CYC:229 SL:203
8378  AD 02 20  LDA $2002 = FF                  A:10 X:00 Y:F0 P:25 SP:FA CYC:238 SL:203
837B  10 FB     BPL $8378                       A:10 X:00 Y:F0 P:25 SP:FA CYC:250 SL:203
8378  AD 02 20  LDA $2002 = FF                  A:10 X:00 Y:F0 P:25 SP:FA CYC:259 SL:203
837B  10 FB     BPL $8378                       A:10 X:00 Y:F0 P:25 SP:FA CYC:271 SL:203
8378  AD 02 20  LDA $2002 = FF                  A:10 X:00 Y:F0 P:25 SP:FA CYC:280 SL:203
837B  10 FB     BPL $8378                       A:10 X:00 Y:F0 P:25 SP:FA CYC:292 SL:203
8378  AD 02 20  LDA $2002 = FF                  A:10 X:00 Y:F0 P:25 SP:FA CYC:301 SL:203
837B  10 FB     BPL $8378                       A:10 X:00 Y:F0 P:25 SP:FA CYC:313 SL:203
8378  AD 02 20  LDA $2002 = FF                  A:10 X:00 Y:F0 P:25 SP:FA CYC:322 SL:203
837B  10 FB     BPL $8378                       A:10 X:00 Y:F0 P:25 SP:FA CYC:334 SL:203
8378  AD 02 20  LDA $2002 = FF                  A:10 X:00 Y:F0 P:25 SP:FA CYC:  2 SL:204
837B  10 FB     BPL $8378                       A:10 X:00 Y:F0 P:25 SP:FA CYC: 14 SL:204
8378  AD 02 20  LDA $2002 = FF                  A:10 X:00 Y:F0 P:25 SP:FA CYC: 23 SL:204
837B  10 FB     BPL $8378                       A:10 X:00 Y:F0 P:25 SP:FA CYC: 35 SL:204
8378  AD 02 20  LDA $2002 = FF                  A:10 X:00 Y:F0 P:25 SP:FA CYC: 44 SL:204
837B  10 FB     BPL $8378                       A:10 X:00 Y:F0 P:25 SP:FA CYC: 56 SL:204
8378  AD 02 20  LDA $2002 = FF                  A:10 X:00 Y:F0 P:25 SP:FA CYC: 65 SL:204
837B  10 FB     BPL $8378                       A:10 X:00 Y:F0 P:25 SP:FA CYC: 77 SL:204
8378  AD 02 20  LDA $2002 = FF                  A:10 X:00 Y:F0 P:25 SP:FA CYC: 86 SL:204
837B  10 FB     BPL $8378                       A:10 X:00 Y:F0 P:25 SP:FA CYC: 98 SL:204
8378  AD 02 20  LDA $2002 = FF                  A:10 X:00 Y:F0 P:25 SP:FA CYC:107 SL:204
837B  10 FB     BPL $8378                       A:10 X:00 Y:F0 P:25 SP:FA CYC:119 SL:204
8378  AD 02 20  LDA $2002 = FF                  A:10 X:00 Y:F0 P:25 SP:FA CYC:128 SL:204
837B  10 FB     BPL $8378                       A:10 X:00 Y:F0 P:25 SP:FA CYC:140 SL:204
8378  AD 02 20  LDA $2002 = FF                  A:10 X:00 Y:F0 P:25 SP:FA CYC:149 SL:204
837B  10 FB     BPL $8378                       A:10 X:00 Y:F0 P:25 SP:FA CYC:161 SL:204
8378  AD 02 20  LDA $2002 = FF                  A:10 X:00 Y:F0 P:25 SP:FA CYC:170 SL:204
837B  10 FB     BPL $8378                       A:10 X:00 Y:F0 P:25 SP:FA CYC:182 SL:204
8378  AD 02 20  LDA $2002 = FF                  A:10 X:00 Y:F0 P:25 SP:FA CYC:191 SL:204
837B  10 FB     BPL $8378                       A:10 X:00 Y:F0 P:25 SP:FA CYC:203 SL:204
8378  AD 02 20  LDA $2002 = FF                  A:10 X:00 Y:F0 P:25 SP:FA CYC:212 SL:204
837B  10 FB     BPL $8378                       A:10 X:00 Y:F0 P:25 SP:FA CYC:224 SL:204
8378  AD 02 20  LDA $2002 = FF                  A:10 X:00 Y:F0 P:25 SP:FA CYC:233 SL:204
837B  10 FB     BPL $8378                       A:10 X:00 Y:F0 P:25 SP:FA CYC:245 SL:204
8378  AD 02 20  LDA $2002 = FF                  A:10 X:00 Y:F0 P:25 SP:FA CYC:254 SL:204
837B  10 FB     BPL $8378                       A:10 X:00 Y:F0 P:25 SP:FA CYC:266 SL:204
8378  AD 02 20  LDA $2002 = FF                  A:10 X:00 Y:F0 P:25 SP:FA CYC:275 SL:204
837B  10 FB     BPL $8378                       A:10 X:00 Y:F0 P:25 SP:FA CYC:287 SL:204
8378  AD 02 20  LDA $2002 = FF                  A:10 X:00 Y:F0 P:25 SP:FA CYC:296 SL:204
837B  10 FB     BPL $8378                       A:10 X:00 Y:F0 P:25 SP:FA CYC:308 SL:204
8378  AD 02 20  LDA $2002 = FF                  A:10 X:00 Y:F0 P:25 SP:FA CYC:317 SL:204
837B  10 FB     BPL $8378                       A:10 X:00 Y:F0 P:25 SP:FA CYC:329 SL:204
8378  AD 02 20  LDA $2002 = FF                  A:10 X:00 Y:F0 P:25 SP:FA CYC:338 SL:204
837B  10 FB     BPL $8378                       A:10 X:00 Y:F0 P:25 SP:FA CYC:  9 SL:205
8378  AD 02 20  LDA $2002 = FF                  A:10 X:00 Y:F0 P:25 SP:FA CYC: 18 SL:205
837B  10 FB     BPL $8378                       A:10 X:00 Y:F0 P:25 SP:FA CYC: 30 SL:205
8378  AD 02 20  LDA $2002 = FF                  A:10 X:00 Y:F0 P:25 SP:FA CYC: 39 SL:205
837B  10 FB     BPL $8378                       A:10 X:00 Y:F0 P:25 SP:FA CYC: 51 SL:205
8378  AD 02 20  LDA $2002 = FF                  A:10 X:00 Y:F0 P:25 SP:FA CYC: 60 SL:205
837B  10 FB     BPL $8378                       A:10 X:00 Y:F0 P:25 SP:FA CYC: 72 SL:205
8378  AD 02 20  LDA $2002 = FF                  A:10 X:00 Y:F0 P:25 SP:FA CYC: 81 SL:205
837B  10 FB     BPL $8378                       A:10 X:00 Y:F0 P:25 SP:FA CYC: 93 SL:205
8378  AD 02 20  LDA $2002 = FF                  A:10 X:00 Y:F0 P:25 SP:FA CYC:102 SL:205
837B  10 FB     BPL $8378                       A:10 X:00 Y:F0 P:25 SP:FA CYC:114 SL:205
8378  AD 02 20  LDA $2002 = FF                  A:10 X:00 Y:F0 P:25 SP:FA CYC:123 SL:205
837B  10 FB     BPL $8378                       A:10 X:00 Y:F0 P:25 SP:FA CYC:135 SL:205
8378  AD 02 20  LDA $2002 = FF                  A:10 X:00 Y:F0 P:25 SP:FA CYC:144 SL:205
837B  10 FB     BPL $8378                       A:10 X:00 Y:F0 P:25 SP:FA CYC:156 SL:205
8378  AD 02 20  LDA $2002 = FF                  A:10 X:00 Y:F0 P:25 SP:FA CYC:165 SL:205
837B  10 FB     BPL $8378                       A:10 X:00 Y:F0 P:25 SP:FA CYC:177 SL:205
8378  AD 02 20  LDA $2002 = FF                  A:10 X:00 Y:F0 P:25 SP:FA CYC:186 SL:205
837B  10 FB     BPL $8378                       A:10 X:00 Y:F0 P:25 SP:FA CYC:198 SL:205
8378  AD 02 20  LDA $2002 = FF                  A:10 X:00 Y:F0 P:25 SP:FA CYC:207 SL:205
837B  10 FB     BPL $8378                       A:10 X:00 Y:F0 P:25 SP:FA CYC:219 SL:205
8378  AD 02 20  LDA $2002 = FF                  A:10 X:00 Y:F0 P:25 SP:FA CYC:228 SL:205
837B  10 FB     BPL $8378                       A:10 X:00 Y:F0 P:25 SP:FA CYC:240 SL:205
8378  AD 02 20  LDA $2002 = FF                  A:10 X:00 Y:F0 P:25 SP:FA CYC:249 SL:205
837B  10 FB     BPL $8378                       A:10 X:00 Y:F0 P:25 SP:FA CYC:261 SL:205
8378  AD 02 20  LDA $2002 = FF                  A:10 X:00 Y:F0 P:25 SP:FA CYC:270 SL:205
837B  10 FB     BPL $8378                       A:10 X:00 Y:F0 P:25 SP:FA CYC:282 SL:205
8378  AD 02 20  LDA $2002 = FF                  A:10 X:00 Y:F0 P:25 SP:FA CYC:291 SL:205
837B  10 FB     BPL $8378                       A:10 X:00 Y:F0 P:25 SP:FA CYC:303 SL:205
8378  AD 02 20  LDA $2002 = FF                  A:10 X:00 Y:F0 P:25 SP:FA CYC:312 SL:205
837B  10 FB     BPL $8378                       A:10 X:00 Y:F0 P:25 SP:FA CYC:324 SL:205
8378  AD 02 20  LDA $2002 = FF                  A:10 X:00 Y:F0 P:25 SP:FA CYC:333 SL:205
837B  10 FB     BPL $8378                       A:10 X:00 Y:F0 P:25 SP:FA CYC:  4 SL:206
8378  AD 02 20  LDA $2002 = FF                  A:10 X:00 Y:F0 P:25 SP:FA CYC: 13 SL:206
837B  10 FB     BPL $8378                       A:10 X:00 Y:F0 P:25 SP:FA CYC: 25 SL:206
8378  AD 02 20  LDA $2002 = FF                  A:10 X:00 Y:F0 P:25 SP:FA CYC: 34 SL:206
837B  10 FB     BPL $8378                       A:10 X:00 Y:F0 P:25 SP:FA CYC: 46 SL:206
8378  AD 02 20  LDA $2002 = FF                  A:10 X:00 Y:F0 P:25 SP:FA CYC: 55 SL:206
837B  10 FB     BPL $8378                       A:10 X:00 Y:F0 P:25 SP:FA CYC: 67 SL:206
8378  AD 02 20  LDA $2002 = FF                  A:10 X:00 Y:F0 P:25 SP:FA CYC: 76 SL:206
837B  10 FB     BPL $8378                       A:10 X:00 Y:F0 P:25 SP:FA CYC: 88 SL:206
8378  AD 02 20  LDA $2002 = FF                  A:10 X:00 Y:F0 P:25 SP:FA CYC: 97 SL:206
837B  10 FB     BPL $8378                       A:10 X:00 Y:F0 P:25 SP:FA CYC:109 SL:206
8378  AD 02 20  LDA $2002 = FF                  A:10 X:00 Y:F0 P:25 SP:FA CYC:118 SL:206
837B  10 FB     BPL $8378                       A:10 X:00 Y:F0 P:25 SP:FA CYC:130 SL:206
8378  AD 02 20  LDA $2002 = FF                  A:10 X:00 Y:F0 P:25 SP:FA CYC:139 SL:206
837B  10 FB     BPL $8378                       A:10 X:00 Y:F0 P:25 SP:FA CYC:151 SL:206
8378  AD 02 20  LDA $2002 = FF                  A:10 X:00 Y:F0 P:25 SP:FA CYC:160 SL:206
837B  10 FB     BPL $8378                       A:10 X:00 Y:F0 P:25 SP:FA CYC:172 SL:206
8378  AD 02 20  LDA $2002 = FF                  A:10 X:00 Y:F0 P:25 SP:FA CYC:181 SL:206
837B  10 FB     BPL $8378                       A:10 X:00 Y:F0 P:25 SP:FA CYC:193 SL:206
8378  AD 02 20  LDA $2002 = FF                  A:10 X:00 Y:F0 P:25 SP:FA CYC:202 SL:206
837B  10 FB     BPL $8378                       A:10 X:00 Y:F0 P:25 SP:FA CYC:214 SL:206
8378  AD 02 20  LDA $2002 = FF                  A:10 X:00 Y:F0 P:25 SP:FA CYC:223 SL:206
837B  10 FB     BPL $8378                       A:10 X:00 Y:F0 P:25 SP:FA CYC:235 SL:206
8378  AD 02 20  LDA $2002 = FF                  A:10 X:00 Y:F0 P:25 SP:FA CYC:244 SL:206
837B  10 FB     BPL $8378                       A:10 X:00 Y:F0 P:25 SP:FA CYC:256 SL:206
8378  AD 02 20  LDA $2002 = FF                  A:10 X:00 Y:F0 P:25 SP:FA CYC:265 SL:206
837B  10 FB     BPL $8378                       A:10 X:00 Y:F0 P:25 SP:FA CYC:277 SL:206
8378  AD 02 20  LDA $2002 = FF                  A:10 X:00 Y:F0 P:25 SP:FA CYC:286 SL:206
837B  10 FB     BPL $8378                       A:10 X:00 Y:F0 P:25 SP:FA CYC:298 SL:206
8378  AD 02 20  LDA $2002 = FF                  A:10 X:00 Y:F0 P:25 SP:FA CYC:307 SL:206
837B  10 FB     BPL $8378                       A:10 X:00 Y:F0 P:25 SP:FA CYC:319 SL:206
8378  AD 02 20  LDA $2002 = FF                  A:10 X:00 Y:F0 P:25 SP:FA CYC:328 SL:206
837B  10 FB     BPL $8378                       A:10 X:00 Y:F0 P:25 SP:FA CYC:340 SL:206
8378  AD 02 20  LDA $2002 = FF                  A:10 X:00 Y:F0 P:25 SP:FA CYC:  8 SL:207
837B  10 FB     BPL $8378                       A:10 X:00 Y:F0 P:25 SP:FA CYC: 20 SL:207
8378  AD 02 20  LDA $2002 = FF                  A:10 X:00 Y:F0 P:25 SP:FA CYC: 29 SL:207
837B  10 FB     BPL $8378                       A:10 X:00 Y:F0 P:25 SP:FA CYC: 41 SL:207
8378  AD 02 20  LDA $2002 = FF                  A:10 X:00 Y:F0 P:25 SP:FA CYC: 50 SL:207
837B  10 FB     BPL $8378                       A:10 X:00 Y:F0 P:25 SP:FA CYC: 62 SL:207
8378  AD 02 20  LDA $2002 = FF                  A:10 X:00 Y:F0 P:25 SP:FA CYC: 71 SL:207
837B  10 FB     BPL $8378                       A:10 X:00 Y:F0 P:25 SP:FA CYC: 83 SL:207
8378  AD 02 20  LDA $2002 = FF                  A:10 X:00 Y:F0 P:25 SP:FA CYC: 92 SL:207
837B  10 FB     BPL $8378                       A:10 X:00 Y:F0 P:25 SP:FA CYC:104 SL:207
8378  AD 02 20  LDA $2002 = FF                  A:10 X:00 Y:F0 P:25 SP:FA CYC:113 SL:207
837B  10 FB     BPL $8378                       A:10 X:00 Y:F0 P:25 SP:FA CYC:125 SL:207
8378  AD 02 20  LDA $2002 = FF                  A:10 X:00 Y:F0 P:25 SP:FA CYC:134 SL:207
837B  10 FB     BPL $8378                       A:10 X:00 Y:F0 P:25 SP:FA CYC:146 SL:207
8378  AD 02 20  LDA $2002 = FF                  A:10 X:00 Y:F0 P:25 SP:FA CYC:155 SL:207
837B  10 FB     BPL $8378                       A:10 X:00 Y:F0 P:25 SP:FA CYC:167 SL:207
8378  AD 02 20  LDA $2002 = FF                  A:10 X:00 Y:F0 P:25 SP:FA CYC:176 SL:207
837B  10 FB     BPL $8378                       A:10 X:00 Y:F0 P:25 SP:FA CYC:188 SL:207
8378  AD 02 20  LDA $2002 = FF                  A:10 X:00 Y:F0 P:25 SP:FA CYC:197 SL:207
837B  10 FB     BPL $8378                       A:10 X:00 Y:F0 P:25 SP:FA CYC:209 SL:207
8378  AD 02 20  LDA $2002 = FF                  A:10 X:00 Y:F0 P:25 SP:FA CYC:218 SL:207
837B  10 FB     BPL $8378                       A:10 X:00 Y:F0 P:25 SP:FA CYC:230 SL:207
8378  AD 02 20  LDA $2002 = FF                  A:10 X:00 Y:F0 P:25 SP:FA CYC:239 SL:207
837B  10 FB     BPL $8378                       A:10 X:00 Y:F0 P:25 SP:FA CYC:251 SL:207
8378  AD 02 20  LDA $2002 = FF                  A:10 X:00 Y:F0 P:25 SP:FA CYC:260 SL:207
837B  10 FB     BPL $8378                       A:10 X:00 Y:F0 P:25 SP:FA CYC:272 SL:207
8378  AD 02 20  LDA $2002 = FF                  A:10 X:00 Y:F0 P:25 SP:FA CYC:281 SL:207
837B  10 FB     BPL $8378                       A:10 X:00 Y:F0 P:25 SP:FA CYC:293 SL:207
8378  AD 02 20  LDA $2002 = FF                  A:10 X:00 Y:F0 P:25 SP:FA CYC:302 SL:207
837B  10 FB     BPL $8378                       A:10 X:00 Y:F0 P:25 SP:FA CYC:314 SL:207
8378  AD 02 20  LDA $2002 = FF                  A:10 X:00 Y:F0 P:25 SP:FA CYC:323 SL:207
837B  10 FB     BPL $8378                       A:10 X:00 Y:F0 P:25 SP:FA CYC:335 SL:207
8378  AD 02 20  LDA $2002 = FF                  A:10 X:00 Y:F0 P:25 SP:FA CYC:  3 SL:208
837B  10 FB     BPL $8378                       A:10 X:00 Y:F0 P:25 SP:FA CYC: 15 SL:208
8378  AD 02 20  LDA $2002 = FF                  A:10 X:00 Y:F0 P:25 SP:FA CYC: 24 SL:208
837B  10 FB     BPL $8378                       A:10 X:00 Y:F0 P:25 SP:FA CYC: 36 SL:208
8378  AD 02 20  LDA $2002 = FF                  A:10 X:00 Y:F0 P:25 SP:FA CYC: 45 SL:208
837B  10 FB     BPL $8378                       A:10 X:00 Y:F0 P:25 SP:FA CYC: 57 SL:208
8378  AD 02 20  LDA $2002 = FF                  A:10 X:00 Y:F0 P:25 SP:FA CYC: 66 SL:208
837B  10 FB     BPL $8378                       A:10 X:00 Y:F0 P:25 SP:FA CYC: 78 SL:208
8378  AD 02 20  LDA $2002 = FF                  A:10 X:00 Y:F0 P:25 SP:FA CYC: 87 SL:208
837B  10 FB     BPL $8378                       A:10 X:00 Y:F0 P:25 SP:FA CYC: 99 SL:208
8378  AD 02 20  LDA $2002 = FF                  A:10 X:00 Y:F0 P:25 SP:FA CYC:108 SL:208
837B  10 FB     BPL $8378                       A:10 X:00 Y:F0 P:25 SP:FA CYC:120 SL:208
8378  AD 02 20  LDA $2002 = FF                  A:10 X:00 Y:F0 P:25 SP:FA CYC:129 SL:208
837B  10 FB     BPL $8378                       A:10 X:00 Y:F0 P:25 SP:FA CYC:141 SL:208
8378  AD 02 20  LDA $2002 = FF                  A:10 X:00 Y:F0 P:25 SP:FA CYC:150 SL:208
837B  10 FB     BPL $8378                       A:10 X:00 Y:F0 P:25 SP:FA CYC:162 SL:208
8378  AD 02 20  LDA $2002 = FF                  A:10 X:00 Y:F0 P:25 SP:FA CYC:171 SL:208
837B  10 FB     BPL $8378                       A:10 X:00 Y:F0 P:25 SP:FA CYC:183 SL:208
8378  AD 02 20  LDA $2002 = FF                  A:10 X:00 Y:F0 P:25 SP:FA CYC:192 SL:208
837B  10 FB     BPL $8378                       A:10 X:00 Y:F0 P:25 SP:FA CYC:204 SL:208
8378  AD 02 20  LDA $2002 = FF                  A:10 X:00 Y:F0 P:25 SP:FA CYC:213 SL:208
837B  10 FB     BPL $8378                       A:10 X:00 Y:F0 P:25 SP:FA CYC:225 SL:208
8378  AD 02 20  LDA $2002 = FF                  A:10 X:00 Y:F0 P:25 SP:FA CYC:234 SL:208
837B  10 FB     BPL $8378                       A:10 X:00 Y:F0 P:25 SP:FA CYC:246 SL:208
8378  AD 02 20  LDA $2002 = FF                  A:10 X:00 Y:F0 P:25 SP:FA CYC:255 SL:208
837B  10 FB     BPL $8378                       A:10 X:00 Y:F0 P:25 SP:FA CYC:267 SL:208
8378  AD 02 20  LDA $2002 = FF                  A:10 X:00 Y:F0 P:25 SP:FA CYC:276 SL:208
837B  10 FB     BPL $8378                       A:10 X:00 Y:F0 P:25 SP:FA CYC:288 SL:208
8378  AD 02 20  LDA $2002 = FF                  A:10 X:00 Y:F0 P:25 SP:FA CYC:297 SL:208
837B  10 FB     BPL $8378                       A:10 X:00 Y:F0 P:25 SP:FA CYC:309 SL:208
8378  AD 02 20  LDA $2002 = FF                  A:10 X:00 Y:F0 P:25 SP:FA CYC:318 SL:208
837B  10 FB     BPL $8378                       A:10 X:00 Y:F0 P:25 SP:FA CYC:330 SL:208
8378  AD 02 20  LDA $2002 = FF                  A:10 X:00 Y:F0 P:25 SP:FA CYC:339 SL:208
837B  10 FB     BPL $8378                       A:10 X:00 Y:F0 P:25 SP:FA CYC: 10 SL:209
8378  AD 02 20  LDA $2002 = FF                  A:10 X:00 Y:F0 P:25 SP:FA CYC: 19 SL:209
837B  10 FB     BPL $8378                       A:10 X:00 Y:F0 P:25 SP:FA CYC: 31 SL:209
8378  AD 02 20  LDA $2002 = FF                  A:10 X:00 Y:F0 P:25 SP:FA CYC: 40 SL:209
837B  10 FB     BPL $8378                       A:10 X:00 Y:F0 P:25 SP:FA CYC: 52 SL:209
8378  AD 02 20  LDA $2002 = FF                  A:10 X:00 Y:F0 P:25 SP:FA CYC: 61 SL:209
837B  10 FB     BPL $8378                       A:10 X:00 Y:F0 P:25 SP:FA CYC: 73 SL:209
8378  AD 02 20  LDA $2002 = FF                  A:10 X:00 Y:F0 P:25 SP:FA CYC: 82 SL:209
837B  10 FB     BPL $8378                       A:10 X:00 Y:F0 P:25 SP:FA CYC: 94 SL:209
8378  AD 02 20  LDA $2002 = FF                  A:10 X:00 Y:F0 P:25 SP:FA CYC:103 SL:209
837B  10 FB     BPL $8378                       A:10 X:00 Y:F0 P:25 SP:FA CYC:115 SL:209
8378  AD 02 20  LDA $2002 = FF                  A:10 X:00 Y:F0 P:25 SP:FA CYC:124 SL:209
837B  10 FB     BPL $8378                       A:10 X:00 Y:F0 P:25 SP:FA CYC:136 SL:209
8378  AD 02 20  LDA $2002 = FF                  A:10 X:00 Y:F0 P:25 SP:FA CYC:145 SL:209
837B  10 FB     BPL $8378                       A:10 X:00 Y:F0 P:25 SP:FA CYC:157 SL:209
8378  AD 02 20  LDA $2002 = FF                  A:10 X:00 Y:F0 P:25 SP:FA CYC:166 SL:209
837B  10 FB     BPL $8378                       A:10 X:00 Y:F0 P:25 SP:FA CYC:178 SL:209
8378  AD 02 20  LDA $2002 = FF                  A:10 X:00 Y:F0 P:25 SP:FA CYC:187 SL:209
837B  10 FB     BPL $8378                       A:10 X:00 Y:F0 P:25 SP:FA CYC:199 SL:209
8378  AD 02 20  LDA $2002 = FF                  A:10 X:00 Y:F0 P:25 SP:FA CYC:208 SL:209
837B  10 FB     BPL $8378                       A:10 X:00 Y:F0 P:25 SP:FA CYC:220 SL:209
8378  AD 02 20  LDA $2002 = FF                  A:10 X:00 Y:F0 P:25 SP:FA CYC:229 SL:209
837B  10 FB     BPL $8378                       A:10 X:00 Y:F0 P:25 SP:FA CYC:241 SL:209
8378  AD 02 20  LDA $2002 = FF                  A:10 X:00 Y:F0 P:25 SP:FA CYC:250 SL:209
837B  10 FB     BPL $8378                       A:10 X:00 Y:F0 P:25 SP:FA CYC:262 SL:209
8378  AD 02 20  LDA $2002 = FF                  A:10 X:00 Y:F0 P:25 SP:FA CYC:271 SL:209
837B  10 FB     BPL $8378                       A:10 X:00 Y:F0 P:25 SP:FA CYC:283 SL:209
8378  AD 02 20  LDA $2002 = FF                  A:10 X:00 Y:F0 P:25 SP:FA CYC:292 SL:209
837B  10 FB     BPL $8378                       A:10 X:00 Y:F0 P:25 SP:FA CYC:304 SL:209
8378  AD 02 20  LDA $2002 = FF                  A:10 X:00 Y:F0 P:25 SP:FA CYC:313 SL:209
837B  10 FB     BPL $8378                       A:10 X:00 Y:F0 P:25 SP:FA CYC:325 SL:209
8378  AD 02 20  LDA $2002 = FF                  A:10 X:00 Y:F0 P:25 SP:FA CYC:334 SL:209
837B  10 FB     BPL $8378                       A:10 X:00 Y:F0 P:25 SP:FA CYC:  5 SL:210
8378  AD 02 20  LDA $2002 = FF                  A:10 X:00 Y:F0 P:25 SP:FA CYC: 14 SL:210
837B  10 FB     BPL $8378                       A:10 X:00 Y:F0 P:25 SP:FA CYC: 26 SL:210
8378  AD 02 20  LDA $2002 = FF                  A:10 X:00 Y:F0 P:25 SP:FA CYC: 35 SL:210
837B  10 FB     BPL $8378                       A:10 X:00 Y:F0 P:25 SP:FA CYC: 47 SL:210
8378  AD 02 20  LDA $2002 = FF                  A:10 X:00 Y:F0 P:25 SP:FA CYC: 56 SL:210
837B  10 FB     BPL $8378                       A:10 X:00 Y:F0 P:25 SP:FA CYC: 68 SL:210
8378  AD 02 20  LDA $2002 = FF                  A:10 X:00 Y:F0 P:25 SP:FA CYC: 77 SL:210
837B  10 FB     BPL $8378                       A:10 X:00 Y:F0 P:25 SP:FA CYC: 89 SL:210
8378  AD 02 20  LDA $2002 = FF                  A:10 X:00 Y:F0 P:25 SP:FA CYC: 98 SL:210
837B  10 FB     BPL $8378                       A:10 X:00 Y:F0 P:25 SP:FA CYC:110 SL:210
8378  AD 02 20  LDA $2002 = FF                  A:10 X:00 Y:F0 P:25 SP:FA CYC:119 SL:210
837B  10 FB     BPL $8378                       A:10 X:00 Y:F0 P:25 SP:FA CYC:131 SL:210
8378  AD 02 20  LDA $2002 = FF                  A:10 X:00 Y:F0 P:25 SP:FA CYC:140 SL:210
837B  10 FB     BPL $8378                       A:10 X:00 Y:F0 P:25 SP:FA CYC:152 SL:210
8378  AD 02 20  LDA $2002 = FF                  A:10 X:00 Y:F0 P:25 SP:FA CYC:161 SL:210
837B  10 FB     BPL $8378                       A:10 X:00 Y:F0 P:25 SP:FA CYC:173 SL:210
8378  AD 02 20  LDA $2002 = FF                  A:10 X:00 Y:F0 P:25 SP:FA CYC:182 SL:210
837B  10 FB     BPL $8378                       A:10 X:00 Y:F0 P:25 SP:FA CYC:194 SL:210
8378  AD 02 20  LDA $2002 = FF                  A:10 X:00 Y:F0 P:25 SP:FA CYC:203 SL:210
837B  10 FB     BPL $8378                       A:10 X:00 Y:F0 P:25 SP:FA CYC:215 SL:210
8378  AD 02 20  LDA $2002 = FF                  A:10 X:00 Y:F0 P:25 SP:FA CYC:224 SL:210
837B  10 FB     BPL $8378                       A:10 X:00 Y:F0 P:25 SP:FA CYC:236 SL:210
8378  AD 02 20  LDA $2002 = FF                  A:10 X:00 Y:F0 P:25 SP:FA CYC:245 SL:210
837B  10 FB     BPL $8378                       A:10 X:00 Y:F0 P:25 SP:FA CYC:257 SL:210
8378  AD 02 20  LDA $2002 = FF                  A:10 X:00 Y:F0 P:25 SP:FA CYC:266 SL:210
837B  10 FB     BPL $8378                       A:10 X:00 Y:F0 P:25 SP:FA CYC:278 SL:210
8378  AD 02 20  LDA $2002 = FF                  A:10 X:00 Y:F0 P:25 SP:FA CYC:287 SL:210
837B  10 FB     BPL $8378                       A:10 X:00 Y:F0 P:25 SP:FA CYC:299 SL:210
8378  AD 02 20  LDA $2002 = FF                  A:10 X:00 Y:F0 P:25 SP:FA CYC:308 SL:210
837B  10 FB     BPL $8378                       A:10 X:00 Y:F0 P:25 SP:FA CYC:320 SL:210
8378  AD 02 20  LDA $2002 = FF                  A:10 X:00 Y:F0 P:25 SP:FA CYC:329 SL:210
837B  10 FB     BPL $8378                       A:10 X:00 Y:F0 P:25 SP:FA CYC:  0 SL:211
8378  AD 02 20  LDA $2002 = FF                  A:10 X:00 Y:F0 P:25 SP:FA CYC:  9 SL:211
837B  10 FB     BPL $8378                       A:10 X:00 Y:F0 P:25 SP:FA CYC: 21 SL:211
8378  AD 02 20  LDA $2002 = FF                  A:10 X:00 Y:F0 P:25 SP:FA CYC: 30 SL:211
837B  10 FB     BPL $8378                       A:10 X:00 Y:F0 P:25 SP:FA CYC: 42 SL:211
8378  AD 02 20  LDA $2002 = FF                  A:10 X:00 Y:F0 P:25 SP:FA CYC: 51 SL:211
837B  10 FB     BPL $8378                       A:10 X:00 Y:F0 P:25 SP:FA CYC: 63 SL:211
8378  AD 02 20  LDA $2002 = FF                  A:10 X:00 Y:F0 P:25 SP:FA CYC: 72 SL:211
837B  10 FB     BPL $8378                       A:10 X:00 Y:F0 P:25 SP:FA CYC: 84 SL:211
8378  AD 02 20  LDA $2002 = FF                  A:10 X:00 Y:F0 P:25 SP:FA CYC: 93 SL:211
837B  10 FB     BPL $8378                       A:10 X:00 Y:F0 P:25 SP:FA CYC:105 SL:211
8378  AD 02 20  LDA $2002 = FF                  A:10 X:00 Y:F0 P:25 SP:FA CYC:114 SL:211
837B  10 FB     BPL $8378                       A:10 X:00 Y:F0 P:25 SP:FA CYC:126 SL:211
8378  AD 02 20  LDA $2002 = FF                  A:10 X:00 Y:F0 P:25 SP:FA CYC:135 SL:211
837B  10 FB     BPL $8378                       A:10 X:00 Y:F0 P:25 SP:FA CYC:147 SL:211
8378  AD 02 20  LDA $2002 = FF                  A:10 X:00 Y:F0 P:25 SP:FA CYC:156 SL:211
837B  10 FB     BPL $8378                       A:10 X:00 Y:F0 P:25 SP:FA CYC:168 SL:211
8378  AD 02 20  LDA $2002 = FF                  A:10 X:00 Y:F0 P:25 SP:FA CYC:177 SL:211
837B  10 FB     BPL $8378                       A:10 X:00 Y:F0 P:25 SP:FA CYC:189 SL:211
8378  AD 02 20  LDA $2002 = FF                  A:10 X:00 Y:F0 P:25 SP:FA CYC:198 SL:211
837B  10 FB     BPL $8378                       A:10 X:00 Y:F0 P:25 SP:FA CYC:210 SL:211
8378  AD 02 20  LDA $2002 = FF                  A:10 X:00 Y:F0 P:25 SP:FA CYC:219 SL:211
837B  10 FB     BPL $8378                       A:10 X:00 Y:F0 P:25 SP:FA CYC:231 SL:211
8378  AD 02 20  LDA $2002 = FF                  A:10 X:00 Y:F0 P:25 SP:FA CYC:240 SL:211
837B  10 FB     BPL $8378                       A:10 X:00 Y:F0 P:25 SP:FA CYC:252 SL:211
8378  AD 02 20  LDA $2002 = FF                  A:10 X:00 Y:F0 P:25 SP:FA CYC:261 SL:211
837B  10 FB     BPL $8378                       A:10 X:00 Y:F0 P:25 SP:FA CYC:273 SL:211
8378  AD 02 20  LDA $2002 = FF                  A:10 X:00 Y:F0 P:25 SP:FA CYC:282 SL:211
837B  10 FB     BPL $8378                       A:10 X:00 Y:F0 P:25 SP:FA CYC:294 SL:211
8378  AD 02 20  LDA $2002 = FF                  A:10 X:00 Y:F0 P:25 SP:FA CYC:303 SL:211
837B  10 FB     BPL $8378                       A:10 X:00 Y:F0 P:25 SP:FA CYC:315 SL:211
8378  AD 02 20  LDA $2002 = FF                  A:10 X:00 Y:F0 P:25 SP:FA CYC:324 SL:211
837B  10 FB     BPL $8378                       A:10 X:00 Y:F0 P:25 SP:FA CYC:336 SL:211
8378  AD 02 20  LDA $2002 = FF                  A:10 X:00 Y:F0 P:25 SP:FA CYC:  4 SL:212
837B  10 FB     BPL $8378                       A:10 X:00 Y:F0 P:25 SP:FA CYC: 16 SL:212
8378  AD 02 20  LDA $2002 = FF                  A:10 X:00 Y:F0 P:25 SP:FA CYC: 25 SL:212
837B  10 FB     BPL $8378                       A:10 X:00 Y:F0 P:25 SP:FA CYC: 37 SL:212
8378  AD 02 20  LDA $2002 = FF                  A:10 X:00 Y:F0 P:25 SP:FA CYC: 46 SL:212
837B  10 FB     BPL $8378                       A:10 X:00 Y:F0 P:25 SP:FA CYC: 58 SL:212
8378  AD 02 20  LDA $2002 = FF                  A:10 X:00 Y:F0 P:25 SP:FA CYC: 67 SL:212
837B  10 FB     BPL $8378                       A:10 X:00 Y:F0 P:25 SP:FA CYC: 79 SL:212
8378  AD 02 20  LDA $2002 = FF                  A:10 X:00 Y:F0 P:25 SP:FA CYC: 88 SL:212
837B  10 FB     BPL $8378                       A:10 X:00 Y:F0 P:25 SP:FA CYC:100 SL:212
8378  AD 02 20  LDA $2002 = FF                  A:10 X:00 Y:F0 P:25 SP:FA CYC:109 SL:212
837B  10 FB     BPL $8378                       A:10 X:00 Y:F0 P:25 SP:FA CYC:121 SL:212
8378  AD 02 20  LDA $2002 = FF                  A:10 X:00 Y:F0 P:25 SP:FA CYC:130 SL:212
837B  10 FB     BPL $8378                       A:10 X:00 Y:F0 P:25 SP:FA CYC:142 SL:212
8378  AD 02 20  LDA $2002 = FF                  A:10 X:00 Y:F0 P:25 SP:FA CYC:151 SL:212
837B  10 FB     BPL $8378                       A:10 X:00 Y:F0 P:25 SP:FA CYC:163 SL:212
8378  AD 02 20  LDA $2002 = FF                  A:10 X:00 Y:F0 P:25 SP:FA CYC:172 SL:212
837B  10 FB     BPL $8378                       A:10 X:00 Y:F0 P:25 SP:FA CYC:184 SL:212
8378  AD 02 20  LDA $2002 = FF                  A:10 X:00 Y:F0 P:25 SP:FA CYC:193 SL:212
837B  10 FB     BPL $8378                       A:10 X:00 Y:F0 P:25 SP:FA CYC:205 SL:212
8378  AD 02 20  LDA $2002 = FF                  A:10 X:00 Y:F0 P:25 SP:FA CYC:214 SL:212
837B  10 FB     BPL $8378                       A:10 X:00 Y:F0 P:25 SP:FA CYC:226 SL:212
8378  AD 02 20  LDA $2002 = FF                  A:10 X:00 Y:F0 P:25 SP:FA CYC:235 SL:212
837B  10 FB     BPL $8378                       A:10 X:00 Y:F0 P:25 SP:FA CYC:247 SL:212
8378  AD 02 20  LDA $2002 = FF                  A:10 X:00 Y:F0 P:25 SP:FA CYC:256 SL:212
837B  10 FB     BPL $8378                       A:10 X:00 Y:F0 P:25 SP:FA CYC:268 SL:212
8378  AD 02 20  LDA $2002 = FF                  A:10 X:00 Y:F0 P:25 SP:FA CYC:277 SL:212
837B  10 FB     BPL $8378                       A:10 X:00 Y:F0 P:25 SP:FA CYC:289 SL:212
8378  AD 02 20  LDA $2002 = FF                  A:10 X:00 Y:F0 P:25 SP:FA CYC:298 SL:212
837B  10 FB     BPL $8378                       A:10 X:00 Y:F0 P:25 SP:FA CYC:310 SL:212
8378  AD 02 20  LDA $2002 = FF                  A:10 X:00 Y:F0 P:25 SP:FA CYC:319 SL:212
837B  10 FB     BPL $8378                       A:10 X:00 Y:F0 P:25 SP:FA CYC:331 SL:212
8378  AD 02 20  LDA $2002 = FF                  A:10 X:00 Y:F0 P:25 SP:FA CYC:340 SL:212
837B  10 FB     BPL $8378                       A:10 X:00 Y:F0 P:25 SP:FA CYC: 11 SL:213
8378  AD 02 20  LDA $2002 = FF                  A:10 X:00 Y:F0 P:25 SP:FA CYC: 20 SL:213
837B  10 FB     BPL $8378                       A:10 X:00 Y:F0 P:25 SP:FA CYC: 32 SL:213
8378  AD 02 20  LDA $2002 = FF                  A:10 X:00 Y:F0 P:25 SP:FA CYC: 41 SL:213
837B  10 FB     BPL $8378                       A:10 X:00 Y:F0 P:25 SP:FA CYC: 53 SL:213
8378  AD 02 20  LDA $2002 = FF                  A:10 X:00 Y:F0 P:25 SP:FA CYC: 62 SL:213
837B  10 FB     BPL $8378                       A:10 X:00 Y:F0 P:25 SP:FA CYC: 74 SL:213
8378  AD 02 20  LDA $2002 = FF                  A:10 X:00 Y:F0 P:25 SP:FA CYC: 83 SL:213
837B  10 FB     BPL $8378                       A:10 X:00 Y:F0 P:25 SP:FA CYC: 95 SL:213
8378  AD 02 20  LDA $2002 = FF                  A:10 X:00 Y:F0 P:25 SP:FA CYC:104 SL:213
837B  10 FB     BPL $8378                       A:10 X:00 Y:F0 P:25 SP:FA CYC:116 SL:213
8378  AD 02 20  LDA $2002 = FF                  A:10 X:00 Y:F0 P:25 SP:FA CYC:125 SL:213
837B  10 FB     BPL $8378                       A:10 X:00 Y:F0 P:25 SP:FA CYC:137 SL:213
8378  AD 02 20  LDA $2002 = FF                  A:10 X:00 Y:F0 P:25 SP:FA CYC:146 SL:213
837B  10 FB     BPL $8378                       A:10 X:00 Y:F0 P:25 SP:FA CYC:158 SL:213
8378  AD 02 20  LDA $2002 = FF                  A:10 X:00 Y:F0 P:25 SP:FA CYC:167 SL:213
837B  10 FB     BPL $8378                       A:10 X:00 Y:F0 P:25 SP:FA CYC:179 SL:213
8378  AD 02 20  LDA $2002 = FF                  A:10 X:00 Y:F0 P:25 SP:FA CYC:188 SL:213
837B  10 FB     BPL $8378                       A:10 X:00 Y:F0 P:25 SP:FA CYC:200 SL:213
8378  AD 02 20  LDA $2002 = FF                  A:10 X:00 Y:F0 P:25 SP:FA CYC:209 SL:213
837B  10 FB     BPL $8378                       A:10 X:00 Y:F0 P:25 SP:FA CYC:221 SL:213
8378  AD 02 20  LDA $2002 = FF                  A:10 X:00 Y:F0 P:25 SP:FA CYC:230 SL:213
837B  10 FB     BPL $8378                       A:10 X:00 Y:F0 P:25 SP:FA CYC:242 SL:213
8378  AD 02 20  LDA $2002 = FF                  A:10 X:00 Y:F0 P:25 SP:FA CYC:251 SL:213
837B  10 FB     BPL $8378                       A:10 X:00 Y:F0 P:25 SP:FA CYC:263 SL:213
8378  AD 02 20  LDA $2002 = FF                  A:10 X:00 Y:F0 P:25 SP:FA CYC:272 SL:213
837B  10 FB     BPL $8378                       A:10 X:00 Y:F0 P:25 SP:FA CYC:284 SL:213
8378  AD 02 20  LDA $2002 = FF                  A:10 X:00 Y:F0 P:25 SP:FA CYC:293 SL:213
837B  10 FB     BPL $8378                       A:10 X:00 Y:F0 P:25 SP:FA CYC:305 SL:213
8378  AD 02 20  LDA $2002 = FF                  A:10 X:00 Y:F0 P:25 SP:FA CYC:314 SL:213
837B  10 FB     BPL $8378                       A:10 X:00 Y:F0 P:25 SP:FA CYC:326 SL:213
8378  AD 02 20  LDA $2002 = FF                  A:10 X:00 Y:F0 P:25 SP:FA CYC:335 SL:213
837B  10 FB     BPL $8378                       A:10 X:00 Y:F0 P:25 SP:FA CYC:  6 SL:214
8378  AD 02 20  LDA $2002 = FF                  A:10 X:00 Y:F0 P:25 SP:FA CYC: 15 SL:214
837B  10 FB     BPL $8378                       A:10 X:00 Y:F0 P:25 SP:FA CYC: 27 SL:214
8378  AD 02 20  LDA $2002 = FF                  A:10 X:00 Y:F0 P:25 SP:FA CYC: 36 SL:214
837B  10 FB     BPL $8378                       A:10 X:00 Y:F0 P:25 SP:FA CYC: 48 SL:214
8378  AD 02 20  LDA $2002 = FF                  A:10 X:00 Y:F0 P:25 SP:FA CYC: 57 SL:214
837B  10 FB     BPL $8378                       A:10 X:00 Y:F0 P:25 SP:FA CYC: 69 SL:214
8378  AD 02 20  LDA $2002 = FF                  A:10 X:00 Y:F0 P:25 SP:FA CYC: 78 SL:214
837B  10 FB     BPL $8378                       A:10 X:00 Y:F0 P:25 SP:FA CYC: 90 SL:214
8378  AD 02 20  LDA $2002 = FF                  A:10 X:00 Y:F0 P:25 SP:FA CYC: 99 SL:214
837B  10 FB     BPL $8378                       A:10 X:00 Y:F0 P:25 SP:FA CYC:111 SL:214
8378  AD 02 20  LDA $2002 = FF                  A:10 X:00 Y:F0 P:25 SP:FA CYC:120 SL:214
837B  10 FB     BPL $8378                       A:10 X:00 Y:F0 P:25 SP:FA CYC:132 SL:214
8378  AD 02 20  LDA $2002 = FF                  A:10 X:00 Y:F0 P:25 SP:FA CYC:141 SL:214
837B  10 FB     BPL $8378                       A:10 X:00 Y:F0 P:25 SP:FA CYC:153 SL:214
8378  AD 02 20  LDA $2002 = FF                  A:10 X:00 Y:F0 P:25 SP:FA CYC:162 SL:214
837B  10 FB     BPL $8378                       A:10 X:00 Y:F0 P:25 SP:FA CYC:174 SL:214
8378  AD 02 20  LDA $2002 = FF                  A:10 X:00 Y:F0 P:25 SP:FA CYC:183 SL:214
837B  10 FB     BPL $8378                       A:10 X:00 Y:F0 P:25 SP:FA CYC:195 SL:214
8378  AD 02 20  LDA $2002 = FF                  A:10 X:00 Y:F0 P:25 SP:FA CYC:204 SL:214
837B  10 FB     BPL $8378                       A:10 X:00 Y:F0 P:25 SP:FA CYC:216 SL:214
8378  AD 02 20  LDA $2002 = FF                  A:10 X:00 Y:F0 P:25 SP:FA CYC:225 SL:214
837B  10 FB     BPL $8378                       A:10 X:00 Y:F0 P:25 SP:FA CYC:237 SL:214
8378  AD 02 20  LDA $2002 = FF                  A:10 X:00 Y:F0 P:25 SP:FA CYC:246 SL:214
837B  10 FB     BPL $8378                       A:10 X:00 Y:F0 P:25 SP:FA CYC:258 SL:214
8378  AD 02 20  LDA $2002 = FF                  A:10 X:00 Y:F0 P:25 SP:FA CYC:267 SL:214
837B  10 FB     BPL $8378                       A:10 X:00 Y:F0 P:25 SP:FA CYC:279 SL:214
8378  AD 02 20  LDA $2002 = FF                  A:10 X:00 Y:F0 P:25 SP:FA CYC:288 SL:214
837B  10 FB     BPL $8378                       A:10 X:00 Y:F0 P:25 SP:FA CYC:300 SL:214
8378  AD 02 20  LDA $2002 = FF                  A:10 X:00 Y:F0 P:25 SP:FA CYC:309 SL:214
837B  10 FB     BPL $8378                       A:10 X:00 Y:F0 P:25 SP:FA CYC:321 SL:214
8378  AD 02 20  LDA $2002 = FF                  A:10 X:00 Y:F0 P:25 SP:FA CYC:330 SL:214
837B  10 FB     BPL $8378                       A:10 X:00 Y:F0 P:25 SP:FA CYC:  1 SL:215
8378  AD 02 20  LDA $2002 = FF                  A:10 X:00 Y:F0 P:25 SP:FA CYC: 10 SL:215
837B  10 FB     BPL $8378                       A:10 X:00 Y:F0 P:25 SP:FA CYC: 22 SL:215
8378  AD 02 20  LDA $2002 = FF                  A:10 X:00 Y:F0 P:25 SP:FA CYC: 31 SL:215
837B  10 FB     BPL $8378                       A:10 X:00 Y:F0 P:25 SP:FA CYC: 43 SL:215
8378  AD 02 20  LDA $2002 = FF                  A:10 X:00 Y:F0 P:25 SP:FA CYC: 52 SL:215
837B  10 FB     BPL $8378                       A:10 X:00 Y:F0 P:25 SP:FA CYC: 64 SL:215
8378  AD 02 20  LDA $2002 = FF                  A:10 X:00 Y:F0 P:25 SP:FA CYC: 73 SL:215
837B  10 FB     BPL $8378                       A:10 X:00 Y:F0 P:25 SP:FA CYC: 85 SL:215
8378  AD 02 20  LDA $2002 = FF                  A:10 X:00 Y:F0 P:25 SP:FA CYC: 94 SL:215
837B  10 FB     BPL $8378                       A:10 X:00 Y:F0 P:25 SP:FA CYC:106 SL:215
8378  AD 02 20  LDA $2002 = FF                  A:10 X:00 Y:F0 P:25 SP:FA CYC:115 SL:215
837B  10 FB     BPL $8378                       A:10 X:00 Y:F0 P:25 SP:FA CYC:127 SL:215
8378  AD 02 20  LDA $2002 = FF                  A:10 X:00 Y:F0 P:25 SP:FA CYC:136 SL:215
837B  10 FB     BPL $8378                       A:10 X:00 Y:F0 P:25 SP:FA CYC:148 SL:215
8378  AD 02 20  LDA $2002 = FF                  A:10 X:00 Y:F0 P:25 SP:FA CYC:157 SL:215
837B  10 FB     BPL $8378                       A:10 X:00 Y:F0 P:25 SP:FA CYC:169 SL:215
8378  AD 02 20  LDA $2002 = FF                  A:10 X:00 Y:F0 P:25 SP:FA CYC:178 SL:215
837B  10 FB     BPL $8378                       A:10 X:00 Y:F0 P:25 SP:FA CYC:190 SL:215
8378  AD 02 20  LDA $2002 = FF                  A:10 X:00 Y:F0 P:25 SP:FA CYC:199 SL:215
837B  10 FB     BPL $8378                       A:10 X:00 Y:F0 P:25 SP:FA CYC:211 SL:215
8378  AD 02 20  LDA $2002 = FF                  A:10 X:00 Y:F0 P:25 SP:FA CYC:220 SL:215
837B  10 FB     BPL $8378                       A:10 X:00 Y:F0 P:25 SP:FA CYC:232 SL:215
8378  AD 02 20  LDA $2002 = FF                  A:10 X:00 Y:F0 P:25 SP:FA CYC:241 SL:215
837B  10 FB     BPL $8378                       A:10 X:00 Y:F0 P:25 SP:FA CYC:253 SL:215
8378  AD 02 20  LDA $2002 = FF                  A:10 X:00 Y:F0 P:25 SP:FA CYC:262 SL:215
837B  10 FB     BPL $8378                       A:10 X:00 Y:F0 P:25 SP:FA CYC:274 SL:215
8378  AD 02 20  LDA $2002 = FF                  A:10 X:00 Y:F0 P:25 SP:FA CYC:283 SL:215
837B  10 FB     BPL $8378                       A:10 X:00 Y:F0 P:25 SP:FA CYC:295 SL:215
8378  AD 02 20  LDA $2002 = FF                  A:10 X:00 Y:F0 P:25 SP:FA CYC:304 SL:215
837B  10 FB     BPL $8378                       A:10 X:00 Y:F0 P:25 SP:FA CYC:316 SL:215
8378  AD 02 20  LDA $2002 = FF                  A:10 X:00 Y:F0 P:25 SP:FA CYC:325 SL:215
837B  10 FB     BPL $8378                       A:10 X:00 Y:F0 P:25 SP:FA CYC:337 SL:215
8378  AD 02 20  LDA $2002 = FF                  A:10 X:00 Y:F0 P:25 SP:FA CYC:  5 SL:216
837B  10 FB     BPL $8378                       A:10 X:00 Y:F0 P:25 SP:FA CYC: 17 SL:216
8378  AD 02 20  LDA $2002 = FF                  A:10 X:00 Y:F0 P:25 SP:FA CYC: 26 SL:216
837B  10 FB     BPL $8378                       A:10 X:00 Y:F0 P:25 SP:FA CYC: 38 SL:216
8378  AD 02 20  LDA $2002 = FF                  A:10 X:00 Y:F0 P:25 SP:FA CYC: 47 SL:216
837B  10 FB     BPL $8378                       A:10 X:00 Y:F0 P:25 SP:FA CYC: 59 SL:216
8378  AD 02 20  LDA $2002 = FF                  A:10 X:00 Y:F0 P:25 SP:FA CYC: 68 SL:216
837B  10 FB     BPL $8378                       A:10 X:00 Y:F0 P:25 SP:FA CYC: 80 SL:216
8378  AD 02 20  LDA $2002 = FF                  A:10 X:00 Y:F0 P:25 SP:FA CYC: 89 SL:216
837B  10 FB     BPL $8378                       A:10 X:00 Y:F0 P:25 SP:FA CYC:101 SL:216
8378  AD 02 20  LDA $2002 = FF                  A:10 X:00 Y:F0 P:25 SP:FA CYC:110 SL:216
837B  10 FB     BPL $8378                       A:10 X:00 Y:F0 P:25 SP:FA CYC:122 SL:216
8378  AD 02 20  LDA $2002 = FF                  A:10 X:00 Y:F0 P:25 SP:FA CYC:131 SL:216
837B  10 FB     BPL $8378                       A:10 X:00 Y:F0 P:25 SP:FA CYC:143 SL:216
8378  AD 02 20  LDA $2002 = FF                  A:10 X:00 Y:F0 P:25 SP:FA CYC:152 SL:216
837B  10 FB     BPL $8378                       A:10 X:00 Y:F0 P:25 SP:FA CYC:164 SL:216
8378  AD 02 20  LDA $2002 = FF                  A:10 X:00 Y:F0 P:25 SP:FA CYC:173 SL:216
837B  10 FB     BPL $8378                       A:10 X:00 Y:F0 P:25 SP:FA CYC:185 SL:216
8378  AD 02 20  LDA $2002 = FF                  A:10 X:00 Y:F0 P:25 SP:FA CYC:194 SL:216
837B  10 FB     BPL $8378                       A:10 X:00 Y:F0 P:25 SP:FA CYC:206 SL:216
8378  AD 02 20  LDA $2002 = FF                  A:10 X:00 Y:F0 P:25 SP:FA CYC:215 SL:216
837B  10 FB     BPL $8378                       A:10 X:00 Y:F0 P:25 SP:FA CYC:227 SL:216
8378  AD 02 20  LDA $2002 = FF                  A:10 X:00 Y:F0 P:25 SP:FA CYC:236 SL:216
837B  10 FB     BPL $8378                       A:10 X:00 Y:F0 P:25 SP:FA CYC:248 SL:216
8378  AD 02 20  LDA $2002 = FF                  A:10 X:00 Y:F0 P:25 SP:FA CYC:257 SL:216
837B  10 FB     BPL $8378                       A:10 X:00 Y:F0 P:25 SP:FA CYC:269 SL:216
8378  AD 02 20  LDA $2002 = FF                  A:10 X:00 Y:F0 P:25 SP:FA CYC:278 SL:216
837B  10 FB     BPL $8378                       A:10 X:00 Y:F0 P:25 SP:FA CYC:290 SL:216
8378  AD 02 20  LDA $2002 = FF                  A:10 X:00 Y:F0 P:25 SP:FA CYC:299 SL:216
837B  10 FB     BPL $8378                       A:10 X:00 Y:F0 P:25 SP:FA CYC:311 SL:216
8378  AD 02 20  LDA $2002 = FF                  A:10 X:00 Y:F0 P:25 SP:FA CYC:320 SL:216
837B  10 FB     BPL $8378                       A:10 X:00 Y:F0 P:25 SP:FA CYC:332 SL:216
8378  AD 02 20  LDA $2002 = FF                  A:10 X:00 Y:F0 P:25 SP:FA CYC:  0 SL:217
837B  10 FB     BPL $8378                       A:10 X:00 Y:F0 P:25 SP:FA CYC: 12 SL:217
8378  AD 02 20  LDA $2002 = FF                  A:10 X:00 Y:F0 P:25 SP:FA CYC: 21 SL:217
837B  10 FB     BPL $8378                       A:10 X:00 Y:F0 P:25 SP:FA CYC: 33 SL:217
8378  AD 02 20  LDA $2002 = FF                  A:10 X:00 Y:F0 P:25 SP:FA CYC: 42 SL:217
837B  10 FB     BPL $8378                       A:10 X:00 Y:F0 P:25 SP:FA CYC: 54 SL:217
8378  AD 02 20  LDA $2002 = FF                  A:10 X:00 Y:F0 P:25 SP:FA CYC: 63 SL:217
837B  10 FB     BPL $8378                       A:10 X:00 Y:F0 P:25 SP:FA CYC: 75 SL:217
8378  AD 02 20  LDA $2002 = FF                  A:10 X:00 Y:F0 P:25 SP:FA CYC: 84 SL:217
837B  10 FB     BPL $8378                       A:10 X:00 Y:F0 P:25 SP:FA CYC: 96 SL:217
8378  AD 02 20  LDA $2002 = FF                  A:10 X:00 Y:F0 P:25 SP:FA CYC:105 SL:217
837B  10 FB     BPL $8378                       A:10 X:00 Y:F0 P:25 SP:FA CYC:117 SL:217
8378  AD 02 20  LDA $2002 = FF                  A:10 X:00 Y:F0 P:25 SP:FA CYC:126 SL:217
837B  10 FB     BPL $8378                       A:10 X:00 Y:F0 P:25 SP:FA CYC:138 SL:217
8378  AD 02 20  LDA $2002 = FF                  A:10 X:00 Y:F0 P:25 SP:FA CYC:147 SL:217
837B  10 FB     BPL $8378                       A:10 X:00 Y:F0 P:25 SP:FA CYC:159 SL:217
8378  AD 02 20  LDA $2002 = FF                  A:10 X:00 Y:F0 P:25 SP:FA CYC:168 SL:217
837B  10 FB     BPL $8378                       A:10 X:00 Y:F0 P:25 SP:FA CYC:180 SL:217
8378  AD 02 20  LDA $2002 = FF                  A:10 X:00 Y:F0 P:25 SP:FA CYC:189 SL:217
837B  10 FB     BPL $8378                       A:10 X:00 Y:F0 P:25 SP:FA CYC:201 SL:217
8378  AD 02 20  LDA $2002 = FF                  A:10 X:00 Y:F0 P:25 SP:FA CYC:210 SL:217
837B  10 FB     BPL $8378                       A:10 X:00 Y:F0 P:25 SP:FA CYC:222 SL:217
8378  AD 02 20  LDA $2002 = FF                  A:10 X:00 Y:F0 P:25 SP:FA CYC:231 SL:217
837B  10 FB     BPL $8378                       A:10 X:00 Y:F0 P:25 SP:FA CYC:243 SL:217
8378  AD 02 20  LDA $2002 = FF                  A:10 X:00 Y:F0 P:25 SP:FA CYC:252 SL:217
837B  10 FB     BPL $8378                       A:10 X:00 Y:F0 P:25 SP:FA CYC:264 SL:217
8378  AD 02 20  LDA $2002 = FF                  A:10 X:00 Y:F0 P:25 SP:FA CYC:273 SL:217
837B  10 FB     BPL $8378                       A:10 X:00 Y:F0 P:25 SP:FA CYC:285 SL:217
8378  AD 02 20  LDA $2002 = FF                  A:10 X:00 Y:F0 P:25 SP:FA CYC:294 SL:217
837B  10 FB     BPL $8378                       A:10 X:00 Y:F0 P:25 SP:FA CYC:306 SL:217
8378  AD 02 20  LDA $2002 = FF                  A:10 X:00 Y:F0 P:25 SP:FA CYC:315 SL:217
837B  10 FB     BPL $8378                       A:10 X:00 Y:F0 P:25 SP:FA CYC:327 SL:217
8378  AD 02 20  LDA $2002 = FF                  A:10 X:00 Y:F0 P:25 SP:FA CYC:336 SL:217
837B  10 FB     BPL $8378                       A:10 X:00 Y:F0 P:25 SP:FA CYC:  7 SL:218
8378  AD 02 20  LDA $2002 = FF                  A:10 X:00 Y:F0 P:25 SP:FA CYC: 16 SL:218
837B  10 FB     BPL $8378                       A:10 X:00 Y:F0 P:25 SP:FA CYC: 28 SL:218
8378  AD 02 20  LDA $2002 = FF                  A:10 X:00 Y:F0 P:25 SP:FA CYC: 37 SL:218
837B  10 FB     BPL $8378                       A:10 X:00 Y:F0 P:25 SP:FA CYC: 49 SL:218
8378  AD 02 20  LDA $2002 = FF                  A:10 X:00 Y:F0 P:25 SP:FA CYC: 58 SL:218
837B  10 FB     BPL $8378                       A:10 X:00 Y:F0 P:25 SP:FA CYC: 70 SL:218
8378  AD 02 20  LDA $2002 = FF                  A:10 X:00 Y:F0 P:25 SP:FA CYC: 79 SL:218
837B  10 FB     BPL $8378                       A:10 X:00 Y:F0 P:25 SP:FA CYC: 91 SL:218
8378  AD 02 20  LDA $2002 = FF                  A:10 X:00 Y:F0 P:25 SP:FA CYC:100 SL:218
837B  10 FB     BPL $8378                       A:10 X:00 Y:F0 P:25 SP:FA CYC:112 SL:218
8378  AD 02 20  LDA $2002 = FF                  A:10 X:00 Y:F0 P:25 SP:FA CYC:121 SL:218
837B  10 FB     BPL $8378                       A:10 X:00 Y:F0 P:25 SP:FA CYC:133 SL:218
8378  AD 02 20  LDA $2002 = FF                  A:10 X:00 Y:F0 P:25 SP:FA CYC:142 SL:218
837B  10 FB     BPL $8378                       A:10 X:00 Y:F0 P:25 SP:FA CYC:154 SL:218
8378  AD 02 20  LDA $2002 = FF                  A:10 X:00 Y:F0 P:25 SP:FA CYC:163 SL:218
837B  10 FB     BPL $8378                       A:10 X:00 Y:F0 P:25 SP:FA CYC:175 SL:218
8378  AD 02 20  LDA $2002 = FF                  A:10 X:00 Y:F0 P:25 SP:FA CYC:184 SL:218
837B  10 FB     BPL $8378                       A:10 X:00 Y:F0 P:25 SP:FA CYC:196 SL:218
8378  AD 02 20  LDA $2002 = FF                  A:10 X:00 Y:F0 P:25 SP:FA CYC:205 SL:218
837B  10 FB     BPL $8378                       A:10 X:00 Y:F0 P:25 SP:FA CYC:217 SL:218
8378  AD 02 20  LDA $2002 = FF                  A:10 X:00 Y:F0 P:25 SP:FA CYC:226 SL:218
837B  10 FB     BPL $8378                       A:10 X:00 Y:F0 P:25 SP:FA CYC:238 SL:218
8378  AD 02 20  LDA $2002 = FF                  A:10 X:00 Y:F0 P:25 SP:FA CYC:247 SL:218
837B  10 FB     BPL $8378                       A:10 X:00 Y:F0 P:25 SP:FA CYC:259 SL:218
8378  AD 02 20  LDA $2002 = FF                  A:10 X:00 Y:F0 P:25 SP:FA CYC:268 SL:218
837B  10 FB     BPL $8378                       A:10 X:00 Y:F0 P:25 SP:FA CYC:280 SL:218
8378  AD 02 20  LDA $2002 = FF                  A:10 X:00 Y:F0 P:25 SP:FA CYC:289 SL:218
837B  10 FB     BPL $8378                       A:10 X:00 Y:F0 P:25 SP:FA CYC:301 SL:218
8378  AD 02 20  LDA $2002 = FF                  A:10 X:00 Y:F0 P:25 SP:FA CYC:310 SL:218
837B  10 FB     BPL $8378                       A:10 X:00 Y:F0 P:25 SP:FA CYC:322 SL:218
8378  AD 02 20  LDA $2002 = FF                  A:10 X:00 Y:F0 P:25 SP:FA CYC:331 SL:218
837B  10 FB     BPL $8378                       A:10 X:00 Y:F0 P:25 SP:FA CYC:  2 SL:219
8378  AD 02 20  LDA $2002 = FF                  A:10 X:00 Y:F0 P:25 SP:FA CYC: 11 SL:219
837B  10 FB     BPL $8378                       A:10 X:00 Y:F0 P:25 SP:FA CYC: 23 SL:219
8378  AD 02 20  LDA $2002 = FF                  A:10 X:00 Y:F0 P:25 SP:FA CYC: 32 SL:219
837B  10 FB     BPL $8378                       A:10 X:00 Y:F0 P:25 SP:FA CYC: 44 SL:219
8378  AD 02 20  LDA $2002 = FF                  A:10 X:00 Y:F0 P:25 SP:FA CYC: 53 SL:219
837B  10 FB     BPL $8378                       A:10 X:00 Y:F0 P:25 SP:FA CYC: 65 SL:219
8378  AD 02 20  LDA $2002 = FF                  A:10 X:00 Y:F0 P:25 SP:FA CYC: 74 SL:219
837B  10 FB     BPL $8378                       A:10 X:00 Y:F0 P:25 SP:FA CYC: 86 SL:219
8378  AD 02 20  LDA $2002 = FF                  A:10 X:00 Y:F0 P:25 SP:FA CYC: 95 SL:219
837B  10 FB     BPL $8378                       A:10 X:00 Y:F0 P:25 SP:FA CYC:107 SL:219
8378  AD 02 20  LDA $2002 = FF                  A:10 X:00 Y:F0 P:25 SP:FA CYC:116 SL:219
837B  10 FB     BPL $8378                       A:10 X:00 Y:F0 P:25 SP:FA CYC:128 SL:219
8378  AD 02 20  LDA $2002 = FF                  A:10 X:00 Y:F0 P:25 SP:FA CYC:137 SL:219
837B  10 FB     BPL $8378                       A:10 X:00 Y:F0 P:25 SP:FA CYC:149 SL:219
8378  AD 02 20  LDA $2002 = FF                  A:10 X:00 Y:F0 P:25 SP:FA CYC:158 SL:219
837B  10 FB     BPL $8378                       A:10 X:00 Y:F0 P:25 SP:FA CYC:170 SL:219
8378  AD 02 20  LDA $2002 = FF                  A:10 X:00 Y:F0 P:25 SP:FA CYC:179 SL:219
837B  10 FB     BPL $8378                       A:10 X:00 Y:F0 P:25 SP:FA CYC:191 SL:219
8378  AD 02 20  LDA $2002 = FF                  A:10 X:00 Y:F0 P:25 SP:FA CYC:200 SL:219
837B  10 FB     BPL $8378                       A:10 X:00 Y:F0 P:25 SP:FA CYC:212 SL:219
8378  AD 02 20  LDA $2002 = FF                  A:10 X:00 Y:F0 P:25 SP:FA CYC:221 SL:219
837B  10 FB     BPL $8378                       A:10 X:00 Y:F0 P:25 SP:FA CYC:233 SL:219
8378  AD 02 20  LDA $2002 = FF                  A:10 X:00 Y:F0 P:25 SP:FA CYC:242 SL:219
837B  10 FB     BPL $8378                       A:10 X:00 Y:F0 P:25 SP:FA CYC:254 SL:219
8378  AD 02 20  LDA $2002 = FF                  A:10 X:00 Y:F0 P:25 SP:FA CYC:263 SL:219
837B  10 FB     BPL $8378                       A:10 X:00 Y:F0 P:25 SP:FA CYC:275 SL:219
8378  AD 02 20  LDA $2002 = FF                  A:10 X:00 Y:F0 P:25 SP:FA CYC:284 SL:219
837B  10 FB     BPL $8378                       A:10 X:00 Y:F0 P:25 SP:FA CYC:296 SL:219
8378  AD 02 20  LDA $2002 = FF                  A:10 X:00 Y:F0 P:25 SP:FA CYC:305 SL:219
837B  10 FB     BPL $8378                       A:10 X:00 Y:F0 P:25 SP:FA CYC:317 SL:219
8378  AD 02 20  LDA $2002 = FF                  A:10 X:00 Y:F0 P:25 SP:FA CYC:326 SL:219
837B  10 FB     BPL $8378                       A:10 X:00 Y:F0 P:25 SP:FA CYC:338 SL:219
8378  AD 02 20  LDA $2002 = FF                  A:10 X:00 Y:F0 P:25 SP:FA CYC:  6 SL:220
837B  10 FB     BPL $8378                       A:10 X:00 Y:F0 P:25 SP:FA CYC: 18 SL:220
8378  AD 02 20  LDA $2002 = FF                  A:10 X:00 Y:F0 P:25 SP:FA CYC: 27 SL:220
837B  10 FB     BPL $8378                       A:10 X:00 Y:F0 P:25 SP:FA CYC: 39 SL:220
8378  AD 02 20  LDA $2002 = FF                  A:10 X:00 Y:F0 P:25 SP:FA CYC: 48 SL:220
837B  10 FB     BPL $8378                       A:10 X:00 Y:F0 P:25 SP:FA CYC: 60 SL:220
8378  AD 02 20  LDA $2002 = FF                  A:10 X:00 Y:F0 P:25 SP:FA CYC: 69 SL:220
837B  10 FB     BPL $8378                       A:10 X:00 Y:F0 P:25 SP:FA CYC: 81 SL:220
8378  AD 02 20  LDA $2002 = FF                  A:10 X:00 Y:F0 P:25 SP:FA CYC: 90 SL:220
837B  10 FB     BPL $8378                       A:10 X:00 Y:F0 P:25 SP:FA CYC:102 SL:220
8378  AD 02 20  LDA $2002 = FF                  A:10 X:00 Y:F0 P:25 SP:FA CYC:111 SL:220
837B  10 FB     BPL $8378                       A:10 X:00 Y:F0 P:25 SP:FA CYC:123 SL:220
8378  AD 02 20  LDA $2002 = FF                  A:10 X:00 Y:F0 P:25 SP:FA CYC:132 SL:220
837B  10 FB     BPL $8378                       A:10 X:00 Y:F0 P:25 SP:FA CYC:144 SL:220
8378  AD 02 20  LDA $2002 = FF                  A:10 X:00 Y:F0 P:25 SP:FA CYC:153 SL:220
837B  10 FB     BPL $8378                       A:10 X:00 Y:F0 P:25 SP:FA CYC:165 SL:220
8378  AD 02 20  LDA $2002 = FF                  A:10 X:00 Y:F0 P:25 SP:FA CYC:174 SL:220
837B  10 FB     BPL $8378                       A:10 X:00 Y:F0 P:25 SP:FA CYC:186 SL:220
8378  AD 02 20  LDA $2002 = FF                  A:10 X:00 Y:F0 P:25 SP:FA CYC:195 SL:220
837B  10 FB     BPL $8378                       A:10 X:00 Y:F0 P:25 SP:FA CYC:207 SL:220
8378  AD 02 20  LDA $2002 = FF                  A:10 X:00 Y:F0 P:25 SP:FA CYC:216 SL:220
837B  10 FB     BPL $8378                       A:10 X:00 Y:F0 P:25 SP:FA CYC:228 SL:220
8378  AD 02 20  LDA $2002 = FF                  A:10 X:00 Y:F0 P:25 SP:FA CYC:237 SL:220
837B  10 FB     BPL $8378                       A:10 X:00 Y:F0 P:25 SP:FA CYC:249 SL:220
8378  AD 02 20  LDA $2002 = FF                  A:10 X:00 Y:F0 P:25 SP:FA CYC:258 SL:220
837B  10 FB     BPL $8378                       A:10 X:00 Y:F0 P:25 SP:FA CYC:270 SL:220
8378  AD 02 20  LDA $2002 = FF                  A:10 X:00 Y:F0 P:25 SP:FA CYC:279 SL:220
837B  10 FB     BPL $8378                       A:10 X:00 Y:F0 P:25 SP:FA CYC:291 SL:220
8378  AD 02 20  LDA $2002 = FF                  A:10 X:00 Y:F0 P:25 SP:FA CYC:300 SL:220
837B  10 FB     BPL $8378                       A:10 X:00 Y:F0 P:25 SP:FA CYC:312 SL:220
8378  AD 02 20  LDA $2002 = FF                  A:10 X:00 Y:F0 P:25 SP:FA CYC:321 SL:220
837B  10 FB     BPL $8378                       A:10 X:00 Y:F0 P:25 SP:FA CYC:333 SL:220
8378  AD 02 20  LDA $2002 = FF                  A:10 X:00 Y:F0 P:25 SP:FA CYC:  1 SL:221
837B  10 FB     BPL $8378                       A:10 X:00 Y:F0 P:25 SP:FA CYC: 13 SL:221
8378  AD 02 20  LDA $2002 = FF                  A:10 X:00 Y:F0 P:25 SP:FA CYC: 22 SL:221
837B  10 FB     BPL $8378                       A:10 X:00 Y:F0 P:25 SP:FA CYC: 34 SL:221
8378  AD 02 20  LDA $2002 = FF                  A:10 X:00 Y:F0 P:25 SP:FA CYC: 43 SL:221
837B  10 FB     BPL $8378                       A:10 X:00 Y:F0 P:25 SP:FA CYC: 55 SL:221
8378  AD 02 20  LDA $2002 = FF                  A:10 X:00 Y:F0 P:25 SP:FA CYC: 64 SL:221
837B  10 FB     BPL $8378                       A:10 X:00 Y:F0 P:25 SP:FA CYC: 76 SL:221
8378  AD 02 20  LDA $2002 = FF                  A:10 X:00 Y:F0 P:25 SP:FA CYC: 85 SL:221
837B  10 FB     BPL $8378                       A:10 X:00 Y:F0 P:25 SP:FA CYC: 97 SL:221
8378  AD 02 20  LDA $2002 = FF                  A:10 X:00 Y:F0 P:25 SP:FA CYC:106 SL:221
837B  10 FB     BPL $8378                       A:10 X:00 Y:F0 P:25 SP:FA CYC:118 SL:221
8378  AD 02 20  LDA $2002 = FF                  A:10 X:00 Y:F0 P:25 SP:FA CYC:127 SL:221
837B  10 FB     BPL $8378                       A:10 X:00 Y:F0 P:25 SP:FA CYC:139 SL:221
8378  AD 02 20  LDA $2002 = FF                  A:10 X:00 Y:F0 P:25 SP:FA CYC:148 SL:221
837B  10 FB     BPL $8378                       A:10 X:00 Y:F0 P:25 SP:FA CYC:160 SL:221
8378  AD 02 20  LDA $2002 = FF                  A:10 X:00 Y:F0 P:25 SP:FA CYC:169 SL:221
837B  10 FB     BPL $8378                       A:10 X:00 Y:F0 P:25 SP:FA CYC:181 SL:221
8378  AD 02 20  LDA $2002 = FF                  A:10 X:00 Y:F0 P:25 SP:FA CYC:190 SL:221
837B  10 FB     BPL $8378                       A:10 X:00 Y:F0 P:25 SP:FA CYC:202 SL:221
8378  AD 02 20  LDA $2002 = FF                  A:10 X:00 Y:F0 P:25 SP:FA CYC:211 SL:221
837B  10 FB     BPL $8378                       A:10 X:00 Y:F0 P:25 SP:FA CYC:223 SL:221
8378  AD 02 20  LDA $2002 = FF                  A:10 X:00 Y:F0 P:25 SP:FA CYC:232 SL:221
837B  10 FB     BPL $8378                       A:10 X:00 Y:F0 P:25 SP:FA CYC:244 SL:221
8378  AD 02 20  LDA $2002 = FF                  A:10 X:00 Y:F0 P:25 SP:FA CYC:253 SL:221
837B  10 FB     BPL $8378                       A:10 X:00 Y:F0 P:25 SP:FA CYC:265 SL:221
8378  AD 02 20  LDA $2002 = FF                  A:10 X:00 Y:F0 P:25 SP:FA CYC:274 SL:221
837B  10 FB     BPL $8378                       A:10 X:00 Y:F0 P:25 SP:FA CYC:286 SL:221
8378  AD 02 20  LDA $2002 = FF                  A:10 X:00 Y:F0 P:25 SP:FA CYC:295 SL:221
837B  10 FB     BPL $8378                       A:10 X:00 Y:F0 P:25 SP:FA CYC:307 SL:221
8378  AD 02 20  LDA $2002 = FF                  A:10 X:00 Y:F0 P:25 SP:FA CYC:316 SL:221
837B  10 FB     BPL $8378                       A:10 X:00 Y:F0 P:25 SP:FA CYC:328 SL:221
8378  AD 02 20  LDA $2002 = FF                  A:10 X:00 Y:F0 P:25 SP:FA CYC:337 SL:221
837B  10 FB     BPL $8378                       A:10 X:00 Y:F0 P:25 SP:FA CYC:  8 SL:222
8378  AD 02 20  LDA $2002 = FF                  A:10 X:00 Y:F0 P:25 SP:FA CYC: 17 SL:222
837B  10 FB     BPL $8378                       A:10 X:00 Y:F0 P:25 SP:FA CYC: 29 SL:222
8378  AD 02 20  LDA $2002 = FF                  A:10 X:00 Y:F0 P:25 SP:FA CYC: 38 SL:222
837B  10 FB     BPL $8378                       A:10 X:00 Y:F0 P:25 SP:FA CYC: 50 SL:222
8378  AD 02 20  LDA $2002 = FF                  A:10 X:00 Y:F0 P:25 SP:FA CYC: 59 SL:222
837B  10 FB     BPL $8378                       A:10 X:00 Y:F0 P:25 SP:FA CYC: 71 SL:222
8378  AD 02 20  LDA $2002 = FF                  A:10 X:00 Y:F0 P:25 SP:FA CYC: 80 SL:222
837B  10 FB     BPL $8378                       A:10 X:00 Y:F0 P:25 SP:FA CYC: 92 SL:222
8378  AD 02 20  LDA $2002 = FF                  A:10 X:00 Y:F0 P:25 SP:FA CYC:101 SL:222
837B  10 FB     BPL $8378                       A:10 X:00 Y:F0 P:25 SP:FA CYC:113 SL:222
8378  AD 02 20  LDA $2002 = FF                  A:10 X:00 Y:F0 P:25 SP:FA CYC:122 SL:222
837B  10 FB     BPL $8378                       A:10 X:00 Y:F0 P:25 SP:FA CYC:134 SL:222
8378  AD 02 20  LDA $2002 = FF                  A:10 X:00 Y:F0 P:25 SP:FA CYC:143 SL:222
837B  10 FB     BPL $8378                       A:10 X:00 Y:F0 P:25 SP:FA CYC:155 SL:222
8378  AD 02 20  LDA $2002 = FF                  A:10 X:00 Y:F0 P:25 SP:FA CYC:164 SL:222
837B  10 FB     BPL $8378                       A:10 X:00 Y:F0 P:25 SP:FA CYC:176 SL:222
8378  AD 02 20  LDA $2002 = FF                  A:10 X:00 Y:F0 P:25 SP:FA CYC:185 SL:222
837B  10 FB     BPL $8378                       A:10 X:00 Y:F0 P:25 SP:FA CYC:197 SL:222
8378  AD 02 20  LDA $2002 = FF                  A:10 X:00 Y:F0 P:25 SP:FA CYC:206 SL:222
837B  10 FB     BPL $8378                       A:10 X:00 Y:F0 P:25 SP:FA CYC:218 SL:222
8378  AD 02 20  LDA $2002 = FF                  A:10 X:00 Y:F0 P:25 SP:FA CYC:227 SL:222
837B  10 FB     BPL $8378                       A:10 X:00 Y:F0 P:25 SP:FA CYC:239 SL:222
8378  AD 02 20  LDA $2002 = FF                  A:10 X:00 Y:F0 P:25 SP:FA CYC:248 SL:222
837B  10 FB     BPL $8378                       A:10 X:00 Y:F0 P:25 SP:FA CYC:260 SL:222
8378  AD 02 20  LDA $2002 = FF                  A:10 X:00 Y:F0 P:25 SP:FA CYC:269 SL:222
837B  10 FB     BPL $8378                       A:10 X:00 Y:F0 P:25 SP:FA CYC:281 SL:222
8378  AD 02 20  LDA $2002 = FF                  A:10 X:00 Y:F0 P:25 SP:FA CYC:290 SL:222
837B  10 FB     BPL $8378                       A:10 X:00 Y:F0 P:25 SP:FA CYC:302 SL:222
8378  AD 02 20  LDA $2002 = FF                  A:10 X:00 Y:F0 P:25 SP:FA CYC:311 SL:222
837B  10 FB     BPL $8378                       A:10 X:00 Y:F0 P:25 SP:FA CYC:323 SL:222
8378  AD 02 20  LDA $2002 = FF                  A:10 X:00 Y:F0 P:25 SP:FA CYC:332 SL:222
837B  10 FB     BPL $8378                       A:10 X:00 Y:F0 P:25 SP:FA CYC:  3 SL:223
8378  AD 02 20  LDA $2002 = FF                  A:10 X:00 Y:F0 P:25 SP:FA CYC: 12 SL:223
837B  10 FB     BPL $8378                       A:10 X:00 Y:F0 P:25 SP:FA CYC: 24 SL:223
8378  AD 02 20  LDA $2002 = FF                  A:10 X:00 Y:F0 P:25 SP:FA CYC: 33 SL:223
837B  10 FB     BPL $8378                       A:10 X:00 Y:F0 P:25 SP:FA CYC: 45 SL:223
8378  AD 02 20  LDA $2002 = FF                  A:10 X:00 Y:F0 P:25 SP:FA CYC: 54 SL:223
837B  10 FB     BPL $8378                       A:10 X:00 Y:F0 P:25 SP:FA CYC: 66 SL:223
8378  AD 02 20  LDA $2002 = FF                  A:10 X:00 Y:F0 P:25 SP:FA CYC: 75 SL:223
837B  10 FB     BPL $8378                       A:10 X:00 Y:F0 P:25 SP:FA CYC: 87 SL:223
8378  AD 02 20  LDA $2002 = FF                  A:10 X:00 Y:F0 P:25 SP:FA CYC: 96 SL:223
837B  10 FB     BPL $8378                       A:10 X:00 Y:F0 P:25 SP:FA CYC:108 SL:223
8378  AD 02 20  LDA $2002 = FF                  A:10 X:00 Y:F0 P:25 SP:FA CYC:117 SL:223
837B  10 FB     BPL $8378                       A:10 X:00 Y:F0 P:25 SP:FA CYC:129 SL:223
8378  AD 02 20  LDA $2002 = FF                  A:10 X:00 Y:F0 P:25 SP:FA CYC:138 SL:223
837B  10 FB     BPL $8378                       A:10 X:00 Y:F0 P:25 SP:FA CYC:150 SL:223
8378  AD 02 20  LDA $2002 = FF                  A:10 X:00 Y:F0 P:25 SP:FA CYC:159 SL:223
837B  10 FB     BPL $8378                       A:10 X:00 Y:F0 P:25 SP:FA CYC:171 SL:223
8378  AD 02 20  LDA $2002 = FF                  A:10 X:00 Y:F0 P:25 SP:FA CYC:180 SL:223
837B  10 FB     BPL $8378                       A:10 X:00 Y:F0 P:25 SP:FA CYC:192 SL:223
8378  AD 02 20  LDA $2002 = FF                  A:10 X:00 Y:F0 P:25 SP:FA CYC:201 SL:223
837B  10 FB     BPL $8378                       A:10 X:00 Y:F0 P:25 SP:FA CYC:213 SL:223
8378  AD 02 20  LDA $2002 = FF                  A:10 X:00 Y:F0 P:25 SP:FA CYC:222 SL:223
837B  10 FB     BPL $8378                       A:10 X:00 Y:F0 P:25 SP:FA CYC:234 SL:223
8378  AD 02 20  LDA $2002 = FF                  A:10 X:00 Y:F0 P:25 SP:FA CYC:243 SL:223
837B  10 FB     BPL $8378                       A:10 X:00 Y:F0 P:25 SP:FA CYC:255 SL:223
8378  AD 02 20  LDA $2002 = FF                  A:10 X:00 Y:F0 P:25 SP:FA CYC:264 SL:223
837B  10 FB     BPL $8378                       A:10 X:00 Y:F0 P:25 SP:FA CYC:276 SL:223
8378  AD 02 20  LDA $2002 = FF                  A:10 X:00 Y:F0 P:25 SP:FA CYC:285 SL:223
837B  10 FB     BPL $8378                       A:10 X:00 Y:F0 P:25 SP:FA CYC:297 SL:223
8378  AD 02 20  LDA $2002 = FF                  A:10 X:00 Y:F0 P:25 SP:FA CYC:306 SL:223
837B  10 FB     BPL $8378                       A:10 X:00 Y:F0 P:25 SP:FA CYC:318 SL:223
8378  AD 02 20  LDA $2002 = FF                  A:10 X:00 Y:F0 P:25 SP:FA CYC:327 SL:223
837B  10 FB     BPL $8378                       A:10 X:00 Y:F0 P:25 SP:FA CYC:339 SL:223
8378  AD 02 20  LDA $2002 = FF                  A:10 X:00 Y:F0 P:25 SP:FA CYC:  7 SL:224
837B  10 FB     BPL $8378                       A:10 X:00 Y:F0 P:25 SP:FA CYC: 19 SL:224
8378  AD 02 20  LDA $2002 = FF                  A:10 X:00 Y:F0 P:25 SP:FA CYC: 28 SL:224
837B  10 FB     BPL $8378                       A:10 X:00 Y:F0 P:25 SP:FA CYC: 40 SL:224
8378  AD 02 20  LDA $2002 = FF                  A:10 X:00 Y:F0 P:25 SP:FA CYC: 49 SL:224
837B  10 FB     BPL $8378                       A:10 X:00 Y:F0 P:25 SP:FA CYC: 61 SL:224
8378  AD 02 20  LDA $2002 = FF                  A:10 X:00 Y:F0 P:25 SP:FA CYC: 70 SL:224
837B  10 FB     BPL $8378                       A:10 X:00 Y:F0 P:25 SP:FA CYC: 82 SL:224
8378  AD 02 20  LDA $2002 = FF                  A:10 X:00 Y:F0 P:25 SP:FA CYC: 91 SL:224
837B  10 FB     BPL $8378                       A:10 X:00 Y:F0 P:25 SP:FA CYC:103 SL:224
8378  AD 02 20  LDA $2002 = FF                  A:10 X:00 Y:F0 P:25 SP:FA CYC:112 SL:224
837B  10 FB     BPL $8378                       A:10 X:00 Y:F0 P:25 SP:FA CYC:124 SL:224
8378  AD 02 20  LDA $2002 = FF                  A:10 X:00 Y:F0 P:25 SP:FA CYC:133 SL:224
837B  10 FB     BPL $8378                       A:10 X:00 Y:F0 P:25 SP:FA CYC:145 SL:224
8378  AD 02 20  LDA $2002 = FF                  A:10 X:00 Y:F0 P:25 SP:FA CYC:154 SL:224
837B  10 FB     BPL $8378                       A:10 X:00 Y:F0 P:25 SP:FA CYC:166 SL:224
8378  AD 02 20  LDA $2002 = FF                  A:10 X:00 Y:F0 P:25 SP:FA CYC:175 SL:224
837B  10 FB     BPL $8378                       A:10 X:00 Y:F0 P:25 SP:FA CYC:187 SL:224
8378  AD 02 20  LDA $2002 = FF                  A:10 X:00 Y:F0 P:25 SP:FA CYC:196 SL:224
837B  10 FB     BPL $8378                       A:10 X:00 Y:F0 P:25 SP:FA CYC:208 SL:224
8378  AD 02 20  LDA $2002 = FF                  A:10 X:00 Y:F0 P:25 SP:FA CYC:217 SL:224
837B  10 FB     BPL $8378                       A:10 X:00 Y:F0 P:25 SP:FA CYC:229 SL:224
8378  AD 02 20  LDA $2002 = FF                  A:10 X:00 Y:F0 P:25 SP:FA CYC:238 SL:224
837B  10 FB     BPL $8378                       A:10 X:00 Y:F0 P:25 SP:FA CYC:250 SL:224
8378  AD 02 20  LDA $2002 = FF                  A:10 X:00 Y:F0 P:25 SP:FA CYC:259 SL:224
837B  10 FB     BPL $8378                       A:10 X:00 Y:F0 P:25 SP:FA CYC:271 SL:224
8378  AD 02 20  LDA $2002 = FF                  A:10 X:00 Y:F0 P:25 SP:FA CYC:280 SL:224
837B  10 FB     BPL $8378                       A:10 X:00 Y:F0 P:25 SP:FA CYC:292 SL:224
8378  AD 02 20  LDA $2002 = FF                  A:10 X:00 Y:F0 P:25 SP:FA CYC:301 SL:224
837B  10 FB     BPL $8378                       A:10 X:00 Y:F0 P:25 SP:FA CYC:313 SL:224
8378  AD 02 20  LDA $2002 = FF                  A:10 X:00 Y:F0 P:25 SP:FA CYC:322 SL:224
837B  10 FB     BPL $8378                       A:10 X:00 Y:F0 P:25 SP:FA CYC:334 SL:224
8378  AD 02 20  LDA $2002 = FF                  A:10 X:00 Y:F0 P:25 SP:FA CYC:  2 SL:225
837B  10 FB     BPL $8378                       A:10 X:00 Y:F0 P:25 SP:FA CYC: 14 SL:225
8378  AD 02 20  LDA $2002 = FF                  A:10 X:00 Y:F0 P:25 SP:FA CYC: 23 SL:225
837B  10 FB     BPL $8378                       A:10 X:00 Y:F0 P:25 SP:FA CYC: 35 SL:225
8378  AD 02 20  LDA $2002 = FF                  A:10 X:00 Y:F0 P:25 SP:FA CYC: 44 SL:225
837B  10 FB     BPL $8378                       A:10 X:00 Y:F0 P:25 SP:FA CYC: 56 SL:225
8378  AD 02 20  LDA $2002 = FF                  A:10 X:00 Y:F0 P:25 SP:FA CYC: 65 SL:225
837B  10 FB     BPL $8378                       A:10 X:00 Y:F0 P:25 SP:FA CYC: 77 SL:225
8378  AD 02 20  LDA $2002 = FF                  A:10 X:00 Y:F0 P:25 SP:FA CYC: 86 SL:225
837B  10 FB     BPL $8378                       A:10 X:00 Y:F0 P:25 SP:FA CYC: 98 SL:225
8378  AD 02 20  LDA $2002 = FF                  A:10 X:00 Y:F0 P:25 SP:FA CYC:107 SL:225
837B  10 FB     BPL $8378                       A:10 X:00 Y:F0 P:25 SP:FA CYC:119 SL:225
8378  AD 02 20  LDA $2002 = FF                  A:10 X:00 Y:F0 P:25 SP:FA CYC:128 SL:225
837B  10 FB     BPL $8378                       A:10 X:00 Y:F0 P:25 SP:FA CYC:140 SL:225
8378  AD 02 20  LDA $2002 = FF                  A:10 X:00 Y:F0 P:25 SP:FA CYC:149 SL:225
837B  10 FB     BPL $8378                       A:10 X:00 Y:F0 P:25 SP:FA CYC:161 SL:225
8378  AD 02 20  LDA $2002 = FF                  A:10 X:00 Y:F0 P:25 SP:FA CYC:170 SL:225
837B  10 FB     BPL $8378                       A:10 X:00 Y:F0 P:25 SP:FA CYC:182 SL:225
8378  AD 02 20  LDA $2002 = FF                  A:10 X:00 Y:F0 P:25 SP:FA CYC:191 SL:225
837B  10 FB     BPL $8378                       A:10 X:00 Y:F0 P:25 SP:FA CYC:203 SL:225
8378  AD 02 20  LDA $2002 = FF                  A:10 X:00 Y:F0 P:25 SP:FA CYC:212 SL:225
837B  10 FB     BPL $8378                       A:10 X:00 Y:F0 P:25 SP:FA CYC:224 SL:225
8378  AD 02 20  LDA $2002 = FF                  A:10 X:00 Y:F0 P:25 SP:FA CYC:233 SL:225
837B  10 FB     BPL $8378                       A:10 X:00 Y:F0 P:25 SP:FA CYC:245 SL:225
8378  AD 02 20  LDA $2002 = FF                  A:10 X:00 Y:F0 P:25 SP:FA CYC:254 SL:225
837B  10 FB     BPL $8378                       A:10 X:00 Y:F0 P:25 SP:FA CYC:266 SL:225
8378  AD 02 20  LDA $2002 = FF                  A:10 X:00 Y:F0 P:25 SP:FA CYC:275 SL:225
837B  10 FB     BPL $8378                       A:10 X:00 Y:F0 P:25 SP:FA CYC:287 SL:225
8378  AD 02 20  LDA $2002 = FF                  A:10 X:00 Y:F0 P:25 SP:FA CYC:296 SL:225
837B  10 FB     BPL $8378                       A:10 X:00 Y:F0 P:25 SP:FA CYC:308 SL:225
8378  AD 02 20  LDA $2002 = FF                  A:10 X:00 Y:F0 P:25 SP:FA CYC:317 SL:225
837B  10 FB     BPL $8378                       A:10 X:00 Y:F0 P:25 SP:FA CYC:329 SL:225
8378  AD 02 20  LDA $2002 = FF                  A:10 X:00 Y:F0 P:25 SP:FA CYC:338 SL:225
837B  10 FB     BPL $8378                       A:10 X:00 Y:F0 P:25 SP:FA CYC:  9 SL:226
8378  AD 02 20  LDA $2002 = FF                  A:10 X:00 Y:F0 P:25 SP:FA CYC: 18 SL:226
837B  10 FB     BPL $8378                       A:10 X:00 Y:F0 P:25 SP:FA CYC: 30 SL:226
8378  AD 02 20  LDA $2002 = FF                  A:10 X:00 Y:F0 P:25 SP:FA CYC: 39 SL:226
837B  10 FB     BPL $8378                       A:10 X:00 Y:F0 P:25 SP:FA CYC: 51 SL:226
8378  AD 02 20  LDA $2002 = FF                  A:10 X:00 Y:F0 P:25 SP:FA CYC: 60 SL:226
837B  10 FB     BPL $8378                       A:10 X:00 Y:F0 P:25 SP:FA CYC: 72 SL:226
8378  AD 02 20  LDA $2002 = FF                  A:10 X:00 Y:F0 P:25 SP:FA CYC: 81 SL:226
837B  10 FB     BPL $8378                       A:10 X:00 Y:F0 P:25 SP:FA CYC: 93 SL:226
8378  AD 02 20  LDA $2002 = FF                  A:10 X:00 Y:F0 P:25 SP:FA CYC:102 SL:226
837B  10 FB     BPL $8378                       A:10 X:00 Y:F0 P:25 SP:FA CYC:114 SL:226
8378  AD 02 20  LDA $2002 = FF                  A:10 X:00 Y:F0 P:25 SP:FA CYC:123 SL:226
837B  10 FB     BPL $8378                       A:10 X:00 Y:F0 P:25 SP:FA CYC:135 SL:226
8378  AD 02 20  LDA $2002 = FF                  A:10 X:00 Y:F0 P:25 SP:FA CYC:144 SL:226
837B  10 FB     BPL $8378                       A:10 X:00 Y:F0 P:25 SP:FA CYC:156 SL:226
8378  AD 02 20  LDA $2002 = FF                  A:10 X:00 Y:F0 P:25 SP:FA CYC:165 SL:226
837B  10 FB     BPL $8378                       A:10 X:00 Y:F0 P:25 SP:FA CYC:177 SL:226
8378  AD 02 20  LDA $2002 = FF                  A:10 X:00 Y:F0 P:25 SP:FA CYC:186 SL:226
837B  10 FB     BPL $8378                       A:10 X:00 Y:F0 P:25 SP:FA CYC:198 SL:226
8378  AD 02 20  LDA $2002 = FF                  A:10 X:00 Y:F0 P:25 SP:FA CYC:207 SL:226
837B  10 FB     BPL $8378                       A:10 X:00 Y:F0 P:25 SP:FA CYC:219 SL:226
8378  AD 02 20  LDA $2002 = FF                  A:10 X:00 Y:F0 P:25 SP:FA CYC:228 SL:226
837B  10 FB     BPL $8378                       A:10 X:00 Y:F0 P:25 SP:FA CYC:240 SL:226
8378  AD 02 20  LDA $2002 = FF                  A:10 X:00 Y:F0 P:25 SP:FA CYC:249 SL:226
837B  10 FB     BPL $8378                       A:10 X:00 Y:F0 P:25 SP:FA CYC:261 SL:226
8378  AD 02 20  LDA $2002 = FF                  A:10 X:00 Y:F0 P:25 SP:FA CYC:270 SL:226
837B  10 FB     BPL $8378                       A:10 X:00 Y:F0 P:25 SP:FA CYC:282 SL:226
8378  AD 02 20  LDA $2002 = FF                  A:10 X:00 Y:F0 P:25 SP:FA CYC:291 SL:226
837B  10 FB     BPL $8378                       A:10 X:00 Y:F0 P:25 SP:FA CYC:303 SL:226
8378  AD 02 20  LDA $2002 = FF                  A:10 X:00 Y:F0 P:25 SP:FA CYC:312 SL:226
837B  10 FB     BPL $8378                       A:10 X:00 Y:F0 P:25 SP:FA CYC:324 SL:226
8378  AD 02 20  LDA $2002 = FF                  A:10 X:00 Y:F0 P:25 SP:FA CYC:333 SL:226
837B  10 FB     BPL $8378                       A:10 X:00 Y:F0 P:25 SP:FA CYC:  4 SL:227
8378  AD 02 20  LDA $2002 = FF                  A:10 X:00 Y:F0 P:25 SP:FA CYC: 13 SL:227
837B  10 FB     BPL $8378                       A:10 X:00 Y:F0 P:25 SP:FA CYC: 25 SL:227
8378  AD 02 20  LDA $2002 = FF                  A:10 X:00 Y:F0 P:25 SP:FA CYC: 34 SL:227
837B  10 FB     BPL $8378                       A:10 X:00 Y:F0 P:25 SP:FA CYC: 46 SL:227
8378  AD 02 20  LDA $2002 = FF                  A:10 X:00 Y:F0 P:25 SP:FA CYC: 55 SL:227
837B  10 FB     BPL $8378                       A:10 X:00 Y:F0 P:25 SP:FA CYC: 67 SL:227
8378  AD 02 20  LDA $2002 = FF                  A:10 X:00 Y:F0 P:25 SP:FA CYC: 76 SL:227
837B  10 FB     BPL $8378                       A:10 X:00 Y:F0 P:25 SP:FA CYC: 88 SL:227
8378  AD 02 20  LDA $2002 = FF                  A:10 X:00 Y:F0 P:25 SP:FA CYC: 97 SL:227
837B  10 FB     BPL $8378                       A:10 X:00 Y:F0 P:25 SP:FA CYC:109 SL:227
8378  AD 02 20  LDA $2002 = FF                  A:10 X:00 Y:F0 P:25 SP:FA CYC:118 SL:227
837B  10 FB     BPL $8378                       A:10 X:00 Y:F0 P:25 SP:FA CYC:130 SL:227
8378  AD 02 20  LDA $2002 = FF                  A:10 X:00 Y:F0 P:25 SP:FA CYC:139 SL:227
837B  10 FB     BPL $8378                       A:10 X:00 Y:F0 P:25 SP:FA CYC:151 SL:227
8378  AD 02 20  LDA $2002 = FF                  A:10 X:00 Y:F0 P:25 SP:FA CYC:160 SL:227
837B  10 FB     BPL $8378                       A:10 X:00 Y:F0 P:25 SP:FA CYC:172 SL:227
8378  AD 02 20  LDA $2002 = FF                  A:10 X:00 Y:F0 P:25 SP:FA CYC:181 SL:227
837B  10 FB     BPL $8378                       A:10 X:00 Y:F0 P:25 SP:FA CYC:193 SL:227
8378  AD 02 20  LDA $2002 = FF                  A:10 X:00 Y:F0 P:25 SP:FA CYC:202 SL:227
837B  10 FB     BPL $8378                       A:10 X:00 Y:F0 P:25 SP:FA CYC:214 SL:227
8378  AD 02 20  LDA $2002 = FF                  A:10 X:00 Y:F0 P:25 SP:FA CYC:223 SL:227
837B  10 FB     BPL $8378                       A:10 X:00 Y:F0 P:25 SP:FA CYC:235 SL:227
8378  AD 02 20  LDA $2002 = FF                  A:10 X:00 Y:F0 P:25 SP:FA CYC:244 SL:227
837B  10 FB     BPL $8378                       A:10 X:00 Y:F0 P:25 SP:FA CYC:256 SL:227
8378  AD 02 20  LDA $2002 = FF                  A:10 X:00 Y:F0 P:25 SP:FA CYC:265 SL:227
837B  10 FB     BPL $8378                       A:10 X:00 Y:F0 P:25 SP:FA CYC:277 SL:227
8378  AD 02 20  LDA $2002 = FF                  A:10 X:00 Y:F0 P:25 SP:FA CYC:286 SL:227
837B  10 FB     BPL $8378                       A:10 X:00 Y:F0 P:25 SP:FA CYC:298 SL:227
8378  AD 02 20  LDA $2002 = FF                  A:10 X:00 Y:F0 P:25 SP:FA CYC:307 SL:227
837B  10 FB     BPL $8378                       A:10 X:00 Y:F0 P:25 SP:FA CYC:319 SL:227
8378  AD 02 20  LDA $2002 = FF                  A:10 X:00 Y:F0 P:25 SP:FA CYC:328 SL:227
837B  10 FB     BPL $8378                       A:10 X:00 Y:F0 P:25 SP:FA CYC:340 SL:227
8378  AD 02 20  LDA $2002 = FF                  A:10 X:00 Y:F0 P:25 SP:FA CYC:  8 SL:228
837B  10 FB     BPL $8378                       A:10 X:00 Y:F0 P:25 SP:FA CYC: 20 SL:228
8378  AD 02 20  LDA $2002 = FF                  A:10 X:00 Y:F0 P:25 SP:FA CYC: 29 SL:228
837B  10 FB     BPL $8378                       A:10 X:00 Y:F0 P:25 SP:FA CYC: 41 SL:228
8378  AD 02 20  LDA $2002 = FF                  A:10 X:00 Y:F0 P:25 SP:FA CYC: 50 SL:228
837B  10 FB     BPL $8378                       A:10 X:00 Y:F0 P:25 SP:FA CYC: 62 SL:228
8378  AD 02 20  LDA $2002 = FF                  A:10 X:00 Y:F0 P:25 SP:FA CYC: 71 SL:228
837B  10 FB     BPL $8378                       A:10 X:00 Y:F0 P:25 SP:FA CYC: 83 SL:228
8378  AD 02 20  LDA $2002 = FF                  A:10 X:00 Y:F0 P:25 SP:FA CYC: 92 SL:228
837B  10 FB     BPL $8378                       A:10 X:00 Y:F0 P:25 SP:FA CYC:104 SL:228
8378  AD 02 20  LDA $2002 = FF                  A:10 X:00 Y:F0 P:25 SP:FA CYC:113 SL:228
837B  10 FB     BPL $8378                       A:10 X:00 Y:F0 P:25 SP:FA CYC:125 SL:228
8378  AD 02 20  LDA $2002 = FF                  A:10 X:00 Y:F0 P:25 SP:FA CYC:134 SL:228
837B  10 FB     BPL $8378                       A:10 X:00 Y:F0 P:25 SP:FA CYC:146 SL:228
8378  AD 02 20  LDA $2002 = FF                  A:10 X:00 Y:F0 P:25 SP:FA CYC:155 SL:228
837B  10 FB     BPL $8378                       A:10 X:00 Y:F0 P:25 SP:FA CYC:167 SL:228
8378  AD 02 20  LDA $2002 = FF                  A:10 X:00 Y:F0 P:25 SP:FA CYC:176 SL:228
837B  10 FB     BPL $8378                       A:10 X:00 Y:F0 P:25 SP:FA CYC:188 SL:228
8378  AD 02 20  LDA $2002 = FF                  A:10 X:00 Y:F0 P:25 SP:FA CYC:197 SL:228
837B  10 FB     BPL $8378                       A:10 X:00 Y:F0 P:25 SP:FA CYC:209 SL:228
8378  AD 02 20  LDA $2002 = FF                  A:10 X:00 Y:F0 P:25 SP:FA CYC:218 SL:228
837B  10 FB     BPL $8378                       A:10 X:00 Y:F0 P:25 SP:FA CYC:230 SL:228
8378  AD 02 20  LDA $2002 = FF                  A:10 X:00 Y:F0 P:25 SP:FA CYC:239 SL:228
837B  10 FB     BPL $8378                       A:10 X:00 Y:F0 P:25 SP:FA CYC:251 SL:228
8378  AD 02 20  LDA $2002 = FF                  A:10 X:00 Y:F0 P:25 SP:FA CYC:260 SL:228
837B  10 FB     BPL $8378                       A:10 X:00 Y:F0 P:25 SP:FA CYC:272 SL:228
8378  AD 02 20  LDA $2002 = FF                  A:10 X:00 Y:F0 P:25 SP:FA CYC:281 SL:228
837B  10 FB     BPL $8378                       A:10 X:00 Y:F0 P:25 SP:FA CYC:293 SL:228
8378  AD 02 20  LDA $2002 = FF                  A:10 X:00 Y:F0 P:25 SP:FA CYC:302 SL:228
837B  10 FB     BPL $8378                       A:10 X:00 Y:F0 P:25 SP:FA CYC:314 SL:228
8378  AD 02 20  LDA $2002 = FF                  A:10 X:00 Y:F0 P:25 SP:FA CYC:323 SL:228
837B  10 FB     BPL $8378                       A:10 X:00 Y:F0 P:25 SP:FA CYC:335 SL:228
8378  AD 02 20  LDA $2002 = FF                  A:10 X:00 Y:F0 P:25 SP:FA CYC:  3 SL:229
837B  10 FB     BPL $8378                       A:10 X:00 Y:F0 P:25 SP:FA CYC: 15 SL:229
8378  AD 02 20  LDA $2002 = FF                  A:10 X:00 Y:F0 P:25 SP:FA CYC: 24 SL:229
837B  10 FB     BPL $8378                       A:10 X:00 Y:F0 P:25 SP:FA CYC: 36 SL:229
8378  AD 02 20  LDA $2002 = FF                  A:10 X:00 Y:F0 P:25 SP:FA CYC: 45 SL:229
837B  10 FB     BPL $8378                       A:10 X:00 Y:F0 P:25 SP:FA CYC: 57 SL:229
8378  AD 02 20  LDA $2002 = FF                  A:10 X:00 Y:F0 P:25 SP:FA CYC: 66 SL:229
837B  10 FB     BPL $8378                       A:10 X:00 Y:F0 P:25 SP:FA CYC: 78 SL:229
8378  AD 02 20  LDA $2002 = FF                  A:10 X:00 Y:F0 P:25 SP:FA CYC: 87 SL:229
837B  10 FB     BPL $8378                       A:10 X:00 Y:F0 P:25 SP:FA CYC: 99 SL:229
8378  AD 02 20  LDA $2002 = FF                  A:10 X:00 Y:F0 P:25 SP:FA CYC:108 SL:229
837B  10 FB     BPL $8378                       A:10 X:00 Y:F0 P:25 SP:FA CYC:120 SL:229
8378  AD 02 20  LDA $2002 = FF                  A:10 X:00 Y:F0 P:25 SP:FA CYC:129 SL:229
837B  10 FB     BPL $8378                       A:10 X:00 Y:F0 P:25 SP:FA CYC:141 SL:229
8378  AD 02 20  LDA $2002 = FF                  A:10 X:00 Y:F0 P:25 SP:FA CYC:150 SL:229
837B  10 FB     BPL $8378                       A:10 X:00 Y:F0 P:25 SP:FA CYC:162 SL:229
8378  AD 02 20  LDA $2002 = FF                  A:10 X:00 Y:F0 P:25 SP:FA CYC:171 SL:229
837B  10 FB     BPL $8378                       A:10 X:00 Y:F0 P:25 SP:FA CYC:183 SL:229
8378  AD 02 20  LDA $2002 = FF                  A:10 X:00 Y:F0 P:25 SP:FA CYC:192 SL:229
837B  10 FB     BPL $8378                       A:10 X:00 Y:F0 P:25 SP:FA CYC:204 SL:229
8378  AD 02 20  LDA $2002 = FF                  A:10 X:00 Y:F0 P:25 SP:FA CYC:213 SL:229
837B  10 FB     BPL $8378                       A:10 X:00 Y:F0 P:25 SP:FA CYC:225 SL:229
8378  AD 02 20  LDA $2002 = FF                  A:10 X:00 Y:F0 P:25 SP:FA CYC:234 SL:229
837B  10 FB     BPL $8378                       A:10 X:00 Y:F0 P:25 SP:FA CYC:246 SL:229
8378  AD 02 20  LDA $2002 = FF                  A:10 X:00 Y:F0 P:25 SP:FA CYC:255 SL:229
837B  10 FB     BPL $8378                       A:10 X:00 Y:F0 P:25 SP:FA CYC:267 SL:229
8378  AD 02 20  LDA $2002 = FF                  A:10 X:00 Y:F0 P:25 SP:FA CYC:276 SL:229
837B  10 FB     BPL $8378                       A:10 X:00 Y:F0 P:25 SP:FA CYC:288 SL:229
8378  AD 02 20  LDA $2002 = FF                  A:10 X:00 Y:F0 P:25 SP:FA CYC:297 SL:229
837B  10 FB     BPL $8378                       A:10 X:00 Y:F0 P:25 SP:FA CYC:309 SL:229
8378  AD 02 20  LDA $2002 = FF                  A:10 X:00 Y:F0 P:25 SP:FA CYC:318 SL:229
837B  10 FB     BPL $8378                       A:10 X:00 Y:F0 P:25 SP:FA CYC:330 SL:229
8378  AD 02 20  LDA $2002 = FF                  A:10 X:00 Y:F0 P:25 SP:FA CYC:339 SL:229
837B  10 FB     BPL $8378                       A:10 X:00 Y:F0 P:25 SP:FA CYC: 10 SL:230
8378  AD 02 20  LDA $2002 = FF                  A:10 X:00 Y:F0 P:25 SP:FA CYC: 19 SL:230
837B  10 FB     BPL $8378                       A:10 X:00 Y:F0 P:25 SP:FA CYC: 31 SL:230
8378  AD 02 20  LDA $2002 = FF                  A:10 X:00 Y:F0 P:25 SP:FA CYC: 40 SL:230
837B  10 FB     BPL $8378                       A:10 X:00 Y:F0 P:25 SP:FA CYC: 52 SL:230
8378  AD 02 20  LDA $2002 = FF                  A:10 X:00 Y:F0 P:25 SP:FA CYC: 61 SL:230
837B  10 FB     BPL $8378                       A:10 X:00 Y:F0 P:25 SP:FA CYC: 73 SL:230
8378  AD 02 20  LDA $2002 = FF                  A:10 X:00 Y:F0 P:25 SP:FA CYC: 82 SL:230
837B  10 FB     BPL $8378                       A:10 X:00 Y:F0 P:25 SP:FA CYC: 94 SL:230
8378  AD 02 20  LDA $2002 = FF                  A:10 X:00 Y:F0 P:25 SP:FA CYC:103 SL:230
837B  10 FB     BPL $8378                       A:10 X:00 Y:F0 P:25 SP:FA CYC:115 SL:230
8378  AD 02 20  LDA $2002 = FF                  A:10 X:00 Y:F0 P:25 SP:FA CYC:124 SL:230
837B  10 FB     BPL $8378                       A:10 X:00 Y:F0 P:25 SP:FA CYC:136 SL:230
8378  AD 02 20  LDA $2002 = FF                  A:10 X:00 Y:F0 P:25 SP:FA CYC:145 SL:230
837B  10 FB     BPL $8378                       A:10 X:00 Y:F0 P:25 SP:FA CYC:157 SL:230
8378  AD 02 20  LDA $2002 = FF                  A:10 X:00 Y:F0 P:25 SP:FA CYC:166 SL:230
837B  10 FB     BPL $8378                       A:10 X:00 Y:F0 P:25 SP:FA CYC:178 SL:230
8378  AD 02 20  LDA $2002 = FF                  A:10 X:00 Y:F0 P:25 SP:FA CYC:187 SL:230
837B  10 FB     BPL $8378                       A:10 X:00 Y:F0 P:25 SP:FA CYC:199 SL:230
8378  AD 02 20  LDA $2002 = FF                  A:10 X:00 Y:F0 P:25 SP:FA CYC:208 SL:230
837B  10 FB     BPL $8378                       A:10 X:00 Y:F0 P:25 SP:FA CYC:220 SL:230
8378  AD 02 20  LDA $2002 = FF                  A:10 X:00 Y:F0 P:25 SP:FA CYC:229 SL:230
837B  10 FB     BPL $8378                       A:10 X:00 Y:F0 P:25 SP:FA CYC:241 SL:230
8378  AD 02 20  LDA $2002 = FF                  A:10 X:00 Y:F0 P:25 SP:FA CYC:250 SL:230
837B  10 FB     BPL $8378                       A:10 X:00 Y:F0 P:25 SP:FA CYC:262 SL:230
8378  AD 02 20  LDA $2002 = FF                  A:10 X:00 Y:F0 P:25 SP:FA CYC:271 SL:230
837B  10 FB     BPL $8378                       A:10 X:00 Y:F0 P:25 SP:FA CYC:283 SL:230
8378  AD 02 20  LDA $2002 = FF                  A:10 X:00 Y:F0 P:25 SP:FA CYC:292 SL:230
837B  10 FB     BPL $8378                       A:10 X:00 Y:F0 P:25 SP:FA CYC:304 SL:230
8378  AD 02 20  LDA $2002 = FF                  A:10 X:00 Y:F0 P:25 SP:FA CYC:313 SL:230
837B  10 FB     BPL $8378                       A:10 X:00 Y:F0 P:25 SP:FA CYC:325 SL:230
8378  AD 02 20  LDA $2002 = FF                  A:10 X:00 Y:F0 P:25 SP:FA CYC:334 SL:230
837B  10 FB     BPL $8378                       A:10 X:00 Y:F0 P:25 SP:FA CYC:  5 SL:231
8378  AD 02 20  LDA $2002 = FF                  A:10 X:00 Y:F0 P:25 SP:FA CYC: 14 SL:231
837B  10 FB     BPL $8378                       A:10 X:00 Y:F0 P:25 SP:FA CYC: 26 SL:231
8378  AD 02 20  LDA $2002 = FF                  A:10 X:00 Y:F0 P:25 SP:FA CYC: 35 SL:231
837B  10 FB     BPL $8378                       A:10 X:00 Y:F0 P:25 SP:FA CYC: 47 SL:231
8378  AD 02 20  LDA $2002 = FF                  A:10 X:00 Y:F0 P:25 SP:FA CYC: 56 SL:231
837B  10 FB     BPL $8378                       A:10 X:00 Y:F0 P:25 SP:FA CYC: 68 SL:231
8378  AD 02 20  LDA $2002 = FF                  A:10 X:00 Y:F0 P:25 SP:FA CYC: 77 SL:231
837B  10 FB     BPL $8378                       A:10 X:00 Y:F0 P:25 SP:FA CYC: 89 SL:231
8378  AD 02 20  LDA $2002 = FF                  A:10 X:00 Y:F0 P:25 SP:FA CYC: 98 SL:231
837B  10 FB     BPL $8378                       A:10 X:00 Y:F0 P:25 SP:FA CYC:110 SL:231
8378  AD 02 20  LDA $2002 = FF                  A:10 X:00 Y:F0 P:25 SP:FA CYC:119 SL:231
837B  10 FB     BPL $8378                       A:10 X:00 Y:F0 P:25 SP:FA CYC:131 SL:231
8378  AD 02 20  LDA $2002 = FF                  A:10 X:00 Y:F0 P:25 SP:FA CYC:140 SL:231
837B  10 FB     BPL $8378                       A:10 X:00 Y:F0 P:25 SP:FA CYC:152 SL:231
8378  AD 02 20  LDA $2002 = FF                  A:10 X:00 Y:F0 P:25 SP:FA CYC:161 SL:231
837B  10 FB     BPL $8378                       A:10 X:00 Y:F0 P:25 SP:FA CYC:173 SL:231
8378  AD 02 20  LDA $2002 = FF                  A:10 X:00 Y:F0 P:25 SP:FA CYC:182 SL:231
837B  10 FB     BPL $8378                       A:10 X:00 Y:F0 P:25 SP:FA CYC:194 SL:231
8378  AD 02 20  LDA $2002 = FF                  A:10 X:00 Y:F0 P:25 SP:FA CYC:203 SL:231
837B  10 FB     BPL $8378                       A:10 X:00 Y:F0 P:25 SP:FA CYC:215 SL:231
8378  AD 02 20  LDA $2002 = FF                  A:10 X:00 Y:F0 P:25 SP:FA CYC:224 SL:231
837B  10 FB     BPL $8378                       A:10 X:00 Y:F0 P:25 SP:FA CYC:236 SL:231
8378  AD 02 20  LDA $2002 = FF                  A:10 X:00 Y:F0 P:25 SP:FA CYC:245 SL:231
837B  10 FB     BPL $8378                       A:10 X:00 Y:F0 P:25 SP:FA CYC:257 SL:231
8378  AD 02 20  LDA $2002 = FF                  A:10 X:00 Y:F0 P:25 SP:FA CYC:266 SL:231
837B  10 FB     BPL $8378                       A:10 X:00 Y:F0 P:25 SP:FA CYC:278 SL:231
8378  AD 02 20  LDA $2002 = FF                  A:10 X:00 Y:F0 P:25 SP:FA CYC:287 SL:231
837B  10 FB     BPL $8378                       A:10 X:00 Y:F0 P:25 SP:FA CYC:299 SL:231
8378  AD 02 20  LDA $2002 = FF                  A:10 X:00 Y:F0 P:25 SP:FA CYC:308 SL:231
837B  10 FB     BPL $8378                       A:10 X:00 Y:F0 P:25 SP:FA CYC:320 SL:231
8378  AD 02 20  LDA $2002 = FF                  A:10 X:00 Y:F0 P:25 SP:FA CYC:329 SL:231
837B  10 FB     BPL $8378                       A:10 X:00 Y:F0 P:25 SP:FA CYC:  0 SL:232
8378  AD 02 20  LDA $2002 = FF                  A:10 X:00 Y:F0 P:25 SP:FA CYC:  9 SL:232
837B  10 FB     BPL $8378                       A:10 X:00 Y:F0 P:25 SP:FA CYC: 21 SL:232
8378  AD 02 20  LDA $2002 = FF                  A:10 X:00 Y:F0 P:25 SP:FA CYC: 30 SL:232
837B  10 FB     BPL $8378                       A:10 X:00 Y:F0 P:25 SP:FA CYC: 42 SL:232
8378  AD 02 20  LDA $2002 = FF                  A:10 X:00 Y:F0 P:25 SP:FA CYC: 51 SL:232
837B  10 FB     BPL $8378                       A:10 X:00 Y:F0 P:25 SP:FA CYC: 63 SL:232
8378  AD 02 20  LDA $2002 = FF                  A:10 X:00 Y:F0 P:25 SP:FA CYC: 72 SL:232
837B  10 FB     BPL $8378                       A:10 X:00 Y:F0 P:25 SP:FA CYC: 84 SL:232
8378  AD 02 20  LDA $2002 = FF                  A:10 X:00 Y:F0 P:25 SP:FA CYC: 93 SL:232
837B  10 FB     BPL $8378                       A:10 X:00 Y:F0 P:25 SP:FA CYC:105 SL:232
8378  AD 02 20  LDA $2002 = FF                  A:10 X:00 Y:F0 P:25 SP:FA CYC:114 SL:232
837B  10 FB     BPL $8378                       A:10 X:00 Y:F0 P:25 SP:FA CYC:126 SL:232
8378  AD 02 20  LDA $2002 = FF                  A:10 X:00 Y:F0 P:25 SP:FA CYC:135 SL:232
837B  10 FB     BPL $8378                       A:10 X:00 Y:F0 P:25 SP:FA CYC:147 SL:232
8378  AD 02 20  LDA $2002 = FF                  A:10 X:00 Y:F0 P:25 SP:FA CYC:156 SL:232
837B  10 FB     BPL $8378                       A:10 X:00 Y:F0 P:25 SP:FA CYC:168 SL:232
8378  AD 02 20  LDA $2002 = FF                  A:10 X:00 Y:F0 P:25 SP:FA CYC:177 SL:232
837B  10 FB     BPL $8378                       A:10 X:00 Y:F0 P:25 SP:FA CYC:189 SL:232
8378  AD 02 20  LDA $2002 = FF                  A:10 X:00 Y:F0 P:25 SP:FA CYC:198 SL:232
837B  10 FB     BPL $8378                       A:10 X:00 Y:F0 P:25 SP:FA CYC:210 SL:232
8378  AD 02 20  LDA $2002 = FF                  A:10 X:00 Y:F0 P:25 SP:FA CYC:219 SL:232
837B  10 FB     BPL $8378                       A:10 X:00 Y:F0 P:25 SP:FA CYC:231 SL:232
8378  AD 02 20  LDA $2002 = FF                  A:10 X:00 Y:F0 P:25 SP:FA CYC:240 SL:232
837B  10 FB     BPL $8378                       A:10 X:00 Y:F0 P:25 SP:FA CYC:252 SL:232
8378  AD 02 20  LDA $2002 = FF                  A:10 X:00 Y:F0 P:25 SP:FA CYC:261 SL:232
837B  10 FB     BPL $8378                       A:10 X:00 Y:F0 P:25 SP:FA CYC:273 SL:232
8378  AD 02 20  LDA $2002 = FF                  A:10 X:00 Y:F0 P:25 SP:FA CYC:282 SL:232
837B  10 FB     BPL $8378                       A:10 X:00 Y:F0 P:25 SP:FA CYC:294 SL:232
8378  AD 02 20  LDA $2002 = FF                  A:10 X:00 Y:F0 P:25 SP:FA CYC:303 SL:232
837B  10 FB     BPL $8378                       A:10 X:00 Y:F0 P:25 SP:FA CYC:315 SL:232
8378  AD 02 20  LDA $2002 = FF                  A:10 X:00 Y:F0 P:25 SP:FA CYC:324 SL:232
837B  10 FB     BPL $8378                       A:10 X:00 Y:F0 P:25 SP:FA CYC:336 SL:232
8378  AD 02 20  LDA $2002 = FF                  A:10 X:00 Y:F0 P:25 SP:FA CYC:  4 SL:233
837B  10 FB     BPL $8378                       A:10 X:00 Y:F0 P:25 SP:FA CYC: 16 SL:233
8378  AD 02 20  LDA $2002 = FF                  A:10 X:00 Y:F0 P:25 SP:FA CYC: 25 SL:233
837B  10 FB     BPL $8378                       A:10 X:00 Y:F0 P:25 SP:FA CYC: 37 SL:233
8378  AD 02 20  LDA $2002 = FF                  A:10 X:00 Y:F0 P:25 SP:FA CYC: 46 SL:233
837B  10 FB     BPL $8378                       A:10 X:00 Y:F0 P:25 SP:FA CYC: 58 SL:233
8378  AD 02 20  LDA $2002 = FF                  A:10 X:00 Y:F0 P:25 SP:FA CYC: 67 SL:233
837B  10 FB     BPL $8378                       A:10 X:00 Y:F0 P:25 SP:FA CYC: 79 SL:233
8378  AD 02 20  LDA $2002 = FF                  A:10 X:00 Y:F0 P:25 SP:FA CYC: 88 SL:233
837B  10 FB     BPL $8378                       A:10 X:00 Y:F0 P:25 SP:FA CYC:100 SL:233
8378  AD 02 20  LDA $2002 = FF                  A:10 X:00 Y:F0 P:25 SP:FA CYC:109 SL:233
837B  10 FB     BPL $8378                       A:10 X:00 Y:F0 P:25 SP:FA CYC:121 SL:233
8378  AD 02 20  LDA $2002 = FF                  A:10 X:00 Y:F0 P:25 SP:FA CYC:130 SL:233
837B  10 FB     BPL $8378                       A:10 X:00 Y:F0 P:25 SP:FA CYC:142 SL:233
8378  AD 02 20  LDA $2002 = FF                  A:10 X:00 Y:F0 P:25 SP:FA CYC:151 SL:233
837B  10 FB     BPL $8378                       A:10 X:00 Y:F0 P:25 SP:FA CYC:163 SL:233
8378  AD 02 20  LDA $2002 = FF                  A:10 X:00 Y:F0 P:25 SP:FA CYC:172 SL:233
837B  10 FB     BPL $8378                       A:10 X:00 Y:F0 P:25 SP:FA CYC:184 SL:233
8378  AD 02 20  LDA $2002 = FF                  A:10 X:00 Y:F0 P:25 SP:FA CYC:193 SL:233
837B  10 FB     BPL $8378                       A:10 X:00 Y:F0 P:25 SP:FA CYC:205 SL:233
8378  AD 02 20  LDA $2002 = FF                  A:10 X:00 Y:F0 P:25 SP:FA CYC:214 SL:233
837B  10 FB     BPL $8378                       A:10 X:00 Y:F0 P:25 SP:FA CYC:226 SL:233
8378  AD 02 20  LDA $2002 = FF                  A:10 X:00 Y:F0 P:25 SP:FA CYC:235 SL:233
837B  10 FB     BPL $8378                       A:10 X:00 Y:F0 P:25 SP:FA CYC:247 SL:233
8378  AD 02 20  LDA $2002 = FF                  A:10 X:00 Y:F0 P:25 SP:FA CYC:256 SL:233
837B  10 FB     BPL $8378                       A:10 X:00 Y:F0 P:25 SP:FA CYC:268 SL:233
8378  AD 02 20  LDA $2002 = FF                  A:10 X:00 Y:F0 P:25 SP:FA CYC:277 SL:233
837B  10 FB     BPL $8378                       A:10 X:00 Y:F0 P:25 SP:FA CYC:289 SL:233
8378  AD 02 20  LDA $2002 = FF                  A:10 X:00 Y:F0 P:25 SP:FA CYC:298 SL:233
837B  10 FB     BPL $8378                       A:10 X:00 Y:F0 P:25 SP:FA CYC:310 SL:233
8378  AD 02 20  LDA $2002 = FF                  A:10 X:00 Y:F0 P:25 SP:FA CYC:319 SL:233
837B  10 FB     BPL $8378                       A:10 X:00 Y:F0 P:25 SP:FA CYC:331 SL:233
8378  AD 02 20  LDA $2002 = FF                  A:10 X:00 Y:F0 P:25 SP:FA CYC:340 SL:233
837B  10 FB     BPL $8378                       A:10 X:00 Y:F0 P:25 SP:FA CYC: 11 SL:234
8378  AD 02 20  LDA $2002 = FF                  A:10 X:00 Y:F0 P:25 SP:FA CYC: 20 SL:234
837B  10 FB     BPL $8378                       A:10 X:00 Y:F0 P:25 SP:FA CYC: 32 SL:234
8378  AD 02 20  LDA $2002 = FF                  A:10 X:00 Y:F0 P:25 SP:FA CYC: 41 SL:234
837B  10 FB     BPL $8378                       A:10 X:00 Y:F0 P:25 SP:FA CYC: 53 SL:234
8378  AD 02 20  LDA $2002 = FF                  A:10 X:00 Y:F0 P:25 SP:FA CYC: 62 SL:234
837B  10 FB     BPL $8378                       A:10 X:00 Y:F0 P:25 SP:FA CYC: 74 SL:234
8378  AD 02 20  LDA $2002 = FF                  A:10 X:00 Y:F0 P:25 SP:FA CYC: 83 SL:234
837B  10 FB     BPL $8378                       A:10 X:00 Y:F0 P:25 SP:FA CYC: 95 SL:234
8378  AD 02 20  LDA $2002 = FF                  A:10 X:00 Y:F0 P:25 SP:FA CYC:104 SL:234
837B  10 FB     BPL $8378                       A:10 X:00 Y:F0 P:25 SP:FA CYC:116 SL:234
8378  AD 02 20  LDA $2002 = FF                  A:10 X:00 Y:F0 P:25 SP:FA CYC:125 SL:234
837B  10 FB     BPL $8378                       A:10 X:00 Y:F0 P:25 SP:FA CYC:137 SL:234
8378  AD 02 20  LDA $2002 = FF                  A:10 X:00 Y:F0 P:25 SP:FA CYC:146 SL:234
837B  10 FB     BPL $8378                       A:10 X:00 Y:F0 P:25 SP:FA CYC:158 SL:234
8378  AD 02 20  LDA $2002 = FF                  A:10 X:00 Y:F0 P:25 SP:FA CYC:167 SL:234
837B  10 FB     BPL $8378                       A:10 X:00 Y:F0 P:25 SP:FA CYC:179 SL:234
8378  AD 02 20  LDA $2002 = FF                  A:10 X:00 Y:F0 P:25 SP:FA CYC:188 SL:234
837B  10 FB     BPL $8378                       A:10 X:00 Y:F0 P:25 SP:FA CYC:200 SL:234
8378  AD 02 20  LDA $2002 = FF                  A:10 X:00 Y:F0 P:25 SP:FA CYC:209 SL:234
837B  10 FB     BPL $8378                       A:10 X:00 Y:F0 P:25 SP:FA CYC:221 SL:234
8378  AD 02 20  LDA $2002 = FF                  A:10 X:00 Y:F0 P:25 SP:FA CYC:230 SL:234
837B  10 FB     BPL $8378                       A:10 X:00 Y:F0 P:25 SP:FA CYC:242 SL:234
8378  AD 02 20  LDA $2002 = FF                  A:10 X:00 Y:F0 P:25 SP:FA CYC:251 SL:234
837B  10 FB     BPL $8378                       A:10 X:00 Y:F0 P:25 SP:FA CYC:263 SL:234
8378  AD 02 20  LDA $2002 = FF                  A:10 X:00 Y:F0 P:25 SP:FA CYC:272 SL:234
837B  10 FB     BPL $8378                       A:10 X:00 Y:F0 P:25 SP:FA CYC:284 SL:234
8378  AD 02 20  LDA $2002 = FF                  A:10 X:00 Y:F0 P:25 SP:FA CYC:293 SL:234
837B  10 FB     BPL $8378                       A:10 X:00 Y:F0 P:25 SP:FA CYC:305 SL:234
8378  AD 02 20  LDA $2002 = FF                  A:10 X:00 Y:F0 P:25 SP:FA CYC:314 SL:234
837B  10 FB     BPL $8378                       A:10 X:00 Y:F0 P:25 SP:FA CYC:326 SL:234
8378  AD 02 20  LDA $2002 = FF                  A:10 X:00 Y:F0 P:25 SP:FA CYC:335 SL:234
837B  10 FB     BPL $8378                       A:10 X:00 Y:F0 P:25 SP:FA CYC:  6 SL:235
8378  AD 02 20  LDA $2002 = FF                  A:10 X:00 Y:F0 P:25 SP:FA CYC: 15 SL:235
837B  10 FB     BPL $8378                       A:10 X:00 Y:F0 P:25 SP:FA CYC: 27 SL:235
8378  AD 02 20  LDA $2002 = FF                  A:10 X:00 Y:F0 P:25 SP:FA CYC: 36 SL:235
837B  10 FB     BPL $8378                       A:10 X:00 Y:F0 P:25 SP:FA CYC: 48 SL:235
8378  AD 02 20  LDA $2002 = FF                  A:10 X:00 Y:F0 P:25 SP:FA CYC: 57 SL:235
837B  10 FB     BPL $8378                       A:10 X:00 Y:F0 P:25 SP:FA CYC: 69 SL:235
8378  AD 02 20  LDA $2002 = FF                  A:10 X:00 Y:F0 P:25 SP:FA CYC: 78 SL:235
837B  10 FB     BPL $8378                       A:10 X:00 Y:F0 P:25 SP:FA CYC: 90 SL:235
8378  AD 02 20  LDA $2002 = FF                  A:10 X:00 Y:F0 P:25 SP:FA CYC: 99 SL:235
837B  10 FB     BPL $8378                       A:10 X:00 Y:F0 P:25 SP:FA CYC:111 SL:235
8378  AD 02 20  LDA $2002 = FF                  A:10 X:00 Y:F0 P:25 SP:FA CYC:120 SL:235
837B  10 FB     BPL $8378                       A:10 X:00 Y:F0 P:25 SP:FA CYC:132 SL:235
8378  AD 02 20  LDA $2002 = FF                  A:10 X:00 Y:F0 P:25 SP:FA CYC:141 SL:235
837B  10 FB     BPL $8378                       A:10 X:00 Y:F0 P:25 SP:FA CYC:153 SL:235
8378  AD 02 20  LDA $2002 = FF                  A:10 X:00 Y:F0 P:25 SP:FA CYC:162 SL:235
837B  10 FB     BPL $8378                       A:10 X:00 Y:F0 P:25 SP:FA CYC:174 SL:235
8378  AD 02 20  LDA $2002 = FF                  A:10 X:00 Y:F0 P:25 SP:FA CYC:183 SL:235
837B  10 FB     BPL $8378                       A:10 X:00 Y:F0 P:25 SP:FA CYC:195 SL:235
8378  AD 02 20  LDA $2002 = FF                  A:10 X:00 Y:F0 P:25 SP:FA CYC:204 SL:235
837B  10 FB     BPL $8378                       A:10 X:00 Y:F0 P:25 SP:FA CYC:216 SL:235
8378  AD 02 20  LDA $2002 = FF                  A:10 X:00 Y:F0 P:25 SP:FA CYC:225 SL:235
837B  10 FB     BPL $8378                       A:10 X:00 Y:F0 P:25 SP:FA CYC:237 SL:235
8378  AD 02 20  LDA $2002 = FF                  A:10 X:00 Y:F0 P:25 SP:FA CYC:246 SL:235
837B  10 FB     BPL $8378                       A:10 X:00 Y:F0 P:25 SP:FA CYC:258 SL:235
8378  AD 02 20  LDA $2002 = FF                  A:10 X:00 Y:F0 P:25 SP:FA CYC:267 SL:235
837B  10 FB     BPL $8378                       A:10 X:00 Y:F0 P:25 SP:FA CYC:279 SL:235
8378  AD 02 20  LDA $2002 = FF                  A:10 X:00 Y:F0 P:25 SP:FA CYC:288 SL:235
837B  10 FB     BPL $8378                       A:10 X:00 Y:F0 P:25 SP:FA CYC:300 SL:235
8378  AD 02 20  LDA $2002 = FF                  A:10 X:00 Y:F0 P:25 SP:FA CYC:309 SL:235
837B  10 FB     BPL $8378                       A:10 X:00 Y:F0 P:25 SP:FA CYC:321 SL:235
8378  AD 02 20  LDA $2002 = FF                  A:10 X:00 Y:F0 P:25 SP:FA CYC:330 SL:235
837B  10 FB     BPL $8378                       A:10 X:00 Y:F0 P:25 SP:FA CYC:  1 SL:236
8378  AD 02 20  LDA $2002 = FF                  A:10 X:00 Y:F0 P:25 SP:FA CYC: 10 SL:236
837B  10 FB     BPL $8378                       A:10 X:00 Y:F0 P:25 SP:FA CYC: 22 SL:236
8378  AD 02 20  LDA $2002 = FF                  A:10 X:00 Y:F0 P:25 SP:FA CYC: 31 SL:236
837B  10 FB     BPL $8378                       A:10 X:00 Y:F0 P:25 SP:FA CYC: 43 SL:236
8378  AD 02 20  LDA $2002 = FF                  A:10 X:00 Y:F0 P:25 SP:FA CYC: 52 SL:236
837B  10 FB     BPL $8378                       A:10 X:00 Y:F0 P:25 SP:FA CYC: 64 SL:236
8378  AD 02 20  LDA $2002 = FF                  A:10 X:00 Y:F0 P:25 SP:FA CYC: 73 SL:236
837B  10 FB     BPL $8378                       A:10 X:00 Y:F0 P:25 SP:FA CYC: 85 SL:236
8378  AD 02 20  LDA $2002 = FF                  A:10 X:00 Y:F0 P:25 SP:FA CYC: 94 SL:236
837B  10 FB     BPL $8378                       A:10 X:00 Y:F0 P:25 SP:FA CYC:106 SL:236
8378  AD 02 20  LDA $2002 = FF                  A:10 X:00 Y:F0 P:25 SP:FA CYC:115 SL:236
837B  10 FB     BPL $8378                       A:10 X:00 Y:F0 P:25 SP:FA CYC:127 SL:236
8378  AD 02 20  LDA $2002 = FF                  A:10 X:00 Y:F0 P:25 SP:FA CYC:136 SL:236
837B  10 FB     BPL $8378                       A:10 X:00 Y:F0 P:25 SP:FA CYC:148 SL:236
8378  AD 02 20  LDA $2002 = FF                  A:10 X:00 Y:F0 P:25 SP:FA CYC:157 SL:236
837B  10 FB     BPL $8378                       A:10 X:00 Y:F0 P:25 SP:FA CYC:169 SL:236
8378  AD 02 20  LDA $2002 = FF                  A:10 X:00 Y:F0 P:25 SP:FA CYC:178 SL:236
837B  10 FB     BPL $8378                       A:10 X:00 Y:F0 P:25 SP:FA CYC:190 SL:236
8378  AD 02 20  LDA $2002 = FF                  A:10 X:00 Y:F0 P:25 SP:FA CYC:199 SL:236
837B  10 FB     BPL $8378                       A:10 X:00 Y:F0 P:25 SP:FA CYC:211 SL:236
8378  AD 02 20  LDA $2002 = FF                  A:10 X:00 Y:F0 P:25 SP:FA CYC:220 SL:236
837B  10 FB     BPL $8378                       A:10 X:00 Y:F0 P:25 SP:FA CYC:232 SL:236
8378  AD 02 20  LDA $2002 = FF                  A:10 X:00 Y:F0 P:25 SP:FA CYC:241 SL:236
837B  10 FB     BPL $8378                       A:10 X:00 Y:F0 P:25 SP:FA CYC:253 SL:236
8378  AD 02 20  LDA $2002 = FF                  A:10 X:00 Y:F0 P:25 SP:FA CYC:262 SL:236
837B  10 FB     BPL $8378                       A:10 X:00 Y:F0 P:25 SP:FA CYC:274 SL:236
8378  AD 02 20  LDA $2002 = FF                  A:10 X:00 Y:F0 P:25 SP:FA CYC:283 SL:236
837B  10 FB     BPL $8378                       A:10 X:00 Y:F0 P:25 SP:FA CYC:295 SL:236
8378  AD 02 20  LDA $2002 = FF                  A:10 X:00 Y:F0 P:25 SP:FA CYC:304 SL:236
837B  10 FB     BPL $8378                       A:10 X:00 Y:F0 P:25 SP:FA CYC:316 SL:236
8378  AD 02 20  LDA $2002 = FF                  A:10 X:00 Y:F0 P:25 SP:FA CYC:325 SL:236
837B  10 FB     BPL $8378                       A:10 X:00 Y:F0 P:25 SP:FA CYC:337 SL:236
8378  AD 02 20  LDA $2002 = FF                  A:10 X:00 Y:F0 P:25 SP:FA CYC:  5 SL:237
837B  10 FB     BPL $8378                       A:10 X:00 Y:F0 P:25 SP:FA CYC: 17 SL:237
8378  AD 02 20  LDA $2002 = FF                  A:10 X:00 Y:F0 P:25 SP:FA CYC: 26 SL:237
837B  10 FB     BPL $8378                       A:10 X:00 Y:F0 P:25 SP:FA CYC: 38 SL:237
8378  AD 02 20  LDA $2002 = FF                  A:10 X:00 Y:F0 P:25 SP:FA CYC: 47 SL:237
837B  10 FB     BPL $8378                       A:10 X:00 Y:F0 P:25 SP:FA CYC: 59 SL:237
8378  AD 02 20  LDA $2002 = FF                  A:10 X:00 Y:F0 P:25 SP:FA CYC: 68 SL:237
837B  10 FB     BPL $8378                       A:10 X:00 Y:F0 P:25 SP:FA CYC: 80 SL:237
8378  AD 02 20  LDA $2002 = FF                  A:10 X:00 Y:F0 P:25 SP:FA CYC: 89 SL:237
837B  10 FB     BPL $8378                       A:10 X:00 Y:F0 P:25 SP:FA CYC:101 SL:237
8378  AD 02 20  LDA $2002 = FF                  A:10 X:00 Y:F0 P:25 SP:FA CYC:110 SL:237
837B  10 FB     BPL $8378                       A:10 X:00 Y:F0 P:25 SP:FA CYC:122 SL:237
8378  AD 02 20  LDA $2002 = FF                  A:10 X:00 Y:F0 P:25 SP:FA CYC:131 SL:237
837B  10 FB     BPL $8378                       A:10 X:00 Y:F0 P:25 SP:FA CYC:143 SL:237
8378  AD 02 20  LDA $2002 = FF                  A:10 X:00 Y:F0 P:25 SP:FA CYC:152 SL:237
837B  10 FB     BPL $8378                       A:10 X:00 Y:F0 P:25 SP:FA CYC:164 SL:237
8378  AD 02 20  LDA $2002 = FF                  A:10 X:00 Y:F0 P:25 SP:FA CYC:173 SL:237
837B  10 FB     BPL $8378                       A:10 X:00 Y:F0 P:25 SP:FA CYC:185 SL:237
8378  AD 02 20  LDA $2002 = FF                  A:10 X:00 Y:F0 P:25 SP:FA CYC:194 SL:237
837B  10 FB     BPL $8378                       A:10 X:00 Y:F0 P:25 SP:FA CYC:206 SL:237
8378  AD 02 20  LDA $2002 = FF                  A:10 X:00 Y:F0 P:25 SP:FA CYC:215 SL:237
837B  10 FB     BPL $8378                       A:10 X:00 Y:F0 P:25 SP:FA CYC:227 SL:237
8378  AD 02 20  LDA $2002 = FF                  A:10 X:00 Y:F0 P:25 SP:FA CYC:236 SL:237
837B  10 FB     BPL $8378                       A:10 X:00 Y:F0 P:25 SP:FA CYC:248 SL:237
8378  AD 02 20  LDA $2002 = FF                  A:10 X:00 Y:F0 P:25 SP:FA CYC:257 SL:237
837B  10 FB     BPL $8378                       A:10 X:00 Y:F0 P:25 SP:FA CYC:269 SL:237
8378  AD 02 20  LDA $2002 = FF                  A:10 X:00 Y:F0 P:25 SP:FA CYC:278 SL:237
837B  10 FB     BPL $8378                       A:10 X:00 Y:F0 P:25 SP:FA CYC:290 SL:237
8378  AD 02 20  LDA $2002 = FF                  A:10 X:00 Y:F0 P:25 SP:FA CYC:299 SL:237
837B  10 FB     BPL $8378                       A:10 X:00 Y:F0 P:25 SP:FA CYC:311 SL:237
8378  AD 02 20  LDA $2002 = FF                  A:10 X:00 Y:F0 P:25 SP:FA CYC:320 SL:237
837B  10 FB     BPL $8378                       A:10 X:00 Y:F0 P:25 SP:FA CYC:332 SL:237
8378  AD 02 20  LDA $2002 = FF                  A:10 X:00 Y:F0 P:25 SP:FA CYC:  0 SL:238
837B  10 FB     BPL $8378                       A:10 X:00 Y:F0 P:25 SP:FA CYC: 12 SL:238
8378  AD 02 20  LDA $2002 = FF                  A:10 X:00 Y:F0 P:25 SP:FA CYC: 21 SL:238
837B  10 FB     BPL $8378                       A:10 X:00 Y:F0 P:25 SP:FA CYC: 33 SL:238
8378  AD 02 20  LDA $2002 = FF                  A:10 X:00 Y:F0 P:25 SP:FA CYC: 42 SL:238
837B  10 FB     BPL $8378                       A:10 X:00 Y:F0 P:25 SP:FA CYC: 54 SL:238
8378  AD 02 20  LDA $2002 = FF                  A:10 X:00 Y:F0 P:25 SP:FA CYC: 63 SL:238
837B  10 FB     BPL $8378                       A:10 X:00 Y:F0 P:25 SP:FA CYC: 75 SL:238
8378  AD 02 20  LDA $2002 = FF                  A:10 X:00 Y:F0 P:25 SP:FA CYC: 84 SL:238
837B  10 FB     BPL $8378                       A:10 X:00 Y:F0 P:25 SP:FA CYC: 96 SL:238
8378  AD 02 20  LDA $2002 = FF                  A:10 X:00 Y:F0 P:25 SP:FA CYC:105 SL:238
837B  10 FB     BPL $8378                       A:10 X:00 Y:F0 P:25 SP:FA CYC:117 SL:238
8378  AD 02 20  LDA $2002 = FF                  A:10 X:00 Y:F0 P:25 SP:FA CYC:126 SL:238
837B  10 FB     BPL $8378                       A:10 X:00 Y:F0 P:25 SP:FA CYC:138 SL:238
8378  AD 02 20  LDA $2002 = FF                  A:10 X:00 Y:F0 P:25 SP:FA CYC:147 SL:238
837B  10 FB     BPL $8378                       A:10 X:00 Y:F0 P:25 SP:FA CYC:159 SL:238
8378  AD 02 20  LDA $2002 = FF                  A:10 X:00 Y:F0 P:25 SP:FA CYC:168 SL:238
837B  10 FB     BPL $8378                       A:10 X:00 Y:F0 P:25 SP:FA CYC:180 SL:238
8378  AD 02 20  LDA $2002 = FF                  A:10 X:00 Y:F0 P:25 SP:FA CYC:189 SL:238
837B  10 FB     BPL $8378                       A:10 X:00 Y:F0 P:25 SP:FA CYC:201 SL:238
8378  AD 02 20  LDA $2002 = FF                  A:10 X:00 Y:F0 P:25 SP:FA CYC:210 SL:238
837B  10 FB     BPL $8378                       A:10 X:00 Y:F0 P:25 SP:FA CYC:222 SL:238
8378  AD 02 20  LDA $2002 = FF                  A:10 X:00 Y:F0 P:25 SP:FA CYC:231 SL:238
837B  10 FB     BPL $8378                       A:10 X:00 Y:F0 P:25 SP:FA CYC:243 SL:238
8378  AD 02 20  LDA $2002 = FF                  A:10 X:00 Y:F0 P:25 SP:FA CYC:252 SL:238
837B  10 FB     BPL $8378                       A:10 X:00 Y:F0 P:25 SP:FA CYC:264 SL:238
8378  AD 02 20  LDA $2002 = FF                  A:10 X:00 Y:F0 P:25 SP:FA CYC:273 SL:238
837B  10 FB     BPL $8378                       A:10 X:00 Y:F0 P:25 SP:FA CYC:285 SL:238
8378  AD 02 20  LDA $2002 = FF                  A:10 X:00 Y:F0 P:25 SP:FA CYC:294 SL:238
837B  10 FB     BPL $8378                       A:10 X:00 Y:F0 P:25 SP:FA CYC:306 SL:238
8378  AD 02 20  LDA $2002 = FF                  A:10 X:00 Y:F0 P:25 SP:FA CYC:315 SL:238
837B  10 FB     BPL $8378                       A:10 X:00 Y:F0 P:25 SP:FA CYC:327 SL:238
8378  AD 02 20  LDA $2002 = FF                  A:10 X:00 Y:F0 P:25 SP:FA CYC:336 SL:238
837B  10 FB     BPL $8378                       A:10 X:00 Y:F0 P:25 SP:FA CYC:  7 SL:239
8378  AD 02 20  LDA $2002 = FF                  A:10 X:00 Y:F0 P:25 SP:FA CYC: 16 SL:239
837B  10 FB     BPL $8378                       A:10 X:00 Y:F0 P:25 SP:FA CYC: 28 SL:239
8378  AD 02 20  LDA $2002 = FF                  A:10 X:00 Y:F0 P:25 SP:FA CYC: 37 SL:239
837B  10 FB     BPL $8378                       A:10 X:00 Y:F0 P:25 SP:FA CYC: 49 SL:239
8378  AD 02 20  LDA $2002 = FF                  A:10 X:00 Y:F0 P:25 SP:FA CYC: 58 SL:239
837B  10 FB     BPL $8378                       A:10 X:00 Y:F0 P:25 SP:FA CYC: 70 SL:239
8378  AD 02 20  LDA $2002 = FF                  A:10 X:00 Y:F0 P:25 SP:FA CYC: 79 SL:239
837B  10 FB     BPL $8378                       A:10 X:00 Y:F0 P:25 SP:FA CYC: 91 SL:239
8378  AD 02 20  LDA $2002 = FF                  A:10 X:00 Y:F0 P:25 SP:FA CYC:100 SL:239
837B  10 FB     BPL $8378                       A:10 X:00 Y:F0 P:25 SP:FA CYC:112 SL:239
8378  AD 02 20  LDA $2002 = FF                  A:10 X:00 Y:F0 P:25 SP:FA CYC:121 SL:239
837B  10 FB     BPL $8378                       A:10 X:00 Y:F0 P:25 SP:FA CYC:133 SL:239
8378  AD 02 20  LDA $2002 = FF                  A:10 X:00 Y:F0 P:25 SP:FA CYC:142 SL:239
837B  10 FB     BPL $8378                       A:10 X:00 Y:F0 P:25 SP:FA CYC:154 SL:239
8378  AD 02 20  LDA $2002 = FF                  A:10 X:00 Y:F0 P:25 SP:FA CYC:163 SL:239
837B  10 FB     BPL $8378                       A:10 X:00 Y:F0 P:25 SP:FA CYC:175 SL:239
8378  AD 02 20  LDA $2002 = FF                  A:10 X:00 Y:F0 P:25 SP:FA CYC:184 SL:239
837B  10 FB     BPL $8378                       A:10 X:00 Y:F0 P:25 SP:FA CYC:196 SL:239
8378  AD 02 20  LDA $2002 = FF                  A:10 X:00 Y:F0 P:25 SP:FA CYC:205 SL:239
837B  10 FB     BPL $8378                       A:10 X:00 Y:F0 P:25 SP:FA CYC:217 SL:239
8378  AD 02 20  LDA $2002 = FF                  A:10 X:00 Y:F0 P:25 SP:FA CYC:226 SL:239
837B  10 FB     BPL $8378                       A:10 X:00 Y:F0 P:25 SP:FA CYC:238 SL:239
8378  AD 02 20  LDA $2002 = FF                  A:10 X:00 Y:F0 P:25 SP:FA CYC:247 SL:239
837B  10 FB     BPL $8378                       A:10 X:00 Y:F0 P:25 SP:FA CYC:259 SL:239
8378  AD 02 20  LDA $2002 = FF                  A:10 X:00 Y:F0 P:25 SP:FA CYC:268 SL:239
837B  10 FB     BPL $8378                       A:10 X:00 Y:F0 P:25 SP:FA CYC:280 SL:239
8378  AD 02 20  LDA $2002 = FF                  A:10 X:00 Y:F0 P:25 SP:FA CYC:289 SL:239
837B  10 FB     BPL $8378                       A:10 X:00 Y:F0 P:25 SP:FA CYC:301 SL:239
8378  AD 02 20  LDA $2002 = FF                  A:10 X:00 Y:F0 P:25 SP:FA CYC:310 SL:239
837B  10 FB     BPL $8378                       A:10 X:00 Y:F0 P:25 SP:FA CYC:322 SL:239
8378  AD 02 20  LDA $2002 = FF                  A:10 X:00 Y:F0 P:25 SP:FA CYC:331 SL:239
837B  10 FB     BPL $8378                       A:10 X:00 Y:F0 P:25 SP:FA CYC:  2 SL:240
8378  AD 02 20  LDA $2002 = FF                  A:10 X:00 Y:F0 P:25 SP:FA CYC: 11 SL:240
837B  10 FB     BPL $8378                       A:10 X:00 Y:F0 P:25 SP:FA CYC: 23 SL:240
8378  AD 02 20  LDA $2002 = FF                  A:10 X:00 Y:F0 P:25 SP:FA CYC: 32 SL:240
837B  10 FB     BPL $8378                       A:10 X:00 Y:F0 P:25 SP:FA CYC: 44 SL:240
8378  AD 02 20  LDA $2002 = FF                  A:10 X:00 Y:F0 P:25 SP:FA CYC: 53 SL:240
837B  10 FB     BPL $8378                       A:10 X:00 Y:F0 P:25 SP:FA CYC: 65 SL:240
8378  AD 02 20  LDA $2002 = FF                  A:10 X:00 Y:F0 P:25 SP:FA CYC: 74 SL:240
837B  10 FB     BPL $8378                       A:10 X:00 Y:F0 P:25 SP:FA CYC: 86 SL:240
8378  AD 02 20  LDA $2002 = FF                  A:10 X:00 Y:F0 P:25 SP:FA CYC: 95 SL:240
837B  10 FB     BPL $8378                       A:10 X:00 Y:F0 P:25 SP:FA CYC:107 SL:240
8378  AD 02 20  LDA $2002 = FF                  A:10 X:00 Y:F0 P:25 SP:FA CYC:116 SL:240
837B  10 FB     BPL $8378                       A:10 X:00 Y:F0 P:25 SP:FA CYC:128 SL:240
8378  AD 02 20  LDA $2002 = FF                  A:10 X:00 Y:F0 P:25 SP:FA CYC:137 SL:240
837B  10 FB     BPL $8378                       A:10 X:00 Y:F0 P:25 SP:FA CYC:149 SL:240
8378  AD 02 20  LDA $2002 = FF                  A:10 X:00 Y:F0 P:25 SP:FA CYC:158 SL:240
837B  10 FB     BPL $8378                       A:10 X:00 Y:F0 P:25 SP:FA CYC:170 SL:240
8378  AD 02 20  LDA $2002 = FF                  A:10 X:00 Y:F0 P:25 SP:FA CYC:179 SL:240
837B  10 FB     BPL $8378                       A:10 X:00 Y:F0 P:25 SP:FA CYC:191 SL:240
8378  AD 02 20  LDA $2002 = FF                  A:10 X:00 Y:F0 P:25 SP:FA CYC:200 SL:240
837B  10 FB     BPL $8378                       A:10 X:00 Y:F0 P:25 SP:FA CYC:212 SL:240
8378  AD 02 20  LDA $2002 = FF                  A:10 X:00 Y:F0 P:25 SP:FA CYC:221 SL:240
837B  10 FB     BPL $8378                       A:10 X:00 Y:F0 P:25 SP:FA CYC:233 SL:240
8378  AD 02 20  LDA $2002 = FF                  A:10 X:00 Y:F0 P:25 SP:FA CYC:242 SL:240
837B  10 FB     BPL $8378                       A:10 X:00 Y:F0 P:25 SP:FA CYC:254 SL:240
8378  AD 02 20  LDA $2002 = FF                  A:10 X:00 Y:F0 P:25 SP:FA CYC:263 SL:240
837B  10 FB     BPL $8378                       A:10 X:00 Y:F0 P:25 SP:FA CYC:275 SL:240
8378  AD 02 20  LDA $2002 = FF                  A:10 X:00 Y:F0 P:25 SP:FA CYC:284 SL:240
837B  10 FB     BPL $8378                       A:10 X:00 Y:F0 P:25 SP:FA CYC:296 SL:240
8378  AD 02 20  LDA $2002 = FF                  A:10 X:00 Y:F0 P:25 SP:FA CYC:305 SL:240
837B  10 FB     BPL $8378                       A:10 X:00 Y:F0 P:25 SP:FA CYC:317 SL:240
8378  AD 02 20  LDA $2002 = FF                  A:10 X:00 Y:F0 P:25 SP:FA CYC:326 SL:240
837B  10 FB     BPL $8378                       A:10 X:00 Y:F0 P:25 SP:FA CYC:338 SL:240
