C649  78        SEI                             A:00 X:00 Y:00 P:24 SP:FD PPU:  0,  0 CYC:7
C64A  D8        CLD                             A:00 X:00 Y:00 P:24 SP:FD PPU:  6,  0 CYC:9
C64B  A9 10     LDA #$10                        A:00 X:00 Y:00 P:24 SP:FD PPU: 12,  0 CYC:11
C64D  8D 00 20  STA $2000 = FF                  A:10 X:00 Y:00 P:24 SP:FD PPU: 18,  0 CYC:13
C650  A2 FF     LDX #$FF                        A:10 X:00 Y:00 P:24 SP:FD PPU: 30,  0 CYC:17
C652  9A        TXS                             A:10 X:FF Y:00 P:A4 SP:FD PPU: 36,  0 CYC:19
C653  AD 02 20  LDA $2002 = FF                  A:10 X:FF Y:00 P:A4 SP:FF PPU: 42,  0 CYC:21
C656  29 80     AND #$80                        A:10 X:FF Y:00 P:24 SP:FF PPU: 54,  0 CYC:25
C658  F0 F9     BEQ $C653                       A:00 X:FF Y:00 P:26 SP:FF PPU: 60,  0 CYC:27
C653  AD 02 20  LDA $2002 = FF                  A:00 X:FF Y:00 P:26 SP:FF PPU: 69,  0 CYC:30
C656  29 80     AND #$80                        A:10 X:FF Y:00 P:24 SP:FF PPU: 81,  0 CYC:34
C658  F0 F9     BEQ $C653                       A:00 X:FF Y:00 P:26 SP:FF PPU: 87,  0 CYC:36
C653  AD 02 20  LDA $2002 = FF                  A:00 X:FF Y:00 P:26 SP:FF PPU: 96,  0 CYC:39
C656  29 80     AND #$80                        A:10 X:FF Y:00 P:24 SP:FF PPU:108,  0 CYC:43
C658  F0 F9     BEQ $C653                       A:00 X:FF Y:00 P:26 SP:FF PPU:114,  0 CYC:45
C653  AD 02 20  LDA $2002 = FF                  A:00 X:FF Y:00 P:26 SP:FF PPU:123,  0 CYC:48
C656  29 80     AND #$80                        A:10 X:FF Y:00 P:24 SP:FF PPU:135,  0 CYC:52
C658  F0 F9     BEQ $C653                       A:00 X:FF Y:00 P:26 SP:FF PPU:141,  0 CYC:54
C653  AD 02 20  LDA $2002 = FF                  A:00 X:FF Y:00 P:26 SP:FF PPU:150,  0 CYC:57
C656  29 80     AND #$80                        A:10 X:FF Y:00 P:24 SP:FF PPU:162,  0 CYC:61
C658  F0 F9     BEQ $C653                       A:00 X:FF Y:00 P:26 SP:FF PPU:168,  0 CYC:63
C653  AD 02 20  LDA $2002 = FF                  A:00 X:FF Y:00 P:26 SP:FF PPU:177,  0 CYC:66
C656  29 80     AND #$80                        A:10 X:FF Y:00 P:24 SP:FF PPU:189,  0 CYC:70
C658  F0 F9     BEQ $C653                       A:00 X:FF Y:00 P:26 SP:FF PPU:195,  0 CYC:72
C653  AD 02 20  LDA $2002 = FF                  A:00 X:FF Y:00 P:26 SP:FF PPU:204,  0 CYC:75
C656  29 80     AND #$80                        A:10 X:FF Y:00 P:24 SP:FF PPU:216,  0 CYC:79
C658  F0 F9     BEQ $C653                       A:00 X:FF Y:00 P:26 SP:FF PPU:222,  0 CYC:81
C653  AD 02 20  LDA $2002 = FF                  A:00 X:FF Y:00 P:26 SP:FF PPU:231,  0 CYC:84
C656  29 80     AND #$80                        A:10 X:FF Y:00 P:24 SP:FF PPU:243,  0 CYC:88
C658  F0 F9     BEQ $C653                       A:00 X:FF Y:00 P:26 SP:FF PPU:249,  0 CYC:90
C653  AD 02 20  LDA $2002 = FF                  A:00 X:FF Y:00 P:26 SP:FF PPU:258,  0 CYC:93
C656  29 80     AND #$80                        A:10 X:FF Y:00 P:24 SP:FF PPU:270,  0 CYC:97
C658  F0 F9     BEQ $C653                       A:00 X:FF Y:00 P:26 SP:FF PPU:276,  0 CYC:99
C653  AD 02 20  LDA $2002 = FF                  A:00 X:FF Y:00 P:26 SP:FF PPU:285,  0 CYC:102
C656  29 80     AND #$80                        A:10 X:FF Y:00 P:24 SP:FF PPU:297,  0 CYC:106
C658  F0 F9     BEQ $C653                       A:00 X:FF Y:00 P:26 SP:FF PPU:303,  0 CYC:108
C653  AD 02 20  LDA $2002 = FF                  A:00 X:FF Y:00 P:26 SP:FF PPU:312,  0 CYC:111
C656  29 80     AND #$80                        A:10 X:FF Y:00 P:24 SP:FF PPU:324,  0 CYC:115
C658  F0 F9     BEQ $C653                       A:00 X:FF Y:00 P:26 SP:FF PPU:330,  0 CYC:117
C653  AD 02 20  LDA $2002 = FF                  A:00 X:FF Y:00 P:26 SP:FF PPU:339,  0 CYC:120
C656  29 80     AND #$80                        A:10 X:FF Y:00 P:24 SP:FF PPU: 10,  1 CYC:124
C658  F0 F9     BEQ $C653                       A:00 X:FF Y:00 P:26 SP:FF PPU: 16,  1 CYC:126
C653  AD 02 20  LDA $2002 = FF                  A:00 X:FF Y:00 P:26 SP:FF PPU: 25,  1 CYC:129
C656  29 80     AND #$80                        A:10 X:FF Y:00 P:24 SP:FF PPU: 37,  1 CYC:133
C658  F0 F9     BEQ $C653                       A:00 X:FF Y:00 P:26 SP:FF PPU: 43,  1 CYC:135
C653  AD 02 20  LDA $2002 = FF                  A:00 X:FF Y:00 P:26 SP:FF PPU: 52,  1 CYC:138
C656  29 80     AND #$80                        A:10 X:FF Y:00 P:24 SP:FF PPU: 64,  1 CYC:142
C658  F0 F9     BEQ $C653                       A:00 X:FF Y:00 P:26 SP:FF PPU: 70,  1 CYC:144
C653  AD 02 20  LDA $2002 = FF                  A:00 X:FF Y:00 P:26 SP:FF PPU: 79,  1 CYC:147
C656  29 80     AND #$80                        A:10 X:FF Y:00 P:24 SP:FF PPU: 91,  1 CYC:151
C658  F0 F9     BEQ $C653                       A:00 X:FF Y:00 P:26 SP:FF PPU: 97,  1 CYC:153
C653  AD 02 20  LDA $2002 = FF                  A:00 X:FF Y:00 P:26 SP:FF PPU:106,  1 CYC:156
C656  29 80     AND #$80                        A:10 X:FF Y:00 P:24 SP:FF PPU:118,  1 CYC:160
C658  F0 F9     BEQ $C653                       A:00 X:FF Y:00 P:26 SP:FF PPU:124,  1 CYC:162
C653  AD 02 20  LDA $2002 = FF                  A:00 X:FF Y:00 P:26 SP:FF PPU:133,  1 CYC:165
C656  29 80     AND #$80                        A:10 X:FF Y:00 P:24 SP:FF PPU:145,  1 CYC:169
C658  F0 F9     BEQ $C653                       A:00 X:FF Y:00 P:26 SP:FF PPU:151,  1 CYC:171
C653  AD 02 20  LDA $2002 = FF                  A:00 X:FF Y:00 P:26 SP:FF PPU:160,  1 CYC:174
C656  29 80     AND #$80                        A:10 X:FF Y:00 P:24 SP:FF PPU:172,  1 CYC:178
C658  F0 F9     BEQ $C653                       A:00 X:FF Y:00 P:26 SP:FF PPU:178,  1 CYC:180
C653  AD 02 20  LDA $2002 = FF                  A:00 X:FF Y:00 P:26 SP:FF PPU:187,  1 CYC:183
C656  29 80     AND #$80                        A:10 X:FF Y:00 P:24 SP:FF PPU:199,  1 CYC:187
C658  F0 F9     BEQ $C653                       A:00 X:FF Y:00 P:26 SP:FF PPU:205,  1 CYC:189
C653  AD 02 20  LDA $2002 = FF                  A:00 X:FF Y:00 P:26 SP:FF PPU:214,  1 CYC:192
C656  29 80     AND #$80                        A:10 X:FF Y:00 P:24 SP:FF PPU:226,  1 CYC:196
C658  F0 F9     BEQ $C653                       A:00 X:FF Y:00 P:26 SP:FF PPU:232,  1 CYC:198
C653  AD 02 20  LDA $2002 = FF                  A:00 X:FF Y:00 P:26 SP:FF PPU:241,  1 CYC:201
C656  29 80     AND #$80                        A:10 X:FF Y:00 P:24 SP:FF PPU:253,  1 CYC:205
C658  F0 F9     BEQ $C653                       A:00 X:FF Y:00 P:26 SP:FF PPU:259,  1 CYC:207
C653  AD 02 20  LDA $2002 = FF                  A:00 X:FF Y:00 P:26 SP:FF PPU:268,  1 CYC:210
C656  29 80     AND #$80                        A:10 X:FF Y:00 P:24 SP:FF PPU:280,  1 CYC:214
C658  F0 F9     BEQ $C653                       A:00 X:FF Y:00 P:26 SP:FF PPU:286,  1 CYC:216
C653  AD 02 20  LDA $2002 = FF                  A:00 X:FF Y:00 P:26 SP:FF PPU:295,  1 CYC:219
C656  29 80     AND #$80                        A:10 X:FF Y:00 P:24 SP:FF PPU:307,  1 CYC:223
C658  F0 F9     BEQ $C653                       A:00 X:FF Y:00 P:26 SP:FF PPU:313,  1 CYC:225
C653  AD 02 20  LDA $2002 = FF                  A:00 X:FF Y:00 P:26 SP:FF PPU:322,  1 CYC:228
C656  29 80     AND #$80                        A:10 X:FF Y:00 P:24 SP:FF PPU:334,  1 CYC:232
C658  F0 F9     BEQ $C653                       A:00 X:FF Y:00 P:26 SP:FF PPU:340,  1 CYC:234
C653  AD 02 20  LDA $2002 = FF                  A:00 X:FF Y:00 P:26 SP:FF PPU:  8,  2 CYC:237
C656  29 80     AND #$80                        A:10 X:FF Y:00 P:24 SP:FF PPU: 20,  2 CYC:241
C658  F0 F9     BEQ $C653                       A:00 X:FF Y:00 P:26 SP:FF PPU: 26,  2 CYC:243
C653  AD 02 20  LDA $2002 = FF                  A:00 X:FF Y:00 P:26 SP:FF PPU: 35,  2 CYC:246
C656  29 80     AND #$80                        A:10 X:FF Y:00 P:24 SP:FF PPU: 47,  2 CYC:250
C658  F0 F9     BEQ $C653                       A:00 X:FF Y:00 P:26 SP:FF PPU: 53,  2 CYC:252
C653  AD 02 20  LDA $2002 = FF                  A:00 X:FF Y:00 P:26 SP:FF PPU: 62,  2 CYC:255
C656  29 80     AND #$80                        A:10 X:FF Y:00 P:24 SP:FF PPU: 74,  2 CYC:259
C658  F0 F9     BEQ $C653                       A:00 X:FF Y:00 P:26 SP:FF PPU: 80,  2 CYC:261
C653  AD 02 20  LDA $2002 = FF                  A:00 X:FF Y:00 P:26 SP:FF PPU: 89,  2 CYC:264
C656  29 80     AND #$80                        A:10 X:FF Y:00 P:24 SP:FF PPU:101,  2 CYC:268
C658  F0 F9     BEQ $C653                       A:00 X:FF Y:00 P:26 SP:FF PPU:107,  2 CYC:270
C653  AD 02 20  LDA $2002 = FF                  A:00 X:FF Y:00 P:26 SP:FF PPU:116,  2 CYC:273
C656  29 80     AND #$80                        A:10 X:FF Y:00 P:24 SP:FF PPU:128,  2 CYC:277
C658  F0 F9     BEQ $C653                       A:00 X:FF Y:00 P:26 SP:FF PPU:134,  2 CYC:279
C653  AD 02 20  LDA $2002 = FF                  A:00 X:FF Y:00 P:26 SP:FF PPU:143,  2 CYC:282
C656  29 80     AND #$80                        A:10 X:FF Y:00 P:24 SP:FF PPU:155,  2 CYC:286
C658  F0 F9     BEQ $C653                       A:00 X:FF Y:00 P:26 SP:FF PPU:161,  2 CYC:288
C653  AD 02 20  LDA $2002 = FF                  A:00 X:FF Y:00 P:26 SP:FF PPU:170,  2 CYC:291
C656  29 80     AND #$80                        A:10 X:FF Y:00 P:24 SP:FF PPU:182,  2 CYC:295
C658  F0 F9     BEQ $C653                       A:00 X:FF Y:00 P:26 SP:FF PPU:188,  2 CYC:297
C653  AD 02 20  LDA $2002 = FF                  A:00 X:FF Y:00 P:26 SP:FF PPU:197,  2 CYC:300
C656  29 80     AND #$80                        A:10 X:FF Y:00 P:24 SP:FF PPU:209,  2 CYC:304
C658  F0 F9     BEQ $C653                       A:00 X:FF Y:00 P:26 SP:FF PPU:215,  2 CYC:306
C653  AD 02 20  LDA $2002 = FF                  A:00 X:FF Y:00 P:26 SP:FF PPU:224,  2 CYC:309
C656  29 80     AND #$80                        A:10 X:FF Y:00 P:24 SP:FF PPU:236,  2 CYC:313
C658  F0 F9     BEQ $C653                       A:00 X:FF Y:00 P:26 SP:FF PPU:242,  2 CYC:315
C653  AD 02 20  LDA $2002 = FF                  A:00 X:FF Y:00 P:26 SP:FF PPU:251,  2 CYC:318
C656  29 80     AND #$80                        A:10 X:FF Y:00 P:24 SP:FF PPU:263,  2 CYC:322
C658  F0 F9     BEQ $C653                       A:00 X:FF Y:00 P:26 SP:FF PPU:269,  2 CYC:324
C653  AD 02 20  LDA $2002 = FF                  A:00 X:FF Y:00 P:26 SP:FF PPU:278,  2 CYC:327
C656  29 80     AND #$80                        A:10 X:FF Y:00 P:24 SP:FF PPU:290,  2 CYC:331
C658  F0 F9     BEQ $C653                       A:00 X:FF Y:00 P:26 SP:FF PPU:296,  2 CYC:333
C653  AD 02 20  LDA $2002 = FF                  A:00 X:FF Y:00 P:26 SP:FF PPU:305,  2 CYC:336
C656  29 80     AND #$80                        A:10 X:FF Y:00 P:24 SP:FF PPU:317,  2 CYC:340
C658  F0 F9     BEQ $C653                       A:00 X:FF Y:00 P:26 SP:FF PPU:323,  2 CYC:342
C653  AD 02 20  LDA $2002 = FF                  A:00 X:FF Y:00 P:26 SP:FF PPU:332,  2 CYC:345
C656  29 80     AND #$80                        A:10 X:FF Y:00 P:24 SP:FF PPU:  3,  3 CYC:349
C658  F0 F9     BEQ $C653                       A:00 X:FF Y:00 P:26 SP:FF PPU:  9,  3 CYC:351
C653  AD 02 20  LDA $2002 = FF                  A:00 X:FF Y:00 P:26 SP:FF PPU: 18,  3 CYC:354
C656  29 80     AND #$80                        A:10 X:FF Y:00 P:24 SP:FF PPU: 30,  3 CYC:358
C658  F0 F9     BEQ $C653                       A:00 X:FF Y:00 P:26 SP:FF PPU: 36,  3 CYC:360
C653  AD 02 20  LDA $2002 = FF                  A:00 X:FF Y:00 P:26 SP:FF PPU: 45,  3 CYC:363
C656  29 80     AND #$80                        A:10 X:FF Y:00 P:24 SP:FF PPU: 57,  3 CYC:367
C658  F0 F9     BEQ $C653                       A:00 X:FF Y:00 P:26 SP:FF PPU: 63,  3 CYC:369
C653  AD 02 20  LDA $2002 = FF                  A:00 X:FF Y:00 P:26 SP:FF PPU: 72,  3 CYC:372
C656  29 80     AND #$80                        A:10 X:FF Y:00 P:24 SP:FF PPU: 84,  3 CYC:376
C658  F0 F9     BEQ $C653                       A:00 X:FF Y:00 P:26 SP:FF PPU: 90,  3 CYC:378
C653  AD 02 20  LDA $2002 = FF                  A:00 X:FF Y:00 P:26 SP:FF PPU: 99,  3 CYC:381
C656  29 80     AND #$80                        A:10 X:FF Y:00 P:24 SP:FF PPU:111,  3 CYC:385
C658  F0 F9     BEQ $C653                       A:00 X:FF Y:00 P:26 SP:FF PPU:117,  3 CYC:387
C653  AD 02 20  LDA $2002 = FF                  A:00 X:FF Y:00 P:26 SP:FF PPU:126,  3 CYC:390
C656  29 80     AND #$80                        A:10 X:FF Y:00 P:24 SP:FF PPU:138,  3 CYC:394
C658  F0 F9     BEQ $C653                       A:00 X:FF Y:00 P:26 SP:FF PPU:144,  3 CYC:396
C653  AD 02 20  LDA $2002 = FF                  A:00 X:FF Y:00 P:26 SP:FF PPU:153,  3 CYC:399
C656  29 80     AND #$80                        A:10 X:FF Y:00 P:24 SP:FF PPU:165,  3 CYC:403
C658  F0 F9     BEQ $C653                       A:00 X:FF Y:00 P:26 SP:FF PPU:171,  3 CYC:405
C653  AD 02 20  LDA $2002 = FF                  A:00 X:FF Y:00 P:26 SP:FF PPU:180,  3 CYC:408
C656  29 80     AND #$80                        A:10 X:FF Y:00 P:24 SP:FF PPU:192,  3 CYC:412
C658  F0 F9     BEQ $C653                       A:00 X:FF Y:00 P:26 SP:FF PPU:198,  3 CYC:414
C653  AD 02 20  LDA $2002 = FF                  A:00 X:FF Y:00 P:26 SP:FF PPU:207,  3 CYC:417
C656  29 80     AND #$80                        A:10 X:FF Y:00 P:24 SP:FF PPU:219,  3 CYC:421
C658  F0 F9     BEQ $C653                       A:00 X:FF Y:00 P:26 SP:FF PPU:225,  3 CYC:423
C653  AD 02 20  LDA $2002 = FF                  A:00 X:FF Y:00 P:26 SP:FF PPU:234,  3 CYC:426
C656  29 80     AND #$80                        A:10 X:FF Y:00 P:24 SP:FF PPU:246,  3 CYC:430
C658  F0 F9     BEQ $C653                       A:00 X:FF Y:00 P:26 SP:FF PPU:252,  3 CYC:432
C653  AD 02 20  LDA $2002 = FF                  A:00 X:FF Y:00 P:26 SP:FF PPU:261,  3 CYC:435
C656  29 80     AND #$80                        A:10 X:FF Y:00 P:24 SP:FF PPU:273,  3 CYC:439
C658  F0 F9     BEQ $C653                       A:00 X:FF Y:00 P:26 SP:FF PPU:279,  3 CYC:441
C653  AD 02 20  LDA $2002 = FF                  A:00 X:FF Y:00 P:26 SP:FF PPU:288,  3 CYC:444
C656  29 80     AND #$80                        A:10 X:FF Y:00 P:24 SP:FF PPU:300,  3 CYC:448
C658  F0 F9     BEQ $C653                       A:00 X:FF Y:00 P:26 SP:FF PPU:306,  3 CYC:450
C653  AD 02 20  LDA $2002 = FF                  A:00 X:FF Y:00 P:26 SP:FF PPU:315,  3 CYC:453
C656  29 80     AND #$80                        A:10 X:FF Y:00 P:24 SP:FF PPU:327,  3 CYC:457
C658  F0 F9     BEQ $C653                       A:00 X:FF Y:00 P:26 SP:FF PPU:333,  3 CYC:459
C653  AD 02 20  LDA $2002 = FF                  A:00 X:FF Y:00 P:26 SP:FF PPU:  1,  4 CYC:462
C656  29 80     AND #$80                        A:10 X:FF Y:00 P:24 SP:FF PPU: 13,  4 CYC:466
C658  F0 F9     BEQ $C653                       A:00 X:FF Y:00 P:26 SP:FF PPU: 19,  4 CYC:468
C653  AD 02 20  LDA $2002 = FF                  A:00 X:FF Y:00 P:26 SP:FF PPU: 28,  4 CYC:471
C656  29 80     AND #$80                        A:10 X:FF Y:00 P:24 SP:FF PPU: 40,  4 CYC:475
C658  F0 F9     BEQ $C653                       A:00 X:FF Y:00 P:26 SP:FF PPU: 46,  4 CYC:477
C653  AD 02 20  LDA $2002 = FF                  A:00 X:FF Y:00 P:26 SP:FF PPU: 55,  4 CYC:480
C656  29 80     AND #$80                        A:10 X:FF Y:00 P:24 SP:FF PPU: 67,  4 CYC:484
C658  F0 F9     BEQ $C653                       A:00 X:FF Y:00 P:26 SP:FF PPU: 73,  4 CYC:486
C653  AD 02 20  LDA $2002 = FF                  A:00 X:FF Y:00 P:26 SP:FF PPU: 82,  4 CYC:489
C656  29 80     AND #$80                        A:10 X:FF Y:00 P:24 SP:FF PPU: 94,  4 CYC:493
C658  F0 F9     BEQ $C653                       A:00 X:FF Y:00 P:26 SP:FF PPU:100,  4 CYC:495
C653  AD 02 20  LDA $2002 = FF                  A:00 X:FF Y:00 P:26 SP:FF PPU:109,  4 CYC:498
C656  29 80     AND #$80                        A:10 X:FF Y:00 P:24 SP:FF PPU:121,  4 CYC:502
C658  F0 F9     BEQ $C653                       A:00 X:FF Y:00 P:26 SP:FF PPU:127,  4 CYC:504
C653  AD 02 20  LDA $2002 = FF                  A:00 X:FF Y:00 P:26 SP:FF PPU:136,  4 CYC:507
C656  29 80     AND #$80                        A:10 X:FF Y:00 P:24 SP:FF PPU:148,  4 CYC:511
C658  F0 F9     BEQ $C653                       A:00 X:FF Y:00 P:26 SP:FF PPU:154,  4 CYC:513
C653  AD 02 20  LDA $2002 = FF                  A:00 X:FF Y:00 P:26 SP:FF PPU:163,  4 CYC:516
C656  29 80     AND #$80                        A:10 X:FF Y:00 P:24 SP:FF PPU:175,  4 CYC:520
C658  F0 F9     BEQ $C653                       A:00 X:FF Y:00 P:26 SP:FF PPU:181,  4 CYC:522
C653  AD 02 20  LDA $2002 = FF                  A:00 X:FF Y:00 P:26 SP:FF PPU:190,  4 CYC:525
C656  29 80     AND #$80                        A:10 X:FF Y:00 P:24 SP:FF PPU:202,  4 CYC:529
C658  F0 F9     BEQ $C653                       A:00 X:FF Y:00 P:26 SP:FF PPU:208,  4 CYC:531
C653  AD 02 20  LDA $2002 = FF                  A:00 X:FF Y:00 P:26 SP:FF PPU:217,  4 CYC:534
C656  29 80     AND #$80                        A:10 X:FF Y:00 P:24 SP:FF PPU:229,  4 CYC:538
C658  F0 F9     BEQ $C653                       A:00 X:FF Y:00 P:26 SP:FF PPU:235,  4 CYC:540
C653  AD 02 20  LDA $2002 = FF                  A:00 X:FF Y:00 P:26 SP:FF PPU:244,  4 CYC:543
C656  29 80     AND #$80                        A:10 X:FF Y:00 P:24 SP:FF PPU:256,  4 CYC:547
C658  F0 F9     BEQ $C653                       A:00 X:FF Y:00 P:26 SP:FF PPU:262,  4 CYC:549
C653  AD 02 20  LDA $2002 = FF                  A:00 X:FF Y:00 P:26 SP:FF PPU:271,  4 CYC:552
C656  29 80     AND #$80                        A:10 X:FF Y:00 P:24 SP:FF PPU:283,  4 CYC:556
C658  F0 F9     BEQ $C653                       A:00 X:FF Y:00 P:26 SP:FF PPU:289,  4 CYC:558
C653  AD 02 20  LDA $2002 = FF                  A:00 X:FF Y:00 P:26 SP:FF PPU:298,  4 CYC:561
C656  29 80     AND #$80                        A:10 X:FF Y:00 P:24 SP:FF PPU:310,  4 CYC:565
C658  F0 F9     BEQ $C653                       A:00 X:FF Y:00 P:26 SP:FF PPU:316,  4 CYC:567
C653  AD 02 20  LDA $2002 = FF                  A:00 X:FF Y:00 P:26 SP:FF PPU:325,  4 CYC:570
C656  29 80     AND #$80                        A:10 X:FF Y:00 P:24 SP:FF PPU:337,  4 CYC:574
C658  F0 F9     BEQ $C653                       A:00 X:FF Y:00 P:26 SP:FF PPU:  2,  5 CYC:576
C653  AD 02 20  LDA $2002 = FF                  A:00 X:FF Y:00 P:26 SP:FF PPU: 11,  5 CYC:579
C656  29 80     AND #$80                        A:10 X:FF Y:00 P:24 SP:FF PPU: 23,  5 CYC:583
C658  F0 F9     BEQ $C653                       A:00 X:FF Y:00 P:26 SP:FF PPU: 29,  5 CYC:585
C653  AD 02 20  LDA $2002 = FF                  A:00 X:FF Y:00 P:26 SP:FF PPU: 38,  5 CYC:588
C656  29 80     AND #$80                        A:10 X:FF Y:00 P:24 SP:FF PPU: 50,  5 CYC:592
C658  F0 F9     BEQ $C653                       A:00 X:FF Y:00 P:26 SP:FF PPU: 56,  5 CYC:594
C653  AD 02 20  LDA $2002 = FF                  A:00 X:FF Y:00 P:26 SP:FF PPU: 65,  5 CYC:597
C656  29 80     AND #$80                        A:10 X:FF Y:00 P:24 SP:FF PPU: 77,  5 CYC:601
C658  F0 F9     BEQ $C653                       A:00 X:FF Y:00 P:26 SP:FF PPU: 83,  5 CYC:603
C653  AD 02 20  LDA $2002 = FF                  A:00 X:FF Y:00 P:26 SP:FF PPU: 92,  5 CYC:606
C656  29 80     AND #$80                        A:10 X:FF Y:00 P:24 SP:FF PPU:104,  5 CYC:610
C658  F0 F9     BEQ $C653                       A:00 X:FF Y:00 P:26 SP:FF PPU:110,  5 CYC:612
C653  AD 02 20  LDA $2002 = FF                  A:00 X:FF Y:00 P:26 SP:FF PPU:119,  5 CYC:615
C656  29 80     AND #$80                        A:10 X:FF Y:00 P:24 SP:FF PPU:131,  5 CYC:619
C658  F0 F9     BEQ $C653                       A:00 X:FF Y:00 P:26 SP:FF PPU:137,  5 CYC:621
C653  AD 02 20  LDA $2002 = FF                  A:00 X:FF Y:00 P:26 SP:FF PPU:146,  5 CYC:624
C656  29 80     AND #$80                        A:10 X:FF Y:00 P:24 SP:FF PPU:158,  5 CYC:628
C658  F0 F9     BEQ $C653                       A:00 X:FF Y:00 P:26 SP:FF PPU:164,  5 CYC:630
C653  AD 02 20  LDA $2002 = FF                  A:00 X:FF Y:00 P:26 SP:FF PPU:173,  5 CYC:633
C656  29 80     AND #$80                        A:10 X:FF Y:00 P:24 SP:FF PPU:185,  5 CYC:637
C658  F0 F9     BEQ $C653                       A:00 X:FF Y:00 P:26 SP:FF PPU:191,  5 CYC:639
C653  AD 02 20  LDA $2002 = FF                  A:00 X:FF Y:00 P:26 SP:FF PPU:200,  5 CYC:642
C656  29 80     AND #$80                        A:10 X:FF Y:00 P:24 SP:FF PPU:212,  5 CYC:646
C658  F0 F9     BEQ $C653                       A:00 X:FF Y:00 P:26 SP:FF PPU:218,  5 CYC:648
C653  AD 02 20  LDA $2002 = FF                  A:00 X:FF Y:00 P:26 SP:FF PPU:227,  5 CYC:651
C656  29 80     AND #$80                        A:10 X:FF Y:00 P:24 SP:FF PPU:239,  5 CYC:655
C658  F0 F9     BEQ $C653                       A:00 X:FF Y:00 P:26 SP:FF PPU:245,  5 CYC:657
C653  AD 02 20  LDA $2002 = FF                  A:00 X:FF Y:00 P:26 SP:FF PPU:254,  5 CYC:660
C656  29 80     AND #$80                        A:10 X:FF Y:00 P:24 SP:FF PPU:266,  5 CYC:664
C658  F0 F9     BEQ $C653                       A:00 X:FF Y:00 P:26 SP:FF PPU:272,  5 CYC:666
C653  AD 02 20  LDA $2002 = FF                  A:00 X:FF Y:00 P:26 SP:FF PPU:281,  5 CYC:669
C656  29 80     AND #$80                        A:10 X:FF Y:00 P:24 SP:FF PPU:293,  5 CYC:673
C658  F0 F9     BEQ $C653                       A:00 X:FF Y:00 P:26 SP:FF PPU:299,  5 CYC:675
C653  AD 02 20  LDA $2002 = FF                  A:00 X:FF Y:00 P:26 SP:FF PPU:308,  5 CYC:678
C656  29 80     AND #$80                        A:10 X:FF Y:00 P:24 SP:FF PPU:320,  5 CYC:682
C658  F0 F9     BEQ $C653                       A:00 X:FF Y:00 P:26 SP:FF PPU:326,  5 CYC:684
C653  AD 02 20  LDA $2002 = FF                  A:00 X:FF Y:00 P:26 SP:FF PPU:335,  5 CYC:687
C656  29 80     AND #$80                        A:10 X:FF Y:00 P:24 SP:FF PPU:  6,  6 CYC:691
C658  F0 F9     BEQ $C653                       A:00 X:FF Y:00 P:26 SP:FF PPU: 12,  6 CYC:693
C653  AD 02 20  LDA $2002 = FF                  A:00 X:FF Y:00 P:26 SP:FF PPU: 21,  6 CYC:696
C656  29 80     AND #$80                        A:10 X:FF Y:00 P:24 SP:FF PPU: 33,  6 CYC:700
C658  F0 F9     BEQ $C653                       A:00 X:FF Y:00 P:26 SP:FF PPU: 39,  6 CYC:702
C653  AD 02 20  LDA $2002 = FF                  A:00 X:FF Y:00 P:26 SP:FF PPU: 48,  6 CYC:705
C656  29 80     AND #$80                        A:10 X:FF Y:00 P:24 SP:FF PPU: 60,  6 CYC:709
C658  F0 F9     BEQ $C653                       A:00 X:FF Y:00 P:26 SP:FF PPU: 66,  6 CYC:711
C653  AD 02 20  LDA $2002 = FF                  A:00 X:FF Y:00 P:26 SP:FF PPU: 75,  6 CYC:714
C656  29 80     AND #$80                        A:10 X:FF Y:00 P:24 SP:FF PPU: 87,  6 CYC:718
C658  F0 F9     BEQ $C653                       A:00 X:FF Y:00 P:26 SP:FF PPU: 93,  6 CYC:720
C653  AD 02 20  LDA $2002 = FF                  A:00 X:FF Y:00 P:26 SP:FF PPU:102,  6 CYC:723
C656  29 80     AND #$80                        A:10 X:FF Y:00 P:24 SP:FF PPU:114,  6 CYC:727
C658  F0 F9     BEQ $C653                       A:00 X:FF Y:00 P:26 SP:FF PPU:120,  6 CYC:729
C653  AD 02 20  LDA $2002 = FF                  A:00 X:FF Y:00 P:26 SP:FF PPU:129,  6 CYC:732
C656  29 80     AND #$80                        A:10 X:FF Y:00 P:24 SP:FF PPU:141,  6 CYC:736
C658  F0 F9     BEQ $C653                       A:00 X:FF Y:00 P:26 SP:FF PPU:147,  6 CYC:738
C653  AD 02 20  LDA $2002 = FF                  A:00 X:FF Y:00 P:26 SP:FF PPU:156,  6 CYC:741
C656  29 80     AND #$80                        A:10 X:FF Y:00 P:24 SP:FF PPU:168,  6 CYC:745
C658  F0 F9     BEQ $C653                       A:00 X:FF Y:00 P:26 SP:FF PPU:174,  6 CYC:747
C653  AD 02 20  LDA $2002 = FF                  A:00 X:FF Y:00 P:26 SP:FF PPU:183,  6 CYC:750
C656  29 80     AND #$80                        A:10 X:FF Y:00 P:24 SP:FF PPU:195,  6 CYC:754
C658  F0 F9     BEQ $C653                       A:00 X:FF Y:00 P:26 SP:FF PPU:201,  6 CYC:756
C653  AD 02 20  LDA $2002 = FF                  A:00 X:FF Y:00 P:26 SP:FF PPU:210,  6 CYC:759
C656  29 80     AND #$80                        A:10 X:FF Y:00 P:24 SP:FF PPU:222,  6 CYC:763
C658  F0 F9     BEQ $C653                       A:00 X:FF Y:00 P:26 SP:FF PPU:228,  6 CYC:765
C653  AD 02 20  LDA $2002 = FF                  A:00 X:FF Y:00 P:26 SP:FF PPU:237,  6 CYC:768
C656  29 80     AND #$80                        A:10 X:FF Y:00 P:24 SP:FF PPU:249,  6 CYC:772
C658  F0 F9     BEQ $C653                       A:00 X:FF Y:00 P:26 SP:FF PPU:255,  6 CYC:774
C653  AD 02 20  LDA $2002 = FF                  A:00 X:FF Y:00 P:26 SP:FF PPU:264,  6 CYC:777
C656  29 80     AND #$80                        A:10 X:FF Y:00 P:24 SP:FF PPU:276,  6 CYC:781
C658  F0 F9     BEQ $C653                       A:00 X:FF Y:00 P:26 SP:FF PPU:282,  6 CYC:783
C653  AD 02 20  LDA $2002 = FF                  A:00 X:FF Y:00 P:26 SP:FF PPU:291,  6 CYC:786
C656  29 80     AND #$80                        A:10 X:FF Y:00 P:24 SP:FF PPU:303,  6 CYC:790
C658  F0 F9     BEQ $C653                       A:00 X:FF Y:00 P:26 SP:FF PPU:309,  6 CYC:792
C653  AD 02 20  LDA $2002 = FF                  A:00 X:FF Y:00 P:26 SP:FF PPU:318,  6 CYC:795
C656  29 80     AND #$80                        A:10 X:FF Y:00 P:24 SP:FF PPU:330,  6 CYC:799
C658  F0 F9     BEQ $C653                       A:00 X:FF Y:00 P:26 SP:FF PPU:336,  6 CYC:801
C653  AD 02 20  LDA $2002 = FF                  A:00 X:FF Y:00 P:26 SP:FF PPU:  4,  7 CYC:804
C656  29 80     AND #$80                        A:10 X:FF Y:00 P:24 SP:FF PPU: 16,  7 CYC:808
C658  F0 F9     BEQ $C653                       A:00 X:FF Y:00 P:26 SP:FF PPU: 22,  7 CYC:810
C653  AD 02 20  LDA $2002 = FF                  A:00 X:FF Y:00 P:26 SP:FF PPU: 31,  7 CYC:813
C656  29 80     AND #$80                        A:10 X:FF Y:00 P:24 SP:FF PPU: 43,  7 CYC:817
C658  F0 F9     BEQ $C653                       A:00 X:FF Y:00 P:26 SP:FF PPU: 49,  7 CYC:819
C653  AD 02 20  LDA $2002 = FF                  A:00 X:FF Y:00 P:26 SP:FF PPU: 58,  7 CYC:822
C656  29 80     AND #$80                        A:10 X:FF Y:00 P:24 SP:FF PPU: 70,  7 CYC:826
C658  F0 F9     BEQ $C653                       A:00 X:FF Y:00 P:26 SP:FF PPU: 76,  7 CYC:828
C653  AD 02 20  LDA $2002 = FF                  A:00 X:FF Y:00 P:26 SP:FF PPU: 85,  7 CYC:831
C656  29 80     AND #$80                        A:10 X:FF Y:00 P:24 SP:FF PPU: 97,  7 CYC:835
C658  F0 F9     BEQ $C653                       A:00 X:FF Y:00 P:26 SP:FF PPU:103,  7 CYC:837
C653  AD 02 20  LDA $2002 = FF                  A:00 X:FF Y:00 P:26 SP:FF PPU:112,  7 CYC:840
C656  29 80     AND #$80                        A:10 X:FF Y:00 P:24 SP:FF PPU:124,  7 CYC:844
C658  F0 F9     BEQ $C653                       A:00 X:FF Y:00 P:26 SP:FF PPU:130,  7 CYC:846
C653  AD 02 20  LDA $2002 = FF                  A:00 X:FF Y:00 P:26 SP:FF PPU:139,  7 CYC:849
C656  29 80     AND #$80                        A:10 X:FF Y:00 P:24 SP:FF PPU:151,  7 CYC:853
C658  F0 F9     BEQ $C653                       A:00 X:FF Y:00 P:26 SP:FF PPU:157,  7 CYC:855
C653  AD 02 20  LDA $2002 = FF                  A:00 X:FF Y:00 P:26 SP:FF PPU:166,  7 CYC:858
C656  29 80     AND #$80                        A:10 X:FF Y:00 P:24 SP:FF PPU:178,  7 CYC:862
C658  F0 F9     BEQ $C653                       A:00 X:FF Y:00 P:26 SP:FF PPU:184,  7 CYC:864
C653  AD 02 20  LDA $2002 = FF                  A:00 X:FF Y:00 P:26 SP:FF PPU:193,  7 CYC:867
C656  29 80     AND #$80                        A:10 X:FF Y:00 P:24 SP:FF PPU:205,  7 CYC:871
C658  F0 F9     BEQ $C653                       A:00 X:FF Y:00 P:26 SP:FF PPU:211,  7 CYC:873
C653  AD 02 20  LDA $2002 = FF                  A:00 X:FF Y:00 P:26 SP:FF PPU:220,  7 CYC:876
C656  29 80     AND #$80                        A:10 X:FF Y:00 P:24 SP:FF PPU:232,  7 CYC:880
C658  F0 F9     BEQ $C653                       A:00 X:FF Y:00 P:26 SP:FF PPU:238,  7 CYC:882
C653  AD 02 20  LDA $2002 = FF                  A:00 X:FF Y:00 P:26 SP:FF PPU:247,  7 CYC:885
C656  29 80     AND #$80                        A:10 X:FF Y:00 P:24 SP:FF PPU:259,  7 CYC:889
C658  F0 F9     BEQ $C653                       A:00 X:FF Y:00 P:26 SP:FF PPU:265,  7 CYC:891
C653  AD 02 20  LDA $2002 = FF                  A:00 X:FF Y:00 P:26 SP:FF PPU:274,  7 CYC:894
C656  29 80     AND #$80                        A:10 X:FF Y:00 P:24 SP:FF PPU:286,  7 CYC:898
C658  F0 F9     BEQ $C653                       A:00 X:FF Y:00 P:26 SP:FF PPU:292,  7 CYC:900
C653  AD 02 20  LDA $2002 = FF                  A:00 X:FF Y:00 P:26 SP:FF PPU:301,  7 CYC:903
C656  29 80     AND #$80                        A:10 X:FF Y:00 P:24 SP:FF PPU:313,  7 CYC:907
C658  F0 F9     BEQ $C653                       A:00 X:FF Y:00 P:26 SP:FF PPU:319,  7 CYC:909
C653  AD 02 20  LDA $2002 = FF                  A:00 X:FF Y:00 P:26 SP:FF PPU:328,  7 CYC:912
C656  29 80     AND #$80                        A:10 X:FF Y:00 P:24 SP:FF PPU:340,  7 CYC:916
C658  F0 F9     BEQ $C653                       A:00 X:FF Y:00 P:26 SP:FF PPU:  5,  8 CYC:918
C653  AD 02 20  LDA $2002 = FF                  A:00 X:FF Y:00 P:26 SP:FF PPU: 14,  8 CYC:921
C656  29 80     AND #$80                        A:10 X:FF Y:00 P:24 SP:FF PPU: 26,  8 CYC:925
C658  F0 F9     BEQ $C653                       A:00 X:FF Y:00 P:26 SP:FF PPU: 32,  8 CYC:927
C653  AD 02 20  LDA $2002 = FF                  A:00 X:FF Y:00 P:26 SP:FF PPU: 41,  8 CYC:930
C656  29 80     AND #$80                        A:10 X:FF Y:00 P:24 SP:FF PPU: 53,  8 CYC:934
C658  F0 F9     BEQ $C653                       A:00 X:FF Y:00 P:26 SP:FF PPU: 59,  8 CYC:936
C653  AD 02 20  LDA $2002 = FF                  A:00 X:FF Y:00 P:26 SP:FF PPU: 68,  8 CYC:939
C656  29 80     AND #$80                        A:10 X:FF Y:00 P:24 SP:FF PPU: 80,  8 CYC:943
C658  F0 F9     BEQ $C653                       A:00 X:FF Y:00 P:26 SP:FF PPU: 86,  8 CYC:945
C653  AD 02 20  LDA $2002 = FF                  A:00 X:FF Y:00 P:26 SP:FF PPU: 95,  8 CYC:948
C656  29 80     AND #$80                        A:10 X:FF Y:00 P:24 SP:FF PPU:107,  8 CYC:952
C658  F0 F9     BEQ $C653                       A:00 X:FF Y:00 P:26 SP:FF PPU:113,  8 CYC:954
C653  AD 02 20  LDA $2002 = FF                  A:00 X:FF Y:00 P:26 SP:FF PPU:122,  8 CYC:957
C656  29 80     AND #$80                        A:10 X:FF Y:00 P:24 SP:FF PPU:134,  8 CYC:961
C658  F0 F9     BEQ $C653                       A:00 X:FF Y:00 P:26 SP:FF PPU:140,  8 CYC:963
C653  AD 02 20  LDA $2002 = FF                  A:00 X:FF Y:00 P:26 SP:FF PPU:149,  8 CYC:966
C656  29 80     AND #$80                        A:10 X:FF Y:00 P:24 SP:FF PPU:161,  8 CYC:970
C658  F0 F9     BEQ $C653                       A:00 X:FF Y:00 P:26 SP:FF PPU:167,  8 CYC:972
C653  AD 02 20  LDA $2002 = FF                  A:00 X:FF Y:00 P:26 SP:FF PPU:176,  8 CYC:975
C656  29 80     AND #$80                        A:10 X:FF Y:00 P:24 SP:FF PPU:188,  8 CYC:979
C658  F0 F9     BEQ $C653                       A:00 X:FF Y:00 P:26 SP:FF PPU:194,  8 CYC:981
C653  AD 02 20  LDA $2002 = FF                  A:00 X:FF Y:00 P:26 SP:FF PPU:203,  8 CYC:984
C656  29 80     AND #$80                        A:10 X:FF Y:00 P:24 SP:FF PPU:215,  8 CYC:988
C658  F0 F9     BEQ $C653                       A:00 X:FF Y:00 P:26 SP:FF PPU:221,  8 CYC:990
C653  AD 02 20  LDA $2002 = FF                  A:00 X:FF Y:00 P:26 SP:FF PPU:230,  8 CYC:993
C656  29 80     AND #$80                        A:10 X:FF Y:00 P:24 SP:FF PPU:242,  8 CYC:997
C658  F0 F9     BEQ $C653                       A:00 X:FF Y:00 P:26 SP:FF PPU:248,  8 CYC:999
C653  AD 02 20  LDA $2002 = FF                  A:00 X:FF Y:00 P:26 SP:FF PPU:257,  8 CYC:1002
C656  29 80     AND #$80                        A:10 X:FF Y:00 P:24 SP:FF PPU:269,  8 CYC:1006
C658  F0 F9     BEQ $C653                       A:00 X:FF Y:00 P:26 SP:FF PPU:275,  8 CYC:1008
C653  AD 02 20  LDA $2002 = FF                  A:00 X:FF Y:00 P:26 SP:FF PPU:284,  8 CYC:1011
C656  29 80     AND #$80                        A:10 X:FF Y:00 P:24 SP:FF PPU:296,  8 CYC:1015
C658  F0 F9     BEQ $C653                       A:00 X:FF Y:00 P:26 SP:FF PPU:302,  8 CYC:1017
C653  AD 02 20  LDA $2002 = FF                  A:00 X:FF Y:00 P:26 SP:FF PPU:311,  8 CYC:1020
C656  29 80     AND #$80                        A:10 X:FF Y:00 P:24 SP:FF PPU:323,  8 CYC:1024
C658  F0 F9     BEQ $C653                       A:00 X:FF Y:00 P:26 SP:FF PPU:329,  8 CYC:1026
C653  AD 02 20  LDA $2002 = FF                  A:00 X:FF Y:00 P:26 SP:FF PPU:338,  8 CYC:1029
C656  29 80     AND #$80                        A:10 X:FF Y:00 P:24 SP:FF PPU:  9,  9 CYC:1033
C658  F0 F9     BEQ $C653                       A:00 X:FF Y:00 P:26 SP:FF PPU: 15,  9 CYC:1035
C653  AD 02 20  LDA $2002 = FF                  A:00 X:FF Y:00 P:26 SP:FF PPU: 24,  9 CYC:1038
C656  29 80     AND #$80                        A:10 X:FF Y:00 P:24 SP:FF PPU: 36,  9 CYC:1042
C658  F0 F9     BEQ $C653                       A:00 X:FF Y:00 P:26 SP:FF PPU: 42,  9 CYC:1044
C653  AD 02 20  LDA $2002 = FF                  A:00 X:FF Y:00 P:26 SP:FF PPU: 51,  9 CYC:1047
C656  29 80     AND #$80                        A:10 X:FF Y:00 P:24 SP:FF PPU: 63,  9 CYC:1051
C658  F0 F9     BEQ $C653                       A:00 X:FF Y:00 P:26 SP:FF PPU: 69,  9 CYC:1053
C653  AD 02 20  LDA $2002 = FF                  A:00 X:FF Y:00 P:26 SP:FF PPU: 78,  9 CYC:1056
C656  29 80     AND #$80                        A:10 X:FF Y:00 P:24 SP:FF PPU: 90,  9 CYC:1060
C658  F0 F9     BEQ $C653                       A:00 X:FF Y:00 P:26 SP:FF PPU: 96,  9 CYC:1062
C653  AD 02 20  LDA $2002 = FF                  A:00 X:FF Y:00 P:26 SP:FF PPU:105,  9 CYC:1065
C656  29 80     AND #$80                        A:10 X:FF Y:00 P:24 SP:FF PPU:117,  9 CYC:1069
C658  F0 F9     BEQ $C653                       A:00 X:FF Y:00 P:26 SP:FF PPU:123,  9 CYC:1071
C653  AD 02 20  LDA $2002 = FF                  A:00 X:FF Y:00 P:26 SP:FF PPU:132,  9 CYC:1074
C656  29 80     AND #$80                        A:10 X:FF Y:00 P:24 SP:FF PPU:144,  9 CYC:1078
C658  F0 F9     BEQ $C653                       A:00 X:FF Y:00 P:26 SP:FF PPU:150,  9 CYC:1080
C653  AD 02 20  LDA $2002 = FF                  A:00 X:FF Y:00 P:26 SP:FF PPU:159,  9 CYC:1083
C656  29 80     AND #$80                        A:10 X:FF Y:00 P:24 SP:FF PPU:171,  9 CYC:1087
C658  F0 F9     BEQ $C653                       A:00 X:FF Y:00 P:26 SP:FF PPU:177,  9 CYC:1089
C653  AD 02 20  LDA $2002 = FF                  A:00 X:FF Y:00 P:26 SP:FF PPU:186,  9 CYC:1092
C656  29 80     AND #$80                        A:10 X:FF Y:00 P:24 SP:FF PPU:198,  9 CYC:1096
C658  F0 F9     BEQ $C653                       A:00 X:FF Y:00 P:26 SP:FF PPU:204,  9 CYC:1098
C653  AD 02 20  LDA $2002 = FF                  A:00 X:FF Y:00 P:26 SP:FF PPU:213,  9 CYC:1101
C656  29 80     AND #$80                        A:10 X:FF Y:00 P:24 SP:FF PPU:225,  9 CYC:1105
C658  F0 F9     BEQ $C653                       A:00 X:FF Y:00 P:26 SP:FF PPU:231,  9 CYC:1107
C653  AD 02 20  LDA $2002 = FF                  A:00 X:FF Y:00 P:26 SP:FF PPU:240,  9 CYC:1110
C656  29 80     AND #$80                        A:10 X:FF Y:00 P:24 SP:FF PPU:252,  9 CYC:1114
C658  F0 F9     BEQ $C653                       A:00 X:FF Y:00 P:26 SP:FF PPU:258,  9 CYC:1116
C653  AD 02 20  LDA $2002 = FF                  A:00 X:FF Y:00 P:26 SP:FF PPU:267,  9 CYC:1119
C656  29 80     AND #$80                        A:10 X:FF Y:00 P:24 SP:FF PPU:279,  9 CYC:1123
C658  F0 F9     BEQ $C653                       A:00 X:FF Y:00 P:26 SP:FF PPU:285,  9 CYC:1125
C653  AD 02 20  LDA $2002 = FF                  A:00 X:FF Y:00 P:26 SP:FF PPU:294,  9 CYC:1128
C656  29 80     AND #$80                        A:10 X:FF Y:00 P:24 SP:FF PPU:306,  9 CYC:1132
C658  F0 F9     BEQ $C653                       A:00 X:FF Y:00 P:26 SP:FF PPU:312,  9 CYC:1134
C653  AD 02 20  LDA $2002 = FF                  A:00 X:FF Y:00 P:26 SP:FF PPU:321,  9 CYC:1137
C656  29 80     AND #$80                        A:10 X:FF Y:00 P:24 SP:FF PPU:333,  9 CYC:1141
C658  F0 F9     BEQ $C653                       A:00 X:FF Y:00 P:26 SP:FF PPU:339,  9 CYC:1143
C653  AD 02 20  LDA $2002 = FF                  A:00 X:FF Y:00 P:26 SP:FF PPU:  7, 10 CYC:1146
C656  29 80     AND #$80                        A:10 X:FF Y:00 P:24 SP:FF PPU: 19, 10 CYC:1150
C658  F0 F9     BEQ $C653                       A:00 X:FF Y:00 P:26 SP:FF PPU: 25, 10 CYC:1152
C653  AD 02 20  LDA $2002 = FF                  A:00 X:FF Y:00 P:26 SP:FF PPU: 34, 10 CYC:1155
C656  29 80     AND #$80                        A:10 X:FF Y:00 P:24 SP:FF PPU: 46, 10 CYC:1159
C658  F0 F9     BEQ $C653                       A:00 X:FF Y:00 P:26 SP:FF PPU: 52, 10 CYC:1161
C653  AD 02 20  LDA $2002 = FF                  A:00 X:FF Y:00 P:26 SP:FF PPU: 61, 10 CYC:1164
C656  29 80     AND #$80                        A:10 X:FF Y:00 P:24 SP:FF PPU: 73, 10 CYC:1168
C658  F0 F9     BEQ $C653                       A:00 X:FF Y:00 P:26 SP:FF PPU: 79, 10 CYC:1170
C653  AD 02 20  LDA $2002 = FF                  A:00 X:FF Y:00 P:26 SP:FF PPU: 88, 10 CYC:1173
C656  29 80     AND #$80                        A:10 X:FF Y:00 P:24 SP:FF PPU:100, 10 CYC:1177
C658  F0 F9     BEQ $C653                       A:00 X:FF Y:00 P:26 SP:FF PPU:106, 10 CYC:1179
C653  AD 02 20  LDA $2002 = FF                  A:00 X:FF Y:00 P:26 SP:FF PPU:115, 10 CYC:1182
C656  29 80     AND #$80                        A:10 X:FF Y:00 P:24 SP:FF PPU:127, 10 CYC:1186
C658  F0 F9     BEQ $C653                       A:00 X:FF Y:00 P:26 SP:FF PPU:133, 10 CYC:1188
C653  AD 02 20  LDA $2002 = FF                  A:00 X:FF Y:00 P:26 SP:FF PPU:142, 10 CYC:1191
C656  29 80     AND #$80                        A:10 X:FF Y:00 P:24 SP:FF PPU:154, 10 CYC:1195
C658  F0 F9     BEQ $C653                       A:00 X:FF Y:00 P:26 SP:FF PPU:160, 10 CYC:1197
C653  AD 02 20  LDA $2002 = FF                  A:00 X:FF Y:00 P:26 SP:FF PPU:169, 10 CYC:1200
C656  29 80     AND #$80                        A:10 X:FF Y:00 P:24 SP:FF PPU:181, 10 CYC:1204
C658  F0 F9     BEQ $C653                       A:00 X:FF Y:00 P:26 SP:FF PPU:187, 10 CYC:1206
C653  AD 02 20  LDA $2002 = FF                  A:00 X:FF Y:00 P:26 SP:FF PPU:196, 10 CYC:1209
C656  29 80     AND #$80                        A:10 X:FF Y:00 P:24 SP:FF PPU:208, 10 CYC:1213
C658  F0 F9     BEQ $C653                       A:00 X:FF Y:00 P:26 SP:FF PPU:214, 10 CYC:1215
C653  AD 02 20  LDA $2002 = FF                  A:00 X:FF Y:00 P:26 SP:FF PPU:223, 10 CYC:1218
C656  29 80     AND #$80                        A:10 X:FF Y:00 P:24 SP:FF PPU:235, 10 CYC:1222
C658  F0 F9     BEQ $C653                       A:00 X:FF Y:00 P:26 SP:FF PPU:241, 10 CYC:1224
C653  AD 02 20  LDA $2002 = FF                  A:00 X:FF Y:00 P:26 SP:FF PPU:250, 10 CYC:1227
C656  29 80     AND #$80                        A:10 X:FF Y:00 P:24 SP:FF PPU:262, 10 CYC:1231
C658  F0 F9     BEQ $C653                       A:00 X:FF Y:00 P:26 SP:FF PPU:268, 10 CYC:1233
C653  AD 02 20  LDA $2002 = FF                  A:00 X:FF Y:00 P:26 SP:FF PPU:277, 10 CYC:1236
C656  29 80     AND #$80                        A:10 X:FF Y:00 P:24 SP:FF PPU:289, 10 CYC:1240
C658  F0 F9     BEQ $C653                       A:00 X:FF Y:00 P:26 SP:FF PPU:295, 10 CYC:1242
C653  AD 02 20  LDA $2002 = FF                  A:00 X:FF Y:00 P:26 SP:FF PPU:304, 10 CYC:1245
C656  29 80     AND #$80                        A:10 X:FF Y:00 P:24 SP:FF PPU:316, 10 CYC:1249
C658  F0 F9     BEQ $C653                       A:00 X:FF Y:00 P:26 SP:FF PPU:322, 10 CYC:1251
C653  AD 02 20  LDA $2002 = FF                  A:00 X:FF Y:00 P:26 SP:FF PPU:331, 10 CYC:1254
C656  29 80     AND #$80                        A:10 X:FF Y:00 P:24 SP:FF PPU:  2, 11 CYC:1258
C658  F0 F9     BEQ $C653                       A:00 X:FF Y:00 P:26 SP:FF PPU:  8, 11 CYC:1260
C653  AD 02 20  LDA $2002 = FF                  A:00 X:FF Y:00 P:26 SP:FF PPU: 17, 11 CYC:1263
C656  29 80     AND #$80                        A:10 X:FF Y:00 P:24 SP:FF PPU: 29, 11 CYC:1267
C658  F0 F9     BEQ $C653                       A:00 X:FF Y:00 P:26 SP:FF PPU: 35, 11 CYC:1269
C653  AD 02 20  LDA $2002 = FF                  A:00 X:FF Y:00 P:26 SP:FF PPU: 44, 11 CYC:1272
C656  29 80     AND #$80                        A:10 X:FF Y:00 P:24 SP:FF PPU: 56, 11 CYC:1276
C658  F0 F9     BEQ $C653                       A:00 X:FF Y:00 P:26 SP:FF PPU: 62, 11 CYC:1278
C653  AD 02 20  LDA $2002 = FF                  A:00 X:FF Y:00 P:26 SP:FF PPU: 71, 11 CYC:1281
C656  29 80     AND #$80                        A:10 X:FF Y:00 P:24 SP:FF PPU: 83, 11 CYC:1285
C658  F0 F9     BEQ $C653                       A:00 X:FF Y:00 P:26 SP:FF PPU: 89, 11 CYC:1287
C653  AD 02 20  LDA $2002 = FF                  A:00 X:FF Y:00 P:26 SP:FF PPU: 98, 11 CYC:1290
C656  29 80     AND #$80                        A:10 X:FF Y:00 P:24 SP:FF PPU:110, 11 CYC:1294
C658  F0 F9     BEQ $C653                       A:00 X:FF Y:00 P:26 SP:FF PPU:116, 11 CYC:1296
C653  AD 02 20  LDA $2002 = FF                  A:00 X:FF Y:00 P:26 SP:FF PPU:125, 11 CYC:1299
C656  29 80     AND #$80                        A:10 X:FF Y:00 P:24 SP:FF PPU:137, 11 CYC:1303
C658  F0 F9     BEQ $C653                       A:00 X:FF Y:00 P:26 SP:FF PPU:143, 11 CYC:1305
C653  AD 02 20  LDA $2002 = FF                  A:00 X:FF Y:00 P:26 SP:FF PPU:152, 11 CYC:1308
C656  29 80     AND #$80                        A:10 X:FF Y:00 P:24 SP:FF PPU:164, 11 CYC:1312
C658  F0 F9     BEQ $C653                       A:00 X:FF Y:00 P:26 SP:FF PPU:170, 11 CYC:1314
C653  AD 02 20  LDA $2002 = FF                  A:00 X:FF Y:00 P:26 SP:FF PPU:179, 11 CYC:1317
C656  29 80     AND #$80                        A:10 X:FF Y:00 P:24 SP:FF PPU:191, 11 CYC:1321
C658  F0 F9     BEQ $C653                       A:00 X:FF Y:00 P:26 SP:FF PPU:197, 11 CYC:1323
C653  AD 02 20  LDA $2002 = FF                  A:00 X:FF Y:00 P:26 SP:FF PPU:206, 11 CYC:1326
C656  29 80     AND #$80                        A:10 X:FF Y:00 P:24 SP:FF PPU:218, 11 CYC:1330
C658  F0 F9     BEQ $C653                       A:00 X:FF Y:00 P:26 SP:FF PPU:224, 11 CYC:1332
C653  AD 02 20  LDA $2002 = FF                  A:00 X:FF Y:00 P:26 SP:FF PPU:233, 11 CYC:1335
C656  29 80     AND #$80                        A:10 X:FF Y:00 P:24 SP:FF PPU:245, 11 CYC:1339
C658  F0 F9     BEQ $C653                       A:00 X:FF Y:00 P:26 SP:FF PPU:251, 11 CYC:1341
C653  AD 02 20  LDA $2002 = FF                  A:00 X:FF Y:00 P:26 SP:FF PPU:260, 11 CYC:1344
C656  29 80     AND #$80                        A:10 X:FF Y:00 P:24 SP:FF PPU:272, 11 CYC:1348
C658  F0 F9     BEQ $C653                       A:00 X:FF Y:00 P:26 SP:FF PPU:278, 11 CYC:1350
C653  AD 02 20  LDA $2002 = FF                  A:00 X:FF Y:00 P:26 SP:FF PPU:287, 11 CYC:1353
C656  29 80     AND #$80                        A:10 X:FF Y:00 P:24 SP:FF PPU:299, 11 CYC:1357
C658  F0 F9     BEQ $C653                       A:00 X:FF Y:00 P:26 SP:FF PPU:305, 11 CYC:1359
C653  AD 02 20  LDA $2002 = FF                  A:00 X:FF Y:00 P:26 SP:FF PPU:314, 11 CYC:1362
C656  29 80     AND #$80                        A:10 X:FF Y:00 P:24 SP:FF PPU:326, 11 CYC:1366
C658  F0 F9     BEQ $C653                       A:00 X:FF Y:00 P:26 SP:FF PPU:332, 11 CYC:1368
C653  AD 02 20  LDA $2002 = FF                  A:00 X:FF Y:00 P:26 SP:FF PPU:  0, 12 CYC:1371
C656  29 80     AND #$80                        A:10 X:FF Y:00 P:24 SP:FF PPU: 12, 12 CYC:1375
C658  F0 F9     BEQ $C653                       A:00 X:FF Y:00 P:26 SP:FF PPU: 18, 12 CYC:1377
C653  AD 02 20  LDA $2002 = FF                  A:00 X:FF Y:00 P:26 SP:FF PPU: 27, 12 CYC:1380
C656  29 80     AND #$80                        A:10 X:FF Y:00 P:24 SP:FF PPU: 39, 12 CYC:1384
C658  F0 F9     BEQ $C653                       A:00 X:FF Y:00 P:26 SP:FF PPU: 45, 12 CYC:1386
C653  AD 02 20  LDA $2002 = FF                  A:00 X:FF Y:00 P:26 SP:FF PPU: 54, 12 CYC:1389
C656  29 80     AND #$80                        A:10 X:FF Y:00 P:24 SP:FF PPU: 66, 12 CYC:1393
C658  F0 F9     BEQ $C653                       A:00 X:FF Y:00 P:26 SP:FF PPU: 72, 12 CYC:1395
C653  AD 02 20  LDA $2002 = FF                  A:00 X:FF Y:00 P:26 SP:FF PPU: 81, 12 CYC:1398
C656  29 80     AND #$80                        A:10 X:FF Y:00 P:24 SP:FF PPU: 93, 12 CYC:1402
C658  F0 F9     BEQ $C653                       A:00 X:FF Y:00 P:26 SP:FF PPU: 99, 12 CYC:1404
C653  AD 02 20  LDA $2002 = FF                  A:00 X:FF Y:00 P:26 SP:FF PPU:108, 12 CYC:1407
C656  29 80     AND #$80                        A:10 X:FF Y:00 P:24 SP:FF PPU:120, 12 CYC:1411
C658  F0 F9     BEQ $C653                       A:00 X:FF Y:00 P:26 SP:FF PPU:126, 12 CYC:1413
C653  AD 02 20  LDA $2002 = FF                  A:00 X:FF Y:00 P:26 SP:FF PPU:135, 12 CYC:1416
C656  29 80     AND #$80                        A:10 X:FF Y:00 P:24 SP:FF PPU:147, 12 CYC:1420
C658  F0 F9     BEQ $C653                       A:00 X:FF Y:00 P:26 SP:FF PPU:153, 12 CYC:1422
C653  AD 02 20  LDA $2002 = FF                  A:00 X:FF Y:00 P:26 SP:FF PPU:162, 12 CYC:1425
C656  29 80     AND #$80                        A:10 X:FF Y:00 P:24 SP:FF PPU:174, 12 CYC:1429
C658  F0 F9     BEQ $C653                       A:00 X:FF Y:00 P:26 SP:FF PPU:180, 12 CYC:1431
C653  AD 02 20  LDA $2002 = FF                  A:00 X:FF Y:00 P:26 SP:FF PPU:189, 12 CYC:1434
C656  29 80     AND #$80                        A:10 X:FF Y:00 P:24 SP:FF PPU:201, 12 CYC:1438
C658  F0 F9     BEQ $C653                       A:00 X:FF Y:00 P:26 SP:FF PPU:207, 12 CYC:1440
C653  AD 02 20  LDA $2002 = FF                  A:00 X:FF Y:00 P:26 SP:FF PPU:216, 12 CYC:1443
C656  29 80     AND #$80                        A:10 X:FF Y:00 P:24 SP:FF PPU:228, 12 CYC:1447
C658  F0 F9     BEQ $C653                       A:00 X:FF Y:00 P:26 SP:FF PPU:234, 12 CYC:1449
C653  AD 02 20  LDA $2002 = FF                  A:00 X:FF Y:00 P:26 SP:FF PPU:243, 12 CYC:1452
C656  29 80     AND #$80                        A:10 X:FF Y:00 P:24 SP:FF PPU:255, 12 CYC:1456
C658  F0 F9     BEQ $C653                       A:00 X:FF Y:00 P:26 SP:FF PPU:261, 12 CYC:1458
C653  AD 02 20  LDA $2002 = FF                  A:00 X:FF Y:00 P:26 SP:FF PPU:270, 12 CYC:1461
C656  29 80     AND #$80                        A:10 X:FF Y:00 P:24 SP:FF PPU:282, 12 CYC:1465
C658  F0 F9     BEQ $C653                       A:00 X:FF Y:00 P:26 SP:FF PPU:288, 12 CYC:1467
C653  AD 02 20  LDA $2002 = FF                  A:00 X:FF Y:00 P:26 SP:FF PPU:297, 12 CYC:1470
C656  29 80     AND #$80                        A:10 X:FF Y:00 P:24 SP:FF PPU:309, 12 CYC:1474
C658  F0 F9     BEQ $C653                       A:00 X:FF Y:00 P:26 SP:FF PPU:315, 12 CYC:1476
C653  AD 02 20  LDA $2002 = FF                  A:00 X:FF Y:00 P:26 SP:FF PPU:324, 12 CYC:1479
C656  29 80     AND #$80                        A:10 X:FF Y:00 P:24 SP:FF PPU:336, 12 CYC:1483
C658  F0 F9     BEQ $C653                       A:00 X:FF Y:00 P:26 SP:FF PPU:  1, 13 CYC:1485
C653  AD 02 20  LDA $2002 = FF                  A:00 X:FF Y:00 P:26 SP:FF PPU: 10, 13 CYC:1488
C656  29 80     AND #$80                        A:10 X:FF Y:00 P:24 SP:FF PPU: 22, 13 CYC:1492
C658  F0 F9     BEQ $C653                       A:00 X:FF Y:00 P:26 SP:FF PPU: 28, 13 CYC:1494
C653  AD 02 20  LDA $2002 = FF                  A:00 X:FF Y:00 P:26 SP:FF PPU: 37, 13 CYC:1497
C656  29 80     AND #$80                        A:10 X:FF Y:00 P:24 SP:FF PPU: 49, 13 CYC:1501
C658  F0 F9     BEQ $C653                       A:00 X:FF Y:00 P:26 SP:FF PPU: 55, 13 CYC:1503
C653  AD 02 20  LDA $2002 = FF                  A:00 X:FF Y:00 P:26 SP:FF PPU: 64, 13 CYC:1506
C656  29 80     AND #$80                        A:10 X:FF Y:00 P:24 SP:FF PPU: 76, 13 CYC:1510
C658  F0 F9     BEQ $C653                       A:00 X:FF Y:00 P:26 SP:FF PPU: 82, 13 CYC:1512
C653  AD 02 20  LDA $2002 = FF                  A:00 X:FF Y:00 P:26 SP:FF PPU: 91, 13 CYC:1515
C656  29 80     AND #$80                        A:10 X:FF Y:00 P:24 SP:FF PPU:103, 13 CYC:1519
C658  F0 F9     BEQ $C653                       A:00 X:FF Y:00 P:26 SP:FF PPU:109, 13 CYC:1521
C653  AD 02 20  LDA $2002 = FF                  A:00 X:FF Y:00 P:26 SP:FF PPU:118, 13 CYC:1524
C656  29 80     AND #$80                        A:10 X:FF Y:00 P:24 SP:FF PPU:130, 13 CYC:1528
C658  F0 F9     BEQ $C653                       A:00 X:FF Y:00 P:26 SP:FF PPU:136, 13 CYC:1530
C653  AD 02 20  LDA $2002 = FF                  A:00 X:FF Y:00 P:26 SP:FF PPU:145, 13 CYC:1533
C656  29 80     AND #$80                        A:10 X:FF Y:00 P:24 SP:FF PPU:157, 13 CYC:1537
C658  F0 F9     BEQ $C653                       A:00 X:FF Y:00 P:26 SP:FF PPU:163, 13 CYC:1539
C653  AD 02 20  LDA $2002 = FF                  A:00 X:FF Y:00 P:26 SP:FF PPU:172, 13 CYC:1542
C656  29 80     AND #$80                        A:10 X:FF Y:00 P:24 SP:FF PPU:184, 13 CYC:1546
C658  F0 F9     BEQ $C653                       A:00 X:FF Y:00 P:26 SP:FF PPU:190, 13 CYC:1548
C653  AD 02 20  LDA $2002 = FF                  A:00 X:FF Y:00 P:26 SP:FF PPU:199, 13 CYC:1551
C656  29 80     AND #$80                        A:10 X:FF Y:00 P:24 SP:FF PPU:211, 13 CYC:1555
C658  F0 F9     BEQ $C653                       A:00 X:FF Y:00 P:26 SP:FF PPU:217, 13 CYC:1557
C653  AD 02 20  LDA $2002 = FF                  A:00 X:FF Y:00 P:26 SP:FF PPU:226, 13 CYC:1560
C656  29 80     AND #$80                        A:10 X:FF Y:00 P:24 SP:FF PPU:238, 13 CYC:1564
C658  F0 F9     BEQ $C653                       A:00 X:FF Y:00 P:26 SP:FF PPU:244, 13 CYC:1566
C653  AD 02 20  LDA $2002 = FF                  A:00 X:FF Y:00 P:26 SP:FF PPU:253, 13 CYC:1569
C656  29 80     AND #$80                        A:10 X:FF Y:00 P:24 SP:FF PPU:265, 13 CYC:1573
C658  F0 F9     BEQ $C653                       A:00 X:FF Y:00 P:26 SP:FF PPU:271, 13 CYC:1575
C653  AD 02 20  LDA $2002 = FF                  A:00 X:FF Y:00 P:26 SP:FF PPU:280, 13 CYC:1578
C656  29 80     AND #$80                        A:10 X:FF Y:00 P:24 SP:FF PPU:292, 13 CYC:1582
C658  F0 F9     BEQ $C653                       A:00 X:FF Y:00 P:26 SP:FF PPU:298, 13 CYC:1584
C653  AD 02 20  LDA $2002 = FF                  A:00 X:FF Y:00 P:26 SP:FF PPU:307, 13 CYC:1587
C656  29 80     AND #$80                        A:10 X:FF Y:00 P:24 SP:FF PPU:319, 13 CYC:1591
C658  F0 F9     BEQ $C653                       A:00 X:FF Y:00 P:26 SP:FF PPU:325, 13 CYC:1593
C653  AD 02 20  LDA $2002 = FF                  A:00 X:FF Y:00 P:26 SP:FF PPU:334, 13 CYC:1596
C656  29 80     AND #$80                        A:10 X:FF Y:00 P:24 SP:FF PPU:  5, 14 CYC:1600
C658  F0 F9     BEQ $C653                       A:00 X:FF Y:00 P:26 SP:FF PPU: 11, 14 CYC:1602
C653  AD 02 20  LDA $2002 = FF                  A:00 X:FF Y:00 P:26 SP:FF PPU: 20, 14 CYC:1605
C656  29 80     AND #$80                        A:10 X:FF Y:00 P:24 SP:FF PPU: 32, 14 CYC:1609
C658  F0 F9     BEQ $C653                       A:00 X:FF Y:00 P:26 SP:FF PPU: 38, 14 CYC:1611
C653  AD 02 20  LDA $2002 = FF                  A:00 X:FF Y:00 P:26 SP:FF PPU: 47, 14 CYC:1614
C656  29 80     AND #$80                        A:10 X:FF Y:00 P:24 SP:FF PPU: 59, 14 CYC:1618
C658  F0 F9     BEQ $C653                       A:00 X:FF Y:00 P:26 SP:FF PPU: 65, 14 CYC:1620
C653  AD 02 20  LDA $2002 = FF                  A:00 X:FF Y:00 P:26 SP:FF PPU: 74, 14 CYC:1623
C656  29 80     AND #$80                        A:10 X:FF Y:00 P:24 SP:FF PPU: 86, 14 CYC:1627
C658  F0 F9     BEQ $C653                       A:00 X:FF Y:00 P:26 SP:FF PPU: 92, 14 CYC:1629
C653  AD 02 20  LDA $2002 = FF                  A:00 X:FF Y:00 P:26 SP:FF PPU:101, 14 CYC:1632
C656  29 80     AND #$80                        A:10 X:FF Y:00 P:24 SP:FF PPU:113, 14 CYC:1636
C658  F0 F9     BEQ $C653                       A:00 X:FF Y:00 P:26 SP:FF PPU:119, 14 CYC:1638
C653  AD 02 20  LDA $2002 = FF                  A:00 X:FF Y:00 P:26 SP:FF PPU:128, 14 CYC:1641
C656  29 80     AND #$80                        A:10 X:FF Y:00 P:24 SP:FF PPU:140, 14 CYC:1645
C658  F0 F9     BEQ $C653                       A:00 X:FF Y:00 P:26 SP:FF PPU:146, 14 CYC:1647
C653  AD 02 20  LDA $2002 = FF                  A:00 X:FF Y:00 P:26 SP:FF PPU:155, 14 CYC:1650
C656  29 80     AND #$80                        A:10 X:FF Y:00 P:24 SP:FF PPU:167, 14 CYC:1654
C658  F0 F9     BEQ $C653                       A:00 X:FF Y:00 P:26 SP:FF PPU:173, 14 CYC:1656
C653  AD 02 20  LDA $2002 = FF                  A:00 X:FF Y:00 P:26 SP:FF PPU:182, 14 CYC:1659
C656  29 80     AND #$80                        A:10 X:FF Y:00 P:24 SP:FF PPU:194, 14 CYC:1663
C658  F0 F9     BEQ $C653                       A:00 X:FF Y:00 P:26 SP:FF PPU:200, 14 CYC:1665
C653  AD 02 20  LDA $2002 = FF                  A:00 X:FF Y:00 P:26 SP:FF PPU:209, 14 CYC:1668
C656  29 80     AND #$80                        A:10 X:FF Y:00 P:24 SP:FF PPU:221, 14 CYC:1672
C658  F0 F9     BEQ $C653                       A:00 X:FF Y:00 P:26 SP:FF PPU:227, 14 CYC:1674
C653  AD 02 20  LDA $2002 = FF                  A:00 X:FF Y:00 P:26 SP:FF PPU:236, 14 CYC:1677
C656  29 80     AND #$80                        A:10 X:FF Y:00 P:24 SP:FF PPU:248, 14 CYC:1681
C658  F0 F9     BEQ $C653                       A:00 X:FF Y:00 P:26 SP:FF PPU:254, 14 CYC:1683
C653  AD 02 20  LDA $2002 = FF                  A:00 X:FF Y:00 P:26 SP:FF PPU:263, 14 CYC:1686
C656  29 80     AND #$80                        A:10 X:FF Y:00 P:24 SP:FF PPU:275, 14 CYC:1690
C658  F0 F9     BEQ $C653                       A:00 X:FF Y:00 P:26 SP:FF PPU:281, 14 CYC:1692
C653  AD 02 20  LDA $2002 = FF                  A:00 X:FF Y:00 P:26 SP:FF PPU:290, 14 CYC:1695
C656  29 80     AND #$80                        A:10 X:FF Y:00 P:24 SP:FF PPU:302, 14 CYC:1699
C658  F0 F9     BEQ $C653                       A:00 X:FF Y:00 P:26 SP:FF PPU:308, 14 CYC:1701
C653  AD 02 20  LDA $2002 = FF                  A:00 X:FF Y:00 P:26 SP:FF PPU:317, 14 CYC:1704
C656  29 80     AND #$80                        A:10 X:FF Y:00 P:24 SP:FF PPU:329, 14 CYC:1708
C658  F0 F9     BEQ $C653                       A:00 X:FF Y:00 P:26 SP:FF PPU:335, 14 CYC:1710
C653  AD 02 20  LDA $2002 = FF                  A:00 X:FF Y:00 P:26 SP:FF PPU:  3, 15 CYC:1713
C656  29 80     AND #$80                        A:10 X:FF Y:00 P:24 SP:FF PPU: 15, 15 CYC:1717
C658  F0 F9     BEQ $C653                       A:00 X:FF Y:00 P:26 SP:FF PPU: 21, 15 CYC:1719
C653  AD 02 20  LDA $2002 = FF                  A:00 X:FF Y:00 P:26 SP:FF PPU: 30, 15 CYC:1722
C656  29 80     AND #$80                        A:10 X:FF Y:00 P:24 SP:FF PPU: 42, 15 CYC:1726
C658  F0 F9     BEQ $C653                       A:00 X:FF Y:00 P:26 SP:FF PPU: 48, 15 CYC:1728
C653  AD 02 20  LDA $2002 = FF                  A:00 X:FF Y:00 P:26 SP:FF PPU: 57, 15 CYC:1731
C656  29 80     AND #$80                        A:10 X:FF Y:00 P:24 SP:FF PPU: 69, 15 CYC:1735
C658  F0 F9     BEQ $C653                       A:00 X:FF Y:00 P:26 SP:FF PPU: 75, 15 CYC:1737
C653  AD 02 20  LDA $2002 = FF                  A:00 X:FF Y:00 P:26 SP:FF PPU: 84, 15 CYC:1740
C656  29 80     AND #$80                        A:10 X:FF Y:00 P:24 SP:FF PPU: 96, 15 CYC:1744
C658  F0 F9     BEQ $C653                       A:00 X:FF Y:00 P:26 SP:FF PPU:102, 15 CYC:1746
C653  AD 02 20  LDA $2002 = FF                  A:00 X:FF Y:00 P:26 SP:FF PPU:111, 15 CYC:1749
C656  29 80     AND #$80                        A:10 X:FF Y:00 P:24 SP:FF PPU:123, 15 CYC:1753
C658  F0 F9     BEQ $C653                       A:00 X:FF Y:00 P:26 SP:FF PPU:129, 15 CYC:1755
C653  AD 02 20  LDA $2002 = FF                  A:00 X:FF Y:00 P:26 SP:FF PPU:138, 15 CYC:1758
C656  29 80     AND #$80                        A:10 X:FF Y:00 P:24 SP:FF PPU:150, 15 CYC:1762
C658  F0 F9     BEQ $C653                       A:00 X:FF Y:00 P:26 SP:FF PPU:156, 15 CYC:1764
C653  AD 02 20  LDA $2002 = FF                  A:00 X:FF Y:00 P:26 SP:FF PPU:165, 15 CYC:1767
C656  29 80     AND #$80                        A:10 X:FF Y:00 P:24 SP:FF PPU:177, 15 CYC:1771
C658  F0 F9     BEQ $C653                       A:00 X:FF Y:00 P:26 SP:FF PPU:183, 15 CYC:1773
C653  AD 02 20  LDA $2002 = FF                  A:00 X:FF Y:00 P:26 SP:FF PPU:192, 15 CYC:1776
C656  29 80     AND #$80                        A:10 X:FF Y:00 P:24 SP:FF PPU:204, 15 CYC:1780
C658  F0 F9     BEQ $C653                       A:00 X:FF Y:00 P:26 SP:FF PPU:210, 15 CYC:1782
C653  AD 02 20  LDA $2002 = FF                  A:00 X:FF Y:00 P:26 SP:FF PPU:219, 15 CYC:1785
C656  29 80     AND #$80                        A:10 X:FF Y:00 P:24 SP:FF PPU:231, 15 CYC:1789
C658  F0 F9     BEQ $C653                       A:00 X:FF Y:00 P:26 SP:FF PPU:237, 15 CYC:1791
C653  AD 02 20  LDA $2002 = FF                  A:00 X:FF Y:00 P:26 SP:FF PPU:246, 15 CYC:1794
C656  29 80     AND #$80                        A:10 X:FF Y:00 P:24 SP:FF PPU:258, 15 CYC:1798
C658  F0 F9     BEQ $C653                       A:00 X:FF Y:00 P:26 SP:FF PPU:264, 15 CYC:1800
C653  AD 02 20  LDA $2002 = FF                  A:00 X:FF Y:00 P:26 SP:FF PPU:273, 15 CYC:1803
C656  29 80     AND #$80                        A:10 X:FF Y:00 P:24 SP:FF PPU:285, 15 CYC:1807
C658  F0 F9     BEQ $C653                       A:00 X:FF Y:00 P:26 SP:FF PPU:291, 15 CYC:1809
C653  AD 02 20  LDA $2002 = FF                  A:00 X:FF Y:00 P:26 SP:FF PPU:300, 15 CYC:1812
C656  29 80     AND #$80                        A:10 X:FF Y:00 P:24 SP:FF PPU:312, 15 CYC:1816
C658  F0 F9     BEQ $C653                       A:00 X:FF Y:00 P:26 SP:FF PPU:318, 15 CYC:1818
C653  AD 02 20  LDA $2002 = FF                  A:00 X:FF Y:00 P:26 SP:FF PPU:327, 15 CYC:1821
C656  29 80     AND #$80                        A:10 X:FF Y:00 P:24 SP:FF PPU:339, 15 CYC:1825
C658  F0 F9     BEQ $C653                       A:00 X:FF Y:00 P:26 SP:FF PPU:  4, 16 CYC:1827
C653  AD 02 20  LDA $2002 = FF                  A:00 X:FF Y:00 P:26 SP:FF PPU: 13, 16 CYC:1830
C656  29 80     AND #$80                        A:10 X:FF Y:00 P:24 SP:FF PPU: 25, 16 CYC:1834
C658  F0 F9     BEQ $C653                       A:00 X:FF Y:00 P:26 SP:FF PPU: 31, 16 CYC:1836
C653  AD 02 20  LDA $2002 = FF                  A:00 X:FF Y:00 P:26 SP:FF PPU: 40, 16 CYC:1839
C656  29 80     AND #$80                        A:10 X:FF Y:00 P:24 SP:FF PPU: 52, 16 CYC:1843
C658  F0 F9     BEQ $C653                       A:00 X:FF Y:00 P:26 SP:FF PPU: 58, 16 CYC:1845
C653  AD 02 20  LDA $2002 = FF                  A:00 X:FF Y:00 P:26 SP:FF PPU: 67, 16 CYC:1848
C656  29 80     AND #$80                        A:10 X:FF Y:00 P:24 SP:FF PPU: 79, 16 CYC:1852
C658  F0 F9     BEQ $C653                       A:00 X:FF Y:00 P:26 SP:FF PPU: 85, 16 CYC:1854
C653  AD 02 20  LDA $2002 = FF                  A:00 X:FF Y:00 P:26 SP:FF PPU: 94, 16 CYC:1857
C656  29 80     AND #$80                        A:10 X:FF Y:00 P:24 SP:FF PPU:106, 16 CYC:1861
C658  F0 F9     BEQ $C653                       A:00 X:FF Y:00 P:26 SP:FF PPU:112, 16 CYC:1863
C653  AD 02 20  LDA $2002 = FF                  A:00 X:FF Y:00 P:26 SP:FF PPU:121, 16 CYC:1866
C656  29 80     AND #$80                        A:10 X:FF Y:00 P:24 SP:FF PPU:133, 16 CYC:1870
C658  F0 F9     BEQ $C653                       A:00 X:FF Y:00 P:26 SP:FF PPU:139, 16 CYC:1872
C653  AD 02 20  LDA $2002 = FF                  A:00 X:FF Y:00 P:26 SP:FF PPU:148, 16 CYC:1875
C656  29 80     AND #$80                        A:10 X:FF Y:00 P:24 SP:FF PPU:160, 16 CYC:1879
C658  F0 F9     BEQ $C653                       A:00 X:FF Y:00 P:26 SP:FF PPU:166, 16 CYC:1881
C653  AD 02 20  LDA $2002 = FF                  A:00 X:FF Y:00 P:26 SP:FF PPU:175, 16 CYC:1884
C656  29 80     AND #$80                        A:10 X:FF Y:00 P:24 SP:FF PPU:187, 16 CYC:1888
C658  F0 F9     BEQ $C653                       A:00 X:FF Y:00 P:26 SP:FF PPU:193, 16 CYC:1890
C653  AD 02 20  LDA $2002 = FF                  A:00 X:FF Y:00 P:26 SP:FF PPU:202, 16 CYC:1893
C656  29 80     AND #$80                        A:10 X:FF Y:00 P:24 SP:FF PPU:214, 16 CYC:1897
C658  F0 F9     BEQ $C653                       A:00 X:FF Y:00 P:26 SP:FF PPU:220, 16 CYC:1899
C653  AD 02 20  LDA $2002 = FF                  A:00 X:FF Y:00 P:26 SP:FF PPU:229, 16 CYC:1902
C656  29 80     AND #$80                        A:10 X:FF Y:00 P:24 SP:FF PPU:241, 16 CYC:1906
C658  F0 F9     BEQ $C653                       A:00 X:FF Y:00 P:26 SP:FF PPU:247, 16 CYC:1908
C653  AD 02 20  LDA $2002 = FF                  A:00 X:FF Y:00 P:26 SP:FF PPU:256, 16 CYC:1911
C656  29 80     AND #$80                        A:10 X:FF Y:00 P:24 SP:FF PPU:268, 16 CYC:1915
C658  F0 F9     BEQ $C653                       A:00 X:FF Y:00 P:26 SP:FF PPU:274, 16 CYC:1917
C653  AD 02 20  LDA $2002 = FF                  A:00 X:FF Y:00 P:26 SP:FF PPU:283, 16 CYC:1920
C656  29 80     AND #$80                        A:10 X:FF Y:00 P:24 SP:FF PPU:295, 16 CYC:1924
C658  F0 F9     BEQ $C653                       A:00 X:FF Y:00 P:26 SP:FF PPU:301, 16 CYC:1926
C653  AD 02 20  LDA $2002 = FF                  A:00 X:FF Y:00 P:26 SP:FF PPU:310, 16 CYC:1929
C656  29 80     AND #$80                        A:10 X:FF Y:00 P:24 SP:FF PPU:322, 16 CYC:1933
C658  F0 F9     BEQ $C653                       A:00 X:FF Y:00 P:26 SP:FF PPU:328, 16 CYC:1935
C653  AD 02 20  LDA $2002 = FF                  A:00 X:FF Y:00 P:26 SP:FF PPU:337, 16 CYC:1938
C656  29 80     AND #$80                        A:10 X:FF Y:00 P:24 SP:FF PPU:  8, 17 CYC:1942
C658  F0 F9     BEQ $C653                       A:00 X:FF Y:00 P:26 SP:FF PPU: 14, 17 CYC:1944
C653  AD 02 20  LDA $2002 = FF                  A:00 X:FF Y:00 P:26 SP:FF PPU: 23, 17 CYC:1947
C656  29 80     AND #$80                        A:10 X:FF Y:00 P:24 SP:FF PPU: 35, 17 CYC:1951
C658  F0 F9     BEQ $C653                       A:00 X:FF Y:00 P:26 SP:FF PPU: 41, 17 CYC:1953
C653  AD 02 20  LDA $2002 = FF                  A:00 X:FF Y:00 P:26 SP:FF PPU: 50, 17 CYC:1956
C656  29 80     AND #$80                        A:10 X:FF Y:00 P:24 SP:FF PPU: 62, 17 CYC:1960
C658  F0 F9     BEQ $C653                       A:00 X:FF Y:00 P:26 SP:FF PPU: 68, 17 CYC:1962
C653  AD 02 20  LDA $2002 = FF                  A:00 X:FF Y:00 P:26 SP:FF PPU: 77, 17 CYC:1965
C656  29 80     AND #$80                        A:10 X:FF Y:00 P:24 SP:FF PPU: 89, 17 CYC:1969
C658  F0 F9     BEQ $C653                       A:00 X:FF Y:00 P:26 SP:FF PPU: 95, 17 CYC:1971
C653  AD 02 20  LDA $2002 = FF                  A:00 X:FF Y:00 P:26 SP:FF PPU:104, 17 CYC:1974
C656  29 80     AND #$80                        A:10 X:FF Y:00 P:24 SP:FF PPU:116, 17 CYC:1978
C658  F0 F9     BEQ $C653                       A:00 X:FF Y:00 P:26 SP:FF PPU:122, 17 CYC:1980
C653  AD 02 20  LDA $2002 = FF                  A:00 X:FF Y:00 P:26 SP:FF PPU:131, 17 CYC:1983
C656  29 80     AND #$80                        A:10 X:FF Y:00 P:24 SP:FF PPU:143, 17 CYC:1987
C658  F0 F9     BEQ $C653                       A:00 X:FF Y:00 P:26 SP:FF PPU:149, 17 CYC:1989
C653  AD 02 20  LDA $2002 = FF                  A:00 X:FF Y:00 P:26 SP:FF PPU:158, 17 CYC:1992
C656  29 80     AND #$80                        A:10 X:FF Y:00 P:24 SP:FF PPU:170, 17 CYC:1996
C658  F0 F9     BEQ $C653                       A:00 X:FF Y:00 P:26 SP:FF PPU:176, 17 CYC:1998
C653  AD 02 20  LDA $2002 = FF                  A:00 X:FF Y:00 P:26 SP:FF PPU:185, 17 CYC:2001
C656  29 80     AND #$80                        A:10 X:FF Y:00 P:24 SP:FF PPU:197, 17 CYC:2005
C658  F0 F9     BEQ $C653                       A:00 X:FF Y:00 P:26 SP:FF PPU:203, 17 CYC:2007
C653  AD 02 20  LDA $2002 = FF                  A:00 X:FF Y:00 P:26 SP:FF PPU:212, 17 CYC:2010
C656  29 80     AND #$80                        A:10 X:FF Y:00 P:24 SP:FF PPU:224, 17 CYC:2014
C658  F0 F9     BEQ $C653                       A:00 X:FF Y:00 P:26 SP:FF PPU:230, 17 CYC:2016
C653  AD 02 20  LDA $2002 = FF                  A:00 X:FF Y:00 P:26 SP:FF PPU:239, 17 CYC:2019
C656  29 80     AND #$80                        A:10 X:FF Y:00 P:24 SP:FF PPU:251, 17 CYC:2023
C658  F0 F9     BEQ $C653                       A:00 X:FF Y:00 P:26 SP:FF PPU:257, 17 CYC:2025
C653  AD 02 20  LDA $2002 = FF                  A:00 X:FF Y:00 P:26 SP:FF PPU:266, 17 CYC:2028
C656  29 80     AND #$80                        A:10 X:FF Y:00 P:24 SP:FF PPU:278, 17 CYC:2032
C658  F0 F9     BEQ $C653                       A:00 X:FF Y:00 P:26 SP:FF PPU:284, 17 CYC:2034
C653  AD 02 20  LDA $2002 = FF                  A:00 X:FF Y:00 P:26 SP:FF PPU:293, 17 CYC:2037
C656  29 80     AND #$80                        A:10 X:FF Y:00 P:24 SP:FF PPU:305, 17 CYC:2041
C658  F0 F9     BEQ $C653                       A:00 X:FF Y:00 P:26 SP:FF PPU:311, 17 CYC:2043
C653  AD 02 20  LDA $2002 = FF                  A:00 X:FF Y:00 P:26 SP:FF PPU:320, 17 CYC:2046
C656  29 80     AND #$80                        A:10 X:FF Y:00 P:24 SP:FF PPU:332, 17 CYC:2050
C658  F0 F9     BEQ $C653                       A:00 X:FF Y:00 P:26 SP:FF PPU:338, 17 CYC:2052
C653  AD 02 20  LDA $2002 = FF                  A:00 X:FF Y:00 P:26 SP:FF PPU:  6, 18 CYC:2055
C656  29 80     AND #$80                        A:10 X:FF Y:00 P:24 SP:FF PPU: 18, 18 CYC:2059
C658  F0 F9     BEQ $C653                       A:00 X:FF Y:00 P:26 SP:FF PPU: 24, 18 CYC:2061
C653  AD 02 20  LDA $2002 = FF                  A:00 X:FF Y:00 P:26 SP:FF PPU: 33, 18 CYC:2064
C656  29 80     AND #$80                        A:10 X:FF Y:00 P:24 SP:FF PPU: 45, 18 CYC:2068
C658  F0 F9     BEQ $C653                       A:00 X:FF Y:00 P:26 SP:FF PPU: 51, 18 CYC:2070
C653  AD 02 20  LDA $2002 = FF                  A:00 X:FF Y:00 P:26 SP:FF PPU: 60, 18 CYC:2073
C656  29 80     AND #$80                        A:10 X:FF Y:00 P:24 SP:FF PPU: 72, 18 CYC:2077
C658  F0 F9     BEQ $C653                       A:00 X:FF Y:00 P:26 SP:FF PPU: 78, 18 CYC:2079
C653  AD 02 20  LDA $2002 = FF                  A:00 X:FF Y:00 P:26 SP:FF PPU: 87, 18 CYC:2082
C656  29 80     AND #$80                        A:10 X:FF Y:00 P:24 SP:FF PPU: 99, 18 CYC:2086
C658  F0 F9     BEQ $C653                       A:00 X:FF Y:00 P:26 SP:FF PPU:105, 18 CYC:2088
C653  AD 02 20  LDA $2002 = FF                  A:00 X:FF Y:00 P:26 SP:FF PPU:114, 18 CYC:2091
C656  29 80     AND #$80                        A:10 X:FF Y:00 P:24 SP:FF PPU:126, 18 CYC:2095
C658  F0 F9     BEQ $C653                       A:00 X:FF Y:00 P:26 SP:FF PPU:132, 18 CYC:2097
C653  AD 02 20  LDA $2002 = FF                  A:00 X:FF Y:00 P:26 SP:FF PPU:141, 18 CYC:2100
C656  29 80     AND #$80                        A:10 X:FF Y:00 P:24 SP:FF PPU:153, 18 CYC:2104
C658  F0 F9     BEQ $C653                       A:00 X:FF Y:00 P:26 SP:FF PPU:159, 18 CYC:2106
C653  AD 02 20  LDA $2002 = FF                  A:00 X:FF Y:00 P:26 SP:FF PPU:168, 18 CYC:2109
C656  29 80     AND #$80                        A:10 X:FF Y:00 P:24 SP:FF PPU:180, 18 CYC:2113
C658  F0 F9     BEQ $C653                       A:00 X:FF Y:00 P:26 SP:FF PPU:186, 18 CYC:2115
C653  AD 02 20  LDA $2002 = FF                  A:00 X:FF Y:00 P:26 SP:FF PPU:195, 18 CYC:2118
C656  29 80     AND #$80                        A:10 X:FF Y:00 P:24 SP:FF PPU:207, 18 CYC:2122
C658  F0 F9     BEQ $C653                       A:00 X:FF Y:00 P:26 SP:FF PPU:213, 18 CYC:2124
C653  AD 02 20  LDA $2002 = FF                  A:00 X:FF Y:00 P:26 SP:FF PPU:222, 18 CYC:2127
C656  29 80     AND #$80                        A:10 X:FF Y:00 P:24 SP:FF PPU:234, 18 CYC:2131
C658  F0 F9     BEQ $C653                       A:00 X:FF Y:00 P:26 SP:FF PPU:240, 18 CYC:2133
C653  AD 02 20  LDA $2002 = FF                  A:00 X:FF Y:00 P:26 SP:FF PPU:249, 18 CYC:2136
C656  29 80     AND #$80                        A:10 X:FF Y:00 P:24 SP:FF PPU:261, 18 CYC:2140
C658  F0 F9     BEQ $C653                       A:00 X:FF Y:00 P:26 SP:FF PPU:267, 18 CYC:2142
C653  AD 02 20  LDA $2002 = FF                  A:00 X:FF Y:00 P:26 SP:FF PPU:276, 18 CYC:2145
C656  29 80     AND #$80                        A:10 X:FF Y:00 P:24 SP:FF PPU:288, 18 CYC:2149
C658  F0 F9     BEQ $C653                       A:00 X:FF Y:00 P:26 SP:FF PPU:294, 18 CYC:2151
C653  AD 02 20  LDA $2002 = FF                  A:00 X:FF Y:00 P:26 SP:FF PPU:303, 18 CYC:2154
C656  29 80     AND #$80                        A:10 X:FF Y:00 P:24 SP:FF PPU:315, 18 CYC:2158
C658  F0 F9     BEQ $C653                       A:00 X:FF Y:00 P:26 SP:FF PPU:321, 18 CYC:2160
C653  AD 02 20  LDA $2002 = FF                  A:00 X:FF Y:00 P:26 SP:FF PPU:330, 18 CYC:2163
C656  29 80     AND #$80                        A:10 X:FF Y:00 P:24 SP:FF PPU:  1, 19 CYC:2167
C658  F0 F9     BEQ $C653                       A:00 X:FF Y:00 P:26 SP:FF PPU:  7, 19 CYC:2169
C653  AD 02 20  LDA $2002 = FF                  A:00 X:FF Y:00 P:26 SP:FF PPU: 16, 19 CYC:2172
C656  29 80     AND #$80                        A:10 X:FF Y:00 P:24 SP:FF PPU: 28, 19 CYC:2176
C658  F0 F9     BEQ $C653                       A:00 X:FF Y:00 P:26 SP:FF PPU: 34, 19 CYC:2178
C653  AD 02 20  LDA $2002 = FF                  A:00 X:FF Y:00 P:26 SP:FF PPU: 43, 19 CYC:2181
C656  29 80     AND #$80                        A:10 X:FF Y:00 P:24 SP:FF PPU: 55, 19 CYC:2185
C658  F0 F9     BEQ $C653                       A:00 X:FF Y:00 P:26 SP:FF PPU: 61, 19 CYC:2187
C653  AD 02 20  LDA $2002 = FF                  A:00 X:FF Y:00 P:26 SP:FF PPU: 70, 19 CYC:2190
C656  29 80     AND #$80                        A:10 X:FF Y:00 P:24 SP:FF PPU: 82, 19 CYC:2194
C658  F0 F9     BEQ $C653                       A:00 X:FF Y:00 P:26 SP:FF PPU: 88, 19 CYC:2196
C653  AD 02 20  LDA $2002 = FF                  A:00 X:FF Y:00 P:26 SP:FF PPU: 97, 19 CYC:2199
C656  29 80     AND #$80                        A:10 X:FF Y:00 P:24 SP:FF PPU:109, 19 CYC:2203
C658  F0 F9     BEQ $C653                       A:00 X:FF Y:00 P:26 SP:FF PPU:115, 19 CYC:2205
C653  AD 02 20  LDA $2002 = FF                  A:00 X:FF Y:00 P:26 SP:FF PPU:124, 19 CYC:2208
C656  29 80     AND #$80                        A:10 X:FF Y:00 P:24 SP:FF PPU:136, 19 CYC:2212
C658  F0 F9     BEQ $C653                       A:00 X:FF Y:00 P:26 SP:FF PPU:142, 19 CYC:2214
C653  AD 02 20  LDA $2002 = FF                  A:00 X:FF Y:00 P:26 SP:FF PPU:151, 19 CYC:2217
C656  29 80     AND #$80                        A:10 X:FF Y:00 P:24 SP:FF PPU:163, 19 CYC:2221
C658  F0 F9     BEQ $C653                       A:00 X:FF Y:00 P:26 SP:FF PPU:169, 19 CYC:2223
C653  AD 02 20  LDA $2002 = FF                  A:00 X:FF Y:00 P:26 SP:FF PPU:178, 19 CYC:2226
C656  29 80     AND #$80                        A:10 X:FF Y:00 P:24 SP:FF PPU:190, 19 CYC:2230
C658  F0 F9     BEQ $C653                       A:00 X:FF Y:00 P:26 SP:FF PPU:196, 19 CYC:2232
C653  AD 02 20  LDA $2002 = FF                  A:00 X:FF Y:00 P:26 SP:FF PPU:205, 19 CYC:2235
C656  29 80     AND #$80                        A:10 X:FF Y:00 P:24 SP:FF PPU:217, 19 CYC:2239
C658  F0 F9     BEQ $C653                       A:00 X:FF Y:00 P:26 SP:FF PPU:223, 19 CYC:2241
C653  AD 02 20  LDA $2002 = FF                  A:00 X:FF Y:00 P:26 SP:FF PPU:232, 19 CYC:2244
C656  29 80     AND #$80                        A:10 X:FF Y:00 P:24 SP:FF PPU:244, 19 CYC:2248
C658  F0 F9     BEQ $C653                       A:00 X:FF Y:00 P:26 SP:FF PPU:250, 19 CYC:2250
C653  AD 02 20  LDA $2002 = FF                  A:00 X:FF Y:00 P:26 SP:FF PPU:259, 19 CYC:2253
C656  29 80     AND #$80                        A:10 X:FF Y:00 P:24 SP:FF PPU:271, 19 CYC:2257
C658  F0 F9     BEQ $C653                       A:00 X:FF Y:00 P:26 SP:FF PPU:277, 19 CYC:2259
C653  AD 02 20  LDA $2002 = FF                  A:00 X:FF Y:00 P:26 SP:FF PPU:286, 19 CYC:2262
C656  29 80     AND #$80                        A:10 X:FF Y:00 P:24 SP:FF PPU:298, 19 CYC:2266
C658  F0 F9     BEQ $C653                       A:00 X:FF Y:00 P:26 SP:FF PPU:304, 19 CYC:2268
C653  AD 02 20  LDA $2002 = FF                  A:00 X:FF Y:00 P:26 SP:FF PPU:313, 19 CYC:2271
C656  29 80     AND #$80                        A:10 X:FF Y:00 P:24 SP:FF PPU:325, 19 CYC:2275
C658  F0 F9     BEQ $C653                       A:00 X:FF Y:00 P:26 SP:FF PPU:331, 19 CYC:2277
C653  AD 02 20  LDA $2002 = FF                  A:00 X:FF Y:00 P:26 SP:FF PPU:340, 19 CYC:2280
C656  29 80     AND #$80                        A:10 X:FF Y:00 P:24 SP:FF PPU: 11, 20 CYC:2284
C658  F0 F9     BEQ $C653                       A:00 X:FF Y:00 P:26 SP:FF PPU: 17, 20 CYC:2286
C653  AD 02 20  LDA $2002 = FF                  A:00 X:FF Y:00 P:26 SP:FF PPU: 26, 20 CYC:2289
C656  29 80     AND #$80                        A:10 X:FF Y:00 P:24 SP:FF PPU: 38, 20 CYC:2293
C658  F0 F9     BEQ $C653                       A:00 X:FF Y:00 P:26 SP:FF PPU: 44, 20 CYC:2295
C653  AD 02 20  LDA $2002 = FF                  A:00 X:FF Y:00 P:26 SP:FF PPU: 53, 20 CYC:2298
C656  29 80     AND #$80                        A:10 X:FF Y:00 P:24 SP:FF PPU: 65, 20 CYC:2302
C658  F0 F9     BEQ $C653                       A:00 X:FF Y:00 P:26 SP:FF PPU: 71, 20 CYC:2304
C653  AD 02 20  LDA $2002 = FF                  A:00 X:FF Y:00 P:26 SP:FF PPU: 80, 20 CYC:2307
C656  29 80     AND #$80                        A:10 X:FF Y:00 P:24 SP:FF PPU: 92, 20 CYC:2311
C658  F0 F9     BEQ $C653                       A:00 X:FF Y:00 P:26 SP:FF PPU: 98, 20 CYC:2313
C653  AD 02 20  LDA $2002 = FF                  A:00 X:FF Y:00 P:26 SP:FF PPU:107, 20 CYC:2316
C656  29 80     AND #$80                        A:10 X:FF Y:00 P:24 SP:FF PPU:119, 20 CYC:2320
C658  F0 F9     BEQ $C653                       A:00 X:FF Y:00 P:26 SP:FF PPU:125, 20 CYC:2322
C653  AD 02 20  LDA $2002 = FF                  A:00 X:FF Y:00 P:26 SP:FF PPU:134, 20 CYC:2325
C656  29 80     AND #$80                        A:10 X:FF Y:00 P:24 SP:FF PPU:146, 20 CYC:2329
C658  F0 F9     BEQ $C653                       A:00 X:FF Y:00 P:26 SP:FF PPU:152, 20 CYC:2331
C653  AD 02 20  LDA $2002 = FF                  A:00 X:FF Y:00 P:26 SP:FF PPU:161, 20 CYC:2334
C656  29 80     AND #$80                        A:10 X:FF Y:00 P:24 SP:FF PPU:173, 20 CYC:2338
C658  F0 F9     BEQ $C653                       A:00 X:FF Y:00 P:26 SP:FF PPU:179, 20 CYC:2340
C653  AD 02 20  LDA $2002 = FF                  A:00 X:FF Y:00 P:26 SP:FF PPU:188, 20 CYC:2343
C656  29 80     AND #$80                        A:10 X:FF Y:00 P:24 SP:FF PPU:200, 20 CYC:2347
C658  F0 F9     BEQ $C653                       A:00 X:FF Y:00 P:26 SP:FF PPU:206, 20 CYC:2349
C653  AD 02 20  LDA $2002 = FF                  A:00 X:FF Y:00 P:26 SP:FF PPU:215, 20 CYC:2352
C656  29 80     AND #$80                        A:10 X:FF Y:00 P:24 SP:FF PPU:227, 20 CYC:2356
C658  F0 F9     BEQ $C653                       A:00 X:FF Y:00 P:26 SP:FF PPU:233, 20 CYC:2358
C653  AD 02 20  LDA $2002 = FF                  A:00 X:FF Y:00 P:26 SP:FF PPU:242, 20 CYC:2361
C656  29 80     AND #$80                        A:10 X:FF Y:00 P:24 SP:FF PPU:254, 20 CYC:2365
C658  F0 F9     BEQ $C653                       A:00 X:FF Y:00 P:26 SP:FF PPU:260, 20 CYC:2367
C653  AD 02 20  LDA $2002 = FF                  A:00 X:FF Y:00 P:26 SP:FF PPU:269, 20 CYC:2370
C656  29 80     AND #$80                        A:10 X:FF Y:00 P:24 SP:FF PPU:281, 20 CYC:2374
C658  F0 F9     BEQ $C653                       A:00 X:FF Y:00 P:26 SP:FF PPU:287, 20 CYC:2376
C653  AD 02 20  LDA $2002 = FF                  A:00 X:FF Y:00 P:26 SP:FF PPU:296, 20 CYC:2379
C656  29 80     AND #$80                        A:10 X:FF Y:00 P:24 SP:FF PPU:308, 20 CYC:2383
C658  F0 F9     BEQ $C653                       A:00 X:FF Y:00 P:26 SP:FF PPU:314, 20 CYC:2385
C653  AD 02 20  LDA $2002 = FF                  A:00 X:FF Y:00 P:26 SP:FF PPU:323, 20 CYC:2388
C656  29 80     AND #$80                        A:10 X:FF Y:00 P:24 SP:FF PPU:335, 20 CYC:2392
C658  F0 F9     BEQ $C653                       A:00 X:FF Y:00 P:26 SP:FF PPU:  0, 21 CYC:2394
C653  AD 02 20  LDA $2002 = FF                  A:00 X:FF Y:00 P:26 SP:FF PPU:  9, 21 CYC:2397
C656  29 80     AND #$80                        A:10 X:FF Y:00 P:24 SP:FF PPU: 21, 21 CYC:2401
C658  F0 F9     BEQ $C653                       A:00 X:FF Y:00 P:26 SP:FF PPU: 27, 21 CYC:2403
C653  AD 02 20  LDA $2002 = FF                  A:00 X:FF Y:00 P:26 SP:FF PPU: 36, 21 CYC:2406
C656  29 80     AND #$80                        A:10 X:FF Y:00 P:24 SP:FF PPU: 48, 21 CYC:2410
C658  F0 F9     BEQ $C653                       A:00 X:FF Y:00 P:26 SP:FF PPU: 54, 21 CYC:2412
C653  AD 02 20  LDA $2002 = FF                  A:00 X:FF Y:00 P:26 SP:FF PPU: 63, 21 CYC:2415
C656  29 80     AND #$80                        A:10 X:FF Y:00 P:24 SP:FF PPU: 75, 21 CYC:2419
C658  F0 F9     BEQ $C653                       A:00 X:FF Y:00 P:26 SP:FF PPU: 81, 21 CYC:2421
C653  AD 02 20  LDA $2002 = FF                  A:00 X:FF Y:00 P:26 SP:FF PPU: 90, 21 CYC:2424
C656  29 80     AND #$80                        A:10 X:FF Y:00 P:24 SP:FF PPU:102, 21 CYC:2428
C658  F0 F9     BEQ $C653                       A:00 X:FF Y:00 P:26 SP:FF PPU:108, 21 CYC:2430
C653  AD 02 20  LDA $2002 = FF                  A:00 X:FF Y:00 P:26 SP:FF PPU:117, 21 CYC:2433
C656  29 80     AND #$80                        A:10 X:FF Y:00 P:24 SP:FF PPU:129, 21 CYC:2437
C658  F0 F9     BEQ $C653                       A:00 X:FF Y:00 P:26 SP:FF PPU:135, 21 CYC:2439
C653  AD 02 20  LDA $2002 = FF                  A:00 X:FF Y:00 P:26 SP:FF PPU:144, 21 CYC:2442
C656  29 80     AND #$80                        A:10 X:FF Y:00 P:24 SP:FF PPU:156, 21 CYC:2446
C658  F0 F9     BEQ $C653                       A:00 X:FF Y:00 P:26 SP:FF PPU:162, 21 CYC:2448
C653  AD 02 20  LDA $2002 = FF                  A:00 X:FF Y:00 P:26 SP:FF PPU:171, 21 CYC:2451
C656  29 80     AND #$80                        A:10 X:FF Y:00 P:24 SP:FF PPU:183, 21 CYC:2455
C658  F0 F9     BEQ $C653                       A:00 X:FF Y:00 P:26 SP:FF PPU:189, 21 CYC:2457
C653  AD 02 20  LDA $2002 = FF                  A:00 X:FF Y:00 P:26 SP:FF PPU:198, 21 CYC:2460
C656  29 80     AND #$80                        A:10 X:FF Y:00 P:24 SP:FF PPU:210, 21 CYC:2464
C658  F0 F9     BEQ $C653                       A:00 X:FF Y:00 P:26 SP:FF PPU:216, 21 CYC:2466
C653  AD 02 20  LDA $2002 = FF                  A:00 X:FF Y:00 P:26 SP:FF PPU:225, 21 CYC:2469
C656  29 80     AND #$80                        A:10 X:FF Y:00 P:24 SP:FF PPU:237, 21 CYC:2473
C658  F0 F9     BEQ $C653                       A:00 X:FF Y:00 P:26 SP:FF PPU:243, 21 CYC:2475
C653  AD 02 20  LDA $2002 = FF                  A:00 X:FF Y:00 P:26 SP:FF PPU:252, 21 CYC:2478
C656  29 80     AND #$80                        A:10 X:FF Y:00 P:24 SP:FF PPU:264, 21 CYC:2482
C658  F0 F9     BEQ $C653                       A:00 X:FF Y:00 P:26 SP:FF PPU:270, 21 CYC:2484
C653  AD 02 20  LDA $2002 = FF                  A:00 X:FF Y:00 P:26 SP:FF PPU:279, 21 CYC:2487
C656  29 80     AND #$80                        A:10 X:FF Y:00 P:24 SP:FF PPU:291, 21 CYC:2491
C658  F0 F9     BEQ $C653                       A:00 X:FF Y:00 P:26 SP:FF PPU:297, 21 CYC:2493
C653  AD 02 20  LDA $2002 = FF                  A:00 X:FF Y:00 P:26 SP:FF PPU:306, 21 CYC:2496
C656  29 80     AND #$80                        A:10 X:FF Y:00 P:24 SP:FF PPU:318, 21 CYC:2500
C658  F0 F9     BEQ $C653                       A:00 X:FF Y:00 P:26 SP:FF PPU:324, 21 CYC:2502
C653  AD 02 20  LDA $2002 = FF                  A:00 X:FF Y:00 P:26 SP:FF PPU:333, 21 CYC:2505
C656  29 80     AND #$80                        A:10 X:FF Y:00 P:24 SP:FF PPU:  4, 22 CYC:2509
C658  F0 F9     BEQ $C653                       A:00 X:FF Y:00 P:26 SP:FF PPU: 10, 22 CYC:2511
C653  AD 02 20  LDA $2002 = FF                  A:00 X:FF Y:00 P:26 SP:FF PPU: 19, 22 CYC:2514
C656  29 80     AND #$80                        A:10 X:FF Y:00 P:24 SP:FF PPU: 31, 22 CYC:2518
C658  F0 F9     BEQ $C653                       A:00 X:FF Y:00 P:26 SP:FF PPU: 37, 22 CYC:2520
C653  AD 02 20  LDA $2002 = FF                  A:00 X:FF Y:00 P:26 SP:FF PPU: 46, 22 CYC:2523
C656  29 80     AND #$80                        A:10 X:FF Y:00 P:24 SP:FF PPU: 58, 22 CYC:2527
C658  F0 F9     BEQ $C653                       A:00 X:FF Y:00 P:26 SP:FF PPU: 64, 22 CYC:2529
C653  AD 02 20  LDA $2002 = FF                  A:00 X:FF Y:00 P:26 SP:FF PPU: 73, 22 CYC:2532
C656  29 80     AND #$80                        A:10 X:FF Y:00 P:24 SP:FF PPU: 85, 22 CYC:2536
C658  F0 F9     BEQ $C653                       A:00 X:FF Y:00 P:26 SP:FF PPU: 91, 22 CYC:2538
C653  AD 02 20  LDA $2002 = FF                  A:00 X:FF Y:00 P:26 SP:FF PPU:100, 22 CYC:2541
C656  29 80     AND #$80                        A:10 X:FF Y:00 P:24 SP:FF PPU:112, 22 CYC:2545
C658  F0 F9     BEQ $C653                       A:00 X:FF Y:00 P:26 SP:FF PPU:118, 22 CYC:2547
C653  AD 02 20  LDA $2002 = FF                  A:00 X:FF Y:00 P:26 SP:FF PPU:127, 22 CYC:2550
C656  29 80     AND #$80                        A:10 X:FF Y:00 P:24 SP:FF PPU:139, 22 CYC:2554
C658  F0 F9     BEQ $C653                       A:00 X:FF Y:00 P:26 SP:FF PPU:145, 22 CYC:2556
C653  AD 02 20  LDA $2002 = FF                  A:00 X:FF Y:00 P:26 SP:FF PPU:154, 22 CYC:2559
C656  29 80     AND #$80                        A:10 X:FF Y:00 P:24 SP:FF PPU:166, 22 CYC:2563
C658  F0 F9     BEQ $C653                       A:00 X:FF Y:00 P:26 SP:FF PPU:172, 22 CYC:2565
C653  AD 02 20  LDA $2002 = FF                  A:00 X:FF Y:00 P:26 SP:FF PPU:181, 22 CYC:2568
C656  29 80     AND #$80                        A:10 X:FF Y:00 P:24 SP:FF PPU:193, 22 CYC:2572
C658  F0 F9     BEQ $C653                       A:00 X:FF Y:00 P:26 SP:FF PPU:199, 22 CYC:2574
C653  AD 02 20  LDA $2002 = FF                  A:00 X:FF Y:00 P:26 SP:FF PPU:208, 22 CYC:2577
C656  29 80     AND #$80                        A:10 X:FF Y:00 P:24 SP:FF PPU:220, 22 CYC:2581
C658  F0 F9     BEQ $C653                       A:00 X:FF Y:00 P:26 SP:FF PPU:226, 22 CYC:2583
C653  AD 02 20  LDA $2002 = FF                  A:00 X:FF Y:00 P:26 SP:FF PPU:235, 22 CYC:2586
C656  29 80     AND #$80                        A:10 X:FF Y:00 P:24 SP:FF PPU:247, 22 CYC:2590
C658  F0 F9     BEQ $C653                       A:00 X:FF Y:00 P:26 SP:FF PPU:253, 22 CYC:2592
C653  AD 02 20  LDA $2002 = FF                  A:00 X:FF Y:00 P:26 SP:FF PPU:262, 22 CYC:2595
C656  29 80     AND #$80                        A:10 X:FF Y:00 P:24 SP:FF PPU:274, 22 CYC:2599
C658  F0 F9     BEQ $C653                       A:00 X:FF Y:00 P:26 SP:FF PPU:280, 22 CYC:2601
C653  AD 02 20  LDA $2002 = FF                  A:00 X:FF Y:00 P:26 SP:FF PPU:289, 22 CYC:2604
C656  29 80     AND #$80                        A:10 X:FF Y:00 P:24 SP:FF PPU:301, 22 CYC:2608
C658  F0 F9     BEQ $C653                       A:00 X:FF Y:00 P:26 SP:FF PPU:307, 22 CYC:2610
C653  AD 02 20  LDA $2002 = FF                  A:00 X:FF Y:00 P:26 SP:FF PPU:316, 22 CYC:2613
C656  29 80     AND #$80                        A:10 X:FF Y:00 P:24 SP:FF PPU:328, 22 CYC:2617
C658  F0 F9     BEQ $C653                       A:00 X:FF Y:00 P:26 SP:FF PPU:334, 22 CYC:2619
C653  AD 02 20  LDA $2002 = FF                  A:00 X:FF Y:00 P:26 SP:FF PPU:  2, 23 CYC:2622
C656  29 80     AND #$80                        A:10 X:FF Y:00 P:24 SP:FF PPU: 14, 23 CYC:2626
C658  F0 F9     BEQ $C653                       A:00 X:FF Y:00 P:26 SP:FF PPU: 20, 23 CYC:2628
C653  AD 02 20  LDA $2002 = FF                  A:00 X:FF Y:00 P:26 SP:FF PPU: 29, 23 CYC:2631
C656  29 80     AND #$80                        A:10 X:FF Y:00 P:24 SP:FF PPU: 41, 23 CYC:2635
C658  F0 F9     BEQ $C653                       A:00 X:FF Y:00 P:26 SP:FF PPU: 47, 23 CYC:2637
C653  AD 02 20  LDA $2002 = FF                  A:00 X:FF Y:00 P:26 SP:FF PPU: 56, 23 CYC:2640
C656  29 80     AND #$80                        A:10 X:FF Y:00 P:24 SP:FF PPU: 68, 23 CYC:2644
C658  F0 F9     BEQ $C653                       A:00 X:FF Y:00 P:26 SP:FF PPU: 74, 23 CYC:2646
C653  AD 02 20  LDA $2002 = FF                  A:00 X:FF Y:00 P:26 SP:FF PPU: 83, 23 CYC:2649
C656  29 80     AND #$80                        A:10 X:FF Y:00 P:24 SP:FF PPU: 95, 23 CYC:2653
C658  F0 F9     BEQ $C653                       A:00 X:FF Y:00 P:26 SP:FF PPU:101, 23 CYC:2655
C653  AD 02 20  LDA $2002 = FF                  A:00 X:FF Y:00 P:26 SP:FF PPU:110, 23 CYC:2658
C656  29 80     AND #$80                        A:10 X:FF Y:00 P:24 SP:FF PPU:122, 23 CYC:2662
C658  F0 F9     BEQ $C653                       A:00 X:FF Y:00 P:26 SP:FF PPU:128, 23 CYC:2664
C653  AD 02 20  LDA $2002 = FF                  A:00 X:FF Y:00 P:26 SP:FF PPU:137, 23 CYC:2667
C656  29 80     AND #$80                        A:10 X:FF Y:00 P:24 SP:FF PPU:149, 23 CYC:2671
C658  F0 F9     BEQ $C653                       A:00 X:FF Y:00 P:26 SP:FF PPU:155, 23 CYC:2673
C653  AD 02 20  LDA $2002 = FF                  A:00 X:FF Y:00 P:26 SP:FF PPU:164, 23 CYC:2676
C656  29 80     AND #$80                        A:10 X:FF Y:00 P:24 SP:FF PPU:176, 23 CYC:2680
C658  F0 F9     BEQ $C653                       A:00 X:FF Y:00 P:26 SP:FF PPU:182, 23 CYC:2682
C653  AD 02 20  LDA $2002 = FF                  A:00 X:FF Y:00 P:26 SP:FF PPU:191, 23 CYC:2685
C656  29 80     AND #$80                        A:10 X:FF Y:00 P:24 SP:FF PPU:203, 23 CYC:2689
C658  F0 F9     BEQ $C653                       A:00 X:FF Y:00 P:26 SP:FF PPU:209, 23 CYC:2691
C653  AD 02 20  LDA $2002 = FF                  A:00 X:FF Y:00 P:26 SP:FF PPU:218, 23 CYC:2694
C656  29 80     AND #$80                        A:10 X:FF Y:00 P:24 SP:FF PPU:230, 23 CYC:2698
C658  F0 F9     BEQ $C653                       A:00 X:FF Y:00 P:26 SP:FF PPU:236, 23 CYC:2700
C653  AD 02 20  LDA $2002 = FF                  A:00 X:FF Y:00 P:26 SP:FF PPU:245, 23 CYC:2703
C656  29 80     AND #$80                        A:10 X:FF Y:00 P:24 SP:FF PPU:257, 23 CYC:2707
C658  F0 F9     BEQ $C653                       A:00 X:FF Y:00 P:26 SP:FF PPU:263, 23 CYC:2709
C653  AD 02 20  LDA $2002 = FF                  A:00 X:FF Y:00 P:26 SP:FF PPU:272, 23 CYC:2712
C656  29 80     AND #$80                        A:10 X:FF Y:00 P:24 SP:FF PPU:284, 23 CYC:2716
C658  F0 F9     BEQ $C653                       A:00 X:FF Y:00 P:26 SP:FF PPU:290, 23 CYC:2718
C653  AD 02 20  LDA $2002 = FF                  A:00 X:FF Y:00 P:26 SP:FF PPU:299, 23 CYC:2721
C656  29 80     AND #$80                        A:10 X:FF Y:00 P:24 SP:FF PPU:311, 23 CYC:2725
C658  F0 F9     BEQ $C653                       A:00 X:FF Y:00 P:26 SP:FF PPU:317, 23 CYC:2727
C653  AD 02 20  LDA $2002 = FF                  A:00 X:FF Y:00 P:26 SP:FF PPU:326, 23 CYC:2730
C656  29 80     AND #$80                        A:10 X:FF Y:00 P:24 SP:FF PPU:338, 23 CYC:2734
C658  F0 F9     BEQ $C653                       A:00 X:FF Y:00 P:26 SP:FF PPU:  3, 24 CYC:2736
C653  AD 02 20  LDA $2002 = FF                  A:00 X:FF Y:00 P:26 SP:FF PPU: 12, 24 CYC:2739
C656  29 80     AND #$80                        A:10 X:FF Y:00 P:24 SP:FF PPU: 24, 24 CYC:2743
C658  F0 F9     BEQ $C653                       A:00 X:FF Y:00 P:26 SP:FF PPU: 30, 24 CYC:2745
C653  AD 02 20  LDA $2002 = FF                  A:00 X:FF Y:00 P:26 SP:FF PPU: 39, 24 CYC:2748
C656  29 80     AND #$80                        A:10 X:FF Y:00 P:24 SP:FF PPU: 51, 24 CYC:2752
C658  F0 F9     BEQ $C653                       A:00 X:FF Y:00 P:26 SP:FF PPU: 57, 24 CYC:2754
C653  AD 02 20  LDA $2002 = FF                  A:00 X:FF Y:00 P:26 SP:FF PPU: 66, 24 CYC:2757
C656  29 80     AND #$80                        A:10 X:FF Y:00 P:24 SP:FF PPU: 78, 24 CYC:2761
C658  F0 F9     BEQ $C653                       A:00 X:FF Y:00 P:26 SP:FF PPU: 84, 24 CYC:2763
C653  AD 02 20  LDA $2002 = FF                  A:00 X:FF Y:00 P:26 SP:FF PPU: 93, 24 CYC:2766
C656  29 80     AND #$80                        A:10 X:FF Y:00 P:24 SP:FF PPU:105, 24 CYC:2770
C658  F0 F9     BEQ $C653                       A:00 X:FF Y:00 P:26 SP:FF PPU:111, 24 CYC:2772
C653  AD 02 20  LDA $2002 = FF                  A:00 X:FF Y:00 P:26 SP:FF PPU:120, 24 CYC:2775
C656  29 80     AND #$80                        A:10 X:FF Y:00 P:24 SP:FF PPU:132, 24 CYC:2779
C658  F0 F9     BEQ $C653                       A:00 X:FF Y:00 P:26 SP:FF PPU:138, 24 CYC:2781
C653  AD 02 20  LDA $2002 = FF                  A:00 X:FF Y:00 P:26 SP:FF PPU:147, 24 CYC:2784
C656  29 80     AND #$80                        A:10 X:FF Y:00 P:24 SP:FF PPU:159, 24 CYC:2788
C658  F0 F9     BEQ $C653                       A:00 X:FF Y:00 P:26 SP:FF PPU:165, 24 CYC:2790
C653  AD 02 20  LDA $2002 = FF                  A:00 X:FF Y:00 P:26 SP:FF PPU:174, 24 CYC:2793
C656  29 80     AND #$80                        A:10 X:FF Y:00 P:24 SP:FF PPU:186, 24 CYC:2797
C658  F0 F9     BEQ $C653                       A:00 X:FF Y:00 P:26 SP:FF PPU:192, 24 CYC:2799
C653  AD 02 20  LDA $2002 = FF                  A:00 X:FF Y:00 P:26 SP:FF PPU:201, 24 CYC:2802
C656  29 80     AND #$80                        A:10 X:FF Y:00 P:24 SP:FF PPU:213, 24 CYC:2806
C658  F0 F9     BEQ $C653                       A:00 X:FF Y:00 P:26 SP:FF PPU:219, 24 CYC:2808
C653  AD 02 20  LDA $2002 = FF                  A:00 X:FF Y:00 P:26 SP:FF PPU:228, 24 CYC:2811
C656  29 80     AND #$80                        A:10 X:FF Y:00 P:24 SP:FF PPU:240, 24 CYC:2815
C658  F0 F9     BEQ $C653                       A:00 X:FF Y:00 P:26 SP:FF PPU:246, 24 CYC:2817
C653  AD 02 20  LDA $2002 = FF                  A:00 X:FF Y:00 P:26 SP:FF PPU:255, 24 CYC:2820
C656  29 80     AND #$80                        A:10 X:FF Y:00 P:24 SP:FF PPU:267, 24 CYC:2824
C658  F0 F9     BEQ $C653                       A:00 X:FF Y:00 P:26 SP:FF PPU:273, 24 CYC:2826
C653  AD 02 20  LDA $2002 = FF                  A:00 X:FF Y:00 P:26 SP:FF PPU:282, 24 CYC:2829
C656  29 80     AND #$80                        A:10 X:FF Y:00 P:24 SP:FF PPU:294, 24 CYC:2833
C658  F0 F9     BEQ $C653                       A:00 X:FF Y:00 P:26 SP:FF PPU:300, 24 CYC:2835
C653  AD 02 20  LDA $2002 = FF                  A:00 X:FF Y:00 P:26 SP:FF PPU:309, 24 CYC:2838
C656  29 80     AND #$80                        A:10 X:FF Y:00 P:24 SP:FF PPU:321, 24 CYC:2842
C658  F0 F9     BEQ $C653                       A:00 X:FF Y:00 P:26 SP:FF PPU:327, 24 CYC:2844
C653  AD 02 20  LDA $2002 = FF                  A:00 X:FF Y:00 P:26 SP:FF PPU:336, 24 CYC:2847
C656  29 80     AND #$80                        A:10 X:FF Y:00 P:24 SP:FF PPU:  7, 25 CYC:2851
C658  F0 F9     BEQ $C653                       A:00 X:FF Y:00 P:26 SP:FF PPU: 13, 25 CYC:2853
C653  AD 02 20  LDA $2002 = FF                  A:00 X:FF Y:00 P:26 SP:FF PPU: 22, 25 CYC:2856
C656  29 80     AND #$80                        A:10 X:FF Y:00 P:24 SP:FF PPU: 34, 25 CYC:2860
C658  F0 F9     BEQ $C653                       A:00 X:FF Y:00 P:26 SP:FF PPU: 40, 25 CYC:2862
C653  AD 02 20  LDA $2002 = FF                  A:00 X:FF Y:00 P:26 SP:FF PPU: 49, 25 CYC:2865
C656  29 80     AND #$80                        A:10 X:FF Y:00 P:24 SP:FF PPU: 61, 25 CYC:2869
C658  F0 F9     BEQ $C653                       A:00 X:FF Y:00 P:26 SP:FF PPU: 67, 25 CYC:2871
C653  AD 02 20  LDA $2002 = FF                  A:00 X:FF Y:00 P:26 SP:FF PPU: 76, 25 CYC:2874
C656  29 80     AND #$80                        A:10 X:FF Y:00 P:24 SP:FF PPU: 88, 25 CYC:2878
C658  F0 F9     BEQ $C653                       A:00 X:FF Y:00 P:26 SP:FF PPU: 94, 25 CYC:2880
C653  AD 02 20  LDA $2002 = FF                  A:00 X:FF Y:00 P:26 SP:FF PPU:103, 25 CYC:2883
C656  29 80     AND #$80                        A:10 X:FF Y:00 P:24 SP:FF PPU:115, 25 CYC:2887
C658  F0 F9     BEQ $C653                       A:00 X:FF Y:00 P:26 SP:FF PPU:121, 25 CYC:2889
C653  AD 02 20  LDA $2002 = FF                  A:00 X:FF Y:00 P:26 SP:FF PPU:130, 25 CYC:2892
C656  29 80     AND #$80                        A:10 X:FF Y:00 P:24 SP:FF PPU:142, 25 CYC:2896
C658  F0 F9     BEQ $C653                       A:00 X:FF Y:00 P:26 SP:FF PPU:148, 25 CYC:2898
C653  AD 02 20  LDA $2002 = FF                  A:00 X:FF Y:00 P:26 SP:FF PPU:157, 25 CYC:2901
C656  29 80     AND #$80                        A:10 X:FF Y:00 P:24 SP:FF PPU:169, 25 CYC:2905
C658  F0 F9     BEQ $C653                       A:00 X:FF Y:00 P:26 SP:FF PPU:175, 25 CYC:2907
C653  AD 02 20  LDA $2002 = FF                  A:00 X:FF Y:00 P:26 SP:FF PPU:184, 25 CYC:2910
C656  29 80     AND #$80                        A:10 X:FF Y:00 P:24 SP:FF PPU:196, 25 CYC:2914
C658  F0 F9     BEQ $C653                       A:00 X:FF Y:00 P:26 SP:FF PPU:202, 25 CYC:2916
C653  AD 02 20  LDA $2002 = FF                  A:00 X:FF Y:00 P:26 SP:FF PPU:211, 25 CYC:2919
C656  29 80     AND #$80                        A:10 X:FF Y:00 P:24 SP:FF PPU:223, 25 CYC:2923
C658  F0 F9     BEQ $C653                       A:00 X:FF Y:00 P:26 SP:FF PPU:229, 25 CYC:2925
C653  AD 02 20  LDA $2002 = FF                  A:00 X:FF Y:00 P:26 SP:FF PPU:238, 25 CYC:2928
C656  29 80     AND #$80                        A:10 X:FF Y:00 P:24 SP:FF PPU:250, 25 CYC:2932
C658  F0 F9     BEQ $C653                       A:00 X:FF Y:00 P:26 SP:FF PPU:256, 25 CYC:2934
C653  AD 02 20  LDA $2002 = FF                  A:00 X:FF Y:00 P:26 SP:FF PPU:265, 25 CYC:2937
C656  29 80     AND #$80                        A:10 X:FF Y:00 P:24 SP:FF PPU:277, 25 CYC:2941
C658  F0 F9     BEQ $C653                       A:00 X:FF Y:00 P:26 SP:FF PPU:283, 25 CYC:2943
C653  AD 02 20  LDA $2002 = FF                  A:00 X:FF Y:00 P:26 SP:FF PPU:292, 25 CYC:2946
C656  29 80     AND #$80                        A:10 X:FF Y:00 P:24 SP:FF PPU:304, 25 CYC:2950
C658  F0 F9     BEQ $C653                       A:00 X:FF Y:00 P:26 SP:FF PPU:310, 25 CYC:2952
C653  AD 02 20  LDA $2002 = FF                  A:00 X:FF Y:00 P:26 SP:FF PPU:319, 25 CYC:2955
C656  29 80     AND #$80                        A:10 X:FF Y:00 P:24 SP:FF PPU:331, 25 CYC:2959
C658  F0 F9     BEQ $C653                       A:00 X:FF Y:00 P:26 SP:FF PPU:337, 25 CYC:2961
C653  AD 02 20  LDA $2002 = FF                  A:00 X:FF Y:00 P:26 SP:FF PPU:  5, 26 CYC:2964
C656  29 80     AND #$80                        A:10 X:FF Y:00 P:24 SP:FF PPU: 17, 26 CYC:2968
C658  F0 F9     BEQ $C653                       A:00 X:FF Y:00 P:26 SP:FF PPU: 23, 26 CYC:2970
C653  AD 02 20  LDA $2002 = FF                  A:00 X:FF Y:00 P:26 SP:FF PPU: 32, 26 CYC:2973
C656  29 80     AND #$80                        A:10 X:FF Y:00 P:24 SP:FF PPU: 44, 26 CYC:2977
C658  F0 F9     BEQ $C653                       A:00 X:FF Y:00 P:26 SP:FF PPU: 50, 26 CYC:2979
C653  AD 02 20  LDA $2002 = FF                  A:00 X:FF Y:00 P:26 SP:FF PPU: 59, 26 CYC:2982
C656  29 80     AND #$80                        A:10 X:FF Y:00 P:24 SP:FF PPU: 71, 26 CYC:2986
C658  F0 F9     BEQ $C653                       A:00 X:FF Y:00 P:26 SP:FF PPU: 77, 26 CYC:2988
C653  AD 02 20  LDA $2002 = FF                  A:00 X:FF Y:00 P:26 SP:FF PPU: 86, 26 CYC:2991
C656  29 80     AND #$80                        A:10 X:FF Y:00 P:24 SP:FF PPU: 98, 26 CYC:2995
C658  F0 F9     BEQ $C653                       A:00 X:FF Y:00 P:26 SP:FF PPU:104, 26 CYC:2997
C653  AD 02 20  LDA $2002 = FF                  A:00 X:FF Y:00 P:26 SP:FF PPU:113, 26 CYC:3000
C656  29 80     AND #$80                        A:10 X:FF Y:00 P:24 SP:FF PPU:125, 26 CYC:3004
C658  F0 F9     BEQ $C653                       A:00 X:FF Y:00 P:26 SP:FF PPU:131, 26 CYC:3006
C653  AD 02 20  LDA $2002 = FF                  A:00 X:FF Y:00 P:26 SP:FF PPU:140, 26 CYC:3009
C656  29 80     AND #$80                        A:10 X:FF Y:00 P:24 SP:FF PPU:152, 26 CYC:3013
C658  F0 F9     BEQ $C653                       A:00 X:FF Y:00 P:26 SP:FF PPU:158, 26 CYC:3015
C653  AD 02 20  LDA $2002 = FF                  A:00 X:FF Y:00 P:26 SP:FF PPU:167, 26 CYC:3018
C656  29 80     AND #$80                        A:10 X:FF Y:00 P:24 SP:FF PPU:179, 26 CYC:3022
C658  F0 F9     BEQ $C653                       A:00 X:FF Y:00 P:26 SP:FF PPU:185, 26 CYC:3024
C653  AD 02 20  LDA $2002 = FF                  A:00 X:FF Y:00 P:26 SP:FF PPU:194, 26 CYC:3027
C656  29 80     AND #$80                        A:10 X:FF Y:00 P:24 SP:FF PPU:206, 26 CYC:3031
C658  F0 F9     BEQ $C653                       A:00 X:FF Y:00 P:26 SP:FF PPU:212, 26 CYC:3033
C653  AD 02 20  LDA $2002 = FF                  A:00 X:FF Y:00 P:26 SP:FF PPU:221, 26 CYC:3036
C656  29 80     AND #$80                        A:10 X:FF Y:00 P:24 SP:FF PPU:233, 26 CYC:3040
C658  F0 F9     BEQ $C653                       A:00 X:FF Y:00 P:26 SP:FF PPU:239, 26 CYC:3042
C653  AD 02 20  LDA $2002 = FF                  A:00 X:FF Y:00 P:26 SP:FF PPU:248, 26 CYC:3045
C656  29 80     AND #$80                        A:10 X:FF Y:00 P:24 SP:FF PPU:260, 26 CYC:3049
C658  F0 F9     BEQ $C653                       A:00 X:FF Y:00 P:26 SP:FF PPU:266, 26 CYC:3051
C653  AD 02 20  LDA $2002 = FF                  A:00 X:FF Y:00 P:26 SP:FF PPU:275, 26 CYC:3054
C656  29 80     AND #$80                        A:10 X:FF Y:00 P:24 SP:FF PPU:287, 26 CYC:3058
C658  F0 F9     BEQ $C653                       A:00 X:FF Y:00 P:26 SP:FF PPU:293, 26 CYC:3060
C653  AD 02 20  LDA $2002 = FF                  A:00 X:FF Y:00 P:26 SP:FF PPU:302, 26 CYC:3063
C656  29 80     AND #$80                        A:10 X:FF Y:00 P:24 SP:FF PPU:314, 26 CYC:3067
C658  F0 F9     BEQ $C653                       A:00 X:FF Y:00 P:26 SP:FF PPU:320, 26 CYC:3069
C653  AD 02 20  LDA $2002 = FF                  A:00 X:FF Y:00 P:26 SP:FF PPU:329, 26 CYC:3072
C656  29 80     AND #$80                        A:10 X:FF Y:00 P:24 SP:FF PPU:  0, 27 CYC:3076
C658  F0 F9     BEQ $C653                       A:00 X:FF Y:00 P:26 SP:FF PPU:  6, 27 CYC:3078
C653  AD 02 20  LDA $2002 = FF                  A:00 X:FF Y:00 P:26 SP:FF PPU: 15, 27 CYC:3081
C656  29 80     AND #$80                        A:10 X:FF Y:00 P:24 SP:FF PPU: 27, 27 CYC:3085
C658  F0 F9     BEQ $C653                       A:00 X:FF Y:00 P:26 SP:FF PPU: 33, 27 CYC:3087
C653  AD 02 20  LDA $2002 = FF                  A:00 X:FF Y:00 P:26 SP:FF PPU: 42, 27 CYC:3090
C656  29 80     AND #$80                        A:10 X:FF Y:00 P:24 SP:FF PPU: 54, 27 CYC:3094
C658  F0 F9     BEQ $C653                       A:00 X:FF Y:00 P:26 SP:FF PPU: 60, 27 CYC:3096
C653  AD 02 20  LDA $2002 = FF                  A:00 X:FF Y:00 P:26 SP:FF PPU: 69, 27 CYC:3099
C656  29 80     AND #$80                        A:10 X:FF Y:00 P:24 SP:FF PPU: 81, 27 CYC:3103
C658  F0 F9     BEQ $C653                       A:00 X:FF Y:00 P:26 SP:FF PPU: 87, 27 CYC:3105
C653  AD 02 20  LDA $2002 = FF                  A:00 X:FF Y:00 P:26 SP:FF PPU: 96, 27 CYC:3108
C656  29 80     AND #$80                        A:10 X:FF Y:00 P:24 SP:FF PPU:108, 27 CYC:3112
C658  F0 F9     BEQ $C653                       A:00 X:FF Y:00 P:26 SP:FF PPU:114, 27 CYC:3114
C653  AD 02 20  LDA $2002 = FF                  A:00 X:FF Y:00 P:26 SP:FF PPU:123, 27 CYC:3117
C656  29 80     AND #$80                        A:10 X:FF Y:00 P:24 SP:FF PPU:135, 27 CYC:3121
C658  F0 F9     BEQ $C653                       A:00 X:FF Y:00 P:26 SP:FF PPU:141, 27 CYC:3123
C653  AD 02 20  LDA $2002 = FF                  A:00 X:FF Y:00 P:26 SP:FF PPU:150, 27 CYC:3126
C656  29 80     AND #$80                        A:10 X:FF Y:00 P:24 SP:FF PPU:162, 27 CYC:3130
C658  F0 F9     BEQ $C653                       A:00 X:FF Y:00 P:26 SP:FF PPU:168, 27 CYC:3132
C653  AD 02 20  LDA $2002 = FF                  A:00 X:FF Y:00 P:26 SP:FF PPU:177, 27 CYC:3135
C656  29 80     AND #$80                        A:10 X:FF Y:00 P:24 SP:FF PPU:189, 27 CYC:3139
C658  F0 F9     BEQ $C653                       A:00 X:FF Y:00 P:26 SP:FF PPU:195, 27 CYC:3141
C653  AD 02 20  LDA $2002 = FF                  A:00 X:FF Y:00 P:26 SP:FF PPU:204, 27 CYC:3144
C656  29 80     AND #$80                        A:10 X:FF Y:00 P:24 SP:FF PPU:216, 27 CYC:3148
C658  F0 F9     BEQ $C653                       A:00 X:FF Y:00 P:26 SP:FF PPU:222, 27 CYC:3150
C653  AD 02 20  LDA $2002 = FF                  A:00 X:FF Y:00 P:26 SP:FF PPU:231, 27 CYC:3153
C656  29 80     AND #$80                        A:10 X:FF Y:00 P:24 SP:FF PPU:243, 27 CYC:3157
C658  F0 F9     BEQ $C653                       A:00 X:FF Y:00 P:26 SP:FF PPU:249, 27 CYC:3159
C653  AD 02 20  LDA $2002 = FF                  A:00 X:FF Y:00 P:26 SP:FF PPU:258, 27 CYC:3162
C656  29 80     AND #$80                        A:10 X:FF Y:00 P:24 SP:FF PPU:270, 27 CYC:3166
C658  F0 F9     BEQ $C653                       A:00 X:FF Y:00 P:26 SP:FF PPU:276, 27 CYC:3168
C653  AD 02 20  LDA $2002 = FF                  A:00 X:FF Y:00 P:26 SP:FF PPU:285, 27 CYC:3171
C656  29 80     AND #$80                        A:10 X:FF Y:00 P:24 SP:FF PPU:297, 27 CYC:3175
C658  F0 F9     BEQ $C653                       A:00 X:FF Y:00 P:26 SP:FF PPU:303, 27 CYC:3177
C653  AD 02 20  LDA $2002 = FF                  A:00 X:FF Y:00 P:26 SP:FF PPU:312, 27 CYC:3180
C656  29 80     AND #$80                        A:10 X:FF Y:00 P:24 SP:FF PPU:324, 27 CYC:3184
C658  F0 F9     BEQ $C653                       A:00 X:FF Y:00 P:26 SP:FF PPU:330, 27 CYC:3186
C653  AD 02 20  LDA $2002 = FF                  A:00 X:FF Y:00 P:26 SP:FF PPU:339, 27 CYC:3189
C656  29 80     AND #$80                        A:10 X:FF Y:00 P:24 SP:FF PPU: 10, 28 CYC:3193
C658  F0 F9     BEQ $C653                       A:00 X:FF Y:00 P:26 SP:FF PPU: 16, 28 CYC:3195
C653  AD 02 20  LDA $2002 = FF                  A:00 X:FF Y:00 P:26 SP:FF PPU: 25, 28 CYC:3198
C656  29 80     AND #$80                        A:10 X:FF Y:00 P:24 SP:FF PPU: 37, 28 CYC:3202
C658  F0 F9     BEQ $C653                       A:00 X:FF Y:00 P:26 SP:FF PPU: 43, 28 CYC:3204
C653  AD 02 20  LDA $2002 = FF                  A:00 X:FF Y:00 P:26 SP:FF PPU: 52, 28 CYC:3207
C656  29 80     AND #$80                        A:10 X:FF Y:00 P:24 SP:FF PPU: 64, 28 CYC:3211
C658  F0 F9     BEQ $C653                       A:00 X:FF Y:00 P:26 SP:FF PPU: 70, 28 CYC:3213
C653  AD 02 20  LDA $2002 = FF                  A:00 X:FF Y:00 P:26 SP:FF PPU: 79, 28 CYC:3216
C656  29 80     AND #$80                        A:10 X:FF Y:00 P:24 SP:FF PPU: 91, 28 CYC:3220
C658  F0 F9     BEQ $C653                       A:00 X:FF Y:00 P:26 SP:FF PPU: 97, 28 CYC:3222
C653  AD 02 20  LDA $2002 = FF                  A:00 X:FF Y:00 P:26 SP:FF PPU:106, 28 CYC:3225
C656  29 80     AND #$80                        A:10 X:FF Y:00 P:24 SP:FF PPU:118, 28 CYC:3229
C658  F0 F9     BEQ $C653                       A:00 X:FF Y:00 P:26 SP:FF PPU:124, 28 CYC:3231
C653  AD 02 20  LDA $2002 = FF                  A:00 X:FF Y:00 P:26 SP:FF PPU:133, 28 CYC:3234
C656  29 80     AND #$80                        A:10 X:FF Y:00 P:24 SP:FF PPU:145, 28 CYC:3238
C658  F0 F9     BEQ $C653                       A:00 X:FF Y:00 P:26 SP:FF PPU:151, 28 CYC:3240
C653  AD 02 20  LDA $2002 = FF                  A:00 X:FF Y:00 P:26 SP:FF PPU:160, 28 CYC:3243
C656  29 80     AND #$80                        A:10 X:FF Y:00 P:24 SP:FF PPU:172, 28 CYC:3247
C658  F0 F9     BEQ $C653                       A:00 X:FF Y:00 P:26 SP:FF PPU:178, 28 CYC:3249
C653  AD 02 20  LDA $2002 = FF                  A:00 X:FF Y:00 P:26 SP:FF PPU:187, 28 CYC:3252
C656  29 80     AND #$80                        A:10 X:FF Y:00 P:24 SP:FF PPU:199, 28 CYC:3256
C658  F0 F9     BEQ $C653                       A:00 X:FF Y:00 P:26 SP:FF PPU:205, 28 CYC:3258
C653  AD 02 20  LDA $2002 = FF                  A:00 X:FF Y:00 P:26 SP:FF PPU:214, 28 CYC:3261
C656  29 80     AND #$80                        A:10 X:FF Y:00 P:24 SP:FF PPU:226, 28 CYC:3265
C658  F0 F9     BEQ $C653                       A:00 X:FF Y:00 P:26 SP:FF PPU:232, 28 CYC:3267
C653  AD 02 20  LDA $2002 = FF                  A:00 X:FF Y:00 P:26 SP:FF PPU:241, 28 CYC:3270
C656  29 80     AND #$80                        A:10 X:FF Y:00 P:24 SP:FF PPU:253, 28 CYC:3274
C658  F0 F9     BEQ $C653                       A:00 X:FF Y:00 P:26 SP:FF PPU:259, 28 CYC:3276
C653  AD 02 20  LDA $2002 = FF                  A:00 X:FF Y:00 P:26 SP:FF PPU:268, 28 CYC:3279
C656  29 80     AND #$80                        A:10 X:FF Y:00 P:24 SP:FF PPU:280, 28 CYC:3283
C658  F0 F9     BEQ $C653                       A:00 X:FF Y:00 P:26 SP:FF PPU:286, 28 CYC:3285
C653  AD 02 20  LDA $2002 = FF                  A:00 X:FF Y:00 P:26 SP:FF PPU:295, 28 CYC:3288
C656  29 80     AND #$80                        A:10 X:FF Y:00 P:24 SP:FF PPU:307, 28 CYC:3292
C658  F0 F9     BEQ $C653                       A:00 X:FF Y:00 P:26 SP:FF PPU:313, 28 CYC:3294
C653  AD 02 20  LDA $2002 = FF                  A:00 X:FF Y:00 P:26 SP:FF PPU:322, 28 CYC:3297
C656  29 80     AND #$80                        A:10 X:FF Y:00 P:24 SP:FF PPU:334, 28 CYC:3301
C658  F0 F9     BEQ $C653                       A:00 X:FF Y:00 P:26 SP:FF PPU:340, 28 CYC:3303
C653  AD 02 20  LDA $2002 = FF                  A:00 X:FF Y:00 P:26 SP:FF PPU:  8, 29 CYC:3306
C656  29 80     AND #$80                        A:10 X:FF Y:00 P:24 SP:FF PPU: 20, 29 CYC:3310
C658  F0 F9     BEQ $C653                       A:00 X:FF Y:00 P:26 SP:FF PPU: 26, 29 CYC:3312
C653  AD 02 20  LDA $2002 = FF                  A:00 X:FF Y:00 P:26 SP:FF PPU: 35, 29 CYC:3315
C656  29 80     AND #$80                        A:10 X:FF Y:00 P:24 SP:FF PPU: 47, 29 CYC:3319
C658  F0 F9     BEQ $C653                       A:00 X:FF Y:00 P:26 SP:FF PPU: 53, 29 CYC:3321
C653  AD 02 20  LDA $2002 = FF                  A:00 X:FF Y:00 P:26 SP:FF PPU: 62, 29 CYC:3324
C656  29 80     AND #$80                        A:10 X:FF Y:00 P:24 SP:FF PPU: 74, 29 CYC:3328
C658  F0 F9     BEQ $C653                       A:00 X:FF Y:00 P:26 SP:FF PPU: 80, 29 CYC:3330
C653  AD 02 20  LDA $2002 = FF                  A:00 X:FF Y:00 P:26 SP:FF PPU: 89, 29 CYC:3333
C656  29 80     AND #$80                        A:10 X:FF Y:00 P:24 SP:FF PPU:101, 29 CYC:3337
C658  F0 F9     BEQ $C653                       A:00 X:FF Y:00 P:26 SP:FF PPU:107, 29 CYC:3339
C653  AD 02 20  LDA $2002 = FF                  A:00 X:FF Y:00 P:26 SP:FF PPU:116, 29 CYC:3342
C656  29 80     AND #$80                        A:10 X:FF Y:00 P:24 SP:FF PPU:128, 29 CYC:3346
C658  F0 F9     BEQ $C653                       A:00 X:FF Y:00 P:26 SP:FF PPU:134, 29 CYC:3348
C653  AD 02 20  LDA $2002 = FF                  A:00 X:FF Y:00 P:26 SP:FF PPU:143, 29 CYC:3351
C656  29 80     AND #$80                        A:10 X:FF Y:00 P:24 SP:FF PPU:155, 29 CYC:3355
C658  F0 F9     BEQ $C653                       A:00 X:FF Y:00 P:26 SP:FF PPU:161, 29 CYC:3357
C653  AD 02 20  LDA $2002 = FF                  A:00 X:FF Y:00 P:26 SP:FF PPU:170, 29 CYC:3360
C656  29 80     AND #$80                        A:10 X:FF Y:00 P:24 SP:FF PPU:182, 29 CYC:3364
C658  F0 F9     BEQ $C653                       A:00 X:FF Y:00 P:26 SP:FF PPU:188, 29 CYC:3366
C653  AD 02 20  LDA $2002 = FF                  A:00 X:FF Y:00 P:26 SP:FF PPU:197, 29 CYC:3369
C656  29 80     AND #$80                        A:10 X:FF Y:00 P:24 SP:FF PPU:209, 29 CYC:3373
C658  F0 F9     BEQ $C653                       A:00 X:FF Y:00 P:26 SP:FF PPU:215, 29 CYC:3375
C653  AD 02 20  LDA $2002 = FF                  A:00 X:FF Y:00 P:26 SP:FF PPU:224, 29 CYC:3378
C656  29 80     AND #$80                        A:10 X:FF Y:00 P:24 SP:FF PPU:236, 29 CYC:3382
C658  F0 F9     BEQ $C653                       A:00 X:FF Y:00 P:26 SP:FF PPU:242, 29 CYC:3384
C653  AD 02 20  LDA $2002 = FF                  A:00 X:FF Y:00 P:26 SP:FF PPU:251, 29 CYC:3387
C656  29 80     AND #$80                        A:10 X:FF Y:00 P:24 SP:FF PPU:263, 29 CYC:3391
C658  F0 F9     BEQ $C653                       A:00 X:FF Y:00 P:26 SP:FF PPU:269, 29 CYC:3393
C653  AD 02 20  LDA $2002 = FF                  A:00 X:FF Y:00 P:26 SP:FF PPU:278, 29 CYC:3396
C656  29 80     AND #$80                        A:10 X:FF Y:00 P:24 SP:FF PPU:290, 29 CYC:3400
C658  F0 F9     BEQ $C653                       A:00 X:FF Y:00 P:26 SP:FF PPU:296, 29 CYC:3402
C653  AD 02 20  LDA $2002 = FF                  A:00 X:FF Y:00 P:26 SP:FF PPU:305, 29 CYC:3405
C656  29 80     AND #$80                        A:10 X:FF Y:00 P:24 SP:FF PPU:317, 29 CYC:3409
C658  F0 F9     BEQ $C653                       A:00 X:FF Y:00 P:26 SP:FF PPU:323, 29 CYC:3411
C653  AD 02 20  LDA $2002 = FF                  A:00 X:FF Y:00 P:26 SP:FF PPU:332, 29 CYC:3414
C656  29 80     AND #$80                        A:10 X:FF Y:00 P:24 SP:FF PPU:  3, 30 CYC:3418
C658  F0 F9     BEQ $C653                       A:00 X:FF Y:00 P:26 SP:FF PPU:  9, 30 CYC:3420
C653  AD 02 20  LDA $2002 = FF                  A:00 X:FF Y:00 P:26 SP:FF PPU: 18, 30 CYC:3423
C656  29 80     AND #$80                        A:10 X:FF Y:00 P:24 SP:FF PPU: 30, 30 CYC:3427
C658  F0 F9     BEQ $C653                       A:00 X:FF Y:00 P:26 SP:FF PPU: 36, 30 CYC:3429
C653  AD 02 20  LDA $2002 = FF                  A:00 X:FF Y:00 P:26 SP:FF PPU: 45, 30 CYC:3432
C656  29 80     AND #$80                        A:10 X:FF Y:00 P:24 SP:FF PPU: 57, 30 CYC:3436
C658  F0 F9     BEQ $C653                       A:00 X:FF Y:00 P:26 SP:FF PPU: 63, 30 CYC:3438
C653  AD 02 20  LDA $2002 = FF                  A:00 X:FF Y:00 P:26 SP:FF PPU: 72, 30 CYC:3441
C656  29 80     AND #$80                        A:10 X:FF Y:00 P:24 SP:FF PPU: 84, 30 CYC:3445
C658  F0 F9     BEQ $C653                       A:00 X:FF Y:00 P:26 SP:FF PPU: 90, 30 CYC:3447
C653  AD 02 20  LDA $2002 = FF                  A:00 X:FF Y:00 P:26 SP:FF PPU: 99, 30 CYC:3450
C656  29 80     AND #$80                        A:10 X:FF Y:00 P:24 SP:FF PPU:111, 30 CYC:3454
C658  F0 F9     BEQ $C653                       A:00 X:FF Y:00 P:26 SP:FF PPU:117, 30 CYC:3456
C653  AD 02 20  LDA $2002 = FF                  A:00 X:FF Y:00 P:26 SP:FF PPU:126, 30 CYC:3459
C656  29 80     AND #$80                        A:10 X:FF Y:00 P:24 SP:FF PPU:138, 30 CYC:3463
C658  F0 F9     BEQ $C653                       A:00 X:FF Y:00 P:26 SP:FF PPU:144, 30 CYC:3465
C653  AD 02 20  LDA $2002 = FF                  A:00 X:FF Y:00 P:26 SP:FF PPU:153, 30 CYC:3468
C656  29 80     AND #$80                        A:10 X:FF Y:00 P:24 SP:FF PPU:165, 30 CYC:3472
C658  F0 F9     BEQ $C653                       A:00 X:FF Y:00 P:26 SP:FF PPU:171, 30 CYC:3474
C653  AD 02 20  LDA $2002 = FF                  A:00 X:FF Y:00 P:26 SP:FF PPU:180, 30 CYC:3477
C656  29 80     AND #$80                        A:10 X:FF Y:00 P:24 SP:FF PPU:192, 30 CYC:3481
C658  F0 F9     BEQ $C653                       A:00 X:FF Y:00 P:26 SP:FF PPU:198, 30 CYC:3483
C653  AD 02 20  LDA $2002 = FF                  A:00 X:FF Y:00 P:26 SP:FF PPU:207, 30 CYC:3486
C656  29 80     AND #$80                        A:10 X:FF Y:00 P:24 SP:FF PPU:219, 30 CYC:3490
C658  F0 F9     BEQ $C653                       A:00 X:FF Y:00 P:26 SP:FF PPU:225, 30 CYC:3492
C653  AD 02 20  LDA $2002 = FF                  A:00 X:FF Y:00 P:26 SP:FF PPU:234, 30 CYC:3495
C656  29 80     AND #$80                        A:10 X:FF Y:00 P:24 SP:FF PPU:246, 30 CYC:3499
C658  F0 F9     BEQ $C653                       A:00 X:FF Y:00 P:26 SP:FF PPU:252, 30 CYC:3501
C653  AD 02 20  LDA $2002 = FF                  A:00 X:FF Y:00 P:26 SP:FF PPU:261, 30 CYC:3504
C656  29 80     AND #$80                        A:10 X:FF Y:00 P:24 SP:FF PPU:273, 30 CYC:3508
C658  F0 F9     BEQ $C653                       A:00 X:FF Y:00 P:26 SP:FF PPU:279, 30 CYC:3510
C653  AD 02 20  LDA $2002 = FF                  A:00 X:FF Y:00 P:26 SP:FF PPU:288, 30 CYC:3513
C656  29 80     AND #$80                        A:10 X:FF Y:00 P:24 SP:FF PPU:300, 30 CYC:3517
C658  F0 F9     BEQ $C653                       A:00 X:FF Y:00 P:26 SP:FF PPU:306, 30 CYC:3519
C653  AD 02 20  LDA $2002 = FF                  A:00 X:FF Y:00 P:26 SP:FF PPU:315, 30 CYC:3522
C656  29 80     AND #$80                        A:10 X:FF Y:00 P:24 SP:FF PPU:327, 30 CYC:3526
C658  F0 F9     BEQ $C653                       A:00 X:FF Y:00 P:26 SP:FF PPU:333, 30 CYC:3528
C653  AD 02 20  LDA $2002 = FF                  A:00 X:FF Y:00 P:26 SP:FF PPU:  1, 31 CYC:3531
C656  29 80     AND #$80                        A:10 X:FF Y:00 P:24 SP:FF PPU: 13, 31 CYC:3535
C658  F0 F9     BEQ $C653                       A:00 X:FF Y:00 P:26 SP:FF PPU: 19, 31 CYC:3537
C653  AD 02 20  LDA $2002 = FF                  A:00 X:FF Y:00 P:26 SP:FF PPU: 28, 31 CYC:3540
C656  29 80     AND #$80                        A:10 X:FF Y:00 P:24 SP:FF PPU: 40, 31 CYC:3544
C658  F0 F9     BEQ $C653                       A:00 X:FF Y:00 P:26 SP:FF PPU: 46, 31 CYC:3546
C653  AD 02 20  LDA $2002 = FF                  A:00 X:FF Y:00 P:26 SP:FF PPU: 55, 31 CYC:3549
C656  29 80     AND #$80                        A:10 X:FF Y:00 P:24 SP:FF PPU: 67, 31 CYC:3553
C658  F0 F9     BEQ $C653                       A:00 X:FF Y:00 P:26 SP:FF PPU: 73, 31 CYC:3555
C653  AD 02 20  LDA $2002 = FF                  A:00 X:FF Y:00 P:26 SP:FF PPU: 82, 31 CYC:3558
C656  29 80     AND #$80                        A:10 X:FF Y:00 P:24 SP:FF PPU: 94, 31 CYC:3562
C658  F0 F9     BEQ $C653                       A:00 X:FF Y:00 P:26 SP:FF PPU:100, 31 CYC:3564
C653  AD 02 20  LDA $2002 = FF                  A:00 X:FF Y:00 P:26 SP:FF PPU:109, 31 CYC:3567
C656  29 80     AND #$80                        A:10 X:FF Y:00 P:24 SP:FF PPU:121, 31 CYC:3571
C658  F0 F9     BEQ $C653                       A:00 X:FF Y:00 P:26 SP:FF PPU:127, 31 CYC:3573
C653  AD 02 20  LDA $2002 = FF                  A:00 X:FF Y:00 P:26 SP:FF PPU:136, 31 CYC:3576
C656  29 80     AND #$80                        A:10 X:FF Y:00 P:24 SP:FF PPU:148, 31 CYC:3580
C658  F0 F9     BEQ $C653                       A:00 X:FF Y:00 P:26 SP:FF PPU:154, 31 CYC:3582
C653  AD 02 20  LDA $2002 = FF                  A:00 X:FF Y:00 P:26 SP:FF PPU:163, 31 CYC:3585
C656  29 80     AND #$80                        A:10 X:FF Y:00 P:24 SP:FF PPU:175, 31 CYC:3589
C658  F0 F9     BEQ $C653                       A:00 X:FF Y:00 P:26 SP:FF PPU:181, 31 CYC:3591
C653  AD 02 20  LDA $2002 = FF                  A:00 X:FF Y:00 P:26 SP:FF PPU:190, 31 CYC:3594
C656  29 80     AND #$80                        A:10 X:FF Y:00 P:24 SP:FF PPU:202, 31 CYC:3598
C658  F0 F9     BEQ $C653                       A:00 X:FF Y:00 P:26 SP:FF PPU:208, 31 CYC:3600
C653  AD 02 20  LDA $2002 = FF                  A:00 X:FF Y:00 P:26 SP:FF PPU:217, 31 CYC:3603
C656  29 80     AND #$80                        A:10 X:FF Y:00 P:24 SP:FF PPU:229, 31 CYC:3607
C658  F0 F9     BEQ $C653                       A:00 X:FF Y:00 P:26 SP:FF PPU:235, 31 CYC:3609
C653  AD 02 20  LDA $2002 = FF                  A:00 X:FF Y:00 P:26 SP:FF PPU:244, 31 CYC:3612
C656  29 80     AND #$80                        A:10 X:FF Y:00 P:24 SP:FF PPU:256, 31 CYC:3616
C658  F0 F9     BEQ $C653                       A:00 X:FF Y:00 P:26 SP:FF PPU:262, 31 CYC:3618
C653  AD 02 20  LDA $2002 = FF                  A:00 X:FF Y:00 P:26 SP:FF PPU:271, 31 CYC:3621
C656  29 80     AND #$80                        A:10 X:FF Y:00 P:24 SP:FF PPU:283, 31 CYC:3625
C658  F0 F9     BEQ $C653                       A:00 X:FF Y:00 P:26 SP:FF PPU:289, 31 CYC:3627
C653  AD 02 20  LDA $2002 = FF                  A:00 X:FF Y:00 P:26 SP:FF PPU:298, 31 CYC:3630
C656  29 80     AND #$80                        A:10 X:FF Y:00 P:24 SP:FF PPU:310, 31 CYC:3634
C658  F0 F9     BEQ $C653                       A:00 X:FF Y:00 P:26 SP:FF PPU:316, 31 CYC:3636
C653  AD 02 20  LDA $2002 = FF                  A:00 X:FF Y:00 P:26 SP:FF PPU:325, 31 CYC:3639
C656  29 80     AND #$80                        A:10 X:FF Y:00 P:24 SP:FF PPU:337, 31 CYC:3643
C658  F0 F9     BEQ $C653                       A:00 X:FF Y:00 P:26 SP:FF PPU:  2, 32 CYC:3645
C653  AD 02 20  LDA $2002 = FF                  A:00 X:FF Y:00 P:26 SP:FF PPU: 11, 32 CYC:3648
C656  29 80     AND #$80                        A:10 X:FF Y:00 P:24 SP:FF PPU: 23, 32 CYC:3652
C658  F0 F9     BEQ $C653                       A:00 X:FF Y:00 P:26 SP:FF PPU: 29, 32 CYC:3654
C653  AD 02 20  LDA $2002 = FF                  A:00 X:FF Y:00 P:26 SP:FF PPU: 38, 32 CYC:3657
C656  29 80     AND #$80                        A:10 X:FF Y:00 P:24 SP:FF PPU: 50, 32 CYC:3661
C658  F0 F9     BEQ $C653                       A:00 X:FF Y:00 P:26 SP:FF PPU: 56, 32 CYC:3663
C653  AD 02 20  LDA $2002 = FF                  A:00 X:FF Y:00 P:26 SP:FF PPU: 65, 32 CYC:3666
C656  29 80     AND #$80                        A:10 X:FF Y:00 P:24 SP:FF PPU: 77, 32 CYC:3670
C658  F0 F9     BEQ $C653                       A:00 X:FF Y:00 P:26 SP:FF PPU: 83, 32 CYC:3672
C653  AD 02 20  LDA $2002 = FF                  A:00 X:FF Y:00 P:26 SP:FF PPU: 92, 32 CYC:3675
C656  29 80     AND #$80                        A:10 X:FF Y:00 P:24 SP:FF PPU:104, 32 CYC:3679
C658  F0 F9     BEQ $C653                       A:00 X:FF Y:00 P:26 SP:FF PPU:110, 32 CYC:3681
C653  AD 02 20  LDA $2002 = FF                  A:00 X:FF Y:00 P:26 SP:FF PPU:119, 32 CYC:3684
C656  29 80     AND #$80                        A:10 X:FF Y:00 P:24 SP:FF PPU:131, 32 CYC:3688
C658  F0 F9     BEQ $C653                       A:00 X:FF Y:00 P:26 SP:FF PPU:137, 32 CYC:3690
C653  AD 02 20  LDA $2002 = FF                  A:00 X:FF Y:00 P:26 SP:FF PPU:146, 32 CYC:3693
C656  29 80     AND #$80                        A:10 X:FF Y:00 P:24 SP:FF PPU:158, 32 CYC:3697
C658  F0 F9     BEQ $C653                       A:00 X:FF Y:00 P:26 SP:FF PPU:164, 32 CYC:3699
C653  AD 02 20  LDA $2002 = FF                  A:00 X:FF Y:00 P:26 SP:FF PPU:173, 32 CYC:3702
C656  29 80     AND #$80                        A:10 X:FF Y:00 P:24 SP:FF PPU:185, 32 CYC:3706
C658  F0 F9     BEQ $C653                       A:00 X:FF Y:00 P:26 SP:FF PPU:191, 32 CYC:3708
C653  AD 02 20  LDA $2002 = FF                  A:00 X:FF Y:00 P:26 SP:FF PPU:200, 32 CYC:3711
C656  29 80     AND #$80                        A:10 X:FF Y:00 P:24 SP:FF PPU:212, 32 CYC:3715
C658  F0 F9     BEQ $C653                       A:00 X:FF Y:00 P:26 SP:FF PPU:218, 32 CYC:3717
C653  AD 02 20  LDA $2002 = FF                  A:00 X:FF Y:00 P:26 SP:FF PPU:227, 32 CYC:3720
C656  29 80     AND #$80                        A:10 X:FF Y:00 P:24 SP:FF PPU:239, 32 CYC:3724
C658  F0 F9     BEQ $C653                       A:00 X:FF Y:00 P:26 SP:FF PPU:245, 32 CYC:3726
C653  AD 02 20  LDA $2002 = FF                  A:00 X:FF Y:00 P:26 SP:FF PPU:254, 32 CYC:3729
C656  29 80     AND #$80                        A:10 X:FF Y:00 P:24 SP:FF PPU:266, 32 CYC:3733
C658  F0 F9     BEQ $C653                       A:00 X:FF Y:00 P:26 SP:FF PPU:272, 32 CYC:3735
C653  AD 02 20  LDA $2002 = FF                  A:00 X:FF Y:00 P:26 SP:FF PPU:281, 32 CYC:3738
C656  29 80     AND #$80                        A:10 X:FF Y:00 P:24 SP:FF PPU:293, 32 CYC:3742
C658  F0 F9     BEQ $C653                       A:00 X:FF Y:00 P:26 SP:FF PPU:299, 32 CYC:3744
C653  AD 02 20  LDA $2002 = FF                  A:00 X:FF Y:00 P:26 SP:FF PPU:308, 32 CYC:3747
C656  29 80     AND #$80                        A:10 X:FF Y:00 P:24 SP:FF PPU:320, 32 CYC:3751
C658  F0 F9     BEQ $C653                       A:00 X:FF Y:00 P:26 SP:FF PPU:326, 32 CYC:3753
C653  AD 02 20  LDA $2002 = FF                  A:00 X:FF Y:00 P:26 SP:FF PPU:335, 32 CYC:3756
C656  29 80     AND #$80                        A:10 X:FF Y:00 P:24 SP:FF PPU:  6, 33 CYC:3760
C658  F0 F9     BEQ $C653                       A:00 X:FF Y:00 P:26 SP:FF PPU: 12, 33 CYC:3762
C653  AD 02 20  LDA $2002 = FF                  A:00 X:FF Y:00 P:26 SP:FF PPU: 21, 33 CYC:3765
C656  29 80     AND #$80                        A:10 X:FF Y:00 P:24 SP:FF PPU: 33, 33 CYC:3769
C658  F0 F9     BEQ $C653                       A:00 X:FF Y:00 P:26 SP:FF PPU: 39, 33 CYC:3771
C653  AD 02 20  LDA $2002 = FF                  A:00 X:FF Y:00 P:26 SP:FF PPU: 48, 33 CYC:3774
C656  29 80     AND #$80                        A:10 X:FF Y:00 P:24 SP:FF PPU: 60, 33 CYC:3778
C658  F0 F9     BEQ $C653                       A:00 X:FF Y:00 P:26 SP:FF PPU: 66, 33 CYC:3780
C653  AD 02 20  LDA $2002 = FF                  A:00 X:FF Y:00 P:26 SP:FF PPU: 75, 33 CYC:3783
C656  29 80     AND #$80                        A:10 X:FF Y:00 P:24 SP:FF PPU: 87, 33 CYC:3787
C658  F0 F9     BEQ $C653                       A:00 X:FF Y:00 P:26 SP:FF PPU: 93, 33 CYC:3789
C653  AD 02 20  LDA $2002 = FF                  A:00 X:FF Y:00 P:26 SP:FF PPU:102, 33 CYC:3792
C656  29 80     AND #$80                        A:10 X:FF Y:00 P:24 SP:FF PPU:114, 33 CYC:3796
C658  F0 F9     BEQ $C653                       A:00 X:FF Y:00 P:26 SP:FF PPU:120, 33 CYC:3798
C653  AD 02 20  LDA $2002 = FF                  A:00 X:FF Y:00 P:26 SP:FF PPU:129, 33 CYC:3801
C656  29 80     AND #$80                        A:10 X:FF Y:00 P:24 SP:FF PPU:141, 33 CYC:3805
C658  F0 F9     BEQ $C653                       A:00 X:FF Y:00 P:26 SP:FF PPU:147, 33 CYC:3807
C653  AD 02 20  LDA $2002 = FF                  A:00 X:FF Y:00 P:26 SP:FF PPU:156, 33 CYC:3810
C656  29 80     AND #$80                        A:10 X:FF Y:00 P:24 SP:FF PPU:168, 33 CYC:3814
C658  F0 F9     BEQ $C653                       A:00 X:FF Y:00 P:26 SP:FF PPU:174, 33 CYC:3816
C653  AD 02 20  LDA $2002 = FF                  A:00 X:FF Y:00 P:26 SP:FF PPU:183, 33 CYC:3819
C656  29 80     AND #$80                        A:10 X:FF Y:00 P:24 SP:FF PPU:195, 33 CYC:3823
C658  F0 F9     BEQ $C653                       A:00 X:FF Y:00 P:26 SP:FF PPU:201, 33 CYC:3825
C653  AD 02 20  LDA $2002 = FF                  A:00 X:FF Y:00 P:26 SP:FF PPU:210, 33 CYC:3828
C656  29 80     AND #$80                        A:10 X:FF Y:00 P:24 SP:FF PPU:222, 33 CYC:3832
C658  F0 F9     BEQ $C653                       A:00 X:FF Y:00 P:26 SP:FF PPU:228, 33 CYC:3834
C653  AD 02 20  LDA $2002 = FF                  A:00 X:FF Y:00 P:26 SP:FF PPU:237, 33 CYC:3837
C656  29 80     AND #$80                        A:10 X:FF Y:00 P:24 SP:FF PPU:249, 33 CYC:3841
C658  F0 F9     BEQ $C653                       A:00 X:FF Y:00 P:26 SP:FF PPU:255, 33 CYC:3843
C653  AD 02 20  LDA $2002 = FF                  A:00 X:FF Y:00 P:26 SP:FF PPU:264, 33 CYC:3846
C656  29 80     AND #$80                        A:10 X:FF Y:00 P:24 SP:FF PPU:276, 33 CYC:3850
C658  F0 F9     BEQ $C653                       A:00 X:FF Y:00 P:26 SP:FF PPU:282, 33 CYC:3852
C653  AD 02 20  LDA $2002 = FF                  A:00 X:FF Y:00 P:26 SP:FF PPU:291, 33 CYC:3855
C656  29 80     AND #$80                        A:10 X:FF Y:00 P:24 SP:FF PPU:303, 33 CYC:3859
C658  F0 F9     BEQ $C653                       A:00 X:FF Y:00 P:26 SP:FF PPU:309, 33 CYC:3861
C653  AD 02 20  LDA $2002 = FF                  A:00 X:FF Y:00 P:26 SP:FF PPU:318, 33 CYC:3864
C656  29 80     AND #$80                        A:10 X:FF Y:00 P:24 SP:FF PPU:330, 33 CYC:3868
C658  F0 F9     BEQ $C653                       A:00 X:FF Y:00 P:26 SP:FF PPU:336, 33 CYC:3870
C653  AD 02 20  LDA $2002 = FF                  A:00 X:FF Y:00 P:26 SP:FF PPU:  4, 34 CYC:3873
C656  29 80     AND #$80                        A:10 X:FF Y:00 P:24 SP:FF PPU: 16, 34 CYC:3877
C658  F0 F9     BEQ $C653                       A:00 X:FF Y:00 P:26 SP:FF PPU: 22, 34 CYC:3879
C653  AD 02 20  LDA $2002 = FF                  A:00 X:FF Y:00 P:26 SP:FF PPU: 31, 34 CYC:3882
C656  29 80     AND #$80                        A:10 X:FF Y:00 P:24 SP:FF PPU: 43, 34 CYC:3886
C658  F0 F9     BEQ $C653                       A:00 X:FF Y:00 P:26 SP:FF PPU: 49, 34 CYC:3888
C653  AD 02 20  LDA $2002 = FF                  A:00 X:FF Y:00 P:26 SP:FF PPU: 58, 34 CYC:3891
C656  29 80     AND #$80                        A:10 X:FF Y:00 P:24 SP:FF PPU: 70, 34 CYC:3895
C658  F0 F9     BEQ $C653                       A:00 X:FF Y:00 P:26 SP:FF PPU: 76, 34 CYC:3897
C653  AD 02 20  LDA $2002 = FF                  A:00 X:FF Y:00 P:26 SP:FF PPU: 85, 34 CYC:3900
C656  29 80     AND #$80                        A:10 X:FF Y:00 P:24 SP:FF PPU: 97, 34 CYC:3904
C658  F0 F9     BEQ $C653                       A:00 X:FF Y:00 P:26 SP:FF PPU:103, 34 CYC:3906
C653  AD 02 20  LDA $2002 = FF                  A:00 X:FF Y:00 P:26 SP:FF PPU:112, 34 CYC:3909
C656  29 80     AND #$80                        A:10 X:FF Y:00 P:24 SP:FF PPU:124, 34 CYC:3913
C658  F0 F9     BEQ $C653                       A:00 X:FF Y:00 P:26 SP:FF PPU:130, 34 CYC:3915
C653  AD 02 20  LDA $2002 = FF                  A:00 X:FF Y:00 P:26 SP:FF PPU:139, 34 CYC:3918
C656  29 80     AND #$80                        A:10 X:FF Y:00 P:24 SP:FF PPU:151, 34 CYC:3922
C658  F0 F9     BEQ $C653                       A:00 X:FF Y:00 P:26 SP:FF PPU:157, 34 CYC:3924
C653  AD 02 20  LDA $2002 = FF                  A:00 X:FF Y:00 P:26 SP:FF PPU:166, 34 CYC:3927
C656  29 80     AND #$80                        A:10 X:FF Y:00 P:24 SP:FF PPU:178, 34 CYC:3931
C658  F0 F9     BEQ $C653                       A:00 X:FF Y:00 P:26 SP:FF PPU:184, 34 CYC:3933
C653  AD 02 20  LDA $2002 = FF                  A:00 X:FF Y:00 P:26 SP:FF PPU:193, 34 CYC:3936
C656  29 80     AND #$80                        A:10 X:FF Y:00 P:24 SP:FF PPU:205, 34 CYC:3940
C658  F0 F9     BEQ $C653                       A:00 X:FF Y:00 P:26 SP:FF PPU:211, 34 CYC:3942
C653  AD 02 20  LDA $2002 = FF                  A:00 X:FF Y:00 P:26 SP:FF PPU:220, 34 CYC:3945
C656  29 80     AND #$80                        A:10 X:FF Y:00 P:24 SP:FF PPU:232, 34 CYC:3949
C658  F0 F9     BEQ $C653                       A:00 X:FF Y:00 P:26 SP:FF PPU:238, 34 CYC:3951
C653  AD 02 20  LDA $2002 = FF                  A:00 X:FF Y:00 P:26 SP:FF PPU:247, 34 CYC:3954
C656  29 80     AND #$80                        A:10 X:FF Y:00 P:24 SP:FF PPU:259, 34 CYC:3958
C658  F0 F9     BEQ $C653                       A:00 X:FF Y:00 P:26 SP:FF PPU:265, 34 CYC:3960
C653  AD 02 20  LDA $2002 = FF                  A:00 X:FF Y:00 P:26 SP:FF PPU:274, 34 CYC:3963
C656  29 80     AND #$80                        A:10 X:FF Y:00 P:24 SP:FF PPU:286, 34 CYC:3967
C658  F0 F9     BEQ $C653                       A:00 X:FF Y:00 P:26 SP:FF PPU:292, 34 CYC:3969
C653  AD 02 20  LDA $2002 = FF                  A:00 X:FF Y:00 P:26 SP:FF PPU:301, 34 CYC:3972
C656  29 80     AND #$80                        A:10 X:FF Y:00 P:24 SP:FF PPU:313, 34 CYC:3976
C658  F0 F9     BEQ $C653                       A:00 X:FF Y:00 P:26 SP:FF PPU:319, 34 CYC:3978
C653  AD 02 20  LDA $2002 = FF                  A:00 X:FF Y:00 P:26 SP:FF PPU:328, 34 CYC:3981
C656  29 80     AND #$80                        A:10 X:FF Y:00 P:24 SP:FF PPU:340, 34 CYC:3985
C658  F0 F9     BEQ $C653                       A:00 X:FF Y:00 P:26 SP:FF PPU:  5, 35 CYC:3987
C653  AD 02 20  LDA $2002 = FF                  A:00 X:FF Y:00 P:26 SP:FF PPU: 14, 35 CYC:3990
C656  29 80     AND #$80                        A:10 X:FF Y:00 P:24 SP:FF PPU: 26, 35 CYC:3994
C658  F0 F9     BEQ $C653                       A:00 X:FF Y:00 P:26 SP:FF PPU: 32, 35 CYC:3996
C653  AD 02 20  LDA $2002 = FF                  A:00 X:FF Y:00 P:26 SP:FF PPU: 41, 35 CYC:3999
C656  29 80     AND #$80                        A:10 X:FF Y:00 P:24 SP:FF PPU: 53, 35 CYC:4003
C658  F0 F9     BEQ $C653                       A:00 X:FF Y:00 P:26 SP:FF PPU: 59, 35 CYC:4005
C653  AD 02 20  LDA $2002 = FF                  A:00 X:FF Y:00 P:26 SP:FF PPU: 68, 35 CYC:4008
C656  29 80     AND #$80                        A:10 X:FF Y:00 P:24 SP:FF PPU: 80, 35 CYC:4012
C658  F0 F9     BEQ $C653                       A:00 X:FF Y:00 P:26 SP:FF PPU: 86, 35 CYC:4014
C653  AD 02 20  LDA $2002 = FF                  A:00 X:FF Y:00 P:26 SP:FF PPU: 95, 35 CYC:4017
C656  29 80     AND #$80                        A:10 X:FF Y:00 P:24 SP:FF PPU:107, 35 CYC:4021
C658  F0 F9     BEQ $C653                       A:00 X:FF Y:00 P:26 SP:FF PPU:113, 35 CYC:4023
C653  AD 02 20  LDA $2002 = FF                  A:00 X:FF Y:00 P:26 SP:FF PPU:122, 35 CYC:4026
C656  29 80     AND #$80                        A:10 X:FF Y:00 P:24 SP:FF PPU:134, 35 CYC:4030
C658  F0 F9     BEQ $C653                       A:00 X:FF Y:00 P:26 SP:FF PPU:140, 35 CYC:4032
C653  AD 02 20  LDA $2002 = FF                  A:00 X:FF Y:00 P:26 SP:FF PPU:149, 35 CYC:4035
C656  29 80     AND #$80                        A:10 X:FF Y:00 P:24 SP:FF PPU:161, 35 CYC:4039
C658  F0 F9     BEQ $C653                       A:00 X:FF Y:00 P:26 SP:FF PPU:167, 35 CYC:4041
C653  AD 02 20  LDA $2002 = FF                  A:00 X:FF Y:00 P:26 SP:FF PPU:176, 35 CYC:4044
C656  29 80     AND #$80                        A:10 X:FF Y:00 P:24 SP:FF PPU:188, 35 CYC:4048
C658  F0 F9     BEQ $C653                       A:00 X:FF Y:00 P:26 SP:FF PPU:194, 35 CYC:4050
C653  AD 02 20  LDA $2002 = FF                  A:00 X:FF Y:00 P:26 SP:FF PPU:203, 35 CYC:4053
C656  29 80     AND #$80                        A:10 X:FF Y:00 P:24 SP:FF PPU:215, 35 CYC:4057
C658  F0 F9     BEQ $C653                       A:00 X:FF Y:00 P:26 SP:FF PPU:221, 35 CYC:4059
C653  AD 02 20  LDA $2002 = FF                  A:00 X:FF Y:00 P:26 SP:FF PPU:230, 35 CYC:4062
C656  29 80     AND #$80                        A:10 X:FF Y:00 P:24 SP:FF PPU:242, 35 CYC:4066
C658  F0 F9     BEQ $C653                       A:00 X:FF Y:00 P:26 SP:FF PPU:248, 35 CYC:4068
C653  AD 02 20  LDA $2002 = FF                  A:00 X:FF Y:00 P:26 SP:FF PPU:257, 35 CYC:4071
C656  29 80     AND #$80                        A:10 X:FF Y:00 P:24 SP:FF PPU:269, 35 CYC:4075
C658  F0 F9     BEQ $C653                       A:00 X:FF Y:00 P:26 SP:FF PPU:275, 35 CYC:4077
C653  AD 02 20  LDA $2002 = FF                  A:00 X:FF Y:00 P:26 SP:FF PPU:284, 35 CYC:4080
C656  29 80     AND #$80                        A:10 X:FF Y:00 P:24 SP:FF PPU:296, 35 CYC:4084
C658  F0 F9     BEQ $C653                       A:00 X:FF Y:00 P:26 SP:FF PPU:302, 35 CYC:4086
C653  AD 02 20  LDA $2002 = FF                  A:00 X:FF Y:00 P:26 SP:FF PPU:311, 35 CYC:4089
C656  29 80     AND #$80                        A:10 X:FF Y:00 P:24 SP:FF PPU:323, 35 CYC:4093
C658  F0 F9     BEQ $C653                       A:00 X:FF Y:00 P:26 SP:FF PPU:329, 35 CYC:4095
C653  AD 02 20  LDA $2002 = FF                  A:00 X:FF Y:00 P:26 SP:FF PPU:338, 35 CYC:4098
C656  29 80     AND #$80                        A:10 X:FF Y:00 P:24 SP:FF PPU:  9, 36 CYC:4102
C658  F0 F9     BEQ $C653                       A:00 X:FF Y:00 P:26 SP:FF PPU: 15, 36 CYC:4104
C653  AD 02 20  LDA $2002 = FF                  A:00 X:FF Y:00 P:26 SP:FF PPU: 24, 36 CYC:4107
C656  29 80     AND #$80                        A:10 X:FF Y:00 P:24 SP:FF PPU: 36, 36 CYC:4111
C658  F0 F9     BEQ $C653                       A:00 X:FF Y:00 P:26 SP:FF PPU: 42, 36 CYC:4113
C653  AD 02 20  LDA $2002 = FF                  A:00 X:FF Y:00 P:26 SP:FF PPU: 51, 36 CYC:4116
C656  29 80     AND #$80                        A:10 X:FF Y:00 P:24 SP:FF PPU: 63, 36 CYC:4120
C658  F0 F9     BEQ $C653                       A:00 X:FF Y:00 P:26 SP:FF PPU: 69, 36 CYC:4122
C653  AD 02 20  LDA $2002 = FF                  A:00 X:FF Y:00 P:26 SP:FF PPU: 78, 36 CYC:4125
C656  29 80     AND #$80                        A:10 X:FF Y:00 P:24 SP:FF PPU: 90, 36 CYC:4129
C658  F0 F9     BEQ $C653                       A:00 X:FF Y:00 P:26 SP:FF PPU: 96, 36 CYC:4131
C653  AD 02 20  LDA $2002 = FF                  A:00 X:FF Y:00 P:26 SP:FF PPU:105, 36 CYC:4134
C656  29 80     AND #$80                        A:10 X:FF Y:00 P:24 SP:FF PPU:117, 36 CYC:4138
C658  F0 F9     BEQ $C653                       A:00 X:FF Y:00 P:26 SP:FF PPU:123, 36 CYC:4140
C653  AD 02 20  LDA $2002 = FF                  A:00 X:FF Y:00 P:26 SP:FF PPU:132, 36 CYC:4143
C656  29 80     AND #$80                        A:10 X:FF Y:00 P:24 SP:FF PPU:144, 36 CYC:4147
C658  F0 F9     BEQ $C653                       A:00 X:FF Y:00 P:26 SP:FF PPU:150, 36 CYC:4149
C653  AD 02 20  LDA $2002 = FF                  A:00 X:FF Y:00 P:26 SP:FF PPU:159, 36 CYC:4152
C656  29 80     AND #$80                        A:10 X:FF Y:00 P:24 SP:FF PPU:171, 36 CYC:4156
C658  F0 F9     BEQ $C653                       A:00 X:FF Y:00 P:26 SP:FF PPU:177, 36 CYC:4158
C653  AD 02 20  LDA $2002 = FF                  A:00 X:FF Y:00 P:26 SP:FF PPU:186, 36 CYC:4161
C656  29 80     AND #$80                        A:10 X:FF Y:00 P:24 SP:FF PPU:198, 36 CYC:4165
C658  F0 F9     BEQ $C653                       A:00 X:FF Y:00 P:26 SP:FF PPU:204, 36 CYC:4167
C653  AD 02 20  LDA $2002 = FF                  A:00 X:FF Y:00 P:26 SP:FF PPU:213, 36 CYC:4170
C656  29 80     AND #$80                        A:10 X:FF Y:00 P:24 SP:FF PPU:225, 36 CYC:4174
C658  F0 F9     BEQ $C653                       A:00 X:FF Y:00 P:26 SP:FF PPU:231, 36 CYC:4176
C653  AD 02 20  LDA $2002 = FF                  A:00 X:FF Y:00 P:26 SP:FF PPU:240, 36 CYC:4179
C656  29 80     AND #$80                        A:10 X:FF Y:00 P:24 SP:FF PPU:252, 36 CYC:4183
C658  F0 F9     BEQ $C653                       A:00 X:FF Y:00 P:26 SP:FF PPU:258, 36 CYC:4185
C653  AD 02 20  LDA $2002 = FF                  A:00 X:FF Y:00 P:26 SP:FF PPU:267, 36 CYC:4188
C656  29 80     AND #$80                        A:10 X:FF Y:00 P:24 SP:FF PPU:279, 36 CYC:4192
C658  F0 F9     BEQ $C653                       A:00 X:FF Y:00 P:26 SP:FF PPU:285, 36 CYC:4194
C653  AD 02 20  LDA $2002 = FF                  A:00 X:FF Y:00 P:26 SP:FF PPU:294, 36 CYC:4197
C656  29 80     AND #$80                        A:10 X:FF Y:00 P:24 SP:FF PPU:306, 36 CYC:4201
C658  F0 F9     BEQ $C653                       A:00 X:FF Y:00 P:26 SP:FF PPU:312, 36 CYC:4203
C653  AD 02 20  LDA $2002 = FF                  A:00 X:FF Y:00 P:26 SP:FF PPU:321, 36 CYC:4206
C656  29 80     AND #$80                        A:10 X:FF Y:00 P:24 SP:FF PPU:333, 36 CYC:4210
C658  F0 F9     BEQ $C653                       A:00 X:FF Y:00 P:26 SP:FF PPU:339, 36 CYC:4212
C653  AD 02 20  LDA $2002 = FF                  A:00 X:FF Y:00 P:26 SP:FF PPU:  7, 37 CYC:4215
C656  29 80     AND #$80                        A:10 X:FF Y:00 P:24 SP:FF PPU: 19, 37 CYC:4219
C658  F0 F9     BEQ $C653                       A:00 X:FF Y:00 P:26 SP:FF PPU: 25, 37 CYC:4221
C653  AD 02 20  LDA $2002 = FF                  A:00 X:FF Y:00 P:26 SP:FF PPU: 34, 37 CYC:4224
C656  29 80     AND #$80                        A:10 X:FF Y:00 P:24 SP:FF PPU: 46, 37 CYC:4228
C658  F0 F9     BEQ $C653                       A:00 X:FF Y:00 P:26 SP:FF PPU: 52, 37 CYC:4230
C653  AD 02 20  LDA $2002 = FF                  A:00 X:FF Y:00 P:26 SP:FF PPU: 61, 37 CYC:4233
C656  29 80     AND #$80                        A:10 X:FF Y:00 P:24 SP:FF PPU: 73, 37 CYC:4237
C658  F0 F9     BEQ $C653                       A:00 X:FF Y:00 P:26 SP:FF PPU: 79, 37 CYC:4239
C653  AD 02 20  LDA $2002 = FF                  A:00 X:FF Y:00 P:26 SP:FF PPU: 88, 37 CYC:4242
C656  29 80     AND #$80                        A:10 X:FF Y:00 P:24 SP:FF PPU:100, 37 CYC:4246
C658  F0 F9     BEQ $C653                       A:00 X:FF Y:00 P:26 SP:FF PPU:106, 37 CYC:4248
C653  AD 02 20  LDA $2002 = FF                  A:00 X:FF Y:00 P:26 SP:FF PPU:115, 37 CYC:4251
C656  29 80     AND #$80                        A:10 X:FF Y:00 P:24 SP:FF PPU:127, 37 CYC:4255
C658  F0 F9     BEQ $C653                       A:00 X:FF Y:00 P:26 SP:FF PPU:133, 37 CYC:4257
C653  AD 02 20  LDA $2002 = FF                  A:00 X:FF Y:00 P:26 SP:FF PPU:142, 37 CYC:4260
C656  29 80     AND #$80                        A:10 X:FF Y:00 P:24 SP:FF PPU:154, 37 CYC:4264
C658  F0 F9     BEQ $C653                       A:00 X:FF Y:00 P:26 SP:FF PPU:160, 37 CYC:4266
C653  AD 02 20  LDA $2002 = FF                  A:00 X:FF Y:00 P:26 SP:FF PPU:169, 37 CYC:4269
C656  29 80     AND #$80                        A:10 X:FF Y:00 P:24 SP:FF PPU:181, 37 CYC:4273
C658  F0 F9     BEQ $C653                       A:00 X:FF Y:00 P:26 SP:FF PPU:187, 37 CYC:4275
C653  AD 02 20  LDA $2002 = FF                  A:00 X:FF Y:00 P:26 SP:FF PPU:196, 37 CYC:4278
C656  29 80     AND #$80                        A:10 X:FF Y:00 P:24 SP:FF PPU:208, 37 CYC:4282
C658  F0 F9     BEQ $C653                       A:00 X:FF Y:00 P:26 SP:FF PPU:214, 37 CYC:4284
C653  AD 02 20  LDA $2002 = FF                  A:00 X:FF Y:00 P:26 SP:FF PPU:223, 37 CYC:4287
C656  29 80     AND #$80                        A:10 X:FF Y:00 P:24 SP:FF PPU:235, 37 CYC:4291
C658  F0 F9     BEQ $C653                       A:00 X:FF Y:00 P:26 SP:FF PPU:241, 37 CYC:4293
C653  AD 02 20  LDA $2002 = FF                  A:00 X:FF Y:00 P:26 SP:FF PPU:250, 37 CYC:4296
C656  29 80     AND #$80                        A:10 X:FF Y:00 P:24 SP:FF PPU:262, 37 CYC:4300
C658  F0 F9     BEQ $C653                       A:00 X:FF Y:00 P:26 SP:FF PPU:268, 37 CYC:4302
C653  AD 02 20  LDA $2002 = FF                  A:00 X:FF Y:00 P:26 SP:FF PPU:277, 37 CYC:4305
C656  29 80     AND #$80                        A:10 X:FF Y:00 P:24 SP:FF PPU:289, 37 CYC:4309
C658  F0 F9     BEQ $C653                       A:00 X:FF Y:00 P:26 SP:FF PPU:295, 37 CYC:4311
C653  AD 02 20  LDA $2002 = FF                  A:00 X:FF Y:00 P:26 SP:FF PPU:304, 37 CYC:4314
C656  29 80     AND #$80                        A:10 X:FF Y:00 P:24 SP:FF PPU:316, 37 CYC:4318
C658  F0 F9     BEQ $C653                       A:00 X:FF Y:00 P:26 SP:FF PPU:322, 37 CYC:4320
C653  AD 02 20  LDA $2002 = FF                  A:00 X:FF Y:00 P:26 SP:FF PPU:331, 37 CYC:4323
C656  29 80     AND #$80                        A:10 X:FF Y:00 P:24 SP:FF PPU:  2, 38 CYC:4327
C658  F0 F9     BEQ $C653                       A:00 X:FF Y:00 P:26 SP:FF PPU:  8, 38 CYC:4329
C653  AD 02 20  LDA $2002 = FF                  A:00 X:FF Y:00 P:26 SP:FF PPU: 17, 38 CYC:4332
C656  29 80     AND #$80                        A:10 X:FF Y:00 P:24 SP:FF PPU: 29, 38 CYC:4336
C658  F0 F9     BEQ $C653                       A:00 X:FF Y:00 P:26 SP:FF PPU: 35, 38 CYC:4338
C653  AD 02 20  LDA $2002 = FF                  A:00 X:FF Y:00 P:26 SP:FF PPU: 44, 38 CYC:4341
C656  29 80     AND #$80                        A:10 X:FF Y:00 P:24 SP:FF PPU: 56, 38 CYC:4345
C658  F0 F9     BEQ $C653                       A:00 X:FF Y:00 P:26 SP:FF PPU: 62, 38 CYC:4347
C653  AD 02 20  LDA $2002 = FF                  A:00 X:FF Y:00 P:26 SP:FF PPU: 71, 38 CYC:4350
C656  29 80     AND #$80                        A:10 X:FF Y:00 P:24 SP:FF PPU: 83, 38 CYC:4354
C658  F0 F9     BEQ $C653                       A:00 X:FF Y:00 P:26 SP:FF PPU: 89, 38 CYC:4356
C653  AD 02 20  LDA $2002 = FF                  A:00 X:FF Y:00 P:26 SP:FF PPU: 98, 38 CYC:4359
C656  29 80     AND #$80                        A:10 X:FF Y:00 P:24 SP:FF PPU:110, 38 CYC:4363
C658  F0 F9     BEQ $C653                       A:00 X:FF Y:00 P:26 SP:FF PPU:116, 38 CYC:4365
C653  AD 02 20  LDA $2002 = FF                  A:00 X:FF Y:00 P:26 SP:FF PPU:125, 38 CYC:4368
C656  29 80     AND #$80                        A:10 X:FF Y:00 P:24 SP:FF PPU:137, 38 CYC:4372
C658  F0 F9     BEQ $C653                       A:00 X:FF Y:00 P:26 SP:FF PPU:143, 38 CYC:4374
C653  AD 02 20  LDA $2002 = FF                  A:00 X:FF Y:00 P:26 SP:FF PPU:152, 38 CYC:4377
C656  29 80     AND #$80                        A:10 X:FF Y:00 P:24 SP:FF PPU:164, 38 CYC:4381
C658  F0 F9     BEQ $C653                       A:00 X:FF Y:00 P:26 SP:FF PPU:170, 38 CYC:4383
C653  AD 02 20  LDA $2002 = FF                  A:00 X:FF Y:00 P:26 SP:FF PPU:179, 38 CYC:4386
C656  29 80     AND #$80                        A:10 X:FF Y:00 P:24 SP:FF PPU:191, 38 CYC:4390
C658  F0 F9     BEQ $C653                       A:00 X:FF Y:00 P:26 SP:FF PPU:197, 38 CYC:4392
C653  AD 02 20  LDA $2002 = FF                  A:00 X:FF Y:00 P:26 SP:FF PPU:206, 38 CYC:4395
C656  29 80     AND #$80                        A:10 X:FF Y:00 P:24 SP:FF PPU:218, 38 CYC:4399
C658  F0 F9     BEQ $C653                       A:00 X:FF Y:00 P:26 SP:FF PPU:224, 38 CYC:4401
C653  AD 02 20  LDA $2002 = FF                  A:00 X:FF Y:00 P:26 SP:FF PPU:233, 38 CYC:4404
C656  29 80     AND #$80                        A:10 X:FF Y:00 P:24 SP:FF PPU:245, 38 CYC:4408
C658  F0 F9     BEQ $C653                       A:00 X:FF Y:00 P:26 SP:FF PPU:251, 38 CYC:4410
C653  AD 02 20  LDA $2002 = FF                  A:00 X:FF Y:00 P:26 SP:FF PPU:260, 38 CYC:4413
C656  29 80     AND #$80                        A:10 X:FF Y:00 P:24 SP:FF PPU:272, 38 CYC:4417
C658  F0 F9     BEQ $C653                       A:00 X:FF Y:00 P:26 SP:FF PPU:278, 38 CYC:4419
C653  AD 02 20  LDA $2002 = FF                  A:00 X:FF Y:00 P:26 SP:FF PPU:287, 38 CYC:4422
C656  29 80     AND #$80                        A:10 X:FF Y:00 P:24 SP:FF PPU:299, 38 CYC:4426
C658  F0 F9     BEQ $C653                       A:00 X:FF Y:00 P:26 SP:FF PPU:305, 38 CYC:4428
C653  AD 02 20  LDA $2002 = FF                  A:00 X:FF Y:00 P:26 SP:FF PPU:314, 38 CYC:4431
C656  29 80     AND #$80                        A:10 X:FF Y:00 P:24 SP:FF PPU:326, 38 CYC:4435
C658  F0 F9     BEQ $C653                       A:00 X:FF Y:00 P:26 SP:FF PPU:332, 38 CYC:4437
C653  AD 02 20  LDA $2002 = FF                  A:00 X:FF Y:00 P:26 SP:FF PPU:  0, 39 CYC:4440
C656  29 80     AND #$80                        A:10 X:FF Y:00 P:24 SP:FF PPU: 12, 39 CYC:4444
C658  F0 F9     BEQ $C653                       A:00 X:FF Y:00 P:26 SP:FF PPU: 18, 39 CYC:4446
C653  AD 02 20  LDA $2002 = FF                  A:00 X:FF Y:00 P:26 SP:FF PPU: 27, 39 CYC:4449
C656  29 80     AND #$80                        A:10 X:FF Y:00 P:24 SP:FF PPU: 39, 39 CYC:4453
C658  F0 F9     BEQ $C653                       A:00 X:FF Y:00 P:26 SP:FF PPU: 45, 39 CYC:4455
C653  AD 02 20  LDA $2002 = FF                  A:00 X:FF Y:00 P:26 SP:FF PPU: 54, 39 CYC:4458
C656  29 80     AND #$80                        A:10 X:FF Y:00 P:24 SP:FF PPU: 66, 39 CYC:4462
C658  F0 F9     BEQ $C653                       A:00 X:FF Y:00 P:26 SP:FF PPU: 72, 39 CYC:4464
C653  AD 02 20  LDA $2002 = FF                  A:00 X:FF Y:00 P:26 SP:FF PPU: 81, 39 CYC:4467
C656  29 80     AND #$80                        A:10 X:FF Y:00 P:24 SP:FF PPU: 93, 39 CYC:4471
C658  F0 F9     BEQ $C653                       A:00 X:FF Y:00 P:26 SP:FF PPU: 99, 39 CYC:4473
C653  AD 02 20  LDA $2002 = FF                  A:00 X:FF Y:00 P:26 SP:FF PPU:108, 39 CYC:4476
C656  29 80     AND #$80                        A:10 X:FF Y:00 P:24 SP:FF PPU:120, 39 CYC:4480
C658  F0 F9     BEQ $C653                       A:00 X:FF Y:00 P:26 SP:FF PPU:126, 39 CYC:4482
C653  AD 02 20  LDA $2002 = FF                  A:00 X:FF Y:00 P:26 SP:FF PPU:135, 39 CYC:4485
C656  29 80     AND #$80                        A:10 X:FF Y:00 P:24 SP:FF PPU:147, 39 CYC:4489
C658  F0 F9     BEQ $C653                       A:00 X:FF Y:00 P:26 SP:FF PPU:153, 39 CYC:4491
C653  AD 02 20  LDA $2002 = FF                  A:00 X:FF Y:00 P:26 SP:FF PPU:162, 39 CYC:4494
C656  29 80     AND #$80                        A:10 X:FF Y:00 P:24 SP:FF PPU:174, 39 CYC:4498
C658  F0 F9     BEQ $C653                       A:00 X:FF Y:00 P:26 SP:FF PPU:180, 39 CYC:4500
C653  AD 02 20  LDA $2002 = FF                  A:00 X:FF Y:00 P:26 SP:FF PPU:189, 39 CYC:4503
C656  29 80     AND #$80                        A:10 X:FF Y:00 P:24 SP:FF PPU:201, 39 CYC:4507
C658  F0 F9     BEQ $C653                       A:00 X:FF Y:00 P:26 SP:FF PPU:207, 39 CYC:4509
C653  AD 02 20  LDA $2002 = FF                  A:00 X:FF Y:00 P:26 SP:FF PPU:216, 39 CYC:4512
C656  29 80     AND #$80                        A:10 X:FF Y:00 P:24 SP:FF PPU:228, 39 CYC:4516
C658  F0 F9     BEQ $C653                       A:00 X:FF Y:00 P:26 SP:FF PPU:234, 39 CYC:4518
C653  AD 02 20  LDA $2002 = FF                  A:00 X:FF Y:00 P:26 SP:FF PPU:243, 39 CYC:4521
C656  29 80     AND #$80                        A:10 X:FF Y:00 P:24 SP:FF PPU:255, 39 CYC:4525
C658  F0 F9     BEQ $C653                       A:00 X:FF Y:00 P:26 SP:FF PPU:261, 39 CYC:4527
C653  AD 02 20  LDA $2002 = FF                  A:00 X:FF Y:00 P:26 SP:FF PPU:270, 39 CYC:4530
C656  29 80     AND #$80                        A:10 X:FF Y:00 P:24 SP:FF PPU:282, 39 CYC:4534
C658  F0 F9     BEQ $C653                       A:00 X:FF Y:00 P:26 SP:FF PPU:288, 39 CYC:4536
C653  AD 02 20  LDA $2002 = FF                  A:00 X:FF Y:00 P:26 SP:FF PPU:297, 39 CYC:4539
C656  29 80     AND #$80                        A:10 X:FF Y:00 P:24 SP:FF PPU:309, 39 CYC:4543
C658  F0 F9     BEQ $C653                       A:00 X:FF Y:00 P:26 SP:FF PPU:315, 39 CYC:4545
C653  AD 02 20  LDA $2002 = FF                  A:00 X:FF Y:00 P:26 SP:FF PPU:324, 39 CYC:4548
C656  29 80     AND #$80                        A:10 X:FF Y:00 P:24 SP:FF PPU:336, 39 CYC:4552
C658  F0 F9     BEQ $C653                       A:00 X:FF Y:00 P:26 SP:FF PPU:  1, 40 CYC:4554
C653  AD 02 20  LDA $2002 = FF                  A:00 X:FF Y:00 P:26 SP:FF PPU: 10, 40 CYC:4557
C656  29 80     AND #$80                        A:10 X:FF Y:00 P:24 SP:FF PPU: 22, 40 CYC:4561
C658  F0 F9     BEQ $C653                       A:00 X:FF Y:00 P:26 SP:FF PPU: 28, 40 CYC:4563
C653  AD 02 20  LDA $2002 = FF                  A:00 X:FF Y:00 P:26 SP:FF PPU: 37, 40 CYC:4566
C656  29 80     AND #$80                        A:10 X:FF Y:00 P:24 SP:FF PPU: 49, 40 CYC:4570
C658  F0 F9     BEQ $C653                       A:00 X:FF Y:00 P:26 SP:FF PPU: 55, 40 CYC:4572
C653  AD 02 20  LDA $2002 = FF                  A:00 X:FF Y:00 P:26 SP:FF PPU: 64, 40 CYC:4575
C656  29 80     AND #$80                        A:10 X:FF Y:00 P:24 SP:FF PPU: 76, 40 CYC:4579
C658  F0 F9     BEQ $C653                       A:00 X:FF Y:00 P:26 SP:FF PPU: 82, 40 CYC:4581
C653  AD 02 20  LDA $2002 = FF                  A:00 X:FF Y:00 P:26 SP:FF PPU: 91, 40 CYC:4584
C656  29 80     AND #$80                        A:10 X:FF Y:00 P:24 SP:FF PPU:103, 40 CYC:4588
C658  F0 F9     BEQ $C653                       A:00 X:FF Y:00 P:26 SP:FF PPU:109, 40 CYC:4590
C653  AD 02 20  LDA $2002 = FF                  A:00 X:FF Y:00 P:26 SP:FF PPU:118, 40 CYC:4593
C656  29 80     AND #$80                        A:10 X:FF Y:00 P:24 SP:FF PPU:130, 40 CYC:4597
C658  F0 F9     BEQ $C653                       A:00 X:FF Y:00 P:26 SP:FF PPU:136, 40 CYC:4599
C653  AD 02 20  LDA $2002 = FF                  A:00 X:FF Y:00 P:26 SP:FF PPU:145, 40 CYC:4602
C656  29 80     AND #$80                        A:10 X:FF Y:00 P:24 SP:FF PPU:157, 40 CYC:4606
C658  F0 F9     BEQ $C653                       A:00 X:FF Y:00 P:26 SP:FF PPU:163, 40 CYC:4608
C653  AD 02 20  LDA $2002 = FF                  A:00 X:FF Y:00 P:26 SP:FF PPU:172, 40 CYC:4611
C656  29 80     AND #$80                        A:10 X:FF Y:00 P:24 SP:FF PPU:184, 40 CYC:4615
C658  F0 F9     BEQ $C653                       A:00 X:FF Y:00 P:26 SP:FF PPU:190, 40 CYC:4617
C653  AD 02 20  LDA $2002 = FF                  A:00 X:FF Y:00 P:26 SP:FF PPU:199, 40 CYC:4620
C656  29 80     AND #$80                        A:10 X:FF Y:00 P:24 SP:FF PPU:211, 40 CYC:4624
C658  F0 F9     BEQ $C653                       A:00 X:FF Y:00 P:26 SP:FF PPU:217, 40 CYC:4626
C653  AD 02 20  LDA $2002 = FF                  A:00 X:FF Y:00 P:26 SP:FF PPU:226, 40 CYC:4629
C656  29 80     AND #$80                        A:10 X:FF Y:00 P:24 SP:FF PPU:238, 40 CYC:4633
C658  F0 F9     BEQ $C653                       A:00 X:FF Y:00 P:26 SP:FF PPU:244, 40 CYC:4635
C653  AD 02 20  LDA $2002 = FF                  A:00 X:FF Y:00 P:26 SP:FF PPU:253, 40 CYC:4638
C656  29 80     AND #$80                        A:10 X:FF Y:00 P:24 SP:FF PPU:265, 40 CYC:4642
C658  F0 F9     BEQ $C653                       A:00 X:FF Y:00 P:26 SP:FF PPU:271, 40 CYC:4644
C653  AD 02 20  LDA $2002 = FF                  A:00 X:FF Y:00 P:26 SP:FF PPU:280, 40 CYC:4647
C656  29 80     AND #$80                        A:10 X:FF Y:00 P:24 SP:FF PPU:292, 40 CYC:4651
C658  F0 F9     BEQ $C653                       A:00 X:FF Y:00 P:26 SP:FF PPU:298, 40 CYC:4653
C653  AD 02 20  LDA $2002 = FF                  A:00 X:FF Y:00 P:26 SP:FF PPU:307, 40 CYC:4656
C656  29 80     AND #$80                        A:10 X:FF Y:00 P:24 SP:FF PPU:319, 40 CYC:4660
C658  F0 F9     BEQ $C653                       A:00 X:FF Y:00 P:26 SP:FF PPU:325, 40 CYC:4662
C653  AD 02 20  LDA $2002 = FF                  A:00 X:FF Y:00 P:26 SP:FF PPU:334, 40 CYC:4665
C656  29 80     AND #$80                        A:10 X:FF Y:00 P:24 SP:FF PPU:  5, 41 CYC:4669
C658  F0 F9     BEQ $C653                       A:00 X:FF Y:00 P:26 SP:FF PPU: 11, 41 CYC:4671
C653  AD 02 20  LDA $2002 = FF                  A:00 X:FF Y:00 P:26 SP:FF PPU: 20, 41 CYC:4674
C656  29 80     AND #$80                        A:10 X:FF Y:00 P:24 SP:FF PPU: 32, 41 CYC:4678
C658  F0 F9     BEQ $C653                       A:00 X:FF Y:00 P:26 SP:FF PPU: 38, 41 CYC:4680
C653  AD 02 20  LDA $2002 = FF                  A:00 X:FF Y:00 P:26 SP:FF PPU: 47, 41 CYC:4683
C656  29 80     AND #$80                        A:10 X:FF Y:00 P:24 SP:FF PPU: 59, 41 CYC:4687
C658  F0 F9     BEQ $C653                       A:00 X:FF Y:00 P:26 SP:FF PPU: 65, 41 CYC:4689
C653  AD 02 20  LDA $2002 = FF                  A:00 X:FF Y:00 P:26 SP:FF PPU: 74, 41 CYC:4692
C656  29 80     AND #$80                        A:10 X:FF Y:00 P:24 SP:FF PPU: 86, 41 CYC:4696
C658  F0 F9     BEQ $C653                       A:00 X:FF Y:00 P:26 SP:FF PPU: 92, 41 CYC:4698
C653  AD 02 20  LDA $2002 = FF                  A:00 X:FF Y:00 P:26 SP:FF PPU:101, 41 CYC:4701
C656  29 80     AND #$80                        A:10 X:FF Y:00 P:24 SP:FF PPU:113, 41 CYC:4705
C658  F0 F9     BEQ $C653                       A:00 X:FF Y:00 P:26 SP:FF PPU:119, 41 CYC:4707
C653  AD 02 20  LDA $2002 = FF                  A:00 X:FF Y:00 P:26 SP:FF PPU:128, 41 CYC:4710
C656  29 80     AND #$80                        A:10 X:FF Y:00 P:24 SP:FF PPU:140, 41 CYC:4714
C658  F0 F9     BEQ $C653                       A:00 X:FF Y:00 P:26 SP:FF PPU:146, 41 CYC:4716
C653  AD 02 20  LDA $2002 = FF                  A:00 X:FF Y:00 P:26 SP:FF PPU:155, 41 CYC:4719
C656  29 80     AND #$80                        A:10 X:FF Y:00 P:24 SP:FF PPU:167, 41 CYC:4723
C658  F0 F9     BEQ $C653                       A:00 X:FF Y:00 P:26 SP:FF PPU:173, 41 CYC:4725
C653  AD 02 20  LDA $2002 = FF                  A:00 X:FF Y:00 P:26 SP:FF PPU:182, 41 CYC:4728
C656  29 80     AND #$80                        A:10 X:FF Y:00 P:24 SP:FF PPU:194, 41 CYC:4732
C658  F0 F9     BEQ $C653                       A:00 X:FF Y:00 P:26 SP:FF PPU:200, 41 CYC:4734
C653  AD 02 20  LDA $2002 = FF                  A:00 X:FF Y:00 P:26 SP:FF PPU:209, 41 CYC:4737
C656  29 80     AND #$80                        A:10 X:FF Y:00 P:24 SP:FF PPU:221, 41 CYC:4741
C658  F0 F9     BEQ $C653                       A:00 X:FF Y:00 P:26 SP:FF PPU:227, 41 CYC:4743
C653  AD 02 20  LDA $2002 = FF                  A:00 X:FF Y:00 P:26 SP:FF PPU:236, 41 CYC:4746
C656  29 80     AND #$80                        A:10 X:FF Y:00 P:24 SP:FF PPU:248, 41 CYC:4750
C658  F0 F9     BEQ $C653                       A:00 X:FF Y:00 P:26 SP:FF PPU:254, 41 CYC:4752
C653  AD 02 20  LDA $2002 = FF                  A:00 X:FF Y:00 P:26 SP:FF PPU:263, 41 CYC:4755
C656  29 80     AND #$80                        A:10 X:FF Y:00 P:24 SP:FF PPU:275, 41 CYC:4759
C658  F0 F9     BEQ $C653                       A:00 X:FF Y:00 P:26 SP:FF PPU:281, 41 CYC:4761
C653  AD 02 20  LDA $2002 = FF                  A:00 X:FF Y:00 P:26 SP:FF PPU:290, 41 CYC:4764
C656  29 80     AND #$80                        A:10 X:FF Y:00 P:24 SP:FF PPU:302, 41 CYC:4768
C658  F0 F9     BEQ $C653                       A:00 X:FF Y:00 P:26 SP:FF PPU:308, 41 CYC:4770
C653  AD 02 20  LDA $2002 = FF                  A:00 X:FF Y:00 P:26 SP:FF PPU:317, 41 CYC:4773
C656  29 80     AND #$80                        A:10 X:FF Y:00 P:24 SP:FF PPU:329, 41 CYC:4777
C658  F0 F9     BEQ $C653                       A:00 X:FF Y:00 P:26 SP:FF PPU:335, 41 CYC:4779
C653  AD 02 20  LDA $2002 = FF                  A:00 X:FF Y:00 P:26 SP:FF PPU:  3, 42 CYC:4782
C656  29 80     AND #$80                        A:10 X:FF Y:00 P:24 SP:FF PPU: 15, 42 CYC:4786
C658  F0 F9     BEQ $C653                       A:00 X:FF Y:00 P:26 SP:FF PPU: 21, 42 CYC:4788
C653  AD 02 20  LDA $2002 = FF                  A:00 X:FF Y:00 P:26 SP:FF PPU: 30, 42 CYC:4791
C656  29 80     AND #$80                        A:10 X:FF Y:00 P:24 SP:FF PPU: 42, 42 CYC:4795
C658  F0 F9     BEQ $C653                       A:00 X:FF Y:00 P:26 SP:FF PPU: 48, 42 CYC:4797
C653  AD 02 20  LDA $2002 = FF                  A:00 X:FF Y:00 P:26 SP:FF PPU: 57, 42 CYC:4800
C656  29 80     AND #$80                        A:10 X:FF Y:00 P:24 SP:FF PPU: 69, 42 CYC:4804
C658  F0 F9     BEQ $C653                       A:00 X:FF Y:00 P:26 SP:FF PPU: 75, 42 CYC:4806
C653  AD 02 20  LDA $2002 = FF                  A:00 X:FF Y:00 P:26 SP:FF PPU: 84, 42 CYC:4809
C656  29 80     AND #$80                        A:10 X:FF Y:00 P:24 SP:FF PPU: 96, 42 CYC:4813
C658  F0 F9     BEQ $C653                       A:00 X:FF Y:00 P:26 SP:FF PPU:102, 42 CYC:4815
C653  AD 02 20  LDA $2002 = FF                  A:00 X:FF Y:00 P:26 SP:FF PPU:111, 42 CYC:4818
C656  29 80     AND #$80                        A:10 X:FF Y:00 P:24 SP:FF PPU:123, 42 CYC:4822
C658  F0 F9     BEQ $C653                       A:00 X:FF Y:00 P:26 SP:FF PPU:129, 42 CYC:4824
C653  AD 02 20  LDA $2002 = FF                  A:00 X:FF Y:00 P:26 SP:FF PPU:138, 42 CYC:4827
C656  29 80     AND #$80                        A:10 X:FF Y:00 P:24 SP:FF PPU:150, 42 CYC:4831
C658  F0 F9     BEQ $C653                       A:00 X:FF Y:00 P:26 SP:FF PPU:156, 42 CYC:4833
C653  AD 02 20  LDA $2002 = FF                  A:00 X:FF Y:00 P:26 SP:FF PPU:165, 42 CYC:4836
C656  29 80     AND #$80                        A:10 X:FF Y:00 P:24 SP:FF PPU:177, 42 CYC:4840
C658  F0 F9     BEQ $C653                       A:00 X:FF Y:00 P:26 SP:FF PPU:183, 42 CYC:4842
C653  AD 02 20  LDA $2002 = FF                  A:00 X:FF Y:00 P:26 SP:FF PPU:192, 42 CYC:4845
C656  29 80     AND #$80                        A:10 X:FF Y:00 P:24 SP:FF PPU:204, 42 CYC:4849
C658  F0 F9     BEQ $C653                       A:00 X:FF Y:00 P:26 SP:FF PPU:210, 42 CYC:4851
C653  AD 02 20  LDA $2002 = FF                  A:00 X:FF Y:00 P:26 SP:FF PPU:219, 42 CYC:4854
C656  29 80     AND #$80                        A:10 X:FF Y:00 P:24 SP:FF PPU:231, 42 CYC:4858
C658  F0 F9     BEQ $C653                       A:00 X:FF Y:00 P:26 SP:FF PPU:237, 42 CYC:4860
C653  AD 02 20  LDA $2002 = FF                  A:00 X:FF Y:00 P:26 SP:FF PPU:246, 42 CYC:4863
C656  29 80     AND #$80                        A:10 X:FF Y:00 P:24 SP:FF PPU:258, 42 CYC:4867
C658  F0 F9     BEQ $C653                       A:00 X:FF Y:00 P:26 SP:FF PPU:264, 42 CYC:4869
C653  AD 02 20  LDA $2002 = FF                  A:00 X:FF Y:00 P:26 SP:FF PPU:273, 42 CYC:4872
C656  29 80     AND #$80                        A:10 X:FF Y:00 P:24 SP:FF PPU:285, 42 CYC:4876
C658  F0 F9     BEQ $C653                       A:00 X:FF Y:00 P:26 SP:FF PPU:291, 42 CYC:4878
C653  AD 02 20  LDA $2002 = FF                  A:00 X:FF Y:00 P:26 SP:FF PPU:300, 42 CYC:4881
C656  29 80     AND #$80                        A:10 X:FF Y:00 P:24 SP:FF PPU:312, 42 CYC:4885
C658  F0 F9     BEQ $C653                       A:00 X:FF Y:00 P:26 SP:FF PPU:318, 42 CYC:4887
C653  AD 02 20  LDA $2002 = FF                  A:00 X:FF Y:00 P:26 SP:FF PPU:327, 42 CYC:4890
C656  29 80     AND #$80                        A:10 X:FF Y:00 P:24 SP:FF PPU:339, 42 CYC:4894
C658  F0 F9     BEQ $C653                       A:00 X:FF Y:00 P:26 SP:FF PPU:  4, 43 CYC:4896
C653  AD 02 20  LDA $2002 = FF                  A:00 X:FF Y:00 P:26 SP:FF PPU: 13, 43 CYC:4899
C656  29 80     AND #$80                        A:10 X:FF Y:00 P:24 SP:FF PPU: 25, 43 CYC:4903
C658  F0 F9     BEQ $C653                       A:00 X:FF Y:00 P:26 SP:FF PPU: 31, 43 CYC:4905
C653  AD 02 20  LDA $2002 = FF                  A:00 X:FF Y:00 P:26 SP:FF PPU: 40, 43 CYC:4908
C656  29 80     AND #$80                        A:10 X:FF Y:00 P:24 SP:FF PPU: 52, 43 CYC:4912
C658  F0 F9     BEQ $C653                       A:00 X:FF Y:00 P:26 SP:FF PPU: 58, 43 CYC:4914
C653  AD 02 20  LDA $2002 = FF                  A:00 X:FF Y:00 P:26 SP:FF PPU: 67, 43 CYC:4917
C656  29 80     AND #$80                        A:10 X:FF Y:00 P:24 SP:FF PPU: 79, 43 CYC:4921
C658  F0 F9     BEQ $C653                       A:00 X:FF Y:00 P:26 SP:FF PPU: 85, 43 CYC:4923
C653  AD 02 20  LDA $2002 = FF                  A:00 X:FF Y:00 P:26 SP:FF PPU: 94, 43 CYC:4926
C656  29 80     AND #$80                        A:10 X:FF Y:00 P:24 SP:FF PPU:106, 43 CYC:4930
C658  F0 F9     BEQ $C653                       A:00 X:FF Y:00 P:26 SP:FF PPU:112, 43 CYC:4932
C653  AD 02 20  LDA $2002 = FF                  A:00 X:FF Y:00 P:26 SP:FF PPU:121, 43 CYC:4935
C656  29 80     AND #$80                        A:10 X:FF Y:00 P:24 SP:FF PPU:133, 43 CYC:4939
C658  F0 F9     BEQ $C653                       A:00 X:FF Y:00 P:26 SP:FF PPU:139, 43 CYC:4941
C653  AD 02 20  LDA $2002 = FF                  A:00 X:FF Y:00 P:26 SP:FF PPU:148, 43 CYC:4944
C656  29 80     AND #$80                        A:10 X:FF Y:00 P:24 SP:FF PPU:160, 43 CYC:4948
C658  F0 F9     BEQ $C653                       A:00 X:FF Y:00 P:26 SP:FF PPU:166, 43 CYC:4950
C653  AD 02 20  LDA $2002 = FF                  A:00 X:FF Y:00 P:26 SP:FF PPU:175, 43 CYC:4953
C656  29 80     AND #$80                        A:10 X:FF Y:00 P:24 SP:FF PPU:187, 43 CYC:4957
C658  F0 F9     BEQ $C653                       A:00 X:FF Y:00 P:26 SP:FF PPU:193, 43 CYC:4959
C653  AD 02 20  LDA $2002 = FF                  A:00 X:FF Y:00 P:26 SP:FF PPU:202, 43 CYC:4962
C656  29 80     AND #$80                        A:10 X:FF Y:00 P:24 SP:FF PPU:214, 43 CYC:4966
C658  F0 F9     BEQ $C653                       A:00 X:FF Y:00 P:26 SP:FF PPU:220, 43 CYC:4968
C653  AD 02 20  LDA $2002 = FF                  A:00 X:FF Y:00 P:26 SP:FF PPU:229, 43 CYC:4971
C656  29 80     AND #$80                        A:10 X:FF Y:00 P:24 SP:FF PPU:241, 43 CYC:4975
C658  F0 F9     BEQ $C653                       A:00 X:FF Y:00 P:26 SP:FF PPU:247, 43 CYC:4977
C653  AD 02 20  LDA $2002 = FF                  A:00 X:FF Y:00 P:26 SP:FF PPU:256, 43 CYC:4980
C656  29 80     AND #$80                        A:10 X:FF Y:00 P:24 SP:FF PPU:268, 43 CYC:4984
C658  F0 F9     BEQ $C653                       A:00 X:FF Y:00 P:26 SP:FF PPU:274, 43 CYC:4986
C653  AD 02 20  LDA $2002 = FF                  A:00 X:FF Y:00 P:26 SP:FF PPU:283, 43 CYC:4989
C656  29 80     AND #$80                        A:10 X:FF Y:00 P:24 SP:FF PPU:295, 43 CYC:4993
C658  F0 F9     BEQ $C653                       A:00 X:FF Y:00 P:26 SP:FF PPU:301, 43 CYC:4995
C653  AD 02 20  LDA $2002 = FF                  A:00 X:FF Y:00 P:26 SP:FF PPU:310, 43 CYC:4998
C656  29 80     AND #$80                        A:10 X:FF Y:00 P:24 SP:FF PPU:322, 43 CYC:5002
C658  F0 F9     BEQ $C653                       A:00 X:FF Y:00 P:26 SP:FF PPU:328, 43 CYC:5004
C653  AD 02 20  LDA $2002 = FF                  A:00 X:FF Y:00 P:26 SP:FF PPU:337, 43 CYC:5007
C656  29 80     AND #$80                        A:10 X:FF Y:00 P:24 SP:FF PPU:  8, 44 CYC:5011
C658  F0 F9     BEQ $C653                       A:00 X:FF Y:00 P:26 SP:FF PPU: 14, 44 CYC:5013
C653  AD 02 20  LDA $2002 = FF                  A:00 X:FF Y:00 P:26 SP:FF PPU: 23, 44 CYC:5016
C656  29 80     AND #$80                        A:10 X:FF Y:00 P:24 SP:FF PPU: 35, 44 CYC:5020
C658  F0 F9     BEQ $C653                       A:00 X:FF Y:00 P:26 SP:FF PPU: 41, 44 CYC:5022
C653  AD 02 20  LDA $2002 = FF                  A:00 X:FF Y:00 P:26 SP:FF PPU: 50, 44 CYC:5025
C656  29 80     AND #$80                        A:10 X:FF Y:00 P:24 SP:FF PPU: 62, 44 CYC:5029
C658  F0 F9     BEQ $C653                       A:00 X:FF Y:00 P:26 SP:FF PPU: 68, 44 CYC:5031
C653  AD 02 20  LDA $2002 = FF                  A:00 X:FF Y:00 P:26 SP:FF PPU: 77, 44 CYC:5034
C656  29 80     AND #$80                        A:10 X:FF Y:00 P:24 SP:FF PPU: 89, 44 CYC:5038
C658  F0 F9     BEQ $C653                       A:00 X:FF Y:00 P:26 SP:FF PPU: 95, 44 CYC:5040
C653  AD 02 20  LDA $2002 = FF                  A:00 X:FF Y:00 P:26 SP:FF PPU:104, 44 CYC:5043
C656  29 80     AND #$80                        A:10 X:FF Y:00 P:24 SP:FF PPU:116, 44 CYC:5047
C658  F0 F9     BEQ $C653                       A:00 X:FF Y:00 P:26 SP:FF PPU:122, 44 CYC:5049
C653  AD 02 20  LDA $2002 = FF                  A:00 X:FF Y:00 P:26 SP:FF PPU:131, 44 CYC:5052
C656  29 80     AND #$80                        A:10 X:FF Y:00 P:24 SP:FF PPU:143, 44 CYC:5056
C658  F0 F9     BEQ $C653                       A:00 X:FF Y:00 P:26 SP:FF PPU:149, 44 CYC:5058
C653  AD 02 20  LDA $2002 = FF                  A:00 X:FF Y:00 P:26 SP:FF PPU:158, 44 CYC:5061
C656  29 80     AND #$80                        A:10 X:FF Y:00 P:24 SP:FF PPU:170, 44 CYC:5065
C658  F0 F9     BEQ $C653                       A:00 X:FF Y:00 P:26 SP:FF PPU:176, 44 CYC:5067
C653  AD 02 20  LDA $2002 = FF                  A:00 X:FF Y:00 P:26 SP:FF PPU:185, 44 CYC:5070
C656  29 80     AND #$80                        A:10 X:FF Y:00 P:24 SP:FF PPU:197, 44 CYC:5074
C658  F0 F9     BEQ $C653                       A:00 X:FF Y:00 P:26 SP:FF PPU:203, 44 CYC:5076
C653  AD 02 20  LDA $2002 = FF                  A:00 X:FF Y:00 P:26 SP:FF PPU:212, 44 CYC:5079
C656  29 80     AND #$80                        A:10 X:FF Y:00 P:24 SP:FF PPU:224, 44 CYC:5083
C658  F0 F9     BEQ $C653                       A:00 X:FF Y:00 P:26 SP:FF PPU:230, 44 CYC:5085
C653  AD 02 20  LDA $2002 = FF                  A:00 X:FF Y:00 P:26 SP:FF PPU:239, 44 CYC:5088
C656  29 80     AND #$80                        A:10 X:FF Y:00 P:24 SP:FF PPU:251, 44 CYC:5092
C658  F0 F9     BEQ $C653                       A:00 X:FF Y:00 P:26 SP:FF PPU:257, 44 CYC:5094
C653  AD 02 20  LDA $2002 = FF                  A:00 X:FF Y:00 P:26 SP:FF PPU:266, 44 CYC:5097
C656  29 80     AND #$80                        A:10 X:FF Y:00 P:24 SP:FF PPU:278, 44 CYC:5101
C658  F0 F9     BEQ $C653                       A:00 X:FF Y:00 P:26 SP:FF PPU:284, 44 CYC:5103
C653  AD 02 20  LDA $2002 = FF                  A:00 X:FF Y:00 P:26 SP:FF PPU:293, 44 CYC:5106
C656  29 80     AND #$80                        A:10 X:FF Y:00 P:24 SP:FF PPU:305, 44 CYC:5110
C658  F0 F9     BEQ $C653                       A:00 X:FF Y:00 P:26 SP:FF PPU:311, 44 CYC:5112
C653  AD 02 20  LDA $2002 = FF                  A:00 X:FF Y:00 P:26 SP:FF PPU:320, 44 CYC:5115
C656  29 80     AND #$80                        A:10 X:FF Y:00 P:24 SP:FF PPU:332, 44 CYC:5119
C658  F0 F9     BEQ $C653                       A:00 X:FF Y:00 P:26 SP:FF PPU:338, 44 CYC:5121
C653  AD 02 20  LDA $2002 = FF                  A:00 X:FF Y:00 P:26 SP:FF PPU:  6, 45 CYC:5124
C656  29 80     AND #$80                        A:10 X:FF Y:00 P:24 SP:FF PPU: 18, 45 CYC:5128
C658  F0 F9     BEQ $C653                       A:00 X:FF Y:00 P:26 SP:FF PPU: 24, 45 CYC:5130
C653  AD 02 20  LDA $2002 = FF                  A:00 X:FF Y:00 P:26 SP:FF PPU: 33, 45 CYC:5133
C656  29 80     AND #$80                        A:10 X:FF Y:00 P:24 SP:FF PPU: 45, 45 CYC:5137
C658  F0 F9     BEQ $C653                       A:00 X:FF Y:00 P:26 SP:FF PPU: 51, 45 CYC:5139
C653  AD 02 20  LDA $2002 = FF                  A:00 X:FF Y:00 P:26 SP:FF PPU: 60, 45 CYC:5142
C656  29 80     AND #$80                        A:10 X:FF Y:00 P:24 SP:FF PPU: 72, 45 CYC:5146
C658  F0 F9     BEQ $C653                       A:00 X:FF Y:00 P:26 SP:FF PPU: 78, 45 CYC:5148
C653  AD 02 20  LDA $2002 = FF                  A:00 X:FF Y:00 P:26 SP:FF PPU: 87, 45 CYC:5151
C656  29 80     AND #$80                        A:10 X:FF Y:00 P:24 SP:FF PPU: 99, 45 CYC:5155
C658  F0 F9     BEQ $C653                       A:00 X:FF Y:00 P:26 SP:FF PPU:105, 45 CYC:5157
C653  AD 02 20  LDA $2002 = FF                  A:00 X:FF Y:00 P:26 SP:FF PPU:114, 45 CYC:5160
C656  29 80     AND #$80                        A:10 X:FF Y:00 P:24 SP:FF PPU:126, 45 CYC:5164
C658  F0 F9     BEQ $C653                       A:00 X:FF Y:00 P:26 SP:FF PPU:132, 45 CYC:5166
C653  AD 02 20  LDA $2002 = FF                  A:00 X:FF Y:00 P:26 SP:FF PPU:141, 45 CYC:5169
C656  29 80     AND #$80                        A:10 X:FF Y:00 P:24 SP:FF PPU:153, 45 CYC:5173
C658  F0 F9     BEQ $C653                       A:00 X:FF Y:00 P:26 SP:FF PPU:159, 45 CYC:5175
C653  AD 02 20  LDA $2002 = FF                  A:00 X:FF Y:00 P:26 SP:FF PPU:168, 45 CYC:5178
C656  29 80     AND #$80                        A:10 X:FF Y:00 P:24 SP:FF PPU:180, 45 CYC:5182
C658  F0 F9     BEQ $C653                       A:00 X:FF Y:00 P:26 SP:FF PPU:186, 45 CYC:5184
C653  AD 02 20  LDA $2002 = FF                  A:00 X:FF Y:00 P:26 SP:FF PPU:195, 45 CYC:5187
C656  29 80     AND #$80                        A:10 X:FF Y:00 P:24 SP:FF PPU:207, 45 CYC:5191
C658  F0 F9     BEQ $C653                       A:00 X:FF Y:00 P:26 SP:FF PPU:213, 45 CYC:5193
C653  AD 02 20  LDA $2002 = FF                  A:00 X:FF Y:00 P:26 SP:FF PPU:222, 45 CYC:5196
C656  29 80     AND #$80                        A:10 X:FF Y:00 P:24 SP:FF PPU:234, 45 CYC:5200
C658  F0 F9     BEQ $C653                       A:00 X:FF Y:00 P:26 SP:FF PPU:240, 45 CYC:5202
C653  AD 02 20  LDA $2002 = FF                  A:00 X:FF Y:00 P:26 SP:FF PPU:249, 45 CYC:5205
C656  29 80     AND #$80                        A:10 X:FF Y:00 P:24 SP:FF PPU:261, 45 CYC:5209
C658  F0 F9     BEQ $C653                       A:00 X:FF Y:00 P:26 SP:FF PPU:267, 45 CYC:5211
C653  AD 02 20  LDA $2002 = FF                  A:00 X:FF Y:00 P:26 SP:FF PPU:276, 45 CYC:5214
C656  29 80     AND #$80                        A:10 X:FF Y:00 P:24 SP:FF PPU:288, 45 CYC:5218
C658  F0 F9     BEQ $C653                       A:00 X:FF Y:00 P:26 SP:FF PPU:294, 45 CYC:5220
C653  AD 02 20  LDA $2002 = FF                  A:00 X:FF Y:00 P:26 SP:FF PPU:303, 45 CYC:5223
C656  29 80     AND #$80                        A:10 X:FF Y:00 P:24 SP:FF PPU:315, 45 CYC:5227
C658  F0 F9     BEQ $C653                       A:00 X:FF Y:00 P:26 SP:FF PPU:321, 45 CYC:5229
C653  AD 02 20  LDA $2002 = FF                  A:00 X:FF Y:00 P:26 SP:FF PPU:330, 45 CYC:5232
C656  29 80     AND #$80                        A:10 X:FF Y:00 P:24 SP:FF PPU:  1, 46 CYC:5236
C658  F0 F9     BEQ $C653                       A:00 X:FF Y:00 P:26 SP:FF PPU:  7, 46 CYC:5238
C653  AD 02 20  LDA $2002 = FF                  A:00 X:FF Y:00 P:26 SP:FF PPU: 16, 46 CYC:5241
C656  29 80     AND #$80                        A:10 X:FF Y:00 P:24 SP:FF PPU: 28, 46 CYC:5245
C658  F0 F9     BEQ $C653                       A:00 X:FF Y:00 P:26 SP:FF PPU: 34, 46 CYC:5247
C653  AD 02 20  LDA $2002 = FF                  A:00 X:FF Y:00 P:26 SP:FF PPU: 43, 46 CYC:5250
C656  29 80     AND #$80                        A:10 X:FF Y:00 P:24 SP:FF PPU: 55, 46 CYC:5254
C658  F0 F9     BEQ $C653                       A:00 X:FF Y:00 P:26 SP:FF PPU: 61, 46 CYC:5256
C653  AD 02 20  LDA $2002 = FF                  A:00 X:FF Y:00 P:26 SP:FF PPU: 70, 46 CYC:5259
C656  29 80     AND #$80                        A:10 X:FF Y:00 P:24 SP:FF PPU: 82, 46 CYC:5263
C658  F0 F9     BEQ $C653                       A:00 X:FF Y:00 P:26 SP:FF PPU: 88, 46 CYC:5265
C653  AD 02 20  LDA $2002 = FF                  A:00 X:FF Y:00 P:26 SP:FF PPU: 97, 46 CYC:5268
C656  29 80     AND #$80                        A:10 X:FF Y:00 P:24 SP:FF PPU:109, 46 CYC:5272
C658  F0 F9     BEQ $C653                       A:00 X:FF Y:00 P:26 SP:FF PPU:115, 46 CYC:5274
C653  AD 02 20  LDA $2002 = FF                  A:00 X:FF Y:00 P:26 SP:FF PPU:124, 46 CYC:5277
C656  29 80     AND #$80                        A:10 X:FF Y:00 P:24 SP:FF PPU:136, 46 CYC:5281
C658  F0 F9     BEQ $C653                       A:00 X:FF Y:00 P:26 SP:FF PPU:142, 46 CYC:5283
C653  AD 02 20  LDA $2002 = FF                  A:00 X:FF Y:00 P:26 SP:FF PPU:151, 46 CYC:5286
C656  29 80     AND #$80                        A:10 X:FF Y:00 P:24 SP:FF PPU:163, 46 CYC:5290
C658  F0 F9     BEQ $C653                       A:00 X:FF Y:00 P:26 SP:FF PPU:169, 46 CYC:5292
C653  AD 02 20  LDA $2002 = FF                  A:00 X:FF Y:00 P:26 SP:FF PPU:178, 46 CYC:5295
C656  29 80     AND #$80                        A:10 X:FF Y:00 P:24 SP:FF PPU:190, 46 CYC:5299
C658  F0 F9     BEQ $C653                       A:00 X:FF Y:00 P:26 SP:FF PPU:196, 46 CYC:5301
C653  AD 02 20  LDA $2002 = FF                  A:00 X:FF Y:00 P:26 SP:FF PPU:205, 46 CYC:5304
C656  29 80     AND #$80                        A:10 X:FF Y:00 P:24 SP:FF PPU:217, 46 CYC:5308
C658  F0 F9     BEQ $C653                       A:00 X:FF Y:00 P:26 SP:FF PPU:223, 46 CYC:5310
C653  AD 02 20  LDA $2002 = FF                  A:00 X:FF Y:00 P:26 SP:FF PPU:232, 46 CYC:5313
C656  29 80     AND #$80                        A:10 X:FF Y:00 P:24 SP:FF PPU:244, 46 CYC:5317
C658  F0 F9     BEQ $C653                       A:00 X:FF Y:00 P:26 SP:FF PPU:250, 46 CYC:5319
C653  AD 02 20  LDA $2002 = FF                  A:00 X:FF Y:00 P:26 SP:FF PPU:259, 46 CYC:5322
C656  29 80     AND #$80                        A:10 X:FF Y:00 P:24 SP:FF PPU:271, 46 CYC:5326
C658  F0 F9     BEQ $C653                       A:00 X:FF Y:00 P:26 SP:FF PPU:277, 46 CYC:5328
C653  AD 02 20  LDA $2002 = FF                  A:00 X:FF Y:00 P:26 SP:FF PPU:286, 46 CYC:5331
C656  29 80     AND #$80                        A:10 X:FF Y:00 P:24 SP:FF PPU:298, 46 CYC:5335
C658  F0 F9     BEQ $C653                       A:00 X:FF Y:00 P:26 SP:FF PPU:304, 46 CYC:5337
C653  AD 02 20  LDA $2002 = FF                  A:00 X:FF Y:00 P:26 SP:FF PPU:313, 46 CYC:5340
C656  29 80     AND #$80                        A:10 X:FF Y:00 P:24 SP:FF PPU:325, 46 CYC:5344
C658  F0 F9     BEQ $C653                       A:00 X:FF Y:00 P:26 SP:FF PPU:331, 46 CYC:5346
C653  AD 02 20  LDA $2002 = FF                  A:00 X:FF Y:00 P:26 SP:FF PPU:340, 46 CYC:5349
C656  29 80     AND #$80                        A:10 X:FF Y:00 P:24 SP:FF PPU: 11, 47 CYC:5353
C658  F0 F9     BEQ $C653                       A:00 X:FF Y:00 P:26 SP:FF PPU: 17, 47 CYC:5355
C653  AD 02 20  LDA $2002 = FF                  A:00 X:FF Y:00 P:26 SP:FF PPU: 26, 47 CYC:5358
C656  29 80     AND #$80                        A:10 X:FF Y:00 P:24 SP:FF PPU: 38, 47 CYC:5362
C658  F0 F9     BEQ $C653                       A:00 X:FF Y:00 P:26 SP:FF PPU: 44, 47 CYC:5364
C653  AD 02 20  LDA $2002 = FF                  A:00 X:FF Y:00 P:26 SP:FF PPU: 53, 47 CYC:5367
C656  29 80     AND #$80                        A:10 X:FF Y:00 P:24 SP:FF PPU: 65, 47 CYC:5371
C658  F0 F9     BEQ $C653                       A:00 X:FF Y:00 P:26 SP:FF PPU: 71, 47 CYC:5373
C653  AD 02 20  LDA $2002 = FF                  A:00 X:FF Y:00 P:26 SP:FF PPU: 80, 47 CYC:5376
C656  29 80     AND #$80                        A:10 X:FF Y:00 P:24 SP:FF PPU: 92, 47 CYC:5380
C658  F0 F9     BEQ $C653                       A:00 X:FF Y:00 P:26 SP:FF PPU: 98, 47 CYC:5382
C653  AD 02 20  LDA $2002 = FF                  A:00 X:FF Y:00 P:26 SP:FF PPU:107, 47 CYC:5385
C656  29 80     AND #$80                        A:10 X:FF Y:00 P:24 SP:FF PPU:119, 47 CYC:5389
C658  F0 F9     BEQ $C653                       A:00 X:FF Y:00 P:26 SP:FF PPU:125, 47 CYC:5391
C653  AD 02 20  LDA $2002 = FF                  A:00 X:FF Y:00 P:26 SP:FF PPU:134, 47 CYC:5394
C656  29 80     AND #$80                        A:10 X:FF Y:00 P:24 SP:FF PPU:146, 47 CYC:5398
C658  F0 F9     BEQ $C653                       A:00 X:FF Y:00 P:26 SP:FF PPU:152, 47 CYC:5400
C653  AD 02 20  LDA $2002 = FF                  A:00 X:FF Y:00 P:26 SP:FF PPU:161, 47 CYC:5403
C656  29 80     AND #$80                        A:10 X:FF Y:00 P:24 SP:FF PPU:173, 47 CYC:5407
C658  F0 F9     BEQ $C653                       A:00 X:FF Y:00 P:26 SP:FF PPU:179, 47 CYC:5409
C653  AD 02 20  LDA $2002 = FF                  A:00 X:FF Y:00 P:26 SP:FF PPU:188, 47 CYC:5412
C656  29 80     AND #$80                        A:10 X:FF Y:00 P:24 SP:FF PPU:200, 47 CYC:5416
C658  F0 F9     BEQ $C653                       A:00 X:FF Y:00 P:26 SP:FF PPU:206, 47 CYC:5418
C653  AD 02 20  LDA $2002 = FF                  A:00 X:FF Y:00 P:26 SP:FF PPU:215, 47 CYC:5421
C656  29 80     AND #$80                        A:10 X:FF Y:00 P:24 SP:FF PPU:227, 47 CYC:5425
C658  F0 F9     BEQ $C653                       A:00 X:FF Y:00 P:26 SP:FF PPU:233, 47 CYC:5427
C653  AD 02 20  LDA $2002 = FF                  A:00 X:FF Y:00 P:26 SP:FF PPU:242, 47 CYC:5430
C656  29 80     AND #$80                        A:10 X:FF Y:00 P:24 SP:FF PPU:254, 47 CYC:5434
C658  F0 F9     BEQ $C653                       A:00 X:FF Y:00 P:26 SP:FF PPU:260, 47 CYC:5436
C653  AD 02 20  LDA $2002 = FF                  A:00 X:FF Y:00 P:26 SP:FF PPU:269, 47 CYC:5439
C656  29 80     AND #$80                        A:10 X:FF Y:00 P:24 SP:FF PPU:281, 47 CYC:5443
C658  F0 F9     BEQ $C653                       A:00 X:FF Y:00 P:26 SP:FF PPU:287, 47 CYC:5445
C653  AD 02 20  LDA $2002 = FF                  A:00 X:FF Y:00 P:26 SP:FF PPU:296, 47 CYC:5448
C656  29 80     AND #$80                        A:10 X:FF Y:00 P:24 SP:FF PPU:308, 47 CYC:5452
C658  F0 F9     BEQ $C653                       A:00 X:FF Y:00 P:26 SP:FF PPU:314, 47 CYC:5454
C653  AD 02 20  LDA $2002 = FF                  A:00 X:FF Y:00 P:26 SP:FF PPU:323, 47 CYC:5457
C656  29 80     AND #$80                        A:10 X:FF Y:00 P:24 SP:FF PPU:335, 47 CYC:5461
C658  F0 F9     BEQ $C653                       A:00 X:FF Y:00 P:26 SP:FF PPU:  0, 48 CYC:5463
C653  AD 02 20  LDA $2002 = FF                  A:00 X:FF Y:00 P:26 SP:FF PPU:  9, 48 CYC:5466
C656  29 80     AND #$80                        A:10 X:FF Y:00 P:24 SP:FF PPU: 21, 48 CYC:5470
C658  F0 F9     BEQ $C653                       A:00 X:FF Y:00 P:26 SP:FF PPU: 27, 48 CYC:5472
C653  AD 02 20  LDA $2002 = FF                  A:00 X:FF Y:00 P:26 SP:FF PPU: 36, 48 CYC:5475
C656  29 80     AND #$80                        A:10 X:FF Y:00 P:24 SP:FF PPU: 48, 48 CYC:5479
C658  F0 F9     BEQ $C653                       A:00 X:FF Y:00 P:26 SP:FF PPU: 54, 48 CYC:5481
C653  AD 02 20  LDA $2002 = FF                  A:00 X:FF Y:00 P:26 SP:FF PPU: 63, 48 CYC:5484
C656  29 80     AND #$80                        A:10 X:FF Y:00 P:24 SP:FF PPU: 75, 48 CYC:5488
C658  F0 F9     BEQ $C653                       A:00 X:FF Y:00 P:26 SP:FF PPU: 81, 48 CYC:5490
C653  AD 02 20  LDA $2002 = FF                  A:00 X:FF Y:00 P:26 SP:FF PPU: 90, 48 CYC:5493
C656  29 80     AND #$80                        A:10 X:FF Y:00 P:24 SP:FF PPU:102, 48 CYC:5497
C658  F0 F9     BEQ $C653                       A:00 X:FF Y:00 P:26 SP:FF PPU:108, 48 CYC:5499
C653  AD 02 20  LDA $2002 = FF                  A:00 X:FF Y:00 P:26 SP:FF PPU:117, 48 CYC:5502
C656  29 80     AND #$80                        A:10 X:FF Y:00 P:24 SP:FF PPU:129, 48 CYC:5506
C658  F0 F9     BEQ $C653                       A:00 X:FF Y:00 P:26 SP:FF PPU:135, 48 CYC:5508
C653  AD 02 20  LDA $2002 = FF                  A:00 X:FF Y:00 P:26 SP:FF PPU:144, 48 CYC:5511
C656  29 80     AND #$80                        A:10 X:FF Y:00 P:24 SP:FF PPU:156, 48 CYC:5515
C658  F0 F9     BEQ $C653                       A:00 X:FF Y:00 P:26 SP:FF PPU:162, 48 CYC:5517
C653  AD 02 20  LDA $2002 = FF                  A:00 X:FF Y:00 P:26 SP:FF PPU:171, 48 CYC:5520
C656  29 80     AND #$80                        A:10 X:FF Y:00 P:24 SP:FF PPU:183, 48 CYC:5524
C658  F0 F9     BEQ $C653                       A:00 X:FF Y:00 P:26 SP:FF PPU:189, 48 CYC:5526
C653  AD 02 20  LDA $2002 = FF                  A:00 X:FF Y:00 P:26 SP:FF PPU:198, 48 CYC:5529
C656  29 80     AND #$80                        A:10 X:FF Y:00 P:24 SP:FF PPU:210, 48 CYC:5533
C658  F0 F9     BEQ $C653                       A:00 X:FF Y:00 P:26 SP:FF PPU:216, 48 CYC:5535
C653  AD 02 20  LDA $2002 = FF                  A:00 X:FF Y:00 P:26 SP:FF PPU:225, 48 CYC:5538
C656  29 80     AND #$80                        A:10 X:FF Y:00 P:24 SP:FF PPU:237, 48 CYC:5542
C658  F0 F9     BEQ $C653                       A:00 X:FF Y:00 P:26 SP:FF PPU:243, 48 CYC:5544
C653  AD 02 20  LDA $2002 = FF                  A:00 X:FF Y:00 P:26 SP:FF PPU:252, 48 CYC:5547
C656  29 80     AND #$80                        A:10 X:FF Y:00 P:24 SP:FF PPU:264, 48 CYC:5551
C658  F0 F9     BEQ $C653                       A:00 X:FF Y:00 P:26 SP:FF PPU:270, 48 CYC:5553
C653  AD 02 20  LDA $2002 = FF                  A:00 X:FF Y:00 P:26 SP:FF PPU:279, 48 CYC:5556
C656  29 80     AND #$80                        A:10 X:FF Y:00 P:24 SP:FF PPU:291, 48 CYC:5560
C658  F0 F9     BEQ $C653                       A:00 X:FF Y:00 P:26 SP:FF PPU:297, 48 CYC:5562
C653  AD 02 20  LDA $2002 = FF                  A:00 X:FF Y:00 P:26 SP:FF PPU:306, 48 CYC:5565
C656  29 80     AND #$80                        A:10 X:FF Y:00 P:24 SP:FF PPU:318, 48 CYC:5569
C658  F0 F9     BEQ $C653                       A:00 X:FF Y:00 P:26 SP:FF PPU:324, 48 CYC:5571
C653  AD 02 20  LDA $2002 = FF                  A:00 X:FF Y:00 P:26 SP:FF PPU:333, 48 CYC:5574
C656  29 80     AND #$80                        A:10 X:FF Y:00 P:24 SP:FF PPU:  4, 49 CYC:5578
C658  F0 F9     BEQ $C653                       A:00 X:FF Y:00 P:26 SP:FF PPU: 10, 49 CYC:5580
C653  AD 02 20  LDA $2002 = FF                  A:00 X:FF Y:00 P:26 SP:FF PPU: 19, 49 CYC:5583
C656  29 80     AND #$80                        A:10 X:FF Y:00 P:24 SP:FF PPU: 31, 49 CYC:5587
C658  F0 F9     BEQ $C653                       A:00 X:FF Y:00 P:26 SP:FF PPU: 37, 49 CYC:5589
C653  AD 02 20  LDA $2002 = FF                  A:00 X:FF Y:00 P:26 SP:FF PPU: 46, 49 CYC:5592
C656  29 80     AND #$80                        A:10 X:FF Y:00 P:24 SP:FF PPU: 58, 49 CYC:5596
C658  F0 F9     BEQ $C653                       A:00 X:FF Y:00 P:26 SP:FF PPU: 64, 49 CYC:5598
C653  AD 02 20  LDA $2002 = FF                  A:00 X:FF Y:00 P:26 SP:FF PPU: 73, 49 CYC:5601
C656  29 80     AND #$80                        A:10 X:FF Y:00 P:24 SP:FF PPU: 85, 49 CYC:5605
C658  F0 F9     BEQ $C653                       A:00 X:FF Y:00 P:26 SP:FF PPU: 91, 49 CYC:5607
C653  AD 02 20  LDA $2002 = FF                  A:00 X:FF Y:00 P:26 SP:FF PPU:100, 49 CYC:5610
C656  29 80     AND #$80                        A:10 X:FF Y:00 P:24 SP:FF PPU:112, 49 CYC:5614
C658  F0 F9     BEQ $C653                       A:00 X:FF Y:00 P:26 SP:FF PPU:118, 49 CYC:5616
C653  AD 02 20  LDA $2002 = FF                  A:00 X:FF Y:00 P:26 SP:FF PPU:127, 49 CYC:5619
C656  29 80     AND #$80                        A:10 X:FF Y:00 P:24 SP:FF PPU:139, 49 CYC:5623
C658  F0 F9     BEQ $C653                       A:00 X:FF Y:00 P:26 SP:FF PPU:145, 49 CYC:5625
C653  AD 02 20  LDA $2002 = FF                  A:00 X:FF Y:00 P:26 SP:FF PPU:154, 49 CYC:5628
C656  29 80     AND #$80                        A:10 X:FF Y:00 P:24 SP:FF PPU:166, 49 CYC:5632
C658  F0 F9     BEQ $C653                       A:00 X:FF Y:00 P:26 SP:FF PPU:172, 49 CYC:5634
C653  AD 02 20  LDA $2002 = FF                  A:00 X:FF Y:00 P:26 SP:FF PPU:181, 49 CYC:5637
C656  29 80     AND #$80                        A:10 X:FF Y:00 P:24 SP:FF PPU:193, 49 CYC:5641
C658  F0 F9     BEQ $C653                       A:00 X:FF Y:00 P:26 SP:FF PPU:199, 49 CYC:5643
C653  AD 02 20  LDA $2002 = FF                  A:00 X:FF Y:00 P:26 SP:FF PPU:208, 49 CYC:5646
C656  29 80     AND #$80                        A:10 X:FF Y:00 P:24 SP:FF PPU:220, 49 CYC:5650
C658  F0 F9     BEQ $C653                       A:00 X:FF Y:00 P:26 SP:FF PPU:226, 49 CYC:5652
C653  AD 02 20  LDA $2002 = FF                  A:00 X:FF Y:00 P:26 SP:FF PPU:235, 49 CYC:5655
C656  29 80     AND #$80                        A:10 X:FF Y:00 P:24 SP:FF PPU:247, 49 CYC:5659
C658  F0 F9     BEQ $C653                       A:00 X:FF Y:00 P:26 SP:FF PPU:253, 49 CYC:5661
C653  AD 02 20  LDA $2002 = FF                  A:00 X:FF Y:00 P:26 SP:FF PPU:262, 49 CYC:5664
C656  29 80     AND #$80                        A:10 X:FF Y:00 P:24 SP:FF PPU:274, 49 CYC:5668
C658  F0 F9     BEQ $C653                       A:00 X:FF Y:00 P:26 SP:FF PPU:280, 49 CYC:5670
C653  AD 02 20  LDA $2002 = FF                  A:00 X:FF Y:00 P:26 SP:FF PPU:289, 49 CYC:5673
C656  29 80     AND #$80                        A:10 X:FF Y:00 P:24 SP:FF PPU:301, 49 CYC:5677
C658  F0 F9     BEQ $C653                       A:00 X:FF Y:00 P:26 SP:FF PPU:307, 49 CYC:5679
C653  AD 02 20  LDA $2002 = FF                  A:00 X:FF Y:00 P:26 SP:FF PPU:316, 49 CYC:5682
C656  29 80     AND #$80                        A:10 X:FF Y:00 P:24 SP:FF PPU:328, 49 CYC:5686
C658  F0 F9     BEQ $C653                       A:00 X:FF Y:00 P:26 SP:FF PPU:334, 49 CYC:5688
C653  AD 02 20  LDA $2002 = FF                  A:00 X:FF Y:00 P:26 SP:FF PPU:  2, 50 CYC:5691
C656  29 80     AND #$80                        A:10 X:FF Y:00 P:24 SP:FF PPU: 14, 50 CYC:5695
C658  F0 F9     BEQ $C653                       A:00 X:FF Y:00 P:26 SP:FF PPU: 20, 50 CYC:5697
C653  AD 02 20  LDA $2002 = FF                  A:00 X:FF Y:00 P:26 SP:FF PPU: 29, 50 CYC:5700
C656  29 80     AND #$80                        A:10 X:FF Y:00 P:24 SP:FF PPU: 41, 50 CYC:5704
C658  F0 F9     BEQ $C653                       A:00 X:FF Y:00 P:26 SP:FF PPU: 47, 50 CYC:5706
C653  AD 02 20  LDA $2002 = FF                  A:00 X:FF Y:00 P:26 SP:FF PPU: 56, 50 CYC:5709
C656  29 80     AND #$80                        A:10 X:FF Y:00 P:24 SP:FF PPU: 68, 50 CYC:5713
C658  F0 F9     BEQ $C653                       A:00 X:FF Y:00 P:26 SP:FF PPU: 74, 50 CYC:5715
C653  AD 02 20  LDA $2002 = FF                  A:00 X:FF Y:00 P:26 SP:FF PPU: 83, 50 CYC:5718
C656  29 80     AND #$80                        A:10 X:FF Y:00 P:24 SP:FF PPU: 95, 50 CYC:5722
C658  F0 F9     BEQ $C653                       A:00 X:FF Y:00 P:26 SP:FF PPU:101, 50 CYC:5724
C653  AD 02 20  LDA $2002 = FF                  A:00 X:FF Y:00 P:26 SP:FF PPU:110, 50 CYC:5727
C656  29 80     AND #$80                        A:10 X:FF Y:00 P:24 SP:FF PPU:122, 50 CYC:5731
C658  F0 F9     BEQ $C653                       A:00 X:FF Y:00 P:26 SP:FF PPU:128, 50 CYC:5733
C653  AD 02 20  LDA $2002 = FF                  A:00 X:FF Y:00 P:26 SP:FF PPU:137, 50 CYC:5736
C656  29 80     AND #$80                        A:10 X:FF Y:00 P:24 SP:FF PPU:149, 50 CYC:5740
C658  F0 F9     BEQ $C653                       A:00 X:FF Y:00 P:26 SP:FF PPU:155, 50 CYC:5742
C653  AD 02 20  LDA $2002 = FF                  A:00 X:FF Y:00 P:26 SP:FF PPU:164, 50 CYC:5745
C656  29 80     AND #$80                        A:10 X:FF Y:00 P:24 SP:FF PPU:176, 50 CYC:5749
C658  F0 F9     BEQ $C653                       A:00 X:FF Y:00 P:26 SP:FF PPU:182, 50 CYC:5751
C653  AD 02 20  LDA $2002 = FF                  A:00 X:FF Y:00 P:26 SP:FF PPU:191, 50 CYC:5754
C656  29 80     AND #$80                        A:10 X:FF Y:00 P:24 SP:FF PPU:203, 50 CYC:5758
C658  F0 F9     BEQ $C653                       A:00 X:FF Y:00 P:26 SP:FF PPU:209, 50 CYC:5760
C653  AD 02 20  LDA $2002 = FF                  A:00 X:FF Y:00 P:26 SP:FF PPU:218, 50 CYC:5763
C656  29 80     AND #$80                        A:10 X:FF Y:00 P:24 SP:FF PPU:230, 50 CYC:5767
C658  F0 F9     BEQ $C653                       A:00 X:FF Y:00 P:26 SP:FF PPU:236, 50 CYC:5769
C653  AD 02 20  LDA $2002 = FF                  A:00 X:FF Y:00 P:26 SP:FF PPU:245, 50 CYC:5772
C656  29 80     AND #$80                        A:10 X:FF Y:00 P:24 SP:FF PPU:257, 50 CYC:5776
C658  F0 F9     BEQ $C653                       A:00 X:FF Y:00 P:26 SP:FF PPU:263, 50 CYC:5778
C653  AD 02 20  LDA $2002 = FF                  A:00 X:FF Y:00 P:26 SP:FF PPU:272, 50 CYC:5781
C656  29 80     AND #$80                        A:10 X:FF Y:00 P:24 SP:FF PPU:284, 50 CYC:5785
C658  F0 F9     BEQ $C653                       A:00 X:FF Y:00 P:26 SP:FF PPU:290, 50 CYC:5787
C653  AD 02 20  LDA $2002 = FF                  A:00 X:FF Y:00 P:26 SP:FF PPU:299, 50 CYC:5790
C656  29 80     AND #$80                        A:10 X:FF Y:00 P:24 SP:FF PPU:311, 50 CYC:5794
C658  F0 F9     BEQ $C653                       A:00 X:FF Y:00 P:26 SP:FF PPU:317, 50 CYC:5796
C653  AD 02 20  LDA $2002 = FF                  A:00 X:FF Y:00 P:26 SP:FF PPU:326, 50 CYC:5799
C656  29 80     AND #$80                        A:10 X:FF Y:00 P:24 SP:FF PPU:338, 50 CYC:5803
C658  F0 F9     BEQ $C653                       A:00 X:FF Y:00 P:26 SP:FF PPU:  3, 51 CYC:5805
C653  AD 02 20  LDA $2002 = FF                  A:00 X:FF Y:00 P:26 SP:FF PPU: 12, 51 CYC:5808
C656  29 80     AND #$80                        A:10 X:FF Y:00 P:24 SP:FF PPU: 24, 51 CYC:5812
C658  F0 F9     BEQ $C653                       A:00 X:FF Y:00 P:26 SP:FF PPU: 30, 51 CYC:5814
C653  AD 02 20  LDA $2002 = FF                  A:00 X:FF Y:00 P:26 SP:FF PPU: 39, 51 CYC:5817
C656  29 80     AND #$80                        A:10 X:FF Y:00 P:24 SP:FF PPU: 51, 51 CYC:5821
C658  F0 F9     BEQ $C653                       A:00 X:FF Y:00 P:26 SP:FF PPU: 57, 51 CYC:5823
C653  AD 02 20  LDA $2002 = FF                  A:00 X:FF Y:00 P:26 SP:FF PPU: 66, 51 CYC:5826
C656  29 80     AND #$80                        A:10 X:FF Y:00 P:24 SP:FF PPU: 78, 51 CYC:5830
C658  F0 F9     BEQ $C653                       A:00 X:FF Y:00 P:26 SP:FF PPU: 84, 51 CYC:5832
C653  AD 02 20  LDA $2002 = FF                  A:00 X:FF Y:00 P:26 SP:FF PPU: 93, 51 CYC:5835
C656  29 80     AND #$80                        A:10 X:FF Y:00 P:24 SP:FF PPU:105, 51 CYC:5839
C658  F0 F9     BEQ $C653                       A:00 X:FF Y:00 P:26 SP:FF PPU:111, 51 CYC:5841
C653  AD 02 20  LDA $2002 = FF                  A:00 X:FF Y:00 P:26 SP:FF PPU:120, 51 CYC:5844
C656  29 80     AND #$80                        A:10 X:FF Y:00 P:24 SP:FF PPU:132, 51 CYC:5848
C658  F0 F9     BEQ $C653                       A:00 X:FF Y:00 P:26 SP:FF PPU:138, 51 CYC:5850
C653  AD 02 20  LDA $2002 = FF                  A:00 X:FF Y:00 P:26 SP:FF PPU:147, 51 CYC:5853
C656  29 80     AND #$80                        A:10 X:FF Y:00 P:24 SP:FF PPU:159, 51 CYC:5857
C658  F0 F9     BEQ $C653                       A:00 X:FF Y:00 P:26 SP:FF PPU:165, 51 CYC:5859
C653  AD 02 20  LDA $2002 = FF                  A:00 X:FF Y:00 P:26 SP:FF PPU:174, 51 CYC:5862
C656  29 80     AND #$80                        A:10 X:FF Y:00 P:24 SP:FF PPU:186, 51 CYC:5866
C658  F0 F9     BEQ $C653                       A:00 X:FF Y:00 P:26 SP:FF PPU:192, 51 CYC:5868
C653  AD 02 20  LDA $2002 = FF                  A:00 X:FF Y:00 P:26 SP:FF PPU:201, 51 CYC:5871
C656  29 80     AND #$80                        A:10 X:FF Y:00 P:24 SP:FF PPU:213, 51 CYC:5875
C658  F0 F9     BEQ $C653                       A:00 X:FF Y:00 P:26 SP:FF PPU:219, 51 CYC:5877
C653  AD 02 20  LDA $2002 = FF                  A:00 X:FF Y:00 P:26 SP:FF PPU:228, 51 CYC:5880
C656  29 80     AND #$80                        A:10 X:FF Y:00 P:24 SP:FF PPU:240, 51 CYC:5884
C658  F0 F9     BEQ $C653                       A:00 X:FF Y:00 P:26 SP:FF PPU:246, 51 CYC:5886
C653  AD 02 20  LDA $2002 = FF                  A:00 X:FF Y:00 P:26 SP:FF PPU:255, 51 CYC:5889
C656  29 80     AND #$80                        A:10 X:FF Y:00 P:24 SP:FF PPU:267, 51 CYC:5893
C658  F0 F9     BEQ $C653                       A:00 X:FF Y:00 P:26 SP:FF PPU:273, 51 CYC:5895
C653  AD 02 20  LDA $2002 = FF                  A:00 X:FF Y:00 P:26 SP:FF PPU:282, 51 CYC:5898
C656  29 80     AND #$80                        A:10 X:FF Y:00 P:24 SP:FF PPU:294, 51 CYC:5902
C658  F0 F9     BEQ $C653                       A:00 X:FF Y:00 P:26 SP:FF PPU:300, 51 CYC:5904
C653  AD 02 20  LDA $2002 = FF                  A:00 X:FF Y:00 P:26 SP:FF PPU:309, 51 CYC:5907
C656  29 80     AND #$80                        A:10 X:FF Y:00 P:24 SP:FF PPU:321, 51 CYC:5911
C658  F0 F9     BEQ $C653                       A:00 X:FF Y:00 P:26 SP:FF PPU:327, 51 CYC:5913
C653  AD 02 20  LDA $2002 = FF                  A:00 X:FF Y:00 P:26 SP:FF PPU:336, 51 CYC:5916
C656  29 80     AND #$80                        A:10 X:FF Y:00 P:24 SP:FF PPU:  7, 52 CYC:5920
C658  F0 F9     BEQ $C653                       A:00 X:FF Y:00 P:26 SP:FF PPU: 13, 52 CYC:5922
C653  AD 02 20  LDA $2002 = FF                  A:00 X:FF Y:00 P:26 SP:FF PPU: 22, 52 CYC:5925
C656  29 80     AND #$80                        A:10 X:FF Y:00 P:24 SP:FF PPU: 34, 52 CYC:5929
C658  F0 F9     BEQ $C653                       A:00 X:FF Y:00 P:26 SP:FF PPU: 40, 52 CYC:5931
C653  AD 02 20  LDA $2002 = FF                  A:00 X:FF Y:00 P:26 SP:FF PPU: 49, 52 CYC:5934
C656  29 80     AND #$80                        A:10 X:FF Y:00 P:24 SP:FF PPU: 61, 52 CYC:5938
C658  F0 F9     BEQ $C653                       A:00 X:FF Y:00 P:26 SP:FF PPU: 67, 52 CYC:5940
C653  AD 02 20  LDA $2002 = FF                  A:00 X:FF Y:00 P:26 SP:FF PPU: 76, 52 CYC:5943
C656  29 80     AND #$80                        A:10 X:FF Y:00 P:24 SP:FF PPU: 88, 52 CYC:5947
C658  F0 F9     BEQ $C653                       A:00 X:FF Y:00 P:26 SP:FF PPU: 94, 52 CYC:5949
C653  AD 02 20  LDA $2002 = FF                  A:00 X:FF Y:00 P:26 SP:FF PPU:103, 52 CYC:5952
C656  29 80     AND #$80                        A:10 X:FF Y:00 P:24 SP:FF PPU:115, 52 CYC:5956
C658  F0 F9     BEQ $C653                       A:00 X:FF Y:00 P:26 SP:FF PPU:121, 52 CYC:5958
C653  AD 02 20  LDA $2002 = FF                  A:00 X:FF Y:00 P:26 SP:FF PPU:130, 52 CYC:5961
C656  29 80     AND #$80                        A:10 X:FF Y:00 P:24 SP:FF PPU:142, 52 CYC:5965
C658  F0 F9     BEQ $C653                       A:00 X:FF Y:00 P:26 SP:FF PPU:148, 52 CYC:5967
C653  AD 02 20  LDA $2002 = FF                  A:00 X:FF Y:00 P:26 SP:FF PPU:157, 52 CYC:5970
C656  29 80     AND #$80                        A:10 X:FF Y:00 P:24 SP:FF PPU:169, 52 CYC:5974
C658  F0 F9     BEQ $C653                       A:00 X:FF Y:00 P:26 SP:FF PPU:175, 52 CYC:5976
C653  AD 02 20  LDA $2002 = FF                  A:00 X:FF Y:00 P:26 SP:FF PPU:184, 52 CYC:5979
C656  29 80     AND #$80                        A:10 X:FF Y:00 P:24 SP:FF PPU:196, 52 CYC:5983
C658  F0 F9     BEQ $C653                       A:00 X:FF Y:00 P:26 SP:FF PPU:202, 52 CYC:5985
C653  AD 02 20  LDA $2002 = FF                  A:00 X:FF Y:00 P:26 SP:FF PPU:211, 52 CYC:5988
C656  29 80     AND #$80                        A:10 X:FF Y:00 P:24 SP:FF PPU:223, 52 CYC:5992
C658  F0 F9     BEQ $C653                       A:00 X:FF Y:00 P:26 SP:FF PPU:229, 52 CYC:5994
C653  AD 02 20  LDA $2002 = FF                  A:00 X:FF Y:00 P:26 SP:FF PPU:238, 52 CYC:5997
C656  29 80     AND #$80                        A:10 X:FF Y:00 P:24 SP:FF PPU:250, 52 CYC:6001
C658  F0 F9     BEQ $C653                       A:00 X:FF Y:00 P:26 SP:FF PPU:256, 52 CYC:6003
C653  AD 02 20  LDA $2002 = FF                  A:00 X:FF Y:00 P:26 SP:FF PPU:265, 52 CYC:6006
C656  29 80     AND #$80                        A:10 X:FF Y:00 P:24 SP:FF PPU:277, 52 CYC:6010
C658  F0 F9     BEQ $C653                       A:00 X:FF Y:00 P:26 SP:FF PPU:283, 52 CYC:6012
C653  AD 02 20  LDA $2002 = FF                  A:00 X:FF Y:00 P:26 SP:FF PPU:292, 52 CYC:6015
C656  29 80     AND #$80                        A:10 X:FF Y:00 P:24 SP:FF PPU:304, 52 CYC:6019
C658  F0 F9     BEQ $C653                       A:00 X:FF Y:00 P:26 SP:FF PPU:310, 52 CYC:6021
C653  AD 02 20  LDA $2002 = FF                  A:00 X:FF Y:00 P:26 SP:FF PPU:319, 52 CYC:6024
C656  29 80     AND #$80                        A:10 X:FF Y:00 P:24 SP:FF PPU:331, 52 CYC:6028
C658  F0 F9     BEQ $C653                       A:00 X:FF Y:00 P:26 SP:FF PPU:337, 52 CYC:6030
C653  AD 02 20  LDA $2002 = FF                  A:00 X:FF Y:00 P:26 SP:FF PPU:  5, 53 CYC:6033
C656  29 80     AND #$80                        A:10 X:FF Y:00 P:24 SP:FF PPU: 17, 53 CYC:6037
C658  F0 F9     BEQ $C653                       A:00 X:FF Y:00 P:26 SP:FF PPU: 23, 53 CYC:6039
C653  AD 02 20  LDA $2002 = FF                  A:00 X:FF Y:00 P:26 SP:FF PPU: 32, 53 CYC:6042
C656  29 80     AND #$80                        A:10 X:FF Y:00 P:24 SP:FF PPU: 44, 53 CYC:6046
C658  F0 F9     BEQ $C653                       A:00 X:FF Y:00 P:26 SP:FF PPU: 50, 53 CYC:6048
C653  AD 02 20  LDA $2002 = FF                  A:00 X:FF Y:00 P:26 SP:FF PPU: 59, 53 CYC:6051
C656  29 80     AND #$80                        A:10 X:FF Y:00 P:24 SP:FF PPU: 71, 53 CYC:6055
C658  F0 F9     BEQ $C653                       A:00 X:FF Y:00 P:26 SP:FF PPU: 77, 53 CYC:6057
C653  AD 02 20  LDA $2002 = FF                  A:00 X:FF Y:00 P:26 SP:FF PPU: 86, 53 CYC:6060
C656  29 80     AND #$80                        A:10 X:FF Y:00 P:24 SP:FF PPU: 98, 53 CYC:6064
C658  F0 F9     BEQ $C653                       A:00 X:FF Y:00 P:26 SP:FF PPU:104, 53 CYC:6066
C653  AD 02 20  LDA $2002 = FF                  A:00 X:FF Y:00 P:26 SP:FF PPU:113, 53 CYC:6069
C656  29 80     AND #$80                        A:10 X:FF Y:00 P:24 SP:FF PPU:125, 53 CYC:6073
C658  F0 F9     BEQ $C653                       A:00 X:FF Y:00 P:26 SP:FF PPU:131, 53 CYC:6075
C653  AD 02 20  LDA $2002 = FF                  A:00 X:FF Y:00 P:26 SP:FF PPU:140, 53 CYC:6078
C656  29 80     AND #$80                        A:10 X:FF Y:00 P:24 SP:FF PPU:152, 53 CYC:6082
C658  F0 F9     BEQ $C653                       A:00 X:FF Y:00 P:26 SP:FF PPU:158, 53 CYC:6084
C653  AD 02 20  LDA $2002 = FF                  A:00 X:FF Y:00 P:26 SP:FF PPU:167, 53 CYC:6087
C656  29 80     AND #$80                        A:10 X:FF Y:00 P:24 SP:FF PPU:179, 53 CYC:6091
C658  F0 F9     BEQ $C653                       A:00 X:FF Y:00 P:26 SP:FF PPU:185, 53 CYC:6093
C653  AD 02 20  LDA $2002 = FF                  A:00 X:FF Y:00 P:26 SP:FF PPU:194, 53 CYC:6096
C656  29 80     AND #$80                        A:10 X:FF Y:00 P:24 SP:FF PPU:206, 53 CYC:6100
C658  F0 F9     BEQ $C653                       A:00 X:FF Y:00 P:26 SP:FF PPU:212, 53 CYC:6102
C653  AD 02 20  LDA $2002 = FF                  A:00 X:FF Y:00 P:26 SP:FF PPU:221, 53 CYC:6105
C656  29 80     AND #$80                        A:10 X:FF Y:00 P:24 SP:FF PPU:233, 53 CYC:6109
C658  F0 F9     BEQ $C653                       A:00 X:FF Y:00 P:26 SP:FF PPU:239, 53 CYC:6111
C653  AD 02 20  LDA $2002 = FF                  A:00 X:FF Y:00 P:26 SP:FF PPU:248, 53 CYC:6114
C656  29 80     AND #$80                        A:10 X:FF Y:00 P:24 SP:FF PPU:260, 53 CYC:6118
C658  F0 F9     BEQ $C653                       A:00 X:FF Y:00 P:26 SP:FF PPU:266, 53 CYC:6120
C653  AD 02 20  LDA $2002 = FF                  A:00 X:FF Y:00 P:26 SP:FF PPU:275, 53 CYC:6123
C656  29 80     AND #$80                        A:10 X:FF Y:00 P:24 SP:FF PPU:287, 53 CYC:6127
C658  F0 F9     BEQ $C653                       A:00 X:FF Y:00 P:26 SP:FF PPU:293, 53 CYC:6129
C653  AD 02 20  LDA $2002 = FF                  A:00 X:FF Y:00 P:26 SP:FF PPU:302, 53 CYC:6132
C656  29 80     AND #$80                        A:10 X:FF Y:00 P:24 SP:FF PPU:314, 53 CYC:6136
C658  F0 F9     BEQ $C653                       A:00 X:FF Y:00 P:26 SP:FF PPU:320, 53 CYC:6138
C653  AD 02 20  LDA $2002 = FF                  A:00 X:FF Y:00 P:26 SP:FF PPU:329, 53 CYC:6141
C656  29 80     AND #$80                        A:10 X:FF Y:00 P:24 SP:FF PPU:  0, 54 CYC:6145
C658  F0 F9     BEQ $C653                       A:00 X:FF Y:00 P:26 SP:FF PPU:  6, 54 CYC:6147
C653  AD 02 20  LDA $2002 = FF                  A:00 X:FF Y:00 P:26 SP:FF PPU: 15, 54 CYC:6150
C656  29 80     AND #$80                        A:10 X:FF Y:00 P:24 SP:FF PPU: 27, 54 CYC:6154
C658  F0 F9     BEQ $C653                       A:00 X:FF Y:00 P:26 SP:FF PPU: 33, 54 CYC:6156
C653  AD 02 20  LDA $2002 = FF                  A:00 X:FF Y:00 P:26 SP:FF PPU: 42, 54 CYC:6159
C656  29 80     AND #$80                        A:10 X:FF Y:00 P:24 SP:FF PPU: 54, 54 CYC:6163
C658  F0 F9     BEQ $C653                       A:00 X:FF Y:00 P:26 SP:FF PPU: 60, 54 CYC:6165
C653  AD 02 20  LDA $2002 = FF                  A:00 X:FF Y:00 P:26 SP:FF PPU: 69, 54 CYC:6168
C656  29 80     AND #$80                        A:10 X:FF Y:00 P:24 SP:FF PPU: 81, 54 CYC:6172
C658  F0 F9     BEQ $C653                       A:00 X:FF Y:00 P:26 SP:FF PPU: 87, 54 CYC:6174
C653  AD 02 20  LDA $2002 = FF                  A:00 X:FF Y:00 P:26 SP:FF PPU: 96, 54 CYC:6177
C656  29 80     AND #$80                        A:10 X:FF Y:00 P:24 SP:FF PPU:108, 54 CYC:6181
C658  F0 F9     BEQ $C653                       A:00 X:FF Y:00 P:26 SP:FF PPU:114, 54 CYC:6183
C653  AD 02 20  LDA $2002 = FF                  A:00 X:FF Y:00 P:26 SP:FF PPU:123, 54 CYC:6186
C656  29 80     AND #$80                        A:10 X:FF Y:00 P:24 SP:FF PPU:135, 54 CYC:6190
C658  F0 F9     BEQ $C653                       A:00 X:FF Y:00 P:26 SP:FF PPU:141, 54 CYC:6192
C653  AD 02 20  LDA $2002 = FF                  A:00 X:FF Y:00 P:26 SP:FF PPU:150, 54 CYC:6195
C656  29 80     AND #$80                        A:10 X:FF Y:00 P:24 SP:FF PPU:162, 54 CYC:6199
C658  F0 F9     BEQ $C653                       A:00 X:FF Y:00 P:26 SP:FF PPU:168, 54 CYC:6201
C653  AD 02 20  LDA $2002 = FF                  A:00 X:FF Y:00 P:26 SP:FF PPU:177, 54 CYC:6204
C656  29 80     AND #$80                        A:10 X:FF Y:00 P:24 SP:FF PPU:189, 54 CYC:6208
C658  F0 F9     BEQ $C653                       A:00 X:FF Y:00 P:26 SP:FF PPU:195, 54 CYC:6210
C653  AD 02 20  LDA $2002 = FF                  A:00 X:FF Y:00 P:26 SP:FF PPU:204, 54 CYC:6213
C656  29 80     AND #$80                        A:10 X:FF Y:00 P:24 SP:FF PPU:216, 54 CYC:6217
C658  F0 F9     BEQ $C653                       A:00 X:FF Y:00 P:26 SP:FF PPU:222, 54 CYC:6219
C653  AD 02 20  LDA $2002 = FF                  A:00 X:FF Y:00 P:26 SP:FF PPU:231, 54 CYC:6222
C656  29 80     AND #$80                        A:10 X:FF Y:00 P:24 SP:FF PPU:243, 54 CYC:6226
C658  F0 F9     BEQ $C653                       A:00 X:FF Y:00 P:26 SP:FF PPU:249, 54 CYC:6228
C653  AD 02 20  LDA $2002 = FF                  A:00 X:FF Y:00 P:26 SP:FF PPU:258, 54 CYC:6231
C656  29 80     AND #$80                        A:10 X:FF Y:00 P:24 SP:FF PPU:270, 54 CYC:6235
C658  F0 F9     BEQ $C653                       A:00 X:FF Y:00 P:26 SP:FF PPU:276, 54 CYC:6237
C653  AD 02 20  LDA $2002 = FF                  A:00 X:FF Y:00 P:26 SP:FF PPU:285, 54 CYC:6240
C656  29 80     AND #$80                        A:10 X:FF Y:00 P:24 SP:FF PPU:297, 54 CYC:6244
C658  F0 F9     BEQ $C653                       A:00 X:FF Y:00 P:26 SP:FF PPU:303, 54 CYC:6246
C653  AD 02 20  LDA $2002 = FF                  A:00 X:FF Y:00 P:26 SP:FF PPU:312, 54 CYC:6249
C656  29 80     AND #$80                        A:10 X:FF Y:00 P:24 SP:FF PPU:324, 54 CYC:6253
C658  F0 F9     BEQ $C653                       A:00 X:FF Y:00 P:26 SP:FF PPU:330, 54 CYC:6255
C653  AD 02 20  LDA $2002 = FF                  A:00 X:FF Y:00 P:26 SP:FF PPU:339, 54 CYC:6258
C656  29 80     AND #$80                        A:10 X:FF Y:00 P:24 SP:FF PPU: 10, 55 CYC:6262
C658  F0 F9     BEQ $C653                       A:00 X:FF Y:00 P:26 SP:FF PPU: 16, 55 CYC:6264
C653  AD 02 20  LDA $2002 = FF                  A:00 X:FF Y:00 P:26 SP:FF PPU: 25, 55 CYC:6267
C656  29 80     AND #$80                        A:10 X:FF Y:00 P:24 SP:FF PPU: 37, 55 CYC:6271
C658  F0 F9     BEQ $C653                       A:00 X:FF Y:00 P:26 SP:FF PPU: 43, 55 CYC:6273
C653  AD 02 20  LDA $2002 = FF                  A:00 X:FF Y:00 P:26 SP:FF PPU: 52, 55 CYC:6276
C656  29 80     AND #$80                        A:10 X:FF Y:00 P:24 SP:FF PPU: 64, 55 CYC:6280
C658  F0 F9     BEQ $C653                       A:00 X:FF Y:00 P:26 SP:FF PPU: 70, 55 CYC:6282
C653  AD 02 20  LDA $2002 = FF                  A:00 X:FF Y:00 P:26 SP:FF PPU: 79, 55 CYC:6285
C656  29 80     AND #$80                        A:10 X:FF Y:00 P:24 SP:FF PPU: 91, 55 CYC:6289
C658  F0 F9     BEQ $C653                       A:00 X:FF Y:00 P:26 SP:FF PPU: 97, 55 CYC:6291
C653  AD 02 20  LDA $2002 = FF                  A:00 X:FF Y:00 P:26 SP:FF PPU:106, 55 CYC:6294
C656  29 80     AND #$80                        A:10 X:FF Y:00 P:24 SP:FF PPU:118, 55 CYC:6298
C658  F0 F9     BEQ $C653                       A:00 X:FF Y:00 P:26 SP:FF PPU:124, 55 CYC:6300
C653  AD 02 20  LDA $2002 = FF                  A:00 X:FF Y:00 P:26 SP:FF PPU:133, 55 CYC:6303
C656  29 80     AND #$80                        A:10 X:FF Y:00 P:24 SP:FF PPU:145, 55 CYC:6307
C658  F0 F9     BEQ $C653                       A:00 X:FF Y:00 P:26 SP:FF PPU:151, 55 CYC:6309
C653  AD 02 20  LDA $2002 = FF                  A:00 X:FF Y:00 P:26 SP:FF PPU:160, 55 CYC:6312
C656  29 80     AND #$80                        A:10 X:FF Y:00 P:24 SP:FF PPU:172, 55 CYC:6316
C658  F0 F9     BEQ $C653                       A:00 X:FF Y:00 P:26 SP:FF PPU:178, 55 CYC:6318
C653  AD 02 20  LDA $2002 = FF                  A:00 X:FF Y:00 P:26 SP:FF PPU:187, 55 CYC:6321
C656  29 80     AND #$80                        A:10 X:FF Y:00 P:24 SP:FF PPU:199, 55 CYC:6325
C658  F0 F9     BEQ $C653                       A:00 X:FF Y:00 P:26 SP:FF PPU:205, 55 CYC:6327
C653  AD 02 20  LDA $2002 = FF                  A:00 X:FF Y:00 P:26 SP:FF PPU:214, 55 CYC:6330
C656  29 80     AND #$80                        A:10 X:FF Y:00 P:24 SP:FF PPU:226, 55 CYC:6334
C658  F0 F9     BEQ $C653                       A:00 X:FF Y:00 P:26 SP:FF PPU:232, 55 CYC:6336
C653  AD 02 20  LDA $2002 = FF                  A:00 X:FF Y:00 P:26 SP:FF PPU:241, 55 CYC:6339
C656  29 80     AND #$80                        A:10 X:FF Y:00 P:24 SP:FF PPU:253, 55 CYC:6343
C658  F0 F9     BEQ $C653                       A:00 X:FF Y:00 P:26 SP:FF PPU:259, 55 CYC:6345
C653  AD 02 20  LDA $2002 = FF                  A:00 X:FF Y:00 P:26 SP:FF PPU:268, 55 CYC:6348
C656  29 80     AND #$80                        A:10 X:FF Y:00 P:24 SP:FF PPU:280, 55 CYC:6352
C658  F0 F9     BEQ $C653                       A:00 X:FF Y:00 P:26 SP:FF PPU:286, 55 CYC:6354
C653  AD 02 20  LDA $2002 = FF                  A:00 X:FF Y:00 P:26 SP:FF PPU:295, 55 CYC:6357
C656  29 80     AND #$80                        A:10 X:FF Y:00 P:24 SP:FF PPU:307, 55 CYC:6361
C658  F0 F9     BEQ $C653                       A:00 X:FF Y:00 P:26 SP:FF PPU:313, 55 CYC:6363
C653  AD 02 20  LDA $2002 = FF                  A:00 X:FF Y:00 P:26 SP:FF PPU:322, 55 CYC:6366
C656  29 80     AND #$80                        A:10 X:FF Y:00 P:24 SP:FF PPU:334, 55 CYC:6370
C658  F0 F9     BEQ $C653                       A:00 X:FF Y:00 P:26 SP:FF PPU:340, 55 CYC:6372
C653  AD 02 20  LDA $2002 = FF                  A:00 X:FF Y:00 P:26 SP:FF PPU:  8, 56 CYC:6375
C656  29 80     AND #$80                        A:10 X:FF Y:00 P:24 SP:FF PPU: 20, 56 CYC:6379
C658  F0 F9     BEQ $C653                       A:00 X:FF Y:00 P:26 SP:FF PPU: 26, 56 CYC:6381
C653  AD 02 20  LDA $2002 = FF                  A:00 X:FF Y:00 P:26 SP:FF PPU: 35, 56 CYC:6384
C656  29 80     AND #$80                        A:10 X:FF Y:00 P:24 SP:FF PPU: 47, 56 CYC:6388
C658  F0 F9     BEQ $C653                       A:00 X:FF Y:00 P:26 SP:FF PPU: 53, 56 CYC:6390
C653  AD 02 20  LDA $2002 = FF                  A:00 X:FF Y:00 P:26 SP:FF PPU: 62, 56 CYC:6393
C656  29 80     AND #$80                        A:10 X:FF Y:00 P:24 SP:FF PPU: 74, 56 CYC:6397
C658  F0 F9     BEQ $C653                       A:00 X:FF Y:00 P:26 SP:FF PPU: 80, 56 CYC:6399
C653  AD 02 20  LDA $2002 = FF                  A:00 X:FF Y:00 P:26 SP:FF PPU: 89, 56 CYC:6402
C656  29 80     AND #$80                        A:10 X:FF Y:00 P:24 SP:FF PPU:101, 56 CYC:6406
C658  F0 F9     BEQ $C653                       A:00 X:FF Y:00 P:26 SP:FF PPU:107, 56 CYC:6408
C653  AD 02 20  LDA $2002 = FF                  A:00 X:FF Y:00 P:26 SP:FF PPU:116, 56 CYC:6411
C656  29 80     AND #$80                        A:10 X:FF Y:00 P:24 SP:FF PPU:128, 56 CYC:6415
C658  F0 F9     BEQ $C653                       A:00 X:FF Y:00 P:26 SP:FF PPU:134, 56 CYC:6417
C653  AD 02 20  LDA $2002 = FF                  A:00 X:FF Y:00 P:26 SP:FF PPU:143, 56 CYC:6420
C656  29 80     AND #$80                        A:10 X:FF Y:00 P:24 SP:FF PPU:155, 56 CYC:6424
C658  F0 F9     BEQ $C653                       A:00 X:FF Y:00 P:26 SP:FF PPU:161, 56 CYC:6426
C653  AD 02 20  LDA $2002 = FF                  A:00 X:FF Y:00 P:26 SP:FF PPU:170, 56 CYC:6429
C656  29 80     AND #$80                        A:10 X:FF Y:00 P:24 SP:FF PPU:182, 56 CYC:6433
C658  F0 F9     BEQ $C653                       A:00 X:FF Y:00 P:26 SP:FF PPU:188, 56 CYC:6435
C653  AD 02 20  LDA $2002 = FF                  A:00 X:FF Y:00 P:26 SP:FF PPU:197, 56 CYC:6438
C656  29 80     AND #$80                        A:10 X:FF Y:00 P:24 SP:FF PPU:209, 56 CYC:6442
C658  F0 F9     BEQ $C653                       A:00 X:FF Y:00 P:26 SP:FF PPU:215, 56 CYC:6444
C653  AD 02 20  LDA $2002 = FF                  A:00 X:FF Y:00 P:26 SP:FF PPU:224, 56 CYC:6447
C656  29 80     AND #$80                        A:10 X:FF Y:00 P:24 SP:FF PPU:236, 56 CYC:6451
C658  F0 F9     BEQ $C653                       A:00 X:FF Y:00 P:26 SP:FF PPU:242, 56 CYC:6453
C653  AD 02 20  LDA $2002 = FF                  A:00 X:FF Y:00 P:26 SP:FF PPU:251, 56 CYC:6456
C656  29 80     AND #$80                        A:10 X:FF Y:00 P:24 SP:FF PPU:263, 56 CYC:6460
C658  F0 F9     BEQ $C653                       A:00 X:FF Y:00 P:26 SP:FF PPU:269, 56 CYC:6462
C653  AD 02 20  LDA $2002 = FF                  A:00 X:FF Y:00 P:26 SP:FF PPU:278, 56 CYC:6465
C656  29 80     AND #$80                        A:10 X:FF Y:00 P:24 SP:FF PPU:290, 56 CYC:6469
C658  F0 F9     BEQ $C653                       A:00 X:FF Y:00 P:26 SP:FF PPU:296, 56 CYC:6471
C653  AD 02 20  LDA $2002 = FF                  A:00 X:FF Y:00 P:26 SP:FF PPU:305, 56 CYC:6474
C656  29 80     AND #$80                        A:10 X:FF Y:00 P:24 SP:FF PPU:317, 56 CYC:6478
C658  F0 F9     BEQ $C653                       A:00 X:FF Y:00 P:26 SP:FF PPU:323, 56 CYC:6480
C653  AD 02 20  LDA $2002 = FF                  A:00 X:FF Y:00 P:26 SP:FF PPU:332, 56 CYC:6483
C656  29 80     AND #$80                        A:10 X:FF Y:00 P:24 SP:FF PPU:  3, 57 CYC:6487
C658  F0 F9     BEQ $C653                       A:00 X:FF Y:00 P:26 SP:FF PPU:  9, 57 CYC:6489
C653  AD 02 20  LDA $2002 = FF                  A:00 X:FF Y:00 P:26 SP:FF PPU: 18, 57 CYC:6492
C656  29 80     AND #$80                        A:10 X:FF Y:00 P:24 SP:FF PPU: 30, 57 CYC:6496
C658  F0 F9     BEQ $C653                       A:00 X:FF Y:00 P:26 SP:FF PPU: 36, 57 CYC:6498
C653  AD 02 20  LDA $2002 = FF                  A:00 X:FF Y:00 P:26 SP:FF PPU: 45, 57 CYC:6501
C656  29 80     AND #$80                        A:10 X:FF Y:00 P:24 SP:FF PPU: 57, 57 CYC:6505
C658  F0 F9     BEQ $C653                       A:00 X:FF Y:00 P:26 SP:FF PPU: 63, 57 CYC:6507
C653  AD 02 20  LDA $2002 = FF                  A:00 X:FF Y:00 P:26 SP:FF PPU: 72, 57 CYC:6510
C656  29 80     AND #$80                        A:10 X:FF Y:00 P:24 SP:FF PPU: 84, 57 CYC:6514
C658  F0 F9     BEQ $C653                       A:00 X:FF Y:00 P:26 SP:FF PPU: 90, 57 CYC:6516
C653  AD 02 20  LDA $2002 = FF                  A:00 X:FF Y:00 P:26 SP:FF PPU: 99, 57 CYC:6519
C656  29 80     AND #$80                        A:10 X:FF Y:00 P:24 SP:FF PPU:111, 57 CYC:6523
C658  F0 F9     BEQ $C653                       A:00 X:FF Y:00 P:26 SP:FF PPU:117, 57 CYC:6525
C653  AD 02 20  LDA $2002 = FF                  A:00 X:FF Y:00 P:26 SP:FF PPU:126, 57 CYC:6528
C656  29 80     AND #$80                        A:10 X:FF Y:00 P:24 SP:FF PPU:138, 57 CYC:6532
C658  F0 F9     BEQ $C653                       A:00 X:FF Y:00 P:26 SP:FF PPU:144, 57 CYC:6534
C653  AD 02 20  LDA $2002 = FF                  A:00 X:FF Y:00 P:26 SP:FF PPU:153, 57 CYC:6537
C656  29 80     AND #$80                        A:10 X:FF Y:00 P:24 SP:FF PPU:165, 57 CYC:6541
C658  F0 F9     BEQ $C653                       A:00 X:FF Y:00 P:26 SP:FF PPU:171, 57 CYC:6543
C653  AD 02 20  LDA $2002 = FF                  A:00 X:FF Y:00 P:26 SP:FF PPU:180, 57 CYC:6546
C656  29 80     AND #$80                        A:10 X:FF Y:00 P:24 SP:FF PPU:192, 57 CYC:6550
C658  F0 F9     BEQ $C653                       A:00 X:FF Y:00 P:26 SP:FF PPU:198, 57 CYC:6552
C653  AD 02 20  LDA $2002 = FF                  A:00 X:FF Y:00 P:26 SP:FF PPU:207, 57 CYC:6555
C656  29 80     AND #$80                        A:10 X:FF Y:00 P:24 SP:FF PPU:219, 57 CYC:6559
C658  F0 F9     BEQ $C653                       A:00 X:FF Y:00 P:26 SP:FF PPU:225, 57 CYC:6561
C653  AD 02 20  LDA $2002 = FF                  A:00 X:FF Y:00 P:26 SP:FF PPU:234, 57 CYC:6564
C656  29 80     AND #$80                        A:10 X:FF Y:00 P:24 SP:FF PPU:246, 57 CYC:6568
C658  F0 F9     BEQ $C653                       A:00 X:FF Y:00 P:26 SP:FF PPU:252, 57 CYC:6570
C653  AD 02 20  LDA $2002 = FF                  A:00 X:FF Y:00 P:26 SP:FF PPU:261, 57 CYC:6573
C656  29 80     AND #$80                        A:10 X:FF Y:00 P:24 SP:FF PPU:273, 57 CYC:6577
C658  F0 F9     BEQ $C653                       A:00 X:FF Y:00 P:26 SP:FF PPU:279, 57 CYC:6579
C653  AD 02 20  LDA $2002 = FF                  A:00 X:FF Y:00 P:26 SP:FF PPU:288, 57 CYC:6582
C656  29 80     AND #$80                        A:10 X:FF Y:00 P:24 SP:FF PPU:300, 57 CYC:6586
C658  F0 F9     BEQ $C653                       A:00 X:FF Y:00 P:26 SP:FF PPU:306, 57 CYC:6588
C653  AD 02 20  LDA $2002 = FF                  A:00 X:FF Y:00 P:26 SP:FF PPU:315, 57 CYC:6591
C656  29 80     AND #$80                        A:10 X:FF Y:00 P:24 SP:FF PPU:327, 57 CYC:6595
C658  F0 F9     BEQ $C653                       A:00 X:FF Y:00 P:26 SP:FF PPU:333, 57 CYC:6597
C653  AD 02 20  LDA $2002 = FF                  A:00 X:FF Y:00 P:26 SP:FF PPU:  1, 58 CYC:6600
C656  29 80     AND #$80                        A:10 X:FF Y:00 P:24 SP:FF PPU: 13, 58 CYC:6604
C658  F0 F9     BEQ $C653                       A:00 X:FF Y:00 P:26 SP:FF PPU: 19, 58 CYC:6606
C653  AD 02 20  LDA $2002 = FF                  A:00 X:FF Y:00 P:26 SP:FF PPU: 28, 58 CYC:6609
C656  29 80     AND #$80                        A:10 X:FF Y:00 P:24 SP:FF PPU: 40, 58 CYC:6613
C658  F0 F9     BEQ $C653                       A:00 X:FF Y:00 P:26 SP:FF PPU: 46, 58 CYC:6615
C653  AD 02 20  LDA $2002 = FF                  A:00 X:FF Y:00 P:26 SP:FF PPU: 55, 58 CYC:6618
C656  29 80     AND #$80                        A:10 X:FF Y:00 P:24 SP:FF PPU: 67, 58 CYC:6622
C658  F0 F9     BEQ $C653                       A:00 X:FF Y:00 P:26 SP:FF PPU: 73, 58 CYC:6624
C653  AD 02 20  LDA $2002 = FF                  A:00 X:FF Y:00 P:26 SP:FF PPU: 82, 58 CYC:6627
C656  29 80     AND #$80                        A:10 X:FF Y:00 P:24 SP:FF PPU: 94, 58 CYC:6631
C658  F0 F9     BEQ $C653                       A:00 X:FF Y:00 P:26 SP:FF PPU:100, 58 CYC:6633
C653  AD 02 20  LDA $2002 = FF                  A:00 X:FF Y:00 P:26 SP:FF PPU:109, 58 CYC:6636
C656  29 80     AND #$80                        A:10 X:FF Y:00 P:24 SP:FF PPU:121, 58 CYC:6640
C658  F0 F9     BEQ $C653                       A:00 X:FF Y:00 P:26 SP:FF PPU:127, 58 CYC:6642
C653  AD 02 20  LDA $2002 = FF                  A:00 X:FF Y:00 P:26 SP:FF PPU:136, 58 CYC:6645
C656  29 80     AND #$80                        A:10 X:FF Y:00 P:24 SP:FF PPU:148, 58 CYC:6649
C658  F0 F9     BEQ $C653                       A:00 X:FF Y:00 P:26 SP:FF PPU:154, 58 CYC:6651
C653  AD 02 20  LDA $2002 = FF                  A:00 X:FF Y:00 P:26 SP:FF PPU:163, 58 CYC:6654
C656  29 80     AND #$80                        A:10 X:FF Y:00 P:24 SP:FF PPU:175, 58 CYC:6658
C658  F0 F9     BEQ $C653                       A:00 X:FF Y:00 P:26 SP:FF PPU:181, 58 CYC:6660
C653  AD 02 20  LDA $2002 = FF                  A:00 X:FF Y:00 P:26 SP:FF PPU:190, 58 CYC:6663
C656  29 80     AND #$80                        A:10 X:FF Y:00 P:24 SP:FF PPU:202, 58 CYC:6667
C658  F0 F9     BEQ $C653                       A:00 X:FF Y:00 P:26 SP:FF PPU:208, 58 CYC:6669
C653  AD 02 20  LDA $2002 = FF                  A:00 X:FF Y:00 P:26 SP:FF PPU:217, 58 CYC:6672
C656  29 80     AND #$80                        A:10 X:FF Y:00 P:24 SP:FF PPU:229, 58 CYC:6676
C658  F0 F9     BEQ $C653                       A:00 X:FF Y:00 P:26 SP:FF PPU:235, 58 CYC:6678
C653  AD 02 20  LDA $2002 = FF                  A:00 X:FF Y:00 P:26 SP:FF PPU:244, 58 CYC:6681
C656  29 80     AND #$80                        A:10 X:FF Y:00 P:24 SP:FF PPU:256, 58 CYC:6685
C658  F0 F9     BEQ $C653                       A:00 X:FF Y:00 P:26 SP:FF PPU:262, 58 CYC:6687
C653  AD 02 20  LDA $2002 = FF                  A:00 X:FF Y:00 P:26 SP:FF PPU:271, 58 CYC:6690
C656  29 80     AND #$80                        A:10 X:FF Y:00 P:24 SP:FF PPU:283, 58 CYC:6694
C658  F0 F9     BEQ $C653                       A:00 X:FF Y:00 P:26 SP:FF PPU:289, 58 CYC:6696
C653  AD 02 20  LDA $2002 = FF                  A:00 X:FF Y:00 P:26 SP:FF PPU:298, 58 CYC:6699
C656  29 80     AND #$80                        A:10 X:FF Y:00 P:24 SP:FF PPU:310, 58 CYC:6703
C658  F0 F9     BEQ $C653                       A:00 X:FF Y:00 P:26 SP:FF PPU:316, 58 CYC:6705
C653  AD 02 20  LDA $2002 = FF                  A:00 X:FF Y:00 P:26 SP:FF PPU:325, 58 CYC:6708
C656  29 80     AND #$80                        A:10 X:FF Y:00 P:24 SP:FF PPU:337, 58 CYC:6712
C658  F0 F9     BEQ $C653                       A:00 X:FF Y:00 P:26 SP:FF PPU:  2, 59 CYC:6714
C653  AD 02 20  LDA $2002 = FF                  A:00 X:FF Y:00 P:26 SP:FF PPU: 11, 59 CYC:6717
C656  29 80     AND #$80                        A:10 X:FF Y:00 P:24 SP:FF PPU: 23, 59 CYC:6721
C658  F0 F9     BEQ $C653                       A:00 X:FF Y:00 P:26 SP:FF PPU: 29, 59 CYC:6723
C653  AD 02 20  LDA $2002 = FF                  A:00 X:FF Y:00 P:26 SP:FF PPU: 38, 59 CYC:6726
C656  29 80     AND #$80                        A:10 X:FF Y:00 P:24 SP:FF PPU: 50, 59 CYC:6730
C658  F0 F9     BEQ $C653                       A:00 X:FF Y:00 P:26 SP:FF PPU: 56, 59 CYC:6732
C653  AD 02 20  LDA $2002 = FF                  A:00 X:FF Y:00 P:26 SP:FF PPU: 65, 59 CYC:6735
C656  29 80     AND #$80                        A:10 X:FF Y:00 P:24 SP:FF PPU: 77, 59 CYC:6739
C658  F0 F9     BEQ $C653                       A:00 X:FF Y:00 P:26 SP:FF PPU: 83, 59 CYC:6741
C653  AD 02 20  LDA $2002 = FF                  A:00 X:FF Y:00 P:26 SP:FF PPU: 92, 59 CYC:6744
C656  29 80     AND #$80                        A:10 X:FF Y:00 P:24 SP:FF PPU:104, 59 CYC:6748
C658  F0 F9     BEQ $C653                       A:00 X:FF Y:00 P:26 SP:FF PPU:110, 59 CYC:6750
C653  AD 02 20  LDA $2002 = FF                  A:00 X:FF Y:00 P:26 SP:FF PPU:119, 59 CYC:6753
C656  29 80     AND #$80                        A:10 X:FF Y:00 P:24 SP:FF PPU:131, 59 CYC:6757
C658  F0 F9     BEQ $C653                       A:00 X:FF Y:00 P:26 SP:FF PPU:137, 59 CYC:6759
C653  AD 02 20  LDA $2002 = FF                  A:00 X:FF Y:00 P:26 SP:FF PPU:146, 59 CYC:6762
C656  29 80     AND #$80                        A:10 X:FF Y:00 P:24 SP:FF PPU:158, 59 CYC:6766
C658  F0 F9     BEQ $C653                       A:00 X:FF Y:00 P:26 SP:FF PPU:164, 59 CYC:6768
C653  AD 02 20  LDA $2002 = FF                  A:00 X:FF Y:00 P:26 SP:FF PPU:173, 59 CYC:6771
C656  29 80     AND #$80                        A:10 X:FF Y:00 P:24 SP:FF PPU:185, 59 CYC:6775
C658  F0 F9     BEQ $C653                       A:00 X:FF Y:00 P:26 SP:FF PPU:191, 59 CYC:6777
C653  AD 02 20  LDA $2002 = FF                  A:00 X:FF Y:00 P:26 SP:FF PPU:200, 59 CYC:6780
C656  29 80     AND #$80                        A:10 X:FF Y:00 P:24 SP:FF PPU:212, 59 CYC:6784
C658  F0 F9     BEQ $C653                       A:00 X:FF Y:00 P:26 SP:FF PPU:218, 59 CYC:6786
C653  AD 02 20  LDA $2002 = FF                  A:00 X:FF Y:00 P:26 SP:FF PPU:227, 59 CYC:6789
C656  29 80     AND #$80                        A:10 X:FF Y:00 P:24 SP:FF PPU:239, 59 CYC:6793
C658  F0 F9     BEQ $C653                       A:00 X:FF Y:00 P:26 SP:FF PPU:245, 59 CYC:6795
C653  AD 02 20  LDA $2002 = FF                  A:00 X:FF Y:00 P:26 SP:FF PPU:254, 59 CYC:6798
C656  29 80     AND #$80                        A:10 X:FF Y:00 P:24 SP:FF PPU:266, 59 CYC:6802
C658  F0 F9     BEQ $C653                       A:00 X:FF Y:00 P:26 SP:FF PPU:272, 59 CYC:6804
C653  AD 02 20  LDA $2002 = FF                  A:00 X:FF Y:00 P:26 SP:FF PPU:281, 59 CYC:6807
C656  29 80     AND #$80                        A:10 X:FF Y:00 P:24 SP:FF PPU:293, 59 CYC:6811
C658  F0 F9     BEQ $C653                       A:00 X:FF Y:00 P:26 SP:FF PPU:299, 59 CYC:6813
C653  AD 02 20  LDA $2002 = FF                  A:00 X:FF Y:00 P:26 SP:FF PPU:308, 59 CYC:6816
C656  29 80     AND #$80                        A:10 X:FF Y:00 P:24 SP:FF PPU:320, 59 CYC:6820
C658  F0 F9     BEQ $C653                       A:00 X:FF Y:00 P:26 SP:FF PPU:326, 59 CYC:6822
C653  AD 02 20  LDA $2002 = FF                  A:00 X:FF Y:00 P:26 SP:FF PPU:335, 59 CYC:6825
C656  29 80     AND #$80                        A:10 X:FF Y:00 P:24 SP:FF PPU:  6, 60 CYC:6829
C658  F0 F9     BEQ $C653                       A:00 X:FF Y:00 P:26 SP:FF PPU: 12, 60 CYC:6831
C653  AD 02 20  LDA $2002 = FF                  A:00 X:FF Y:00 P:26 SP:FF PPU: 21, 60 CYC:6834
C656  29 80     AND #$80                        A:10 X:FF Y:00 P:24 SP:FF PPU: 33, 60 CYC:6838
C658  F0 F9     BEQ $C653                       A:00 X:FF Y:00 P:26 SP:FF PPU: 39, 60 CYC:6840
C653  AD 02 20  LDA $2002 = FF                  A:00 X:FF Y:00 P:26 SP:FF PPU: 48, 60 CYC:6843
C656  29 80     AND #$80                        A:10 X:FF Y:00 P:24 SP:FF PPU: 60, 60 CYC:6847
C658  F0 F9     BEQ $C653                       A:00 X:FF Y:00 P:26 SP:FF PPU: 66, 60 CYC:6849
C653  AD 02 20  LDA $2002 = FF                  A:00 X:FF Y:00 P:26 SP:FF PPU: 75, 60 CYC:6852
C656  29 80     AND #$80                        A:10 X:FF Y:00 P:24 SP:FF PPU: 87, 60 CYC:6856
C658  F0 F9     BEQ $C653                       A:00 X:FF Y:00 P:26 SP:FF PPU: 93, 60 CYC:6858
C653  AD 02 20  LDA $2002 = FF                  A:00 X:FF Y:00 P:26 SP:FF PPU:102, 60 CYC:6861
C656  29 80     AND #$80                        A:10 X:FF Y:00 P:24 SP:FF PPU:114, 60 CYC:6865
C658  F0 F9     BEQ $C653                       A:00 X:FF Y:00 P:26 SP:FF PPU:120, 60 CYC:6867
C653  AD 02 20  LDA $2002 = FF                  A:00 X:FF Y:00 P:26 SP:FF PPU:129, 60 CYC:6870
C656  29 80     AND #$80                        A:10 X:FF Y:00 P:24 SP:FF PPU:141, 60 CYC:6874
C658  F0 F9     BEQ $C653                       A:00 X:FF Y:00 P:26 SP:FF PPU:147, 60 CYC:6876
C653  AD 02 20  LDA $2002 = FF                  A:00 X:FF Y:00 P:26 SP:FF PPU:156, 60 CYC:6879
C656  29 80     AND #$80                        A:10 X:FF Y:00 P:24 SP:FF PPU:168, 60 CYC:6883
C658  F0 F9     BEQ $C653                       A:00 X:FF Y:00 P:26 SP:FF PPU:174, 60 CYC:6885
C653  AD 02 20  LDA $2002 = FF                  A:00 X:FF Y:00 P:26 SP:FF PPU:183, 60 CYC:6888
C656  29 80     AND #$80                        A:10 X:FF Y:00 P:24 SP:FF PPU:195, 60 CYC:6892
C658  F0 F9     BEQ $C653                       A:00 X:FF Y:00 P:26 SP:FF PPU:201, 60 CYC:6894
C653  AD 02 20  LDA $2002 = FF                  A:00 X:FF Y:00 P:26 SP:FF PPU:210, 60 CYC:6897
C656  29 80     AND #$80                        A:10 X:FF Y:00 P:24 SP:FF PPU:222, 60 CYC:6901
C658  F0 F9     BEQ $C653                       A:00 X:FF Y:00 P:26 SP:FF PPU:228, 60 CYC:6903
C653  AD 02 20  LDA $2002 = FF                  A:00 X:FF Y:00 P:26 SP:FF PPU:237, 60 CYC:6906
C656  29 80     AND #$80                        A:10 X:FF Y:00 P:24 SP:FF PPU:249, 60 CYC:6910
C658  F0 F9     BEQ $C653                       A:00 X:FF Y:00 P:26 SP:FF PPU:255, 60 CYC:6912
C653  AD 02 20  LDA $2002 = FF                  A:00 X:FF Y:00 P:26 SP:FF PPU:264, 60 CYC:6915
C656  29 80     AND #$80                        A:10 X:FF Y:00 P:24 SP:FF PPU:276, 60 CYC:6919
C658  F0 F9     BEQ $C653                       A:00 X:FF Y:00 P:26 SP:FF PPU:282, 60 CYC:6921
C653  AD 02 20  LDA $2002 = FF                  A:00 X:FF Y:00 P:26 SP:FF PPU:291, 60 CYC:6924
C656  29 80     AND #$80                        A:10 X:FF Y:00 P:24 SP:FF PPU:303, 60 CYC:6928
C658  F0 F9     BEQ $C653                       A:00 X:FF Y:00 P:26 SP:FF PPU:309, 60 CYC:6930
C653  AD 02 20  LDA $2002 = FF                  A:00 X:FF Y:00 P:26 SP:FF PPU:318, 60 CYC:6933
C656  29 80     AND #$80                        A:10 X:FF Y:00 P:24 SP:FF PPU:330, 60 CYC:6937
C658  F0 F9     BEQ $C653                       A:00 X:FF Y:00 P:26 SP:FF PPU:336, 60 CYC:6939
C653  AD 02 20  LDA $2002 = FF                  A:00 X:FF Y:00 P:26 SP:FF PPU:  4, 61 CYC:6942
C656  29 80     AND #$80                        A:10 X:FF Y:00 P:24 SP:FF PPU: 16, 61 CYC:6946
C658  F0 F9     BEQ $C653                       A:00 X:FF Y:00 P:26 SP:FF PPU: 22, 61 CYC:6948
C653  AD 02 20  LDA $2002 = FF                  A:00 X:FF Y:00 P:26 SP:FF PPU: 31, 61 CYC:6951
C656  29 80     AND #$80                        A:10 X:FF Y:00 P:24 SP:FF PPU: 43, 61 CYC:6955
C658  F0 F9     BEQ $C653                       A:00 X:FF Y:00 P:26 SP:FF PPU: 49, 61 CYC:6957
C653  AD 02 20  LDA $2002 = FF                  A:00 X:FF Y:00 P:26 SP:FF PPU: 58, 61 CYC:6960
C656  29 80     AND #$80                        A:10 X:FF Y:00 P:24 SP:FF PPU: 70, 61 CYC:6964
C658  F0 F9     BEQ $C653                       A:00 X:FF Y:00 P:26 SP:FF PPU: 76, 61 CYC:6966
C653  AD 02 20  LDA $2002 = FF                  A:00 X:FF Y:00 P:26 SP:FF PPU: 85, 61 CYC:6969
C656  29 80     AND #$80                        A:10 X:FF Y:00 P:24 SP:FF PPU: 97, 61 CYC:6973
C658  F0 F9     BEQ $C653                       A:00 X:FF Y:00 P:26 SP:FF PPU:103, 61 CYC:6975
C653  AD 02 20  LDA $2002 = FF                  A:00 X:FF Y:00 P:26 SP:FF PPU:112, 61 CYC:6978
C656  29 80     AND #$80                        A:10 X:FF Y:00 P:24 SP:FF PPU:124, 61 CYC:6982
C658  F0 F9     BEQ $C653                       A:00 X:FF Y:00 P:26 SP:FF PPU:130, 61 CYC:6984
C653  AD 02 20  LDA $2002 = FF                  A:00 X:FF Y:00 P:26 SP:FF PPU:139, 61 CYC:6987
C656  29 80     AND #$80                        A:10 X:FF Y:00 P:24 SP:FF PPU:151, 61 CYC:6991
C658  F0 F9     BEQ $C653                       A:00 X:FF Y:00 P:26 SP:FF PPU:157, 61 CYC:6993
C653  AD 02 20  LDA $2002 = FF                  A:00 X:FF Y:00 P:26 SP:FF PPU:166, 61 CYC:6996
C656  29 80     AND #$80                        A:10 X:FF Y:00 P:24 SP:FF PPU:178, 61 CYC:7000
C658  F0 F9     BEQ $C653                       A:00 X:FF Y:00 P:26 SP:FF PPU:184, 61 CYC:7002
C653  AD 02 20  LDA $2002 = FF                  A:00 X:FF Y:00 P:26 SP:FF PPU:193, 61 CYC:7005
C656  29 80     AND #$80                        A:10 X:FF Y:00 P:24 SP:FF PPU:205, 61 CYC:7009
C658  F0 F9     BEQ $C653                       A:00 X:FF Y:00 P:26 SP:FF PPU:211, 61 CYC:7011
C653  AD 02 20  LDA $2002 = FF                  A:00 X:FF Y:00 P:26 SP:FF PPU:220, 61 CYC:7014
C656  29 80     AND #$80                        A:10 X:FF Y:00 P:24 SP:FF PPU:232, 61 CYC:7018
C658  F0 F9     BEQ $C653                       A:00 X:FF Y:00 P:26 SP:FF PPU:238, 61 CYC:7020
C653  AD 02 20  LDA $2002 = FF                  A:00 X:FF Y:00 P:26 SP:FF PPU:247, 61 CYC:7023
C656  29 80     AND #$80                        A:10 X:FF Y:00 P:24 SP:FF PPU:259, 61 CYC:7027
C658  F0 F9     BEQ $C653                       A:00 X:FF Y:00 P:26 SP:FF PPU:265, 61 CYC:7029
C653  AD 02 20  LDA $2002 = FF                  A:00 X:FF Y:00 P:26 SP:FF PPU:274, 61 CYC:7032
C656  29 80     AND #$80                        A:10 X:FF Y:00 P:24 SP:FF PPU:286, 61 CYC:7036
C658  F0 F9     BEQ $C653                       A:00 X:FF Y:00 P:26 SP:FF PPU:292, 61 CYC:7038
C653  AD 02 20  LDA $2002 = FF                  A:00 X:FF Y:00 P:26 SP:FF PPU:301, 61 CYC:7041
C656  29 80     AND #$80                        A:10 X:FF Y:00 P:24 SP:FF PPU:313, 61 CYC:7045
C658  F0 F9     BEQ $C653                       A:00 X:FF Y:00 P:26 SP:FF PPU:319, 61 CYC:7047
C653  AD 02 20  LDA $2002 = FF                  A:00 X:FF Y:00 P:26 SP:FF PPU:328, 61 CYC:7050
C656  29 80     AND #$80                        A:10 X:FF Y:00 P:24 SP:FF PPU:340, 61 CYC:7054
C658  F0 F9     BEQ $C653                       A:00 X:FF Y:00 P:26 SP:FF PPU:  5, 62 CYC:7056
C653  AD 02 20  LDA $2002 = FF                  A:00 X:FF Y:00 P:26 SP:FF PPU: 14, 62 CYC:7059
C656  29 80     AND #$80                        A:10 X:FF Y:00 P:24 SP:FF PPU: 26, 62 CYC:7063
C658  F0 F9     BEQ $C653                       A:00 X:FF Y:00 P:26 SP:FF PPU: 32, 62 CYC:7065
C653  AD 02 20  LDA $2002 = FF                  A:00 X:FF Y:00 P:26 SP:FF PPU: 41, 62 CYC:7068
C656  29 80     AND #$80                        A:10 X:FF Y:00 P:24 SP:FF PPU: 53, 62 CYC:7072
C658  F0 F9     BEQ $C653                       A:00 X:FF Y:00 P:26 SP:FF PPU: 59, 62 CYC:7074
C653  AD 02 20  LDA $2002 = FF                  A:00 X:FF Y:00 P:26 SP:FF PPU: 68, 62 CYC:7077
C656  29 80     AND #$80                        A:10 X:FF Y:00 P:24 SP:FF PPU: 80, 62 CYC:7081
C658  F0 F9     BEQ $C653                       A:00 X:FF Y:00 P:26 SP:FF PPU: 86, 62 CYC:7083
C653  AD 02 20  LDA $2002 = FF                  A:00 X:FF Y:00 P:26 SP:FF PPU: 95, 62 CYC:7086
C656  29 80     AND #$80                        A:10 X:FF Y:00 P:24 SP:FF PPU:107, 62 CYC:7090
C658  F0 F9     BEQ $C653                       A:00 X:FF Y:00 P:26 SP:FF PPU:113, 62 CYC:7092
C653  AD 02 20  LDA $2002 = FF                  A:00 X:FF Y:00 P:26 SP:FF PPU:122, 62 CYC:7095
C656  29 80     AND #$80                        A:10 X:FF Y:00 P:24 SP:FF PPU:134, 62 CYC:7099
C658  F0 F9     BEQ $C653                       A:00 X:FF Y:00 P:26 SP:FF PPU:140, 62 CYC:7101
C653  AD 02 20  LDA $2002 = FF                  A:00 X:FF Y:00 P:26 SP:FF PPU:149, 62 CYC:7104
C656  29 80     AND #$80                        A:10 X:FF Y:00 P:24 SP:FF PPU:161, 62 CYC:7108
C658  F0 F9     BEQ $C653                       A:00 X:FF Y:00 P:26 SP:FF PPU:167, 62 CYC:7110
C653  AD 02 20  LDA $2002 = FF                  A:00 X:FF Y:00 P:26 SP:FF PPU:176, 62 CYC:7113
C656  29 80     AND #$80                        A:10 X:FF Y:00 P:24 SP:FF PPU:188, 62 CYC:7117
C658  F0 F9     BEQ $C653                       A:00 X:FF Y:00 P:26 SP:FF PPU:194, 62 CYC:7119
C653  AD 02 20  LDA $2002 = FF                  A:00 X:FF Y:00 P:26 SP:FF PPU:203, 62 CYC:7122
C656  29 80     AND #$80                        A:10 X:FF Y:00 P:24 SP:FF PPU:215, 62 CYC:7126
C658  F0 F9     BEQ $C653                       A:00 X:FF Y:00 P:26 SP:FF PPU:221, 62 CYC:7128
C653  AD 02 20  LDA $2002 = FF                  A:00 X:FF Y:00 P:26 SP:FF PPU:230, 62 CYC:7131
C656  29 80     AND #$80                        A:10 X:FF Y:00 P:24 SP:FF PPU:242, 62 CYC:7135
C658  F0 F9     BEQ $C653                       A:00 X:FF Y:00 P:26 SP:FF PPU:248, 62 CYC:7137
C653  AD 02 20  LDA $2002 = FF                  A:00 X:FF Y:00 P:26 SP:FF PPU:257, 62 CYC:7140
C656  29 80     AND #$80                        A:10 X:FF Y:00 P:24 SP:FF PPU:269, 62 CYC:7144
C658  F0 F9     BEQ $C653                       A:00 X:FF Y:00 P:26 SP:FF PPU:275, 62 CYC:7146
C653  AD 02 20  LDA $2002 = FF                  A:00 X:FF Y:00 P:26 SP:FF PPU:284, 62 CYC:7149
C656  29 80     AND #$80                        A:10 X:FF Y:00 P:24 SP:FF PPU:296, 62 CYC:7153
C658  F0 F9     BEQ $C653                       A:00 X:FF Y:00 P:26 SP:FF PPU:302, 62 CYC:7155
C653  AD 02 20  LDA $2002 = FF                  A:00 X:FF Y:00 P:26 SP:FF PPU:311, 62 CYC:7158
C656  29 80     AND #$80                        A:10 X:FF Y:00 P:24 SP:FF PPU:323, 62 CYC:7162
C658  F0 F9     BEQ $C653                       A:00 X:FF Y:00 P:26 SP:FF PPU:329, 62 CYC:7164
C653  AD 02 20  LDA $2002 = FF                  A:00 X:FF Y:00 P:26 SP:FF PPU:338, 62 CYC:7167
C656  29 80     AND #$80                        A:10 X:FF Y:00 P:24 SP:FF PPU:  9, 63 CYC:7171
C658  F0 F9     BEQ $C653                       A:00 X:FF Y:00 P:26 SP:FF PPU: 15, 63 CYC:7173
C653  AD 02 20  LDA $2002 = FF                  A:00 X:FF Y:00 P:26 SP:FF PPU: 24, 63 CYC:7176
C656  29 80     AND #$80                        A:10 X:FF Y:00 P:24 SP:FF PPU: 36, 63 CYC:7180
C658  F0 F9     BEQ $C653                       A:00 X:FF Y:00 P:26 SP:FF PPU: 42, 63 CYC:7182
C653  AD 02 20  LDA $2002 = FF                  A:00 X:FF Y:00 P:26 SP:FF PPU: 51, 63 CYC:7185
C656  29 80     AND #$80                        A:10 X:FF Y:00 P:24 SP:FF PPU: 63, 63 CYC:7189
C658  F0 F9     BEQ $C653                       A:00 X:FF Y:00 P:26 SP:FF PPU: 69, 63 CYC:7191
C653  AD 02 20  LDA $2002 = FF                  A:00 X:FF Y:00 P:26 SP:FF PPU: 78, 63 CYC:7194
C656  29 80     AND #$80                        A:10 X:FF Y:00 P:24 SP:FF PPU: 90, 63 CYC:7198
C658  F0 F9     BEQ $C653                       A:00 X:FF Y:00 P:26 SP:FF PPU: 96, 63 CYC:7200
C653  AD 02 20  LDA $2002 = FF                  A:00 X:FF Y:00 P:26 SP:FF PPU:105, 63 CYC:7203
C656  29 80     AND #$80                        A:10 X:FF Y:00 P:24 SP:FF PPU:117, 63 CYC:7207
C658  F0 F9     BEQ $C653                       A:00 X:FF Y:00 P:26 SP:FF PPU:123, 63 CYC:7209
C653  AD 02 20  LDA $2002 = FF                  A:00 X:FF Y:00 P:26 SP:FF PPU:132, 63 CYC:7212
C656  29 80     AND #$80                        A:10 X:FF Y:00 P:24 SP:FF PPU:144, 63 CYC:7216
C658  F0 F9     BEQ $C653                       A:00 X:FF Y:00 P:26 SP:FF PPU:150, 63 CYC:7218
C653  AD 02 20  LDA $2002 = FF                  A:00 X:FF Y:00 P:26 SP:FF PPU:159, 63 CYC:7221
C656  29 80     AND #$80                        A:10 X:FF Y:00 P:24 SP:FF PPU:171, 63 CYC:7225
C658  F0 F9     BEQ $C653                       A:00 X:FF Y:00 P:26 SP:FF PPU:177, 63 CYC:7227
C653  AD 02 20  LDA $2002 = FF                  A:00 X:FF Y:00 P:26 SP:FF PPU:186, 63 CYC:7230
C656  29 80     AND #$80                        A:10 X:FF Y:00 P:24 SP:FF PPU:198, 63 CYC:7234
C658  F0 F9     BEQ $C653                       A:00 X:FF Y:00 P:26 SP:FF PPU:204, 63 CYC:7236
C653  AD 02 20  LDA $2002 = FF                  A:00 X:FF Y:00 P:26 SP:FF PPU:213, 63 CYC:7239
C656  29 80     AND #$80                        A:10 X:FF Y:00 P:24 SP:FF PPU:225, 63 CYC:7243
C658  F0 F9     BEQ $C653                       A:00 X:FF Y:00 P:26 SP:FF PPU:231, 63 CYC:7245
C653  AD 02 20  LDA $2002 = FF                  A:00 X:FF Y:00 P:26 SP:FF PPU:240, 63 CYC:7248
C656  29 80     AND #$80                        A:10 X:FF Y:00 P:24 SP:FF PPU:252, 63 CYC:7252
C658  F0 F9     BEQ $C653                       A:00 X:FF Y:00 P:26 SP:FF PPU:258, 63 CYC:7254
C653  AD 02 20  LDA $2002 = FF                  A:00 X:FF Y:00 P:26 SP:FF PPU:267, 63 CYC:7257
C656  29 80     AND #$80                        A:10 X:FF Y:00 P:24 SP:FF PPU:279, 63 CYC:7261
C658  F0 F9     BEQ $C653                       A:00 X:FF Y:00 P:26 SP:FF PPU:285, 63 CYC:7263
C653  AD 02 20  LDA $2002 = FF                  A:00 X:FF Y:00 P:26 SP:FF PPU:294, 63 CYC:7266
C656  29 80     AND #$80                        A:10 X:FF Y:00 P:24 SP:FF PPU:306, 63 CYC:7270
C658  F0 F9     BEQ $C653                       A:00 X:FF Y:00 P:26 SP:FF PPU:312, 63 CYC:7272
C653  AD 02 20  LDA $2002 = FF                  A:00 X:FF Y:00 P:26 SP:FF PPU:321, 63 CYC:7275
C656  29 80     AND #$80                        A:10 X:FF Y:00 P:24 SP:FF PPU:333, 63 CYC:7279
C658  F0 F9     BEQ $C653                       A:00 X:FF Y:00 P:26 SP:FF PPU:339, 63 CYC:7281
C653  AD 02 20  LDA $2002 = FF                  A:00 X:FF Y:00 P:26 SP:FF PPU:  7, 64 CYC:7284
C656  29 80     AND #$80                        A:10 X:FF Y:00 P:24 SP:FF PPU: 19, 64 CYC:7288
C658  F0 F9     BEQ $C653                       A:00 X:FF Y:00 P:26 SP:FF PPU: 25, 64 CYC:7290
C653  AD 02 20  LDA $2002 = FF                  A:00 X:FF Y:00 P:26 SP:FF PPU: 34, 64 CYC:7293
C656  29 80     AND #$80                        A:10 X:FF Y:00 P:24 SP:FF PPU: 46, 64 CYC:7297
C658  F0 F9     BEQ $C653                       A:00 X:FF Y:00 P:26 SP:FF PPU: 52, 64 CYC:7299
C653  AD 02 20  LDA $2002 = FF                  A:00 X:FF Y:00 P:26 SP:FF PPU: 61, 64 CYC:7302
C656  29 80     AND #$80                        A:10 X:FF Y:00 P:24 SP:FF PPU: 73, 64 CYC:7306
C658  F0 F9     BEQ $C653                       A:00 X:FF Y:00 P:26 SP:FF PPU: 79, 64 CYC:7308
C653  AD 02 20  LDA $2002 = FF                  A:00 X:FF Y:00 P:26 SP:FF PPU: 88, 64 CYC:7311
C656  29 80     AND #$80                        A:10 X:FF Y:00 P:24 SP:FF PPU:100, 64 CYC:7315
C658  F0 F9     BEQ $C653                       A:00 X:FF Y:00 P:26 SP:FF PPU:106, 64 CYC:7317
C653  AD 02 20  LDA $2002 = FF                  A:00 X:FF Y:00 P:26 SP:FF PPU:115, 64 CYC:7320
C656  29 80     AND #$80                        A:10 X:FF Y:00 P:24 SP:FF PPU:127, 64 CYC:7324
C658  F0 F9     BEQ $C653                       A:00 X:FF Y:00 P:26 SP:FF PPU:133, 64 CYC:7326
C653  AD 02 20  LDA $2002 = FF                  A:00 X:FF Y:00 P:26 SP:FF PPU:142, 64 CYC:7329
C656  29 80     AND #$80                        A:10 X:FF Y:00 P:24 SP:FF PPU:154, 64 CYC:7333
C658  F0 F9     BEQ $C653                       A:00 X:FF Y:00 P:26 SP:FF PPU:160, 64 CYC:7335
C653  AD 02 20  LDA $2002 = FF                  A:00 X:FF Y:00 P:26 SP:FF PPU:169, 64 CYC:7338
C656  29 80     AND #$80                        A:10 X:FF Y:00 P:24 SP:FF PPU:181, 64 CYC:7342
C658  F0 F9     BEQ $C653                       A:00 X:FF Y:00 P:26 SP:FF PPU:187, 64 CYC:7344
C653  AD 02 20  LDA $2002 = FF                  A:00 X:FF Y:00 P:26 SP:FF PPU:196, 64 CYC:7347
C656  29 80     AND #$80                        A:10 X:FF Y:00 P:24 SP:FF PPU:208, 64 CYC:7351
C658  F0 F9     BEQ $C653                       A:00 X:FF Y:00 P:26 SP:FF PPU:214, 64 CYC:7353
C653  AD 02 20  LDA $2002 = FF                  A:00 X:FF Y:00 P:26 SP:FF PPU:223, 64 CYC:7356
C656  29 80     AND #$80                        A:10 X:FF Y:00 P:24 SP:FF PPU:235, 64 CYC:7360
C658  F0 F9     BEQ $C653                       A:00 X:FF Y:00 P:26 SP:FF PPU:241, 64 CYC:7362
C653  AD 02 20  LDA $2002 = FF                  A:00 X:FF Y:00 P:26 SP:FF PPU:250, 64 CYC:7365
C656  29 80     AND #$80                        A:10 X:FF Y:00 P:24 SP:FF PPU:262, 64 CYC:7369
C658  F0 F9     BEQ $C653                       A:00 X:FF Y:00 P:26 SP:FF PPU:268, 64 CYC:7371
C653  AD 02 20  LDA $2002 = FF                  A:00 X:FF Y:00 P:26 SP:FF PPU:277, 64 CYC:7374
C656  29 80     AND #$80                        A:10 X:FF Y:00 P:24 SP:FF PPU:289, 64 CYC:7378
C658  F0 F9     BEQ $C653                       A:00 X:FF Y:00 P:26 SP:FF PPU:295, 64 CYC:7380
C653  AD 02 20  LDA $2002 = FF                  A:00 X:FF Y:00 P:26 SP:FF PPU:304, 64 CYC:7383
C656  29 80     AND #$80                        A:10 X:FF Y:00 P:24 SP:FF PPU:316, 64 CYC:7387
C658  F0 F9     BEQ $C653                       A:00 X:FF Y:00 P:26 SP:FF PPU:322, 64 CYC:7389
C653  AD 02 20  LDA $2002 = FF                  A:00 X:FF Y:00 P:26 SP:FF PPU:331, 64 CYC:7392
C656  29 80     AND #$80                        A:10 X:FF Y:00 P:24 SP:FF PPU:  2, 65 CYC:7396
C658  F0 F9     BEQ $C653                       A:00 X:FF Y:00 P:26 SP:FF PPU:  8, 65 CYC:7398
C653  AD 02 20  LDA $2002 = FF                  A:00 X:FF Y:00 P:26 SP:FF PPU: 17, 65 CYC:7401
C656  29 80     AND #$80                        A:10 X:FF Y:00 P:24 SP:FF PPU: 29, 65 CYC:7405
C658  F0 F9     BEQ $C653                       A:00 X:FF Y:00 P:26 SP:FF PPU: 35, 65 CYC:7407
C653  AD 02 20  LDA $2002 = FF                  A:00 X:FF Y:00 P:26 SP:FF PPU: 44, 65 CYC:7410
C656  29 80     AND #$80                        A:10 X:FF Y:00 P:24 SP:FF PPU: 56, 65 CYC:7414
C658  F0 F9     BEQ $C653                       A:00 X:FF Y:00 P:26 SP:FF PPU: 62, 65 CYC:7416
C653  AD 02 20  LDA $2002 = FF                  A:00 X:FF Y:00 P:26 SP:FF PPU: 71, 65 CYC:7419
C656  29 80     AND #$80                        A:10 X:FF Y:00 P:24 SP:FF PPU: 83, 65 CYC:7423
C658  F0 F9     BEQ $C653                       A:00 X:FF Y:00 P:26 SP:FF PPU: 89, 65 CYC:7425
C653  AD 02 20  LDA $2002 = FF                  A:00 X:FF Y:00 P:26 SP:FF PPU: 98, 65 CYC:7428
C656  29 80     AND #$80                        A:10 X:FF Y:00 P:24 SP:FF PPU:110, 65 CYC:7432
C658  F0 F9     BEQ $C653                       A:00 X:FF Y:00 P:26 SP:FF PPU:116, 65 CYC:7434
C653  AD 02 20  LDA $2002 = FF                  A:00 X:FF Y:00 P:26 SP:FF PPU:125, 65 CYC:7437
C656  29 80     AND #$80                        A:10 X:FF Y:00 P:24 SP:FF PPU:137, 65 CYC:7441
C658  F0 F9     BEQ $C653                       A:00 X:FF Y:00 P:26 SP:FF PPU:143, 65 CYC:7443
C653  AD 02 20  LDA $2002 = FF                  A:00 X:FF Y:00 P:26 SP:FF PPU:152, 65 CYC:7446
C656  29 80     AND #$80                        A:10 X:FF Y:00 P:24 SP:FF PPU:164, 65 CYC:7450
C658  F0 F9     BEQ $C653                       A:00 X:FF Y:00 P:26 SP:FF PPU:170, 65 CYC:7452
C653  AD 02 20  LDA $2002 = FF                  A:00 X:FF Y:00 P:26 SP:FF PPU:179, 65 CYC:7455
C656  29 80     AND #$80                        A:10 X:FF Y:00 P:24 SP:FF PPU:191, 65 CYC:7459
C658  F0 F9     BEQ $C653                       A:00 X:FF Y:00 P:26 SP:FF PPU:197, 65 CYC:7461
C653  AD 02 20  LDA $2002 = FF                  A:00 X:FF Y:00 P:26 SP:FF PPU:206, 65 CYC:7464
C656  29 80     AND #$80                        A:10 X:FF Y:00 P:24 SP:FF PPU:218, 65 CYC:7468
C658  F0 F9     BEQ $C653                       A:00 X:FF Y:00 P:26 SP:FF PPU:224, 65 CYC:7470
C653  AD 02 20  LDA $2002 = FF                  A:00 X:FF Y:00 P:26 SP:FF PPU:233, 65 CYC:7473
C656  29 80     AND #$80                        A:10 X:FF Y:00 P:24 SP:FF PPU:245, 65 CYC:7477
C658  F0 F9     BEQ $C653                       A:00 X:FF Y:00 P:26 SP:FF PPU:251, 65 CYC:7479
C653  AD 02 20  LDA $2002 = FF                  A:00 X:FF Y:00 P:26 SP:FF PPU:260, 65 CYC:7482
C656  29 80     AND #$80                        A:10 X:FF Y:00 P:24 SP:FF PPU:272, 65 CYC:7486
C658  F0 F9     BEQ $C653                       A:00 X:FF Y:00 P:26 SP:FF PPU:278, 65 CYC:7488
C653  AD 02 20  LDA $2002 = FF                  A:00 X:FF Y:00 P:26 SP:FF PPU:287, 65 CYC:7491
C656  29 80     AND #$80                        A:10 X:FF Y:00 P:24 SP:FF PPU:299, 65 CYC:7495
C658  F0 F9     BEQ $C653                       A:00 X:FF Y:00 P:26 SP:FF PPU:305, 65 CYC:7497
C653  AD 02 20  LDA $2002 = FF                  A:00 X:FF Y:00 P:26 SP:FF PPU:314, 65 CYC:7500
C656  29 80     AND #$80                        A:10 X:FF Y:00 P:24 SP:FF PPU:326, 65 CYC:7504
C658  F0 F9     BEQ $C653                       A:00 X:FF Y:00 P:26 SP:FF PPU:332, 65 CYC:7506
C653  AD 02 20  LDA $2002 = FF                  A:00 X:FF Y:00 P:26 SP:FF PPU:  0, 66 CYC:7509
C656  29 80     AND #$80                        A:10 X:FF Y:00 P:24 SP:FF PPU: 12, 66 CYC:7513
C658  F0 F9     BEQ $C653                       A:00 X:FF Y:00 P:26 SP:FF PPU: 18, 66 CYC:7515
C653  AD 02 20  LDA $2002 = FF                  A:00 X:FF Y:00 P:26 SP:FF PPU: 27, 66 CYC:7518
C656  29 80     AND #$80                        A:10 X:FF Y:00 P:24 SP:FF PPU: 39, 66 CYC:7522
C658  F0 F9     BEQ $C653                       A:00 X:FF Y:00 P:26 SP:FF PPU: 45, 66 CYC:7524
C653  AD 02 20  LDA $2002 = FF                  A:00 X:FF Y:00 P:26 SP:FF PPU: 54, 66 CYC:7527
C656  29 80     AND #$80                        A:10 X:FF Y:00 P:24 SP:FF PPU: 66, 66 CYC:7531
C658  F0 F9     BEQ $C653                       A:00 X:FF Y:00 P:26 SP:FF PPU: 72, 66 CYC:7533
C653  AD 02 20  LDA $2002 = FF                  A:00 X:FF Y:00 P:26 SP:FF PPU: 81, 66 CYC:7536
C656  29 80     AND #$80                        A:10 X:FF Y:00 P:24 SP:FF PPU: 93, 66 CYC:7540
C658  F0 F9     BEQ $C653                       A:00 X:FF Y:00 P:26 SP:FF PPU: 99, 66 CYC:7542
C653  AD 02 20  LDA $2002 = FF                  A:00 X:FF Y:00 P:26 SP:FF PPU:108, 66 CYC:7545
C656  29 80     AND #$80                        A:10 X:FF Y:00 P:24 SP:FF PPU:120, 66 CYC:7549
C658  F0 F9     BEQ $C653                       A:00 X:FF Y:00 P:26 SP:FF PPU:126, 66 CYC:7551
C653  AD 02 20  LDA $2002 = FF                  A:00 X:FF Y:00 P:26 SP:FF PPU:135, 66 CYC:7554
C656  29 80     AND #$80                        A:10 X:FF Y:00 P:24 SP:FF PPU:147, 66 CYC:7558
C658  F0 F9     BEQ $C653                       A:00 X:FF Y:00 P:26 SP:FF PPU:153, 66 CYC:7560
C653  AD 02 20  LDA $2002 = FF                  A:00 X:FF Y:00 P:26 SP:FF PPU:162, 66 CYC:7563
C656  29 80     AND #$80                        A:10 X:FF Y:00 P:24 SP:FF PPU:174, 66 CYC:7567
C658  F0 F9     BEQ $C653                       A:00 X:FF Y:00 P:26 SP:FF PPU:180, 66 CYC:7569
C653  AD 02 20  LDA $2002 = FF                  A:00 X:FF Y:00 P:26 SP:FF PPU:189, 66 CYC:7572
C656  29 80     AND #$80                        A:10 X:FF Y:00 P:24 SP:FF PPU:201, 66 CYC:7576
C658  F0 F9     BEQ $C653                       A:00 X:FF Y:00 P:26 SP:FF PPU:207, 66 CYC:7578
C653  AD 02 20  LDA $2002 = FF                  A:00 X:FF Y:00 P:26 SP:FF PPU:216, 66 CYC:7581
C656  29 80     AND #$80                        A:10 X:FF Y:00 P:24 SP:FF PPU:228, 66 CYC:7585
C658  F0 F9     BEQ $C653                       A:00 X:FF Y:00 P:26 SP:FF PPU:234, 66 CYC:7587
C653  AD 02 20  LDA $2002 = FF                  A:00 X:FF Y:00 P:26 SP:FF PPU:243, 66 CYC:7590
C656  29 80     AND #$80                        A:10 X:FF Y:00 P:24 SP:FF PPU:255, 66 CYC:7594
C658  F0 F9     BEQ $C653                       A:00 X:FF Y:00 P:26 SP:FF PPU:261, 66 CYC:7596
C653  AD 02 20  LDA $2002 = FF                  A:00 X:FF Y:00 P:26 SP:FF PPU:270, 66 CYC:7599
C656  29 80     AND #$80                        A:10 X:FF Y:00 P:24 SP:FF PPU:282, 66 CYC:7603
C658  F0 F9     BEQ $C653                       A:00 X:FF Y:00 P:26 SP:FF PPU:288, 66 CYC:7605
C653  AD 02 20  LDA $2002 = FF                  A:00 X:FF Y:00 P:26 SP:FF PPU:297, 66 CYC:7608
C656  29 80     AND #$80                        A:10 X:FF Y:00 P:24 SP:FF PPU:309, 66 CYC:7612
C658  F0 F9     BEQ $C653                       A:00 X:FF Y:00 P:26 SP:FF PPU:315, 66 CYC:7614
C653  AD 02 20  LDA $2002 = FF                  A:00 X:FF Y:00 P:26 SP:FF PPU:324, 66 CYC:7617
C656  29 80     AND #$80                        A:10 X:FF Y:00 P:24 SP:FF PPU:336, 66 CYC:7621
C658  F0 F9     BEQ $C653                       A:00 X:FF Y:00 P:26 SP:FF PPU:  1, 67 CYC:7623
C653  AD 02 20  LDA $2002 = FF                  A:00 X:FF Y:00 P:26 SP:FF PPU: 10, 67 CYC:7626
C656  29 80     AND #$80                        A:10 X:FF Y:00 P:24 SP:FF PPU: 22, 67 CYC:7630
C658  F0 F9     BEQ $C653                       A:00 X:FF Y:00 P:26 SP:FF PPU: 28, 67 CYC:7632
C653  AD 02 20  LDA $2002 = FF                  A:00 X:FF Y:00 P:26 SP:FF PPU: 37, 67 CYC:7635
C656  29 80     AND #$80                        A:10 X:FF Y:00 P:24 SP:FF PPU: 49, 67 CYC:7639
C658  F0 F9     BEQ $C653                       A:00 X:FF Y:00 P:26 SP:FF PPU: 55, 67 CYC:7641
C653  AD 02 20  LDA $2002 = FF                  A:00 X:FF Y:00 P:26 SP:FF PPU: 64, 67 CYC:7644
C656  29 80     AND #$80                        A:10 X:FF Y:00 P:24 SP:FF PPU: 76, 67 CYC:7648
C658  F0 F9     BEQ $C653                       A:00 X:FF Y:00 P:26 SP:FF PPU: 82, 67 CYC:7650
C653  AD 02 20  LDA $2002 = FF                  A:00 X:FF Y:00 P:26 SP:FF PPU: 91, 67 CYC:7653
C656  29 80     AND #$80                        A:10 X:FF Y:00 P:24 SP:FF PPU:103, 67 CYC:7657
C658  F0 F9     BEQ $C653                       A:00 X:FF Y:00 P:26 SP:FF PPU:109, 67 CYC:7659
C653  AD 02 20  LDA $2002 = FF                  A:00 X:FF Y:00 P:26 SP:FF PPU:118, 67 CYC:7662
C656  29 80     AND #$80                        A:10 X:FF Y:00 P:24 SP:FF PPU:130, 67 CYC:7666
C658  F0 F9     BEQ $C653                       A:00 X:FF Y:00 P:26 SP:FF PPU:136, 67 CYC:7668
C653  AD 02 20  LDA $2002 = FF                  A:00 X:FF Y:00 P:26 SP:FF PPU:145, 67 CYC:7671
C656  29 80     AND #$80                        A:10 X:FF Y:00 P:24 SP:FF PPU:157, 67 CYC:7675
C658  F0 F9     BEQ $C653                       A:00 X:FF Y:00 P:26 SP:FF PPU:163, 67 CYC:7677
C653  AD 02 20  LDA $2002 = FF                  A:00 X:FF Y:00 P:26 SP:FF PPU:172, 67 CYC:7680
C656  29 80     AND #$80                        A:10 X:FF Y:00 P:24 SP:FF PPU:184, 67 CYC:7684
C658  F0 F9     BEQ $C653                       A:00 X:FF Y:00 P:26 SP:FF PPU:190, 67 CYC:7686
C653  AD 02 20  LDA $2002 = FF                  A:00 X:FF Y:00 P:26 SP:FF PPU:199, 67 CYC:7689
C656  29 80     AND #$80                        A:10 X:FF Y:00 P:24 SP:FF PPU:211, 67 CYC:7693
C658  F0 F9     BEQ $C653                       A:00 X:FF Y:00 P:26 SP:FF PPU:217, 67 CYC:7695
C653  AD 02 20  LDA $2002 = FF                  A:00 X:FF Y:00 P:26 SP:FF PPU:226, 67 CYC:7698
C656  29 80     AND #$80                        A:10 X:FF Y:00 P:24 SP:FF PPU:238, 67 CYC:7702
C658  F0 F9     BEQ $C653                       A:00 X:FF Y:00 P:26 SP:FF PPU:244, 67 CYC:7704
C653  AD 02 20  LDA $2002 = FF                  A:00 X:FF Y:00 P:26 SP:FF PPU:253, 67 CYC:7707
C656  29 80     AND #$80                        A:10 X:FF Y:00 P:24 SP:FF PPU:265, 67 CYC:7711
C658  F0 F9     BEQ $C653                       A:00 X:FF Y:00 P:26 SP:FF PPU:271, 67 CYC:7713
C653  AD 02 20  LDA $2002 = FF                  A:00 X:FF Y:00 P:26 SP:FF PPU:280, 67 CYC:7716
C656  29 80     AND #$80                        A:10 X:FF Y:00 P:24 SP:FF PPU:292, 67 CYC:7720
C658  F0 F9     BEQ $C653                       A:00 X:FF Y:00 P:26 SP:FF PPU:298, 67 CYC:7722
C653  AD 02 20  LDA $2002 = FF                  A:00 X:FF Y:00 P:26 SP:FF PPU:307, 67 CYC:7725
C656  29 80     AND #$80                        A:10 X:FF Y:00 P:24 SP:FF PPU:319, 67 CYC:7729
C658  F0 F9     BEQ $C653                       A:00 X:FF Y:00 P:26 SP:FF PPU:325, 67 CYC:7731
C653  AD 02 20  LDA $2002 = FF                  A:00 X:FF Y:00 P:26 SP:FF PPU:334, 67 CYC:7734
C656  29 80     AND #$80                        A:10 X:FF Y:00 P:24 SP:FF PPU:  5, 68 CYC:7738
C658  F0 F9     BEQ $C653                       A:00 X:FF Y:00 P:26 SP:FF PPU: 11, 68 CYC:7740
C653  AD 02 20  LDA $2002 = FF                  A:00 X:FF Y:00 P:26 SP:FF PPU: 20, 68 CYC:7743
C656  29 80     AND #$80                        A:10 X:FF Y:00 P:24 SP:FF PPU: 32, 68 CYC:7747
C658  F0 F9     BEQ $C653                       A:00 X:FF Y:00 P:26 SP:FF PPU: 38, 68 CYC:7749
C653  AD 02 20  LDA $2002 = FF                  A:00 X:FF Y:00 P:26 SP:FF PPU: 47, 68 CYC:7752
C656  29 80     AND #$80                        A:10 X:FF Y:00 P:24 SP:FF PPU: 59, 68 CYC:7756
C658  F0 F9     BEQ $C653                       A:00 X:FF Y:00 P:26 SP:FF PPU: 65, 68 CYC:7758
C653  AD 02 20  LDA $2002 = FF                  A:00 X:FF Y:00 P:26 SP:FF PPU: 74, 68 CYC:7761
C656  29 80     AND #$80                        A:10 X:FF Y:00 P:24 SP:FF PPU: 86, 68 CYC:7765
C658  F0 F9     BEQ $C653                       A:00 X:FF Y:00 P:26 SP:FF PPU: 92, 68 CYC:7767
C653  AD 02 20  LDA $2002 = FF                  A:00 X:FF Y:00 P:26 SP:FF PPU:101, 68 CYC:7770
C656  29 80     AND #$80                        A:10 X:FF Y:00 P:24 SP:FF PPU:113, 68 CYC:7774
C658  F0 F9     BEQ $C653                       A:00 X:FF Y:00 P:26 SP:FF PPU:119, 68 CYC:7776
C653  AD 02 20  LDA $2002 = FF                  A:00 X:FF Y:00 P:26 SP:FF PPU:128, 68 CYC:7779
C656  29 80     AND #$80                        A:10 X:FF Y:00 P:24 SP:FF PPU:140, 68 CYC:7783
C658  F0 F9     BEQ $C653                       A:00 X:FF Y:00 P:26 SP:FF PPU:146, 68 CYC:7785
C653  AD 02 20  LDA $2002 = FF                  A:00 X:FF Y:00 P:26 SP:FF PPU:155, 68 CYC:7788
C656  29 80     AND #$80                        A:10 X:FF Y:00 P:24 SP:FF PPU:167, 68 CYC:7792
C658  F0 F9     BEQ $C653                       A:00 X:FF Y:00 P:26 SP:FF PPU:173, 68 CYC:7794
C653  AD 02 20  LDA $2002 = FF                  A:00 X:FF Y:00 P:26 SP:FF PPU:182, 68 CYC:7797
C656  29 80     AND #$80                        A:10 X:FF Y:00 P:24 SP:FF PPU:194, 68 CYC:7801
C658  F0 F9     BEQ $C653                       A:00 X:FF Y:00 P:26 SP:FF PPU:200, 68 CYC:7803
C653  AD 02 20  LDA $2002 = FF                  A:00 X:FF Y:00 P:26 SP:FF PPU:209, 68 CYC:7806
C656  29 80     AND #$80                        A:10 X:FF Y:00 P:24 SP:FF PPU:221, 68 CYC:7810
C658  F0 F9     BEQ $C653                       A:00 X:FF Y:00 P:26 SP:FF PPU:227, 68 CYC:7812
C653  AD 02 20  LDA $2002 = FF                  A:00 X:FF Y:00 P:26 SP:FF PPU:236, 68 CYC:7815
C656  29 80     AND #$80                        A:10 X:FF Y:00 P:24 SP:FF PPU:248, 68 CYC:7819
C658  F0 F9     BEQ $C653                       A:00 X:FF Y:00 P:26 SP:FF PPU:254, 68 CYC:7821
C653  AD 02 20  LDA $2002 = FF                  A:00 X:FF Y:00 P:26 SP:FF PPU:263, 68 CYC:7824
C656  29 80     AND #$80                        A:10 X:FF Y:00 P:24 SP:FF PPU:275, 68 CYC:7828
C658  F0 F9     BEQ $C653                       A:00 X:FF Y:00 P:26 SP:FF PPU:281, 68 CYC:7830
C653  AD 02 20  LDA $2002 = FF                  A:00 X:FF Y:00 P:26 SP:FF PPU:290, 68 CYC:7833
C656  29 80     AND #$80                        A:10 X:FF Y:00 P:24 SP:FF PPU:302, 68 CYC:7837
C658  F0 F9     BEQ $C653                       A:00 X:FF Y:00 P:26 SP:FF PPU:308, 68 CYC:7839
C653  AD 02 20  LDA $2002 = FF                  A:00 X:FF Y:00 P:26 SP:FF PPU:317, 68 CYC:7842
C656  29 80     AND #$80                        A:10 X:FF Y:00 P:24 SP:FF PPU:329, 68 CYC:7846
C658  F0 F9     BEQ $C653                       A:00 X:FF Y:00 P:26 SP:FF PPU:335, 68 CYC:7848
C653  AD 02 20  LDA $2002 = FF                  A:00 X:FF Y:00 P:26 SP:FF PPU:  3, 69 CYC:7851
C656  29 80     AND #$80                        A:10 X:FF Y:00 P:24 SP:FF PPU: 15, 69 CYC:7855
C658  F0 F9     BEQ $C653                       A:00 X:FF Y:00 P:26 SP:FF PPU: 21, 69 CYC:7857
C653  AD 02 20  LDA $2002 = FF                  A:00 X:FF Y:00 P:26 SP:FF PPU: 30, 69 CYC:7860
C656  29 80     AND #$80                        A:10 X:FF Y:00 P:24 SP:FF PPU: 42, 69 CYC:7864
C658  F0 F9     BEQ $C653                       A:00 X:FF Y:00 P:26 SP:FF PPU: 48, 69 CYC:7866
C653  AD 02 20  LDA $2002 = FF                  A:00 X:FF Y:00 P:26 SP:FF PPU: 57, 69 CYC:7869
C656  29 80     AND #$80                        A:10 X:FF Y:00 P:24 SP:FF PPU: 69, 69 CYC:7873
C658  F0 F9     BEQ $C653                       A:00 X:FF Y:00 P:26 SP:FF PPU: 75, 69 CYC:7875
C653  AD 02 20  LDA $2002 = FF                  A:00 X:FF Y:00 P:26 SP:FF PPU: 84, 69 CYC:7878
C656  29 80     AND #$80                        A:10 X:FF Y:00 P:24 SP:FF PPU: 96, 69 CYC:7882
C658  F0 F9     BEQ $C653                       A:00 X:FF Y:00 P:26 SP:FF PPU:102, 69 CYC:7884
C653  AD 02 20  LDA $2002 = FF                  A:00 X:FF Y:00 P:26 SP:FF PPU:111, 69 CYC:7887
C656  29 80     AND #$80                        A:10 X:FF Y:00 P:24 SP:FF PPU:123, 69 CYC:7891
C658  F0 F9     BEQ $C653                       A:00 X:FF Y:00 P:26 SP:FF PPU:129, 69 CYC:7893
C653  AD 02 20  LDA $2002 = FF                  A:00 X:FF Y:00 P:26 SP:FF PPU:138, 69 CYC:7896
C656  29 80     AND #$80                        A:10 X:FF Y:00 P:24 SP:FF PPU:150, 69 CYC:7900
C658  F0 F9     BEQ $C653                       A:00 X:FF Y:00 P:26 SP:FF PPU:156, 69 CYC:7902
C653  AD 02 20  LDA $2002 = FF                  A:00 X:FF Y:00 P:26 SP:FF PPU:165, 69 CYC:7905
C656  29 80     AND #$80                        A:10 X:FF Y:00 P:24 SP:FF PPU:177, 69 CYC:7909
C658  F0 F9     BEQ $C653                       A:00 X:FF Y:00 P:26 SP:FF PPU:183, 69 CYC:7911
C653  AD 02 20  LDA $2002 = FF                  A:00 X:FF Y:00 P:26 SP:FF PPU:192, 69 CYC:7914
C656  29 80     AND #$80                        A:10 X:FF Y:00 P:24 SP:FF PPU:204, 69 CYC:7918
C658  F0 F9     BEQ $C653                       A:00 X:FF Y:00 P:26 SP:FF PPU:210, 69 CYC:7920
C653  AD 02 20  LDA $2002 = FF                  A:00 X:FF Y:00 P:26 SP:FF PPU:219, 69 CYC:7923
C656  29 80     AND #$80                        A:10 X:FF Y:00 P:24 SP:FF PPU:231, 69 CYC:7927
C658  F0 F9     BEQ $C653                       A:00 X:FF Y:00 P:26 SP:FF PPU:237, 69 CYC:7929
C653  AD 02 20  LDA $2002 = FF                  A:00 X:FF Y:00 P:26 SP:FF PPU:246, 69 CYC:7932
C656  29 80     AND #$80                        A:10 X:FF Y:00 P:24 SP:FF PPU:258, 69 CYC:7936
C658  F0 F9     BEQ $C653                       A:00 X:FF Y:00 P:26 SP:FF PPU:264, 69 CYC:7938
C653  AD 02 20  LDA $2002 = FF                  A:00 X:FF Y:00 P:26 SP:FF PPU:273, 69 CYC:7941
C656  29 80     AND #$80                        A:10 X:FF Y:00 P:24 SP:FF PPU:285, 69 CYC:7945
C658  F0 F9     BEQ $C653                       A:00 X:FF Y:00 P:26 SP:FF PPU:291, 69 CYC:7947
C653  AD 02 20  LDA $2002 = FF                  A:00 X:FF Y:00 P:26 SP:FF PPU:300, 69 CYC:7950
C656  29 80     AND #$80                        A:10 X:FF Y:00 P:24 SP:FF PPU:312, 69 CYC:7954
C658  F0 F9     BEQ $C653                       A:00 X:FF Y:00 P:26 SP:FF PPU:318, 69 CYC:7956
C653  AD 02 20  LDA $2002 = FF                  A:00 X:FF Y:00 P:26 SP:FF PPU:327, 69 CYC:7959
C656  29 80     AND #$80                        A:10 X:FF Y:00 P:24 SP:FF PPU:339, 69 CYC:7963
C658  F0 F9     BEQ $C653                       A:00 X:FF Y:00 P:26 SP:FF PPU:  4, 70 CYC:7965
C653  AD 02 20  LDA $2002 = FF                  A:00 X:FF Y:00 P:26 SP:FF PPU: 13, 70 CYC:7968
C656  29 80     AND #$80                        A:10 X:FF Y:00 P:24 SP:FF PPU: 25, 70 CYC:7972
C658  F0 F9     BEQ $C653                       A:00 X:FF Y:00 P:26 SP:FF PPU: 31, 70 CYC:7974
C653  AD 02 20  LDA $2002 = FF                  A:00 X:FF Y:00 P:26 SP:FF PPU: 40, 70 CYC:7977
C656  29 80     AND #$80                        A:10 X:FF Y:00 P:24 SP:FF PPU: 52, 70 CYC:7981
C658  F0 F9     BEQ $C653                       A:00 X:FF Y:00 P:26 SP:FF PPU: 58, 70 CYC:7983
C653  AD 02 20  LDA $2002 = FF                  A:00 X:FF Y:00 P:26 SP:FF PPU: 67, 70 CYC:7986
C656  29 80     AND #$80                        A:10 X:FF Y:00 P:24 SP:FF PPU: 79, 70 CYC:7990
C658  F0 F9     BEQ $C653                       A:00 X:FF Y:00 P:26 SP:FF PPU: 85, 70 CYC:7992
C653  AD 02 20  LDA $2002 = FF                  A:00 X:FF Y:00 P:26 SP:FF PPU: 94, 70 CYC:7995
C656  29 80     AND #$80                        A:10 X:FF Y:00 P:24 SP:FF PPU:106, 70 CYC:7999
C658  F0 F9     BEQ $C653                       A:00 X:FF Y:00 P:26 SP:FF PPU:112, 70 CYC:8001
C653  AD 02 20  LDA $2002 = FF                  A:00 X:FF Y:00 P:26 SP:FF PPU:121, 70 CYC:8004
C656  29 80     AND #$80                        A:10 X:FF Y:00 P:24 SP:FF PPU:133, 70 CYC:8008
C658  F0 F9     BEQ $C653                       A:00 X:FF Y:00 P:26 SP:FF PPU:139, 70 CYC:8010
C653  AD 02 20  LDA $2002 = FF                  A:00 X:FF Y:00 P:26 SP:FF PPU:148, 70 CYC:8013
C656  29 80     AND #$80                        A:10 X:FF Y:00 P:24 SP:FF PPU:160, 70 CYC:8017
C658  F0 F9     BEQ $C653                       A:00 X:FF Y:00 P:26 SP:FF PPU:166, 70 CYC:8019
C653  AD 02 20  LDA $2002 = FF                  A:00 X:FF Y:00 P:26 SP:FF PPU:175, 70 CYC:8022
C656  29 80     AND #$80                        A:10 X:FF Y:00 P:24 SP:FF PPU:187, 70 CYC:8026
C658  F0 F9     BEQ $C653                       A:00 X:FF Y:00 P:26 SP:FF PPU:193, 70 CYC:8028
C653  AD 02 20  LDA $2002 = FF                  A:00 X:FF Y:00 P:26 SP:FF PPU:202, 70 CYC:8031
C656  29 80     AND #$80                        A:10 X:FF Y:00 P:24 SP:FF PPU:214, 70 CYC:8035
C658  F0 F9     BEQ $C653                       A:00 X:FF Y:00 P:26 SP:FF PPU:220, 70 CYC:8037
C653  AD 02 20  LDA $2002 = FF                  A:00 X:FF Y:00 P:26 SP:FF PPU:229, 70 CYC:8040
C656  29 80     AND #$80                        A:10 X:FF Y:00 P:24 SP:FF PPU:241, 70 CYC:8044
C658  F0 F9     BEQ $C653                       A:00 X:FF Y:00 P:26 SP:FF PPU:247, 70 CYC:8046
C653  AD 02 20  LDA $2002 = FF                  A:00 X:FF Y:00 P:26 SP:FF PPU:256, 70 CYC:8049
C656  29 80     AND #$80                        A:10 X:FF Y:00 P:24 SP:FF PPU:268, 70 CYC:8053
C658  F0 F9     BEQ $C653                       A:00 X:FF Y:00 P:26 SP:FF PPU:274, 70 CYC:8055
C653  AD 02 20  LDA $2002 = FF                  A:00 X:FF Y:00 P:26 SP:FF PPU:283, 70 CYC:8058
C656  29 80     AND #$80                        A:10 X:FF Y:00 P:24 SP:FF PPU:295, 70 CYC:8062
C658  F0 F9     BEQ $C653                       A:00 X:FF Y:00 P:26 SP:FF PPU:301, 70 CYC:8064
C653  AD 02 20  LDA $2002 = FF                  A:00 X:FF Y:00 P:26 SP:FF PPU:310, 70 CYC:8067
C656  29 80     AND #$80                        A:10 X:FF Y:00 P:24 SP:FF PPU:322, 70 CYC:8071
C658  F0 F9     BEQ $C653                       A:00 X:FF Y:00 P:26 SP:FF PPU:328, 70 CYC:8073
C653  AD 02 20  LDA $2002 = FF                  A:00 X:FF Y:00 P:26 SP:FF PPU:337, 70 CYC:8076
C656  29 80     AND #$80                        A:10 X:FF Y:00 P:24 SP:FF PPU:  8, 71 CYC:8080
C658  F0 F9     BEQ $C653                       A:00 X:FF Y:00 P:26 SP:FF PPU: 14, 71 CYC:8082
C653  AD 02 20  LDA $2002 = FF                  A:00 X:FF Y:00 P:26 SP:FF PPU: 23, 71 CYC:8085
C656  29 80     AND #$80                        A:10 X:FF Y:00 P:24 SP:FF PPU: 35, 71 CYC:8089
C658  F0 F9     BEQ $C653                       A:00 X:FF Y:00 P:26 SP:FF PPU: 41, 71 CYC:8091
C653  AD 02 20  LDA $2002 = FF                  A:00 X:FF Y:00 P:26 SP:FF PPU: 50, 71 CYC:8094
C656  29 80     AND #$80                        A:10 X:FF Y:00 P:24 SP:FF PPU: 62, 71 CYC:8098
C658  F0 F9     BEQ $C653                       A:00 X:FF Y:00 P:26 SP:FF PPU: 68, 71 CYC:8100
C653  AD 02 20  LDA $2002 = FF                  A:00 X:FF Y:00 P:26 SP:FF PPU: 77, 71 CYC:8103
C656  29 80     AND #$80                        A:10 X:FF Y:00 P:24 SP:FF PPU: 89, 71 CYC:8107
C658  F0 F9     BEQ $C653                       A:00 X:FF Y:00 P:26 SP:FF PPU: 95, 71 CYC:8109
C653  AD 02 20  LDA $2002 = FF                  A:00 X:FF Y:00 P:26 SP:FF PPU:104, 71 CYC:8112
C656  29 80     AND #$80                        A:10 X:FF Y:00 P:24 SP:FF PPU:116, 71 CYC:8116
C658  F0 F9     BEQ $C653                       A:00 X:FF Y:00 P:26 SP:FF PPU:122, 71 CYC:8118
C653  AD 02 20  LDA $2002 = FF                  A:00 X:FF Y:00 P:26 SP:FF PPU:131, 71 CYC:8121
C656  29 80     AND #$80                        A:10 X:FF Y:00 P:24 SP:FF PPU:143, 71 CYC:8125
C658  F0 F9     BEQ $C653                       A:00 X:FF Y:00 P:26 SP:FF PPU:149, 71 CYC:8127
C653  AD 02 20  LDA $2002 = FF                  A:00 X:FF Y:00 P:26 SP:FF PPU:158, 71 CYC:8130
C656  29 80     AND #$80                        A:10 X:FF Y:00 P:24 SP:FF PPU:170, 71 CYC:8134
C658  F0 F9     BEQ $C653                       A:00 X:FF Y:00 P:26 SP:FF PPU:176, 71 CYC:8136
C653  AD 02 20  LDA $2002 = FF                  A:00 X:FF Y:00 P:26 SP:FF PPU:185, 71 CYC:8139
C656  29 80     AND #$80                        A:10 X:FF Y:00 P:24 SP:FF PPU:197, 71 CYC:8143
C658  F0 F9     BEQ $C653                       A:00 X:FF Y:00 P:26 SP:FF PPU:203, 71 CYC:8145
C653  AD 02 20  LDA $2002 = FF                  A:00 X:FF Y:00 P:26 SP:FF PPU:212, 71 CYC:8148
C656  29 80     AND #$80                        A:10 X:FF Y:00 P:24 SP:FF PPU:224, 71 CYC:8152
C658  F0 F9     BEQ $C653                       A:00 X:FF Y:00 P:26 SP:FF PPU:230, 71 CYC:8154
C653  AD 02 20  LDA $2002 = FF                  A:00 X:FF Y:00 P:26 SP:FF PPU:239, 71 CYC:8157
C656  29 80     AND #$80                        A:10 X:FF Y:00 P:24 SP:FF PPU:251, 71 CYC:8161
C658  F0 F9     BEQ $C653                       A:00 X:FF Y:00 P:26 SP:FF PPU:257, 71 CYC:8163
C653  AD 02 20  LDA $2002 = FF                  A:00 X:FF Y:00 P:26 SP:FF PPU:266, 71 CYC:8166
C656  29 80     AND #$80                        A:10 X:FF Y:00 P:24 SP:FF PPU:278, 71 CYC:8170
C658  F0 F9     BEQ $C653                       A:00 X:FF Y:00 P:26 SP:FF PPU:284, 71 CYC:8172
C653  AD 02 20  LDA $2002 = FF                  A:00 X:FF Y:00 P:26 SP:FF PPU:293, 71 CYC:8175
C656  29 80     AND #$80                        A:10 X:FF Y:00 P:24 SP:FF PPU:305, 71 CYC:8179
C658  F0 F9     BEQ $C653                       A:00 X:FF Y:00 P:26 SP:FF PPU:311, 71 CYC:8181
C653  AD 02 20  LDA $2002 = FF                  A:00 X:FF Y:00 P:26 SP:FF PPU:320, 71 CYC:8184
C656  29 80     AND #$80                        A:10 X:FF Y:00 P:24 SP:FF PPU:332, 71 CYC:8188
C658  F0 F9     BEQ $C653                       A:00 X:FF Y:00 P:26 SP:FF PPU:338, 71 CYC:8190
C653  AD 02 20  LDA $2002 = FF                  A:00 X:FF Y:00 P:26 SP:FF PPU:  6, 72 CYC:8193
C656  29 80     AND #$80                        A:10 X:FF Y:00 P:24 SP:FF PPU: 18, 72 CYC:8197
C658  F0 F9     BEQ $C653                       A:00 X:FF Y:00 P:26 SP:FF PPU: 24, 72 CYC:8199
C653  AD 02 20  LDA $2002 = FF                  A:00 X:FF Y:00 P:26 SP:FF PPU: 33, 72 CYC:8202
C656  29 80     AND #$80                        A:10 X:FF Y:00 P:24 SP:FF PPU: 45, 72 CYC:8206
C658  F0 F9     BEQ $C653                       A:00 X:FF Y:00 P:26 SP:FF PPU: 51, 72 CYC:8208
C653  AD 02 20  LDA $2002 = FF                  A:00 X:FF Y:00 P:26 SP:FF PPU: 60, 72 CYC:8211
C656  29 80     AND #$80                        A:10 X:FF Y:00 P:24 SP:FF PPU: 72, 72 CYC:8215
C658  F0 F9     BEQ $C653                       A:00 X:FF Y:00 P:26 SP:FF PPU: 78, 72 CYC:8217
C653  AD 02 20  LDA $2002 = FF                  A:00 X:FF Y:00 P:26 SP:FF PPU: 87, 72 CYC:8220
C656  29 80     AND #$80                        A:10 X:FF Y:00 P:24 SP:FF PPU: 99, 72 CYC:8224
C658  F0 F9     BEQ $C653                       A:00 X:FF Y:00 P:26 SP:FF PPU:105, 72 CYC:8226
C653  AD 02 20  LDA $2002 = FF                  A:00 X:FF Y:00 P:26 SP:FF PPU:114, 72 CYC:8229
C656  29 80     AND #$80                        A:10 X:FF Y:00 P:24 SP:FF PPU:126, 72 CYC:8233
C658  F0 F9     BEQ $C653                       A:00 X:FF Y:00 P:26 SP:FF PPU:132, 72 CYC:8235
C653  AD 02 20  LDA $2002 = FF                  A:00 X:FF Y:00 P:26 SP:FF PPU:141, 72 CYC:8238
C656  29 80     AND #$80                        A:10 X:FF Y:00 P:24 SP:FF PPU:153, 72 CYC:8242
C658  F0 F9     BEQ $C653                       A:00 X:FF Y:00 P:26 SP:FF PPU:159, 72 CYC:8244
C653  AD 02 20  LDA $2002 = FF                  A:00 X:FF Y:00 P:26 SP:FF PPU:168, 72 CYC:8247
C656  29 80     AND #$80                        A:10 X:FF Y:00 P:24 SP:FF PPU:180, 72 CYC:8251
C658  F0 F9     BEQ $C653                       A:00 X:FF Y:00 P:26 SP:FF PPU:186, 72 CYC:8253
C653  AD 02 20  LDA $2002 = FF                  A:00 X:FF Y:00 P:26 SP:FF PPU:195, 72 CYC:8256
C656  29 80     AND #$80                        A:10 X:FF Y:00 P:24 SP:FF PPU:207, 72 CYC:8260
C658  F0 F9     BEQ $C653                       A:00 X:FF Y:00 P:26 SP:FF PPU:213, 72 CYC:8262
C653  AD 02 20  LDA $2002 = FF                  A:00 X:FF Y:00 P:26 SP:FF PPU:222, 72 CYC:8265
C656  29 80     AND #$80                        A:10 X:FF Y:00 P:24 SP:FF PPU:234, 72 CYC:8269
C658  F0 F9     BEQ $C653                       A:00 X:FF Y:00 P:26 SP:FF PPU:240, 72 CYC:8271
C653  AD 02 20  LDA $2002 = FF                  A:00 X:FF Y:00 P:26 SP:FF PPU:249, 72 CYC:8274
C656  29 80     AND #$80                        A:10 X:FF Y:00 P:24 SP:FF PPU:261, 72 CYC:8278
C658  F0 F9     BEQ $C653                       A:00 X:FF Y:00 P:26 SP:FF PPU:267, 72 CYC:8280
C653  AD 02 20  LDA $2002 = FF                  A:00 X:FF Y:00 P:26 SP:FF PPU:276, 72 CYC:8283
C656  29 80     AND #$80                        A:10 X:FF Y:00 P:24 SP:FF PPU:288, 72 CYC:8287
C658  F0 F9     BEQ $C653                       A:00 X:FF Y:00 P:26 SP:FF PPU:294, 72 CYC:8289
C653  AD 02 20  LDA $2002 = FF                  A:00 X:FF Y:00 P:26 SP:FF PPU:303, 72 CYC:8292
C656  29 80     AND #$80                        A:10 X:FF Y:00 P:24 SP:FF PPU:315, 72 CYC:8296
C658  F0 F9     BEQ $C653                       A:00 X:FF Y:00 P:26 SP:FF PPU:321, 72 CYC:8298
C653  AD 02 20  LDA $2002 = FF                  A:00 X:FF Y:00 P:26 SP:FF PPU:330, 72 CYC:8301
C656  29 80     AND #$80                        A:10 X:FF Y:00 P:24 SP:FF PPU:  1, 73 CYC:8305
C658  F0 F9     BEQ $C653                       A:00 X:FF Y:00 P:26 SP:FF PPU:  7, 73 CYC:8307
C653  AD 02 20  LDA $2002 = FF                  A:00 X:FF Y:00 P:26 SP:FF PPU: 16, 73 CYC:8310
C656  29 80     AND #$80                        A:10 X:FF Y:00 P:24 SP:FF PPU: 28, 73 CYC:8314
C658  F0 F9     BEQ $C653                       A:00 X:FF Y:00 P:26 SP:FF PPU: 34, 73 CYC:8316
C653  AD 02 20  LDA $2002 = FF                  A:00 X:FF Y:00 P:26 SP:FF PPU: 43, 73 CYC:8319
C656  29 80     AND #$80                        A:10 X:FF Y:00 P:24 SP:FF PPU: 55, 73 CYC:8323
C658  F0 F9     BEQ $C653                       A:00 X:FF Y:00 P:26 SP:FF PPU: 61, 73 CYC:8325
C653  AD 02 20  LDA $2002 = FF                  A:00 X:FF Y:00 P:26 SP:FF PPU: 70, 73 CYC:8328
C656  29 80     AND #$80                        A:10 X:FF Y:00 P:24 SP:FF PPU: 82, 73 CYC:8332
C658  F0 F9     BEQ $C653                       A:00 X:FF Y:00 P:26 SP:FF PPU: 88, 73 CYC:8334
C653  AD 02 20  LDA $2002 = FF                  A:00 X:FF Y:00 P:26 SP:FF PPU: 97, 73 CYC:8337
C656  29 80     AND #$80                        A:10 X:FF Y:00 P:24 SP:FF PPU:109, 73 CYC:8341
C658  F0 F9     BEQ $C653                       A:00 X:FF Y:00 P:26 SP:FF PPU:115, 73 CYC:8343
C653  AD 02 20  LDA $2002 = FF                  A:00 X:FF Y:00 P:26 SP:FF PPU:124, 73 CYC:8346
C656  29 80     AND #$80                        A:10 X:FF Y:00 P:24 SP:FF PPU:136, 73 CYC:8350
C658  F0 F9     BEQ $C653                       A:00 X:FF Y:00 P:26 SP:FF PPU:142, 73 CYC:8352
C653  AD 02 20  LDA $2002 = FF                  A:00 X:FF Y:00 P:26 SP:FF PPU:151, 73 CYC:8355
C656  29 80     AND #$80                        A:10 X:FF Y:00 P:24 SP:FF PPU:163, 73 CYC:8359
C658  F0 F9     BEQ $C653                       A:00 X:FF Y:00 P:26 SP:FF PPU:169, 73 CYC:8361
C653  AD 02 20  LDA $2002 = FF                  A:00 X:FF Y:00 P:26 SP:FF PPU:178, 73 CYC:8364
C656  29 80     AND #$80                        A:10 X:FF Y:00 P:24 SP:FF PPU:190, 73 CYC:8368
C658  F0 F9     BEQ $C653                       A:00 X:FF Y:00 P:26 SP:FF PPU:196, 73 CYC:8370
C653  AD 02 20  LDA $2002 = FF                  A:00 X:FF Y:00 P:26 SP:FF PPU:205, 73 CYC:8373
C656  29 80     AND #$80                        A:10 X:FF Y:00 P:24 SP:FF PPU:217, 73 CYC:8377
C658  F0 F9     BEQ $C653                       A:00 X:FF Y:00 P:26 SP:FF PPU:223, 73 CYC:8379
C653  AD 02 20  LDA $2002 = FF                  A:00 X:FF Y:00 P:26 SP:FF PPU:232, 73 CYC:8382
C656  29 80     AND #$80                        A:10 X:FF Y:00 P:24 SP:FF PPU:244, 73 CYC:8386
C658  F0 F9     BEQ $C653                       A:00 X:FF Y:00 P:26 SP:FF PPU:250, 73 CYC:8388
C653  AD 02 20  LDA $2002 = FF                  A:00 X:FF Y:00 P:26 SP:FF PPU:259, 73 CYC:8391
C656  29 80     AND #$80                        A:10 X:FF Y:00 P:24 SP:FF PPU:271, 73 CYC:8395
C658  F0 F9     BEQ $C653                       A:00 X:FF Y:00 P:26 SP:FF PPU:277, 73 CYC:8397
C653  AD 02 20  LDA $2002 = FF                  A:00 X:FF Y:00 P:26 SP:FF PPU:286, 73 CYC:8400
C656  29 80     AND #$80                        A:10 X:FF Y:00 P:24 SP:FF PPU:298, 73 CYC:8404
C658  F0 F9     BEQ $C653                       A:00 X:FF Y:00 P:26 SP:FF PPU:304, 73 CYC:8406
C653  AD 02 20  LDA $2002 = FF                  A:00 X:FF Y:00 P:26 SP:FF PPU:313, 73 CYC:8409
C656  29 80     AND #$80                        A:10 X:FF Y:00 P:24 SP:FF PPU:325, 73 CYC:8413
C658  F0 F9     BEQ $C653                       A:00 X:FF Y:00 P:26 SP:FF PPU:331, 73 CYC:8415
C653  AD 02 20  LDA $2002 = FF                  A:00 X:FF Y:00 P:26 SP:FF PPU:340, 73 CYC:8418
C656  29 80     AND #$80                        A:10 X:FF Y:00 P:24 SP:FF PPU: 11, 74 CYC:8422
C658  F0 F9     BEQ $C653                       A:00 X:FF Y:00 P:26 SP:FF PPU: 17, 74 CYC:8424
C653  AD 02 20  LDA $2002 = FF                  A:00 X:FF Y:00 P:26 SP:FF PPU: 26, 74 CYC:8427
C656  29 80     AND #$80                        A:10 X:FF Y:00 P:24 SP:FF PPU: 38, 74 CYC:8431
C658  F0 F9     BEQ $C653                       A:00 X:FF Y:00 P:26 SP:FF PPU: 44, 74 CYC:8433
C653  AD 02 20  LDA $2002 = FF                  A:00 X:FF Y:00 P:26 SP:FF PPU: 53, 74 CYC:8436
C656  29 80     AND #$80                        A:10 X:FF Y:00 P:24 SP:FF PPU: 65, 74 CYC:8440
C658  F0 F9     BEQ $C653                       A:00 X:FF Y:00 P:26 SP:FF PPU: 71, 74 CYC:8442
C653  AD 02 20  LDA $2002 = FF                  A:00 X:FF Y:00 P:26 SP:FF PPU: 80, 74 CYC:8445
C656  29 80     AND #$80                        A:10 X:FF Y:00 P:24 SP:FF PPU: 92, 74 CYC:8449
C658  F0 F9     BEQ $C653                       A:00 X:FF Y:00 P:26 SP:FF PPU: 98, 74 CYC:8451
C653  AD 02 20  LDA $2002 = FF                  A:00 X:FF Y:00 P:26 SP:FF PPU:107, 74 CYC:8454
C656  29 80     AND #$80                        A:10 X:FF Y:00 P:24 SP:FF PPU:119, 74 CYC:8458
C658  F0 F9     BEQ $C653                       A:00 X:FF Y:00 P:26 SP:FF PPU:125, 74 CYC:8460
C653  AD 02 20  LDA $2002 = FF                  A:00 X:FF Y:00 P:26 SP:FF PPU:134, 74 CYC:8463
C656  29 80     AND #$80                        A:10 X:FF Y:00 P:24 SP:FF PPU:146, 74 CYC:8467
C658  F0 F9     BEQ $C653                       A:00 X:FF Y:00 P:26 SP:FF PPU:152, 74 CYC:8469
C653  AD 02 20  LDA $2002 = FF                  A:00 X:FF Y:00 P:26 SP:FF PPU:161, 74 CYC:8472
C656  29 80     AND #$80                        A:10 X:FF Y:00 P:24 SP:FF PPU:173, 74 CYC:8476
C658  F0 F9     BEQ $C653                       A:00 X:FF Y:00 P:26 SP:FF PPU:179, 74 CYC:8478
C653  AD 02 20  LDA $2002 = FF                  A:00 X:FF Y:00 P:26 SP:FF PPU:188, 74 CYC:8481
C656  29 80     AND #$80                        A:10 X:FF Y:00 P:24 SP:FF PPU:200, 74 CYC:8485
C658  F0 F9     BEQ $C653                       A:00 X:FF Y:00 P:26 SP:FF PPU:206, 74 CYC:8487
C653  AD 02 20  LDA $2002 = FF                  A:00 X:FF Y:00 P:26 SP:FF PPU:215, 74 CYC:8490
C656  29 80     AND #$80                        A:10 X:FF Y:00 P:24 SP:FF PPU:227, 74 CYC:8494
C658  F0 F9     BEQ $C653                       A:00 X:FF Y:00 P:26 SP:FF PPU:233, 74 CYC:8496
C653  AD 02 20  LDA $2002 = FF                  A:00 X:FF Y:00 P:26 SP:FF PPU:242, 74 CYC:8499
C656  29 80     AND #$80                        A:10 X:FF Y:00 P:24 SP:FF PPU:254, 74 CYC:8503
C658  F0 F9     BEQ $C653                       A:00 X:FF Y:00 P:26 SP:FF PPU:260, 74 CYC:8505
C653  AD 02 20  LDA $2002 = FF                  A:00 X:FF Y:00 P:26 SP:FF PPU:269, 74 CYC:8508
C656  29 80     AND #$80                        A:10 X:FF Y:00 P:24 SP:FF PPU:281, 74 CYC:8512
C658  F0 F9     BEQ $C653                       A:00 X:FF Y:00 P:26 SP:FF PPU:287, 74 CYC:8514
C653  AD 02 20  LDA $2002 = FF                  A:00 X:FF Y:00 P:26 SP:FF PPU:296, 74 CYC:8517
C656  29 80     AND #$80                        A:10 X:FF Y:00 P:24 SP:FF PPU:308, 74 CYC:8521
C658  F0 F9     BEQ $C653                       A:00 X:FF Y:00 P:26 SP:FF PPU:314, 74 CYC:8523
C653  AD 02 20  LDA $2002 = FF                  A:00 X:FF Y:00 P:26 SP:FF PPU:323, 74 CYC:8526
C656  29 80     AND #$80                        A:10 X:FF Y:00 P:24 SP:FF PPU:335, 74 CYC:8530
C658  F0 F9     BEQ $C653                       A:00 X:FF Y:00 P:26 SP:FF PPU:  0, 75 CYC:8532
C653  AD 02 20  LDA $2002 = FF                  A:00 X:FF Y:00 P:26 SP:FF PPU:  9, 75 CYC:8535
C656  29 80     AND #$80                        A:10 X:FF Y:00 P:24 SP:FF PPU: 21, 75 CYC:8539
C658  F0 F9     BEQ $C653                       A:00 X:FF Y:00 P:26 SP:FF PPU: 27, 75 CYC:8541
C653  AD 02 20  LDA $2002 = FF                  A:00 X:FF Y:00 P:26 SP:FF PPU: 36, 75 CYC:8544
C656  29 80     AND #$80                        A:10 X:FF Y:00 P:24 SP:FF PPU: 48, 75 CYC:8548
C658  F0 F9     BEQ $C653                       A:00 X:FF Y:00 P:26 SP:FF PPU: 54, 75 CYC:8550
C653  AD 02 20  LDA $2002 = FF                  A:00 X:FF Y:00 P:26 SP:FF PPU: 63, 75 CYC:8553
C656  29 80     AND #$80                        A:10 X:FF Y:00 P:24 SP:FF PPU: 75, 75 CYC:8557
C658  F0 F9     BEQ $C653                       A:00 X:FF Y:00 P:26 SP:FF PPU: 81, 75 CYC:8559
C653  AD 02 20  LDA $2002 = FF                  A:00 X:FF Y:00 P:26 SP:FF PPU: 90, 75 CYC:8562
C656  29 80     AND #$80                        A:10 X:FF Y:00 P:24 SP:FF PPU:102, 75 CYC:8566
C658  F0 F9     BEQ $C653                       A:00 X:FF Y:00 P:26 SP:FF PPU:108, 75 CYC:8568
C653  AD 02 20  LDA $2002 = FF                  A:00 X:FF Y:00 P:26 SP:FF PPU:117, 75 CYC:8571
C656  29 80     AND #$80                        A:10 X:FF Y:00 P:24 SP:FF PPU:129, 75 CYC:8575
C658  F0 F9     BEQ $C653                       A:00 X:FF Y:00 P:26 SP:FF PPU:135, 75 CYC:8577
C653  AD 02 20  LDA $2002 = FF                  A:00 X:FF Y:00 P:26 SP:FF PPU:144, 75 CYC:8580
C656  29 80     AND #$80                        A:10 X:FF Y:00 P:24 SP:FF PPU:156, 75 CYC:8584
C658  F0 F9     BEQ $C653                       A:00 X:FF Y:00 P:26 SP:FF PPU:162, 75 CYC:8586
C653  AD 02 20  LDA $2002 = FF                  A:00 X:FF Y:00 P:26 SP:FF PPU:171, 75 CYC:8589
C656  29 80     AND #$80                        A:10 X:FF Y:00 P:24 SP:FF PPU:183, 75 CYC:8593
C658  F0 F9     BEQ $C653                       A:00 X:FF Y:00 P:26 SP:FF PPU:189, 75 CYC:8595
C653  AD 02 20  LDA $2002 = FF                  A:00 X:FF Y:00 P:26 SP:FF PPU:198, 75 CYC:8598
C656  29 80     AND #$80                        A:10 X:FF Y:00 P:24 SP:FF PPU:210, 75 CYC:8602
C658  F0 F9     BEQ $C653                       A:00 X:FF Y:00 P:26 SP:FF PPU:216, 75 CYC:8604
C653  AD 02 20  LDA $2002 = FF                  A:00 X:FF Y:00 P:26 SP:FF PPU:225, 75 CYC:8607
C656  29 80     AND #$80                        A:10 X:FF Y:00 P:24 SP:FF PPU:237, 75 CYC:8611
C658  F0 F9     BEQ $C653                       A:00 X:FF Y:00 P:26 SP:FF PPU:243, 75 CYC:8613
C653  AD 02 20  LDA $2002 = FF                  A:00 X:FF Y:00 P:26 SP:FF PPU:252, 75 CYC:8616
C656  29 80     AND #$80                        A:10 X:FF Y:00 P:24 SP:FF PPU:264, 75 CYC:8620
C658  F0 F9     BEQ $C653                       A:00 X:FF Y:00 P:26 SP:FF PPU:270, 75 CYC:8622
C653  AD 02 20  LDA $2002 = FF                  A:00 X:FF Y:00 P:26 SP:FF PPU:279, 75 CYC:8625
C656  29 80     AND #$80                        A:10 X:FF Y:00 P:24 SP:FF PPU:291, 75 CYC:8629
C658  F0 F9     BEQ $C653                       A:00 X:FF Y:00 P:26 SP:FF PPU:297, 75 CYC:8631
C653  AD 02 20  LDA $2002 = FF                  A:00 X:FF Y:00 P:26 SP:FF PPU:306, 75 CYC:8634
C656  29 80     AND #$80                        A:10 X:FF Y:00 P:24 SP:FF PPU:318, 75 CYC:8638
C658  F0 F9     BEQ $C653                       A:00 X:FF Y:00 P:26 SP:FF PPU:324, 75 CYC:8640
C653  AD 02 20  LDA $2002 = FF                  A:00 X:FF Y:00 P:26 SP:FF PPU:333, 75 CYC:8643
C656  29 80     AND #$80                        A:10 X:FF Y:00 P:24 SP:FF PPU:  4, 76 CYC:8647
C658  F0 F9     BEQ $C653                       A:00 X:FF Y:00 P:26 SP:FF PPU: 10, 76 CYC:8649
C653  AD 02 20  LDA $2002 = FF                  A:00 X:FF Y:00 P:26 SP:FF PPU: 19, 76 CYC:8652
C656  29 80     AND #$80                        A:10 X:FF Y:00 P:24 SP:FF PPU: 31, 76 CYC:8656
C658  F0 F9     BEQ $C653                       A:00 X:FF Y:00 P:26 SP:FF PPU: 37, 76 CYC:8658
C653  AD 02 20  LDA $2002 = FF                  A:00 X:FF Y:00 P:26 SP:FF PPU: 46, 76 CYC:8661
C656  29 80     AND #$80                        A:10 X:FF Y:00 P:24 SP:FF PPU: 58, 76 CYC:8665
C658  F0 F9     BEQ $C653                       A:00 X:FF Y:00 P:26 SP:FF PPU: 64, 76 CYC:8667
C653  AD 02 20  LDA $2002 = FF                  A:00 X:FF Y:00 P:26 SP:FF PPU: 73, 76 CYC:8670
C656  29 80     AND #$80                        A:10 X:FF Y:00 P:24 SP:FF PPU: 85, 76 CYC:8674
C658  F0 F9     BEQ $C653                       A:00 X:FF Y:00 P:26 SP:FF PPU: 91, 76 CYC:8676
C653  AD 02 20  LDA $2002 = FF                  A:00 X:FF Y:00 P:26 SP:FF PPU:100, 76 CYC:8679
C656  29 80     AND #$80                        A:10 X:FF Y:00 P:24 SP:FF PPU:112, 76 CYC:8683
C658  F0 F9     BEQ $C653                       A:00 X:FF Y:00 P:26 SP:FF PPU:118, 76 CYC:8685
C653  AD 02 20  LDA $2002 = FF                  A:00 X:FF Y:00 P:26 SP:FF PPU:127, 76 CYC:8688
C656  29 80     AND #$80                        A:10 X:FF Y:00 P:24 SP:FF PPU:139, 76 CYC:8692
C658  F0 F9     BEQ $C653                       A:00 X:FF Y:00 P:26 SP:FF PPU:145, 76 CYC:8694
C653  AD 02 20  LDA $2002 = FF                  A:00 X:FF Y:00 P:26 SP:FF PPU:154, 76 CYC:8697
C656  29 80     AND #$80                        A:10 X:FF Y:00 P:24 SP:FF PPU:166, 76 CYC:8701
C658  F0 F9     BEQ $C653                       A:00 X:FF Y:00 P:26 SP:FF PPU:172, 76 CYC:8703
C653  AD 02 20  LDA $2002 = FF                  A:00 X:FF Y:00 P:26 SP:FF PPU:181, 76 CYC:8706
C656  29 80     AND #$80                        A:10 X:FF Y:00 P:24 SP:FF PPU:193, 76 CYC:8710
C658  F0 F9     BEQ $C653                       A:00 X:FF Y:00 P:26 SP:FF PPU:199, 76 CYC:8712
C653  AD 02 20  LDA $2002 = FF                  A:00 X:FF Y:00 P:26 SP:FF PPU:208, 76 CYC:8715
C656  29 80     AND #$80                        A:10 X:FF Y:00 P:24 SP:FF PPU:220, 76 CYC:8719
C658  F0 F9     BEQ $C653                       A:00 X:FF Y:00 P:26 SP:FF PPU:226, 76 CYC:8721
C653  AD 02 20  LDA $2002 = FF                  A:00 X:FF Y:00 P:26 SP:FF PPU:235, 76 CYC:8724
C656  29 80     AND #$80                        A:10 X:FF Y:00 P:24 SP:FF PPU:247, 76 CYC:8728
C658  F0 F9     BEQ $C653                       A:00 X:FF Y:00 P:26 SP:FF PPU:253, 76 CYC:8730
C653  AD 02 20  LDA $2002 = FF                  A:00 X:FF Y:00 P:26 SP:FF PPU:262, 76 CYC:8733
C656  29 80     AND #$80                        A:10 X:FF Y:00 P:24 SP:FF PPU:274, 76 CYC:8737
C658  F0 F9     BEQ $C653                       A:00 X:FF Y:00 P:26 SP:FF PPU:280, 76 CYC:8739
C653  AD 02 20  LDA $2002 = FF                  A:00 X:FF Y:00 P:26 SP:FF PPU:289, 76 CYC:8742
C656  29 80     AND #$80                        A:10 X:FF Y:00 P:24 SP:FF PPU:301, 76 CYC:8746
C658  F0 F9     BEQ $C653                       A:00 X:FF Y:00 P:26 SP:FF PPU:307, 76 CYC:8748
C653  AD 02 20  LDA $2002 = FF                  A:00 X:FF Y:00 P:26 SP:FF PPU:316, 76 CYC:8751
C656  29 80     AND #$80                        A:10 X:FF Y:00 P:24 SP:FF PPU:328, 76 CYC:8755
C658  F0 F9     BEQ $C653                       A:00 X:FF Y:00 P:26 SP:FF PPU:334, 76 CYC:8757
C653  AD 02 20  LDA $2002 = FF                  A:00 X:FF Y:00 P:26 SP:FF PPU:  2, 77 CYC:8760
C656  29 80     AND #$80                        A:10 X:FF Y:00 P:24 SP:FF PPU: 14, 77 CYC:8764
C658  F0 F9     BEQ $C653                       A:00 X:FF Y:00 P:26 SP:FF PPU: 20, 77 CYC:8766
C653  AD 02 20  LDA $2002 = FF                  A:00 X:FF Y:00 P:26 SP:FF PPU: 29, 77 CYC:8769
C656  29 80     AND #$80                        A:10 X:FF Y:00 P:24 SP:FF PPU: 41, 77 CYC:8773
C658  F0 F9     BEQ $C653                       A:00 X:FF Y:00 P:26 SP:FF PPU: 47, 77 CYC:8775
C653  AD 02 20  LDA $2002 = FF                  A:00 X:FF Y:00 P:26 SP:FF PPU: 56, 77 CYC:8778
C656  29 80     AND #$80                        A:10 X:FF Y:00 P:24 SP:FF PPU: 68, 77 CYC:8782
C658  F0 F9     BEQ $C653                       A:00 X:FF Y:00 P:26 SP:FF PPU: 74, 77 CYC:8784
C653  AD 02 20  LDA $2002 = FF                  A:00 X:FF Y:00 P:26 SP:FF PPU: 83, 77 CYC:8787
C656  29 80     AND #$80                        A:10 X:FF Y:00 P:24 SP:FF PPU: 95, 77 CYC:8791
C658  F0 F9     BEQ $C653                       A:00 X:FF Y:00 P:26 SP:FF PPU:101, 77 CYC:8793
C653  AD 02 20  LDA $2002 = FF                  A:00 X:FF Y:00 P:26 SP:FF PPU:110, 77 CYC:8796
C656  29 80     AND #$80                        A:10 X:FF Y:00 P:24 SP:FF PPU:122, 77 CYC:8800
C658  F0 F9     BEQ $C653                       A:00 X:FF Y:00 P:26 SP:FF PPU:128, 77 CYC:8802
C653  AD 02 20  LDA $2002 = FF                  A:00 X:FF Y:00 P:26 SP:FF PPU:137, 77 CYC:8805
C656  29 80     AND #$80                        A:10 X:FF Y:00 P:24 SP:FF PPU:149, 77 CYC:8809
C658  F0 F9     BEQ $C653                       A:00 X:FF Y:00 P:26 SP:FF PPU:155, 77 CYC:8811
C653  AD 02 20  LDA $2002 = FF                  A:00 X:FF Y:00 P:26 SP:FF PPU:164, 77 CYC:8814
C656  29 80     AND #$80                        A:10 X:FF Y:00 P:24 SP:FF PPU:176, 77 CYC:8818
C658  F0 F9     BEQ $C653                       A:00 X:FF Y:00 P:26 SP:FF PPU:182, 77 CYC:8820
C653  AD 02 20  LDA $2002 = FF                  A:00 X:FF Y:00 P:26 SP:FF PPU:191, 77 CYC:8823
C656  29 80     AND #$80                        A:10 X:FF Y:00 P:24 SP:FF PPU:203, 77 CYC:8827
C658  F0 F9     BEQ $C653                       A:00 X:FF Y:00 P:26 SP:FF PPU:209, 77 CYC:8829
C653  AD 02 20  LDA $2002 = FF                  A:00 X:FF Y:00 P:26 SP:FF PPU:218, 77 CYC:8832
C656  29 80     AND #$80                        A:10 X:FF Y:00 P:24 SP:FF PPU:230, 77 CYC:8836
C658  F0 F9     BEQ $C653                       A:00 X:FF Y:00 P:26 SP:FF PPU:236, 77 CYC:8838
C653  AD 02 20  LDA $2002 = FF                  A:00 X:FF Y:00 P:26 SP:FF PPU:245, 77 CYC:8841
C656  29 80     AND #$80                        A:10 X:FF Y:00 P:24 SP:FF PPU:257, 77 CYC:8845
C658  F0 F9     BEQ $C653                       A:00 X:FF Y:00 P:26 SP:FF PPU:263, 77 CYC:8847
C653  AD 02 20  LDA $2002 = FF                  A:00 X:FF Y:00 P:26 SP:FF PPU:272, 77 CYC:8850
C656  29 80     AND #$80                        A:10 X:FF Y:00 P:24 SP:FF PPU:284, 77 CYC:8854
C658  F0 F9     BEQ $C653                       A:00 X:FF Y:00 P:26 SP:FF PPU:290, 77 CYC:8856
C653  AD 02 20  LDA $2002 = FF                  A:00 X:FF Y:00 P:26 SP:FF PPU:299, 77 CYC:8859
C656  29 80     AND #$80                        A:10 X:FF Y:00 P:24 SP:FF PPU:311, 77 CYC:8863
C658  F0 F9     BEQ $C653                       A:00 X:FF Y:00 P:26 SP:FF PPU:317, 77 CYC:8865
C653  AD 02 20  LDA $2002 = FF                  A:00 X:FF Y:00 P:26 SP:FF PPU:326, 77 CYC:8868
C656  29 80     AND #$80                        A:10 X:FF Y:00 P:24 SP:FF PPU:338, 77 CYC:8872
C658  F0 F9     BEQ $C653                       A:00 X:FF Y:00 P:26 SP:FF PPU:  3, 78 CYC:8874
C653  AD 02 20  LDA $2002 = FF                  A:00 X:FF Y:00 P:26 SP:FF PPU: 12, 78 CYC:8877
C656  29 80     AND #$80                        A:10 X:FF Y:00 P:24 SP:FF PPU: 24, 78 CYC:8881
C658  F0 F9     BEQ $C653                       A:00 X:FF Y:00 P:26 SP:FF PPU: 30, 78 CYC:8883
C653  AD 02 20  LDA $2002 = FF                  A:00 X:FF Y:00 P:26 SP:FF PPU: 39, 78 CYC:8886
C656  29 80     AND #$80                        A:10 X:FF Y:00 P:24 SP:FF PPU: 51, 78 CYC:8890
C658  F0 F9     BEQ $C653                       A:00 X:FF Y:00 P:26 SP:FF PPU: 57, 78 CYC:8892
C653  AD 02 20  LDA $2002 = FF                  A:00 X:FF Y:00 P:26 SP:FF PPU: 66, 78 CYC:8895
C656  29 80     AND #$80                        A:10 X:FF Y:00 P:24 SP:FF PPU: 78, 78 CYC:8899
C658  F0 F9     BEQ $C653                       A:00 X:FF Y:00 P:26 SP:FF PPU: 84, 78 CYC:8901
C653  AD 02 20  LDA $2002 = FF                  A:00 X:FF Y:00 P:26 SP:FF PPU: 93, 78 CYC:8904
C656  29 80     AND #$80                        A:10 X:FF Y:00 P:24 SP:FF PPU:105, 78 CYC:8908
C658  F0 F9     BEQ $C653                       A:00 X:FF Y:00 P:26 SP:FF PPU:111, 78 CYC:8910
C653  AD 02 20  LDA $2002 = FF                  A:00 X:FF Y:00 P:26 SP:FF PPU:120, 78 CYC:8913
C656  29 80     AND #$80                        A:10 X:FF Y:00 P:24 SP:FF PPU:132, 78 CYC:8917
C658  F0 F9     BEQ $C653                       A:00 X:FF Y:00 P:26 SP:FF PPU:138, 78 CYC:8919
C653  AD 02 20  LDA $2002 = FF                  A:00 X:FF Y:00 P:26 SP:FF PPU:147, 78 CYC:8922
C656  29 80     AND #$80                        A:10 X:FF Y:00 P:24 SP:FF PPU:159, 78 CYC:8926
C658  F0 F9     BEQ $C653                       A:00 X:FF Y:00 P:26 SP:FF PPU:165, 78 CYC:8928
C653  AD 02 20  LDA $2002 = FF                  A:00 X:FF Y:00 P:26 SP:FF PPU:174, 78 CYC:8931
C656  29 80     AND #$80                        A:10 X:FF Y:00 P:24 SP:FF PPU:186, 78 CYC:8935
C658  F0 F9     BEQ $C653                       A:00 X:FF Y:00 P:26 SP:FF PPU:192, 78 CYC:8937
C653  AD 02 20  LDA $2002 = FF                  A:00 X:FF Y:00 P:26 SP:FF PPU:201, 78 CYC:8940
C656  29 80     AND #$80                        A:10 X:FF Y:00 P:24 SP:FF PPU:213, 78 CYC:8944
C658  F0 F9     BEQ $C653                       A:00 X:FF Y:00 P:26 SP:FF PPU:219, 78 CYC:8946
C653  AD 02 20  LDA $2002 = FF                  A:00 X:FF Y:00 P:26 SP:FF PPU:228, 78 CYC:8949
C656  29 80     AND #$80                        A:10 X:FF Y:00 P:24 SP:FF PPU:240, 78 CYC:8953
C658  F0 F9     BEQ $C653                       A:00 X:FF Y:00 P:26 SP:FF PPU:246, 78 CYC:8955
C653  AD 02 20  LDA $2002 = FF                  A:00 X:FF Y:00 P:26 SP:FF PPU:255, 78 CYC:8958
C656  29 80     AND #$80                        A:10 X:FF Y:00 P:24 SP:FF PPU:267, 78 CYC:8962
C658  F0 F9     BEQ $C653                       A:00 X:FF Y:00 P:26 SP:FF PPU:273, 78 CYC:8964
C653  AD 02 20  LDA $2002 = FF                  A:00 X:FF Y:00 P:26 SP:FF PPU:282, 78 CYC:8967
C656  29 80     AND #$80                        A:10 X:FF Y:00 P:24 SP:FF PPU:294, 78 CYC:8971
C658  F0 F9     BEQ $C653                       A:00 X:FF Y:00 P:26 SP:FF PPU:300, 78 CYC:8973
C653  AD 02 20  LDA $2002 = FF                  A:00 X:FF Y:00 P:26 SP:FF PPU:309, 78 CYC:8976
C656  29 80     AND #$80                        A:10 X:FF Y:00 P:24 SP:FF PPU:321, 78 CYC:8980
C658  F0 F9     BEQ $C653                       A:00 X:FF Y:00 P:26 SP:FF PPU:327, 78 CYC:8982
C653  AD 02 20  LDA $2002 = FF                  A:00 X:FF Y:00 P:26 SP:FF PPU:336, 78 CYC:8985
C656  29 80     AND #$80                        A:10 X:FF Y:00 P:24 SP:FF PPU:  7, 79 CYC:8989
C658  F0 F9     BEQ $C653                       A:00 X:FF Y:00 P:26 SP:FF PPU: 13, 79 CYC:8991
C653  AD 02 20  LDA $2002 = FF                  A:00 X:FF Y:00 P:26 SP:FF PPU: 22, 79 CYC:8994
C656  29 80     AND #$80                        A:10 X:FF Y:00 P:24 SP:FF PPU: 34, 79 CYC:8998
C658  F0 F9     BEQ $C653                       A:00 X:FF Y:00 P:26 SP:FF PPU: 40, 79 CYC:9000
C653  AD 02 20  LDA $2002 = FF                  A:00 X:FF Y:00 P:26 SP:FF PPU: 49, 79 CYC:9003
C656  29 80     AND #$80                        A:10 X:FF Y:00 P:24 SP:FF PPU: 61, 79 CYC:9007
C658  F0 F9     BEQ $C653                       A:00 X:FF Y:00 P:26 SP:FF PPU: 67, 79 CYC:9009
C653  AD 02 20  LDA $2002 = FF                  A:00 X:FF Y:00 P:26 SP:FF PPU: 76, 79 CYC:9012
C656  29 80     AND #$80                        A:10 X:FF Y:00 P:24 SP:FF PPU: 88, 79 CYC:9016
C658  F0 F9     BEQ $C653                       A:00 X:FF Y:00 P:26 SP:FF PPU: 94, 79 CYC:9018
C653  AD 02 20  LDA $2002 = FF                  A:00 X:FF Y:00 P:26 SP:FF PPU:103, 79 CYC:9021
C656  29 80     AND #$80                        A:10 X:FF Y:00 P:24 SP:FF PPU:115, 79 CYC:9025
C658  F0 F9     BEQ $C653                       A:00 X:FF Y:00 P:26 SP:FF PPU:121, 79 CYC:9027
C653  AD 02 20  LDA $2002 = FF                  A:00 X:FF Y:00 P:26 SP:FF PPU:130, 79 CYC:9030
C656  29 80     AND #$80                        A:10 X:FF Y:00 P:24 SP:FF PPU:142, 79 CYC:9034
C658  F0 F9     BEQ $C653                       A:00 X:FF Y:00 P:26 SP:FF PPU:148, 79 CYC:9036
C653  AD 02 20  LDA $2002 = FF                  A:00 X:FF Y:00 P:26 SP:FF PPU:157, 79 CYC:9039
C656  29 80     AND #$80                        A:10 X:FF Y:00 P:24 SP:FF PPU:169, 79 CYC:9043
C658  F0 F9     BEQ $C653                       A:00 X:FF Y:00 P:26 SP:FF PPU:175, 79 CYC:9045
C653  AD 02 20  LDA $2002 = FF                  A:00 X:FF Y:00 P:26 SP:FF PPU:184, 79 CYC:9048
C656  29 80     AND #$80                        A:10 X:FF Y:00 P:24 SP:FF PPU:196, 79 CYC:9052
C658  F0 F9     BEQ $C653                       A:00 X:FF Y:00 P:26 SP:FF PPU:202, 79 CYC:9054
C653  AD 02 20  LDA $2002 = FF                  A:00 X:FF Y:00 P:26 SP:FF PPU:211, 79 CYC:9057
C656  29 80     AND #$80                        A:10 X:FF Y:00 P:24 SP:FF PPU:223, 79 CYC:9061
C658  F0 F9     BEQ $C653                       A:00 X:FF Y:00 P:26 SP:FF PPU:229, 79 CYC:9063
C653  AD 02 20  LDA $2002 = FF                  A:00 X:FF Y:00 P:26 SP:FF PPU:238, 79 CYC:9066
C656  29 80     AND #$80                        A:10 X:FF Y:00 P:24 SP:FF PPU:250, 79 CYC:9070
C658  F0 F9     BEQ $C653                       A:00 X:FF Y:00 P:26 SP:FF PPU:256, 79 CYC:9072
C653  AD 02 20  LDA $2002 = FF                  A:00 X:FF Y:00 P:26 SP:FF PPU:265, 79 CYC:9075
C656  29 80     AND #$80                        A:10 X:FF Y:00 P:24 SP:FF PPU:277, 79 CYC:9079
C658  F0 F9     BEQ $C653                       A:00 X:FF Y:00 P:26 SP:FF PPU:283, 79 CYC:9081
C653  AD 02 20  LDA $2002 = FF                  A:00 X:FF Y:00 P:26 SP:FF PPU:292, 79 CYC:9084
C656  29 80     AND #$80                        A:10 X:FF Y:00 P:24 SP:FF PPU:304, 79 CYC:9088
C658  F0 F9     BEQ $C653                       A:00 X:FF Y:00 P:26 SP:FF PPU:310, 79 CYC:9090
C653  AD 02 20  LDA $2002 = FF                  A:00 X:FF Y:00 P:26 SP:FF PPU:319, 79 CYC:9093
C656  29 80     AND #$80                        A:10 X:FF Y:00 P:24 SP:FF PPU:331, 79 CYC:9097
C658  F0 F9     BEQ $C653                       A:00 X:FF Y:00 P:26 SP:FF PPU:337, 79 CYC:9099
C653  AD 02 20  LDA $2002 = FF                  A:00 X:FF Y:00 P:26 SP:FF PPU:  5, 80 CYC:9102
C656  29 80     AND #$80                        A:10 X:FF Y:00 P:24 SP:FF PPU: 17, 80 CYC:9106
C658  F0 F9     BEQ $C653                       A:00 X:FF Y:00 P:26 SP:FF PPU: 23, 80 CYC:9108
C653  AD 02 20  LDA $2002 = FF                  A:00 X:FF Y:00 P:26 SP:FF PPU: 32, 80 CYC:9111
C656  29 80     AND #$80                        A:10 X:FF Y:00 P:24 SP:FF PPU: 44, 80 CYC:9115
C658  F0 F9     BEQ $C653                       A:00 X:FF Y:00 P:26 SP:FF PPU: 50, 80 CYC:9117
C653  AD 02 20  LDA $2002 = FF                  A:00 X:FF Y:00 P:26 SP:FF PPU: 59, 80 CYC:9120
C656  29 80     AND #$80                        A:10 X:FF Y:00 P:24 SP:FF PPU: 71, 80 CYC:9124
C658  F0 F9     BEQ $C653                       A:00 X:FF Y:00 P:26 SP:FF PPU: 77, 80 CYC:9126
C653  AD 02 20  LDA $2002 = FF                  A:00 X:FF Y:00 P:26 SP:FF PPU: 86, 80 CYC:9129
C656  29 80     AND #$80                        A:10 X:FF Y:00 P:24 SP:FF PPU: 98, 80 CYC:9133
C658  F0 F9     BEQ $C653                       A:00 X:FF Y:00 P:26 SP:FF PPU:104, 80 CYC:9135
C653  AD 02 20  LDA $2002 = FF                  A:00 X:FF Y:00 P:26 SP:FF PPU:113, 80 CYC:9138
C656  29 80     AND #$80                        A:10 X:FF Y:00 P:24 SP:FF PPU:125, 80 CYC:9142
C658  F0 F9     BEQ $C653                       A:00 X:FF Y:00 P:26 SP:FF PPU:131, 80 CYC:9144
C653  AD 02 20  LDA $2002 = FF                  A:00 X:FF Y:00 P:26 SP:FF PPU:140, 80 CYC:9147
C656  29 80     AND #$80                        A:10 X:FF Y:00 P:24 SP:FF PPU:152, 80 CYC:9151
C658  F0 F9     BEQ $C653                       A:00 X:FF Y:00 P:26 SP:FF PPU:158, 80 CYC:9153
C653  AD 02 20  LDA $2002 = FF                  A:00 X:FF Y:00 P:26 SP:FF PPU:167, 80 CYC:9156
C656  29 80     AND #$80                        A:10 X:FF Y:00 P:24 SP:FF PPU:179, 80 CYC:9160
C658  F0 F9     BEQ $C653                       A:00 X:FF Y:00 P:26 SP:FF PPU:185, 80 CYC:9162
C653  AD 02 20  LDA $2002 = FF                  A:00 X:FF Y:00 P:26 SP:FF PPU:194, 80 CYC:9165
C656  29 80     AND #$80                        A:10 X:FF Y:00 P:24 SP:FF PPU:206, 80 CYC:9169
C658  F0 F9     BEQ $C653                       A:00 X:FF Y:00 P:26 SP:FF PPU:212, 80 CYC:9171
C653  AD 02 20  LDA $2002 = FF                  A:00 X:FF Y:00 P:26 SP:FF PPU:221, 80 CYC:9174
C656  29 80     AND #$80                        A:10 X:FF Y:00 P:24 SP:FF PPU:233, 80 CYC:9178
C658  F0 F9     BEQ $C653                       A:00 X:FF Y:00 P:26 SP:FF PPU:239, 80 CYC:9180
C653  AD 02 20  LDA $2002 = FF                  A:00 X:FF Y:00 P:26 SP:FF PPU:248, 80 CYC:9183
C656  29 80     AND #$80                        A:10 X:FF Y:00 P:24 SP:FF PPU:260, 80 CYC:9187
C658  F0 F9     BEQ $C653                       A:00 X:FF Y:00 P:26 SP:FF PPU:266, 80 CYC:9189
C653  AD 02 20  LDA $2002 = FF                  A:00 X:FF Y:00 P:26 SP:FF PPU:275, 80 CYC:9192
C656  29 80     AND #$80                        A:10 X:FF Y:00 P:24 SP:FF PPU:287, 80 CYC:9196
C658  F0 F9     BEQ $C653                       A:00 X:FF Y:00 P:26 SP:FF PPU:293, 80 CYC:9198
C653  AD 02 20  LDA $2002 = FF                  A:00 X:FF Y:00 P:26 SP:FF PPU:302, 80 CYC:9201
C656  29 80     AND #$80                        A:10 X:FF Y:00 P:24 SP:FF PPU:314, 80 CYC:9205
C658  F0 F9     BEQ $C653                       A:00 X:FF Y:00 P:26 SP:FF PPU:320, 80 CYC:9207
C653  AD 02 20  LDA $2002 = FF                  A:00 X:FF Y:00 P:26 SP:FF PPU:329, 80 CYC:9210
C656  29 80     AND #$80                        A:10 X:FF Y:00 P:24 SP:FF PPU:  0, 81 CYC:9214
C658  F0 F9     BEQ $C653                       A:00 X:FF Y:00 P:26 SP:FF PPU:  6, 81 CYC:9216
C653  AD 02 20  LDA $2002 = FF                  A:00 X:FF Y:00 P:26 SP:FF PPU: 15, 81 CYC:9219
C656  29 80     AND #$80                        A:10 X:FF Y:00 P:24 SP:FF PPU: 27, 81 CYC:9223
C658  F0 F9     BEQ $C653                       A:00 X:FF Y:00 P:26 SP:FF PPU: 33, 81 CYC:9225
C653  AD 02 20  LDA $2002 = FF                  A:00 X:FF Y:00 P:26 SP:FF PPU: 42, 81 CYC:9228
C656  29 80     AND #$80                        A:10 X:FF Y:00 P:24 SP:FF PPU: 54, 81 CYC:9232
C658  F0 F9     BEQ $C653                       A:00 X:FF Y:00 P:26 SP:FF PPU: 60, 81 CYC:9234
C653  AD 02 20  LDA $2002 = FF                  A:00 X:FF Y:00 P:26 SP:FF PPU: 69, 81 CYC:9237
C656  29 80     AND #$80                        A:10 X:FF Y:00 P:24 SP:FF PPU: 81, 81 CYC:9241
C658  F0 F9     BEQ $C653                       A:00 X:FF Y:00 P:26 SP:FF PPU: 87, 81 CYC:9243
C653  AD 02 20  LDA $2002 = FF                  A:00 X:FF Y:00 P:26 SP:FF PPU: 96, 81 CYC:9246
C656  29 80     AND #$80                        A:10 X:FF Y:00 P:24 SP:FF PPU:108, 81 CYC:9250
C658  F0 F9     BEQ $C653                       A:00 X:FF Y:00 P:26 SP:FF PPU:114, 81 CYC:9252
C653  AD 02 20  LDA $2002 = FF                  A:00 X:FF Y:00 P:26 SP:FF PPU:123, 81 CYC:9255
C656  29 80     AND #$80                        A:10 X:FF Y:00 P:24 SP:FF PPU:135, 81 CYC:9259
C658  F0 F9     BEQ $C653                       A:00 X:FF Y:00 P:26 SP:FF PPU:141, 81 CYC:9261
C653  AD 02 20  LDA $2002 = FF                  A:00 X:FF Y:00 P:26 SP:FF PPU:150, 81 CYC:9264
C656  29 80     AND #$80                        A:10 X:FF Y:00 P:24 SP:FF PPU:162, 81 CYC:9268
C658  F0 F9     BEQ $C653                       A:00 X:FF Y:00 P:26 SP:FF PPU:168, 81 CYC:9270
C653  AD 02 20  LDA $2002 = FF                  A:00 X:FF Y:00 P:26 SP:FF PPU:177, 81 CYC:9273
C656  29 80     AND #$80                        A:10 X:FF Y:00 P:24 SP:FF PPU:189, 81 CYC:9277
C658  F0 F9     BEQ $C653                       A:00 X:FF Y:00 P:26 SP:FF PPU:195, 81 CYC:9279
C653  AD 02 20  LDA $2002 = FF                  A:00 X:FF Y:00 P:26 SP:FF PPU:204, 81 CYC:9282
C656  29 80     AND #$80                        A:10 X:FF Y:00 P:24 SP:FF PPU:216, 81 CYC:9286
C658  F0 F9     BEQ $C653                       A:00 X:FF Y:00 P:26 SP:FF PPU:222, 81 CYC:9288
C653  AD 02 20  LDA $2002 = FF                  A:00 X:FF Y:00 P:26 SP:FF PPU:231, 81 CYC:9291
C656  29 80     AND #$80                        A:10 X:FF Y:00 P:24 SP:FF PPU:243, 81 CYC:9295
C658  F0 F9     BEQ $C653                       A:00 X:FF Y:00 P:26 SP:FF PPU:249, 81 CYC:9297
C653  AD 02 20  LDA $2002 = FF                  A:00 X:FF Y:00 P:26 SP:FF PPU:258, 81 CYC:9300
C656  29 80     AND #$80                        A:10 X:FF Y:00 P:24 SP:FF PPU:270, 81 CYC:9304
C658  F0 F9     BEQ $C653                       A:00 X:FF Y:00 P:26 SP:FF PPU:276, 81 CYC:9306
C653  AD 02 20  LDA $2002 = FF                  A:00 X:FF Y:00 P:26 SP:FF PPU:285, 81 CYC:9309
C656  29 80     AND #$80                        A:10 X:FF Y:00 P:24 SP:FF PPU:297, 81 CYC:9313
C658  F0 F9     BEQ $C653                       A:00 X:FF Y:00 P:26 SP:FF PPU:303, 81 CYC:9315
C653  AD 02 20  LDA $2002 = FF                  A:00 X:FF Y:00 P:26 SP:FF PPU:312, 81 CYC:9318
C656  29 80     AND #$80                        A:10 X:FF Y:00 P:24 SP:FF PPU:324, 81 CYC:9322
C658  F0 F9     BEQ $C653                       A:00 X:FF Y:00 P:26 SP:FF PPU:330, 81 CYC:9324
C653  AD 02 20  LDA $2002 = FF                  A:00 X:FF Y:00 P:26 SP:FF PPU:339, 81 CYC:9327
C656  29 80     AND #$80                        A:10 X:FF Y:00 P:24 SP:FF PPU: 10, 82 CYC:9331
C658  F0 F9     BEQ $C653                       A:00 X:FF Y:00 P:26 SP:FF PPU: 16, 82 CYC:9333
C653  AD 02 20  LDA $2002 = FF                  A:00 X:FF Y:00 P:26 SP:FF PPU: 25, 82 CYC:9336
C656  29 80     AND #$80                        A:10 X:FF Y:00 P:24 SP:FF PPU: 37, 82 CYC:9340
C658  F0 F9     BEQ $C653                       A:00 X:FF Y:00 P:26 SP:FF PPU: 43, 82 CYC:9342
C653  AD 02 20  LDA $2002 = FF                  A:00 X:FF Y:00 P:26 SP:FF PPU: 52, 82 CYC:9345
C656  29 80     AND #$80                        A:10 X:FF Y:00 P:24 SP:FF PPU: 64, 82 CYC:9349
C658  F0 F9     BEQ $C653                       A:00 X:FF Y:00 P:26 SP:FF PPU: 70, 82 CYC:9351
C653  AD 02 20  LDA $2002 = FF                  A:00 X:FF Y:00 P:26 SP:FF PPU: 79, 82 CYC:9354
C656  29 80     AND #$80                        A:10 X:FF Y:00 P:24 SP:FF PPU: 91, 82 CYC:9358
C658  F0 F9     BEQ $C653                       A:00 X:FF Y:00 P:26 SP:FF PPU: 97, 82 CYC:9360
C653  AD 02 20  LDA $2002 = FF                  A:00 X:FF Y:00 P:26 SP:FF PPU:106, 82 CYC:9363
C656  29 80     AND #$80                        A:10 X:FF Y:00 P:24 SP:FF PPU:118, 82 CYC:9367
C658  F0 F9     BEQ $C653                       A:00 X:FF Y:00 P:26 SP:FF PPU:124, 82 CYC:9369
C653  AD 02 20  LDA $2002 = FF                  A:00 X:FF Y:00 P:26 SP:FF PPU:133, 82 CYC:9372
C656  29 80     AND #$80                        A:10 X:FF Y:00 P:24 SP:FF PPU:145, 82 CYC:9376
C658  F0 F9     BEQ $C653                       A:00 X:FF Y:00 P:26 SP:FF PPU:151, 82 CYC:9378
C653  AD 02 20  LDA $2002 = FF                  A:00 X:FF Y:00 P:26 SP:FF PPU:160, 82 CYC:9381
C656  29 80     AND #$80                        A:10 X:FF Y:00 P:24 SP:FF PPU:172, 82 CYC:9385
C658  F0 F9     BEQ $C653                       A:00 X:FF Y:00 P:26 SP:FF PPU:178, 82 CYC:9387
C653  AD 02 20  LDA $2002 = FF                  A:00 X:FF Y:00 P:26 SP:FF PPU:187, 82 CYC:9390
C656  29 80     AND #$80                        A:10 X:FF Y:00 P:24 SP:FF PPU:199, 82 CYC:9394
C658  F0 F9     BEQ $C653                       A:00 X:FF Y:00 P:26 SP:FF PPU:205, 82 CYC:9396
C653  AD 02 20  LDA $2002 = FF                  A:00 X:FF Y:00 P:26 SP:FF PPU:214, 82 CYC:9399
C656  29 80     AND #$80                        A:10 X:FF Y:00 P:24 SP:FF PPU:226, 82 CYC:9403
C658  F0 F9     BEQ $C653                       A:00 X:FF Y:00 P:26 SP:FF PPU:232, 82 CYC:9405
C653  AD 02 20  LDA $2002 = FF                  A:00 X:FF Y:00 P:26 SP:FF PPU:241, 82 CYC:9408
C656  29 80     AND #$80                        A:10 X:FF Y:00 P:24 SP:FF PPU:253, 82 CYC:9412
C658  F0 F9     BEQ $C653                       A:00 X:FF Y:00 P:26 SP:FF PPU:259, 82 CYC:9414
C653  AD 02 20  LDA $2002 = FF                  A:00 X:FF Y:00 P:26 SP:FF PPU:268, 82 CYC:9417
C656  29 80     AND #$80                        A:10 X:FF Y:00 P:24 SP:FF PPU:280, 82 CYC:9421
C658  F0 F9     BEQ $C653                       A:00 X:FF Y:00 P:26 SP:FF PPU:286, 82 CYC:9423
C653  AD 02 20  LDA $2002 = FF                  A:00 X:FF Y:00 P:26 SP:FF PPU:295, 82 CYC:9426
C656  29 80     AND #$80                        A:10 X:FF Y:00 P:24 SP:FF PPU:307, 82 CYC:9430
C658  F0 F9     BEQ $C653                       A:00 X:FF Y:00 P:26 SP:FF PPU:313, 82 CYC:9432
C653  AD 02 20  LDA $2002 = FF                  A:00 X:FF Y:00 P:26 SP:FF PPU:322, 82 CYC:9435
C656  29 80     AND #$80                        A:10 X:FF Y:00 P:24 SP:FF PPU:334, 82 CYC:9439
C658  F0 F9     BEQ $C653                       A:00 X:FF Y:00 P:26 SP:FF PPU:340, 82 CYC:9441
C653  AD 02 20  LDA $2002 = FF                  A:00 X:FF Y:00 P:26 SP:FF PPU:  8, 83 CYC:9444
C656  29 80     AND #$80                        A:10 X:FF Y:00 P:24 SP:FF PPU: 20, 83 CYC:9448
C658  F0 F9     BEQ $C653                       A:00 X:FF Y:00 P:26 SP:FF PPU: 26, 83 CYC:9450
C653  AD 02 20  LDA $2002 = FF                  A:00 X:FF Y:00 P:26 SP:FF PPU: 35, 83 CYC:9453
C656  29 80     AND #$80                        A:10 X:FF Y:00 P:24 SP:FF PPU: 47, 83 CYC:9457
C658  F0 F9     BEQ $C653                       A:00 X:FF Y:00 P:26 SP:FF PPU: 53, 83 CYC:9459
C653  AD 02 20  LDA $2002 = FF                  A:00 X:FF Y:00 P:26 SP:FF PPU: 62, 83 CYC:9462
C656  29 80     AND #$80                        A:10 X:FF Y:00 P:24 SP:FF PPU: 74, 83 CYC:9466
C658  F0 F9     BEQ $C653                       A:00 X:FF Y:00 P:26 SP:FF PPU: 80, 83 CYC:9468
C653  AD 02 20  LDA $2002 = FF                  A:00 X:FF Y:00 P:26 SP:FF PPU: 89, 83 CYC:9471
C656  29 80     AND #$80                        A:10 X:FF Y:00 P:24 SP:FF PPU:101, 83 CYC:9475
C658  F0 F9     BEQ $C653                       A:00 X:FF Y:00 P:26 SP:FF PPU:107, 83 CYC:9477
C653  AD 02 20  LDA $2002 = FF                  A:00 X:FF Y:00 P:26 SP:FF PPU:116, 83 CYC:9480
C656  29 80     AND #$80                        A:10 X:FF Y:00 P:24 SP:FF PPU:128, 83 CYC:9484
C658  F0 F9     BEQ $C653                       A:00 X:FF Y:00 P:26 SP:FF PPU:134, 83 CYC:9486
C653  AD 02 20  LDA $2002 = FF                  A:00 X:FF Y:00 P:26 SP:FF PPU:143, 83 CYC:9489
C656  29 80     AND #$80                        A:10 X:FF Y:00 P:24 SP:FF PPU:155, 83 CYC:9493
C658  F0 F9     BEQ $C653                       A:00 X:FF Y:00 P:26 SP:FF PPU:161, 83 CYC:9495
C653  AD 02 20  LDA $2002 = FF                  A:00 X:FF Y:00 P:26 SP:FF PPU:170, 83 CYC:9498
C656  29 80     AND #$80                        A:10 X:FF Y:00 P:24 SP:FF PPU:182, 83 CYC:9502
C658  F0 F9     BEQ $C653                       A:00 X:FF Y:00 P:26 SP:FF PPU:188, 83 CYC:9504
C653  AD 02 20  LDA $2002 = FF                  A:00 X:FF Y:00 P:26 SP:FF PPU:197, 83 CYC:9507
C656  29 80     AND #$80                        A:10 X:FF Y:00 P:24 SP:FF PPU:209, 83 CYC:9511
C658  F0 F9     BEQ $C653                       A:00 X:FF Y:00 P:26 SP:FF PPU:215, 83 CYC:9513
C653  AD 02 20  LDA $2002 = FF                  A:00 X:FF Y:00 P:26 SP:FF PPU:224, 83 CYC:9516
C656  29 80     AND #$80                        A:10 X:FF Y:00 P:24 SP:FF PPU:236, 83 CYC:9520
C658  F0 F9     BEQ $C653                       A:00 X:FF Y:00 P:26 SP:FF PPU:242, 83 CYC:9522
C653  AD 02 20  LDA $2002 = FF                  A:00 X:FF Y:00 P:26 SP:FF PPU:251, 83 CYC:9525
C656  29 80     AND #$80                        A:10 X:FF Y:00 P:24 SP:FF PPU:263, 83 CYC:9529
C658  F0 F9     BEQ $C653                       A:00 X:FF Y:00 P:26 SP:FF PPU:269, 83 CYC:9531
C653  AD 02 20  LDA $2002 = FF                  A:00 X:FF Y:00 P:26 SP:FF PPU:278, 83 CYC:9534
C656  29 80     AND #$80                        A:10 X:FF Y:00 P:24 SP:FF PPU:290, 83 CYC:9538
C658  F0 F9     BEQ $C653                       A:00 X:FF Y:00 P:26 SP:FF PPU:296, 83 CYC:9540
C653  AD 02 20  LDA $2002 = FF                  A:00 X:FF Y:00 P:26 SP:FF PPU:305, 83 CYC:9543
C656  29 80     AND #$80                        A:10 X:FF Y:00 P:24 SP:FF PPU:317, 83 CYC:9547
C658  F0 F9     BEQ $C653                       A:00 X:FF Y:00 P:26 SP:FF PPU:323, 83 CYC:9549
C653  AD 02 20  LDA $2002 = FF                  A:00 X:FF Y:00 P:26 SP:FF PPU:332, 83 CYC:9552
C656  29 80     AND #$80                        A:10 X:FF Y:00 P:24 SP:FF PPU:  3, 84 CYC:9556
C658  F0 F9     BEQ $C653                       A:00 X:FF Y:00 P:26 SP:FF PPU:  9, 84 CYC:9558
C653  AD 02 20  LDA $2002 = FF                  A:00 X:FF Y:00 P:26 SP:FF PPU: 18, 84 CYC:9561
C656  29 80     AND #$80                        A:10 X:FF Y:00 P:24 SP:FF PPU: 30, 84 CYC:9565
C658  F0 F9     BEQ $C653                       A:00 X:FF Y:00 P:26 SP:FF PPU: 36, 84 CYC:9567
C653  AD 02 20  LDA $2002 = FF                  A:00 X:FF Y:00 P:26 SP:FF PPU: 45, 84 CYC:9570
C656  29 80     AND #$80                        A:10 X:FF Y:00 P:24 SP:FF PPU: 57, 84 CYC:9574
C658  F0 F9     BEQ $C653                       A:00 X:FF Y:00 P:26 SP:FF PPU: 63, 84 CYC:9576
C653  AD 02 20  LDA $2002 = FF                  A:00 X:FF Y:00 P:26 SP:FF PPU: 72, 84 CYC:9579
C656  29 80     AND #$80                        A:10 X:FF Y:00 P:24 SP:FF PPU: 84, 84 CYC:9583
C658  F0 F9     BEQ $C653                       A:00 X:FF Y:00 P:26 SP:FF PPU: 90, 84 CYC:9585
C653  AD 02 20  LDA $2002 = FF                  A:00 X:FF Y:00 P:26 SP:FF PPU: 99, 84 CYC:9588
C656  29 80     AND #$80                        A:10 X:FF Y:00 P:24 SP:FF PPU:111, 84 CYC:9592
C658  F0 F9     BEQ $C653                       A:00 X:FF Y:00 P:26 SP:FF PPU:117, 84 CYC:9594
C653  AD 02 20  LDA $2002 = FF                  A:00 X:FF Y:00 P:26 SP:FF PPU:126, 84 CYC:9597
C656  29 80     AND #$80                        A:10 X:FF Y:00 P:24 SP:FF PPU:138, 84 CYC:9601
C658  F0 F9     BEQ $C653                       A:00 X:FF Y:00 P:26 SP:FF PPU:144, 84 CYC:9603
C653  AD 02 20  LDA $2002 = FF                  A:00 X:FF Y:00 P:26 SP:FF PPU:153, 84 CYC:9606
C656  29 80     AND #$80                        A:10 X:FF Y:00 P:24 SP:FF PPU:165, 84 CYC:9610
C658  F0 F9     BEQ $C653                       A:00 X:FF Y:00 P:26 SP:FF PPU:171, 84 CYC:9612
C653  AD 02 20  LDA $2002 = FF                  A:00 X:FF Y:00 P:26 SP:FF PPU:180, 84 CYC:9615
C656  29 80     AND #$80                        A:10 X:FF Y:00 P:24 SP:FF PPU:192, 84 CYC:9619
C658  F0 F9     BEQ $C653                       A:00 X:FF Y:00 P:26 SP:FF PPU:198, 84 CYC:9621
C653  AD 02 20  LDA $2002 = FF                  A:00 X:FF Y:00 P:26 SP:FF PPU:207, 84 CYC:9624
C656  29 80     AND #$80                        A:10 X:FF Y:00 P:24 SP:FF PPU:219, 84 CYC:9628
C658  F0 F9     BEQ $C653                       A:00 X:FF Y:00 P:26 SP:FF PPU:225, 84 CYC:9630
C653  AD 02 20  LDA $2002 = FF                  A:00 X:FF Y:00 P:26 SP:FF PPU:234, 84 CYC:9633
C656  29 80     AND #$80                        A:10 X:FF Y:00 P:24 SP:FF PPU:246, 84 CYC:9637
C658  F0 F9     BEQ $C653                       A:00 X:FF Y:00 P:26 SP:FF PPU:252, 84 CYC:9639
C653  AD 02 20  LDA $2002 = FF                  A:00 X:FF Y:00 P:26 SP:FF PPU:261, 84 CYC:9642
C656  29 80     AND #$80                        A:10 X:FF Y:00 P:24 SP:FF PPU:273, 84 CYC:9646
C658  F0 F9     BEQ $C653                       A:00 X:FF Y:00 P:26 SP:FF PPU:279, 84 CYC:9648
C653  AD 02 20  LDA $2002 = FF                  A:00 X:FF Y:00 P:26 SP:FF PPU:288, 84 CYC:9651
C656  29 80     AND #$80                        A:10 X:FF Y:00 P:24 SP:FF PPU:300, 84 CYC:9655
C658  F0 F9     BEQ $C653                       A:00 X:FF Y:00 P:26 SP:FF PPU:306, 84 CYC:9657
C653  AD 02 20  LDA $2002 = FF                  A:00 X:FF Y:00 P:26 SP:FF PPU:315, 84 CYC:9660
C656  29 80     AND #$80                        A:10 X:FF Y:00 P:24 SP:FF PPU:327, 84 CYC:9664
C658  F0 F9     BEQ $C653                       A:00 X:FF Y:00 P:26 SP:FF PPU:333, 84 CYC:9666
C653  AD 02 20  LDA $2002 = FF                  A:00 X:FF Y:00 P:26 SP:FF PPU:  1, 85 CYC:9669
C656  29 80     AND #$80                        A:10 X:FF Y:00 P:24 SP:FF PPU: 13, 85 CYC:9673
C658  F0 F9     BEQ $C653                       A:00 X:FF Y:00 P:26 SP:FF PPU: 19, 85 CYC:9675
C653  AD 02 20  LDA $2002 = FF                  A:00 X:FF Y:00 P:26 SP:FF PPU: 28, 85 CYC:9678
C656  29 80     AND #$80                        A:10 X:FF Y:00 P:24 SP:FF PPU: 40, 85 CYC:9682
C658  F0 F9     BEQ $C653                       A:00 X:FF Y:00 P:26 SP:FF PPU: 46, 85 CYC:9684
C653  AD 02 20  LDA $2002 = FF                  A:00 X:FF Y:00 P:26 SP:FF PPU: 55, 85 CYC:9687
C656  29 80     AND #$80                        A:10 X:FF Y:00 P:24 SP:FF PPU: 67, 85 CYC:9691
C658  F0 F9     BEQ $C653                       A:00 X:FF Y:00 P:26 SP:FF PPU: 73, 85 CYC:9693
C653  AD 02 20  LDA $2002 = FF                  A:00 X:FF Y:00 P:26 SP:FF PPU: 82, 85 CYC:9696
C656  29 80     AND #$80                        A:10 X:FF Y:00 P:24 SP:FF PPU: 94, 85 CYC:9700
C658  F0 F9     BEQ $C653                       A:00 X:FF Y:00 P:26 SP:FF PPU:100, 85 CYC:9702
C653  AD 02 20  LDA $2002 = FF                  A:00 X:FF Y:00 P:26 SP:FF PPU:109, 85 CYC:9705
C656  29 80     AND #$80                        A:10 X:FF Y:00 P:24 SP:FF PPU:121, 85 CYC:9709
C658  F0 F9     BEQ $C653                       A:00 X:FF Y:00 P:26 SP:FF PPU:127, 85 CYC:9711
C653  AD 02 20  LDA $2002 = FF                  A:00 X:FF Y:00 P:26 SP:FF PPU:136, 85 CYC:9714
C656  29 80     AND #$80                        A:10 X:FF Y:00 P:24 SP:FF PPU:148, 85 CYC:9718
C658  F0 F9     BEQ $C653                       A:00 X:FF Y:00 P:26 SP:FF PPU:154, 85 CYC:9720
C653  AD 02 20  LDA $2002 = FF                  A:00 X:FF Y:00 P:26 SP:FF PPU:163, 85 CYC:9723
C656  29 80     AND #$80                        A:10 X:FF Y:00 P:24 SP:FF PPU:175, 85 CYC:9727
C658  F0 F9     BEQ $C653                       A:00 X:FF Y:00 P:26 SP:FF PPU:181, 85 CYC:9729
C653  AD 02 20  LDA $2002 = FF                  A:00 X:FF Y:00 P:26 SP:FF PPU:190, 85 CYC:9732
C656  29 80     AND #$80                        A:10 X:FF Y:00 P:24 SP:FF PPU:202, 85 CYC:9736
C658  F0 F9     BEQ $C653                       A:00 X:FF Y:00 P:26 SP:FF PPU:208, 85 CYC:9738
C653  AD 02 20  LDA $2002 = FF                  A:00 X:FF Y:00 P:26 SP:FF PPU:217, 85 CYC:9741
C656  29 80     AND #$80                        A:10 X:FF Y:00 P:24 SP:FF PPU:229, 85 CYC:9745
C658  F0 F9     BEQ $C653                       A:00 X:FF Y:00 P:26 SP:FF PPU:235, 85 CYC:9747
C653  AD 02 20  LDA $2002 = FF                  A:00 X:FF Y:00 P:26 SP:FF PPU:244, 85 CYC:9750
C656  29 80     AND #$80                        A:10 X:FF Y:00 P:24 SP:FF PPU:256, 85 CYC:9754
C658  F0 F9     BEQ $C653                       A:00 X:FF Y:00 P:26 SP:FF PPU:262, 85 CYC:9756
C653  AD 02 20  LDA $2002 = FF                  A:00 X:FF Y:00 P:26 SP:FF PPU:271, 85 CYC:9759
C656  29 80     AND #$80                        A:10 X:FF Y:00 P:24 SP:FF PPU:283, 85 CYC:9763
C658  F0 F9     BEQ $C653                       A:00 X:FF Y:00 P:26 SP:FF PPU:289, 85 CYC:9765
C653  AD 02 20  LDA $2002 = FF                  A:00 X:FF Y:00 P:26 SP:FF PPU:298, 85 CYC:9768
C656  29 80     AND #$80                        A:10 X:FF Y:00 P:24 SP:FF PPU:310, 85 CYC:9772
C658  F0 F9     BEQ $C653                       A:00 X:FF Y:00 P:26 SP:FF PPU:316, 85 CYC:9774
C653  AD 02 20  LDA $2002 = FF                  A:00 X:FF Y:00 P:26 SP:FF PPU:325, 85 CYC:9777
C656  29 80     AND #$80                        A:10 X:FF Y:00 P:24 SP:FF PPU:337, 85 CYC:9781
C658  F0 F9     BEQ $C653                       A:00 X:FF Y:00 P:26 SP:FF PPU:  2, 86 CYC:9783
C653  AD 02 20  LDA $2002 = FF                  A:00 X:FF Y:00 P:26 SP:FF PPU: 11, 86 CYC:9786
C656  29 80     AND #$80                        A:10 X:FF Y:00 P:24 SP:FF PPU: 23, 86 CYC:9790
C658  F0 F9     BEQ $C653                       A:00 X:FF Y:00 P:26 SP:FF PPU: 29, 86 CYC:9792
C653  AD 02 20  LDA $2002 = FF                  A:00 X:FF Y:00 P:26 SP:FF PPU: 38, 86 CYC:9795
C656  29 80     AND #$80                        A:10 X:FF Y:00 P:24 SP:FF PPU: 50, 86 CYC:9799
C658  F0 F9     BEQ $C653                       A:00 X:FF Y:00 P:26 SP:FF PPU: 56, 86 CYC:9801
C653  AD 02 20  LDA $2002 = FF                  A:00 X:FF Y:00 P:26 SP:FF PPU: 65, 86 CYC:9804
C656  29 80     AND #$80                        A:10 X:FF Y:00 P:24 SP:FF PPU: 77, 86 CYC:9808
C658  F0 F9     BEQ $C653                       A:00 X:FF Y:00 P:26 SP:FF PPU: 83, 86 CYC:9810
C653  AD 02 20  LDA $2002 = FF                  A:00 X:FF Y:00 P:26 SP:FF PPU: 92, 86 CYC:9813
C656  29 80     AND #$80                        A:10 X:FF Y:00 P:24 SP:FF PPU:104, 86 CYC:9817
C658  F0 F9     BEQ $C653                       A:00 X:FF Y:00 P:26 SP:FF PPU:110, 86 CYC:9819
C653  AD 02 20  LDA $2002 = FF                  A:00 X:FF Y:00 P:26 SP:FF PPU:119, 86 CYC:9822
C656  29 80     AND #$80                        A:10 X:FF Y:00 P:24 SP:FF PPU:131, 86 CYC:9826
C658  F0 F9     BEQ $C653                       A:00 X:FF Y:00 P:26 SP:FF PPU:137, 86 CYC:9828
C653  AD 02 20  LDA $2002 = FF                  A:00 X:FF Y:00 P:26 SP:FF PPU:146, 86 CYC:9831
C656  29 80     AND #$80                        A:10 X:FF Y:00 P:24 SP:FF PPU:158, 86 CYC:9835
C658  F0 F9     BEQ $C653                       A:00 X:FF Y:00 P:26 SP:FF PPU:164, 86 CYC:9837
C653  AD 02 20  LDA $2002 = FF                  A:00 X:FF Y:00 P:26 SP:FF PPU:173, 86 CYC:9840
C656  29 80     AND #$80                        A:10 X:FF Y:00 P:24 SP:FF PPU:185, 86 CYC:9844
C658  F0 F9     BEQ $C653                       A:00 X:FF Y:00 P:26 SP:FF PPU:191, 86 CYC:9846
C653  AD 02 20  LDA $2002 = FF                  A:00 X:FF Y:00 P:26 SP:FF PPU:200, 86 CYC:9849
C656  29 80     AND #$80                        A:10 X:FF Y:00 P:24 SP:FF PPU:212, 86 CYC:9853
C658  F0 F9     BEQ $C653                       A:00 X:FF Y:00 P:26 SP:FF PPU:218, 86 CYC:9855
C653  AD 02 20  LDA $2002 = FF                  A:00 X:FF Y:00 P:26 SP:FF PPU:227, 86 CYC:9858
C656  29 80     AND #$80                        A:10 X:FF Y:00 P:24 SP:FF PPU:239, 86 CYC:9862
C658  F0 F9     BEQ $C653                       A:00 X:FF Y:00 P:26 SP:FF PPU:245, 86 CYC:9864
C653  AD 02 20  LDA $2002 = FF                  A:00 X:FF Y:00 P:26 SP:FF PPU:254, 86 CYC:9867
C656  29 80     AND #$80                        A:10 X:FF Y:00 P:24 SP:FF PPU:266, 86 CYC:9871
C658  F0 F9     BEQ $C653                       A:00 X:FF Y:00 P:26 SP:FF PPU:272, 86 CYC:9873
C653  AD 02 20  LDA $2002 = FF                  A:00 X:FF Y:00 P:26 SP:FF PPU:281, 86 CYC:9876
C656  29 80     AND #$80                        A:10 X:FF Y:00 P:24 SP:FF PPU:293, 86 CYC:9880
C658  F0 F9     BEQ $C653                       A:00 X:FF Y:00 P:26 SP:FF PPU:299, 86 CYC:9882
C653  AD 02 20  LDA $2002 = FF                  A:00 X:FF Y:00 P:26 SP:FF PPU:308, 86 CYC:9885
C656  29 80     AND #$80                        A:10 X:FF Y:00 P:24 SP:FF PPU:320, 86 CYC:9889
C658  F0 F9     BEQ $C653                       A:00 X:FF Y:00 P:26 SP:FF PPU:326, 86 CYC:9891
C653  AD 02 20  LDA $2002 = FF                  A:00 X:FF Y:00 P:26 SP:FF PPU:335, 86 CYC:9894
C656  29 80     AND #$80                        A:10 X:FF Y:00 P:24 SP:FF PPU:  6, 87 CYC:9898
C658  F0 F9     BEQ $C653                       A:00 X:FF Y:00 P:26 SP:FF PPU: 12, 87 CYC:9900
C653  AD 02 20  LDA $2002 = FF                  A:00 X:FF Y:00 P:26 SP:FF PPU: 21, 87 CYC:9903
C656  29 80     AND #$80                        A:10 X:FF Y:00 P:24 SP:FF PPU: 33, 87 CYC:9907
C658  F0 F9     BEQ $C653                       A:00 X:FF Y:00 P:26 SP:FF PPU: 39, 87 CYC:9909
C653  AD 02 20  LDA $2002 = FF                  A:00 X:FF Y:00 P:26 SP:FF PPU: 48, 87 CYC:9912
C656  29 80     AND #$80                        A:10 X:FF Y:00 P:24 SP:FF PPU: 60, 87 CYC:9916
C658  F0 F9     BEQ $C653                       A:00 X:FF Y:00 P:26 SP:FF PPU: 66, 87 CYC:9918
C653  AD 02 20  LDA $2002 = FF                  A:00 X:FF Y:00 P:26 SP:FF PPU: 75, 87 CYC:9921
C656  29 80     AND #$80                        A:10 X:FF Y:00 P:24 SP:FF PPU: 87, 87 CYC:9925
C658  F0 F9     BEQ $C653                       A:00 X:FF Y:00 P:26 SP:FF PPU: 93, 87 CYC:9927
C653  AD 02 20  LDA $2002 = FF                  A:00 X:FF Y:00 P:26 SP:FF PPU:102, 87 CYC:9930
C656  29 80     AND #$80                        A:10 X:FF Y:00 P:24 SP:FF PPU:114, 87 CYC:9934
C658  F0 F9     BEQ $C653                       A:00 X:FF Y:00 P:26 SP:FF PPU:120, 87 CYC:9936
C653  AD 02 20  LDA $2002 = FF                  A:00 X:FF Y:00 P:26 SP:FF PPU:129, 87 CYC:9939
C656  29 80     AND #$80                        A:10 X:FF Y:00 P:24 SP:FF PPU:141, 87 CYC:9943
C658  F0 F9     BEQ $C653                       A:00 X:FF Y:00 P:26 SP:FF PPU:147, 87 CYC:9945
C653  AD 02 20  LDA $2002 = FF                  A:00 X:FF Y:00 P:26 SP:FF PPU:156, 87 CYC:9948
C656  29 80     AND #$80                        A:10 X:FF Y:00 P:24 SP:FF PPU:168, 87 CYC:9952
C658  F0 F9     BEQ $C653                       A:00 X:FF Y:00 P:26 SP:FF PPU:174, 87 CYC:9954
C653  AD 02 20  LDA $2002 = FF                  A:00 X:FF Y:00 P:26 SP:FF PPU:183, 87 CYC:9957
C656  29 80     AND #$80                        A:10 X:FF Y:00 P:24 SP:FF PPU:195, 87 CYC:9961
C658  F0 F9     BEQ $C653                       A:00 X:FF Y:00 P:26 SP:FF PPU:201, 87 CYC:9963
C653  AD 02 20  LDA $2002 = FF                  A:00 X:FF Y:00 P:26 SP:FF PPU:210, 87 CYC:9966
C656  29 80     AND #$80                        A:10 X:FF Y:00 P:24 SP:FF PPU:222, 87 CYC:9970
C658  F0 F9     BEQ $C653                       A:00 X:FF Y:00 P:26 SP:FF PPU:228, 87 CYC:9972
C653  AD 02 20  LDA $2002 = FF                  A:00 X:FF Y:00 P:26 SP:FF PPU:237, 87 CYC:9975
C656  29 80     AND #$80                        A:10 X:FF Y:00 P:24 SP:FF PPU:249, 87 CYC:9979
C658  F0 F9     BEQ $C653                       A:00 X:FF Y:00 P:26 SP:FF PPU:255, 87 CYC:9981
C653  AD 02 20  LDA $2002 = FF                  A:00 X:FF Y:00 P:26 SP:FF PPU:264, 87 CYC:9984
C656  29 80     AND #$80                        A:10 X:FF Y:00 P:24 SP:FF PPU:276, 87 CYC:9988
C658  F0 F9     BEQ $C653                       A:00 X:FF Y:00 P:26 SP:FF PPU:282, 87 CYC:9990
C653  AD 02 20  LDA $2002 = FF                  A:00 X:FF Y:00 P:26 SP:FF PPU:291, 87 CYC:9993
C656  29 80     AND #$80                        A:10 X:FF Y:00 P:24 SP:FF PPU:303, 87 CYC:9997
C658  F0 F9     BEQ $C653                       A:00 X:FF Y:00 P:26 SP:FF PPU:309, 87 CYC:9999
C653  AD 02 20  LDA $2002 = FF                  A:00 X:FF Y:00 P:26 SP:FF PPU:318, 87 CYC:10002
C656  29 80     AND #$80                        A:10 X:FF Y:00 P:24 SP:FF PPU:330, 87 CYC:10006
C658  F0 F9     BEQ $C653                       A:00 X:FF Y:00 P:26 SP:FF PPU:336, 87 CYC:10008
C653  AD 02 20  LDA $2002 = FF                  A:00 X:FF Y:00 P:26 SP:FF PPU:  4, 88 CYC:10011
C656  29 80     AND #$80                        A:10 X:FF Y:00 P:24 SP:FF PPU: 16, 88 CYC:10015
C658  F0 F9     BEQ $C653                       A:00 X:FF Y:00 P:26 SP:FF PPU: 22, 88 CYC:10017
C653  AD 02 20  LDA $2002 = FF                  A:00 X:FF Y:00 P:26 SP:FF PPU: 31, 88 CYC:10020
C656  29 80     AND #$80                        A:10 X:FF Y:00 P:24 SP:FF PPU: 43, 88 CYC:10024
C658  F0 F9     BEQ $C653                       A:00 X:FF Y:00 P:26 SP:FF PPU: 49, 88 CYC:10026
C653  AD 02 20  LDA $2002 = FF                  A:00 X:FF Y:00 P:26 SP:FF PPU: 58, 88 CYC:10029
C656  29 80     AND #$80                        A:10 X:FF Y:00 P:24 SP:FF PPU: 70, 88 CYC:10033
C658  F0 F9     BEQ $C653                       A:00 X:FF Y:00 P:26 SP:FF PPU: 76, 88 CYC:10035
C653  AD 02 20  LDA $2002 = FF                  A:00 X:FF Y:00 P:26 SP:FF PPU: 85, 88 CYC:10038
C656  29 80     AND #$80                        A:10 X:FF Y:00 P:24 SP:FF PPU: 97, 88 CYC:10042
C658  F0 F9     BEQ $C653                       A:00 X:FF Y:00 P:26 SP:FF PPU:103, 88 CYC:10044
C653  AD 02 20  LDA $2002 = FF                  A:00 X:FF Y:00 P:26 SP:FF PPU:112, 88 CYC:10047
C656  29 80     AND #$80                        A:10 X:FF Y:00 P:24 SP:FF PPU:124, 88 CYC:10051
C658  F0 F9     BEQ $C653                       A:00 X:FF Y:00 P:26 SP:FF PPU:130, 88 CYC:10053
C653  AD 02 20  LDA $2002 = FF                  A:00 X:FF Y:00 P:26 SP:FF PPU:139, 88 CYC:10056
C656  29 80     AND #$80                        A:10 X:FF Y:00 P:24 SP:FF PPU:151, 88 CYC:10060
C658  F0 F9     BEQ $C653                       A:00 X:FF Y:00 P:26 SP:FF PPU:157, 88 CYC:10062
C653  AD 02 20  LDA $2002 = FF                  A:00 X:FF Y:00 P:26 SP:FF PPU:166, 88 CYC:10065
C656  29 80     AND #$80                        A:10 X:FF Y:00 P:24 SP:FF PPU:178, 88 CYC:10069
C658  F0 F9     BEQ $C653                       A:00 X:FF Y:00 P:26 SP:FF PPU:184, 88 CYC:10071
C653  AD 02 20  LDA $2002 = FF                  A:00 X:FF Y:00 P:26 SP:FF PPU:193, 88 CYC:10074
C656  29 80     AND #$80                        A:10 X:FF Y:00 P:24 SP:FF PPU:205, 88 CYC:10078
C658  F0 F9     BEQ $C653                       A:00 X:FF Y:00 P:26 SP:FF PPU:211, 88 CYC:10080
C653  AD 02 20  LDA $2002 = FF                  A:00 X:FF Y:00 P:26 SP:FF PPU:220, 88 CYC:10083
C656  29 80     AND #$80                        A:10 X:FF Y:00 P:24 SP:FF PPU:232, 88 CYC:10087
C658  F0 F9     BEQ $C653                       A:00 X:FF Y:00 P:26 SP:FF PPU:238, 88 CYC:10089
C653  AD 02 20  LDA $2002 = FF                  A:00 X:FF Y:00 P:26 SP:FF PPU:247, 88 CYC:10092
C656  29 80     AND #$80                        A:10 X:FF Y:00 P:24 SP:FF PPU:259, 88 CYC:10096
C658  F0 F9     BEQ $C653                       A:00 X:FF Y:00 P:26 SP:FF PPU:265, 88 CYC:10098
C653  AD 02 20  LDA $2002 = FF                  A:00 X:FF Y:00 P:26 SP:FF PPU:274, 88 CYC:10101
C656  29 80     AND #$80                        A:10 X:FF Y:00 P:24 SP:FF PPU:286, 88 CYC:10105
C658  F0 F9     BEQ $C653                       A:00 X:FF Y:00 P:26 SP:FF PPU:292, 88 CYC:10107
C653  AD 02 20  LDA $2002 = FF                  A:00 X:FF Y:00 P:26 SP:FF PPU:301, 88 CYC:10110
C656  29 80     AND #$80                        A:10 X:FF Y:00 P:24 SP:FF PPU:313, 88 CYC:10114
C658  F0 F9     BEQ $C653                       A:00 X:FF Y:00 P:26 SP:FF PPU:319, 88 CYC:10116
C653  AD 02 20  LDA $2002 = FF                  A:00 X:FF Y:00 P:26 SP:FF PPU:328, 88 CYC:10119
C656  29 80     AND #$80                        A:10 X:FF Y:00 P:24 SP:FF PPU:340, 88 CYC:10123
C658  F0 F9     BEQ $C653                       A:00 X:FF Y:00 P:26 SP:FF PPU:  5, 89 CYC:10125
C653  AD 02 20  LDA $2002 = FF                  A:00 X:FF Y:00 P:26 SP:FF PPU: 14, 89 CYC:10128
C656  29 80     AND #$80                        A:10 X:FF Y:00 P:24 SP:FF PPU: 26, 89 CYC:10132
C658  F0 F9     BEQ $C653                       A:00 X:FF Y:00 P:26 SP:FF PPU: 32, 89 CYC:10134
C653  AD 02 20  LDA $2002 = FF                  A:00 X:FF Y:00 P:26 SP:FF PPU: 41, 89 CYC:10137
C656  29 80     AND #$80                        A:10 X:FF Y:00 P:24 SP:FF PPU: 53, 89 CYC:10141
C658  F0 F9     BEQ $C653                       A:00 X:FF Y:00 P:26 SP:FF PPU: 59, 89 CYC:10143
C653  AD 02 20  LDA $2002 = FF                  A:00 X:FF Y:00 P:26 SP:FF PPU: 68, 89 CYC:10146
C656  29 80     AND #$80                        A:10 X:FF Y:00 P:24 SP:FF PPU: 80, 89 CYC:10150
C658  F0 F9     BEQ $C653                       A:00 X:FF Y:00 P:26 SP:FF PPU: 86, 89 CYC:10152
C653  AD 02 20  LDA $2002 = FF                  A:00 X:FF Y:00 P:26 SP:FF PPU: 95, 89 CYC:10155
C656  29 80     AND #$80                        A:10 X:FF Y:00 P:24 SP:FF PPU:107, 89 CYC:10159
C658  F0 F9     BEQ $C653                       A:00 X:FF Y:00 P:26 SP:FF PPU:113, 89 CYC:10161
C653  AD 02 20  LDA $2002 = FF                  A:00 X:FF Y:00 P:26 SP:FF PPU:122, 89 CYC:10164
C656  29 80     AND #$80                        A:10 X:FF Y:00 P:24 SP:FF PPU:134, 89 CYC:10168
C658  F0 F9     BEQ $C653                       A:00 X:FF Y:00 P:26 SP:FF PPU:140, 89 CYC:10170
C653  AD 02 20  LDA $2002 = FF                  A:00 X:FF Y:00 P:26 SP:FF PPU:149, 89 CYC:10173
C656  29 80     AND #$80                        A:10 X:FF Y:00 P:24 SP:FF PPU:161, 89 CYC:10177
C658  F0 F9     BEQ $C653                       A:00 X:FF Y:00 P:26 SP:FF PPU:167, 89 CYC:10179
C653  AD 02 20  LDA $2002 = FF                  A:00 X:FF Y:00 P:26 SP:FF PPU:176, 89 CYC:10182
C656  29 80     AND #$80                        A:10 X:FF Y:00 P:24 SP:FF PPU:188, 89 CYC:10186
C658  F0 F9     BEQ $C653                       A:00 X:FF Y:00 P:26 SP:FF PPU:194, 89 CYC:10188
C653  AD 02 20  LDA $2002 = FF                  A:00 X:FF Y:00 P:26 SP:FF PPU:203, 89 CYC:10191
C656  29 80     AND #$80                        A:10 X:FF Y:00 P:24 SP:FF PPU:215, 89 CYC:10195
C658  F0 F9     BEQ $C653                       A:00 X:FF Y:00 P:26 SP:FF PPU:221, 89 CYC:10197
C653  AD 02 20  LDA $2002 = FF                  A:00 X:FF Y:00 P:26 SP:FF PPU:230, 89 CYC:10200
C656  29 80     AND #$80                        A:10 X:FF Y:00 P:24 SP:FF PPU:242, 89 CYC:10204
C658  F0 F9     BEQ $C653                       A:00 X:FF Y:00 P:26 SP:FF PPU:248, 89 CYC:10206
C653  AD 02 20  LDA $2002 = FF                  A:00 X:FF Y:00 P:26 SP:FF PPU:257, 89 CYC:10209
C656  29 80     AND #$80                        A:10 X:FF Y:00 P:24 SP:FF PPU:269, 89 CYC:10213
C658  F0 F9     BEQ $C653                       A:00 X:FF Y:00 P:26 SP:FF PPU:275, 89 CYC:10215
C653  AD 02 20  LDA $2002 = FF                  A:00 X:FF Y:00 P:26 SP:FF PPU:284, 89 CYC:10218
C656  29 80     AND #$80                        A:10 X:FF Y:00 P:24 SP:FF PPU:296, 89 CYC:10222
C658  F0 F9     BEQ $C653                       A:00 X:FF Y:00 P:26 SP:FF PPU:302, 89 CYC:10224
C653  AD 02 20  LDA $2002 = FF                  A:00 X:FF Y:00 P:26 SP:FF PPU:311, 89 CYC:10227
C656  29 80     AND #$80                        A:10 X:FF Y:00 P:24 SP:FF PPU:323, 89 CYC:10231
C658  F0 F9     BEQ $C653                       A:00 X:FF Y:00 P:26 SP:FF PPU:329, 89 CYC:10233
C653  AD 02 20  LDA $2002 = FF                  A:00 X:FF Y:00 P:26 SP:FF PPU:338, 89 CYC:10236
C656  29 80     AND #$80                        A:10 X:FF Y:00 P:24 SP:FF PPU:  9, 90 CYC:10240
C658  F0 F9     BEQ $C653                       A:00 X:FF Y:00 P:26 SP:FF PPU: 15, 90 CYC:10242
C653  AD 02 20  LDA $2002 = FF                  A:00 X:FF Y:00 P:26 SP:FF PPU: 24, 90 CYC:10245
C656  29 80     AND #$80                        A:10 X:FF Y:00 P:24 SP:FF PPU: 36, 90 CYC:10249
C658  F0 F9     BEQ $C653                       A:00 X:FF Y:00 P:26 SP:FF PPU: 42, 90 CYC:10251
C653  AD 02 20  LDA $2002 = FF                  A:00 X:FF Y:00 P:26 SP:FF PPU: 51, 90 CYC:10254
C656  29 80     AND #$80                        A:10 X:FF Y:00 P:24 SP:FF PPU: 63, 90 CYC:10258
C658  F0 F9     BEQ $C653                       A:00 X:FF Y:00 P:26 SP:FF PPU: 69, 90 CYC:10260
C653  AD 02 20  LDA $2002 = FF                  A:00 X:FF Y:00 P:26 SP:FF PPU: 78, 90 CYC:10263
C656  29 80     AND #$80                        A:10 X:FF Y:00 P:24 SP:FF PPU: 90, 90 CYC:10267
C658  F0 F9     BEQ $C653                       A:00 X:FF Y:00 P:26 SP:FF PPU: 96, 90 CYC:10269
C653  AD 02 20  LDA $2002 = FF                  A:00 X:FF Y:00 P:26 SP:FF PPU:105, 90 CYC:10272
C656  29 80     AND #$80                        A:10 X:FF Y:00 P:24 SP:FF PPU:117, 90 CYC:10276
C658  F0 F9     BEQ $C653                       A:00 X:FF Y:00 P:26 SP:FF PPU:123, 90 CYC:10278
C653  AD 02 20  LDA $2002 = FF                  A:00 X:FF Y:00 P:26 SP:FF PPU:132, 90 CYC:10281
C656  29 80     AND #$80                        A:10 X:FF Y:00 P:24 SP:FF PPU:144, 90 CYC:10285
C658  F0 F9     BEQ $C653                       A:00 X:FF Y:00 P:26 SP:FF PPU:150, 90 CYC:10287
C653  AD 02 20  LDA $2002 = FF                  A:00 X:FF Y:00 P:26 SP:FF PPU:159, 90 CYC:10290
C656  29 80     AND #$80                        A:10 X:FF Y:00 P:24 SP:FF PPU:171, 90 CYC:10294
C658  F0 F9     BEQ $C653                       A:00 X:FF Y:00 P:26 SP:FF PPU:177, 90 CYC:10296
C653  AD 02 20  LDA $2002 = FF                  A:00 X:FF Y:00 P:26 SP:FF PPU:186, 90 CYC:10299
C656  29 80     AND #$80                        A:10 X:FF Y:00 P:24 SP:FF PPU:198, 90 CYC:10303
C658  F0 F9     BEQ $C653                       A:00 X:FF Y:00 P:26 SP:FF PPU:204, 90 CYC:10305
C653  AD 02 20  LDA $2002 = FF                  A:00 X:FF Y:00 P:26 SP:FF PPU:213, 90 CYC:10308
C656  29 80     AND #$80                        A:10 X:FF Y:00 P:24 SP:FF PPU:225, 90 CYC:10312
C658  F0 F9     BEQ $C653                       A:00 X:FF Y:00 P:26 SP:FF PPU:231, 90 CYC:10314
C653  AD 02 20  LDA $2002 = FF                  A:00 X:FF Y:00 P:26 SP:FF PPU:240, 90 CYC:10317
C656  29 80     AND #$80                        A:10 X:FF Y:00 P:24 SP:FF PPU:252, 90 CYC:10321
C658  F0 F9     BEQ $C653                       A:00 X:FF Y:00 P:26 SP:FF PPU:258, 90 CYC:10323
C653  AD 02 20  LDA $2002 = FF                  A:00 X:FF Y:00 P:26 SP:FF PPU:267, 90 CYC:10326
C656  29 80     AND #$80                        A:10 X:FF Y:00 P:24 SP:FF PPU:279, 90 CYC:10330
C658  F0 F9     BEQ $C653                       A:00 X:FF Y:00 P:26 SP:FF PPU:285, 90 CYC:10332
C653  AD 02 20  LDA $2002 = FF                  A:00 X:FF Y:00 P:26 SP:FF PPU:294, 90 CYC:10335
C656  29 80     AND #$80                        A:10 X:FF Y:00 P:24 SP:FF PPU:306, 90 CYC:10339
C658  F0 F9     BEQ $C653                       A:00 X:FF Y:00 P:26 SP:FF PPU:312, 90 CYC:10341
C653  AD 02 20  LDA $2002 = FF                  A:00 X:FF Y:00 P:26 SP:FF PPU:321, 90 CYC:10344
C656  29 80     AND #$80                        A:10 X:FF Y:00 P:24 SP:FF PPU:333, 90 CYC:10348
C658  F0 F9     BEQ $C653                       A:00 X:FF Y:00 P:26 SP:FF PPU:339, 90 CYC:10350
C653  AD 02 20  LDA $2002 = FF                  A:00 X:FF Y:00 P:26 SP:FF PPU:  7, 91 CYC:10353
C656  29 80     AND #$80                        A:10 X:FF Y:00 P:24 SP:FF PPU: 19, 91 CYC:10357
C658  F0 F9     BEQ $C653                       A:00 X:FF Y:00 P:26 SP:FF PPU: 25, 91 CYC:10359
C653  AD 02 20  LDA $2002 = FF                  A:00 X:FF Y:00 P:26 SP:FF PPU: 34, 91 CYC:10362
C656  29 80     AND #$80                        A:10 X:FF Y:00 P:24 SP:FF PPU: 46, 91 CYC:10366
C658  F0 F9     BEQ $C653                       A:00 X:FF Y:00 P:26 SP:FF PPU: 52, 91 CYC:10368
C653  AD 02 20  LDA $2002 = FF                  A:00 X:FF Y:00 P:26 SP:FF PPU: 61, 91 CYC:10371
C656  29 80     AND #$80                        A:10 X:FF Y:00 P:24 SP:FF PPU: 73, 91 CYC:10375
C658  F0 F9     BEQ $C653                       A:00 X:FF Y:00 P:26 SP:FF PPU: 79, 91 CYC:10377
C653  AD 02 20  LDA $2002 = FF                  A:00 X:FF Y:00 P:26 SP:FF PPU: 88, 91 CYC:10380
C656  29 80     AND #$80                        A:10 X:FF Y:00 P:24 SP:FF PPU:100, 91 CYC:10384
C658  F0 F9     BEQ $C653                       A:00 X:FF Y:00 P:26 SP:FF PPU:106, 91 CYC:10386
C653  AD 02 20  LDA $2002 = FF                  A:00 X:FF Y:00 P:26 SP:FF PPU:115, 91 CYC:10389
C656  29 80     AND #$80                        A:10 X:FF Y:00 P:24 SP:FF PPU:127, 91 CYC:10393
C658  F0 F9     BEQ $C653                       A:00 X:FF Y:00 P:26 SP:FF PPU:133, 91 CYC:10395
C653  AD 02 20  LDA $2002 = FF                  A:00 X:FF Y:00 P:26 SP:FF PPU:142, 91 CYC:10398
C656  29 80     AND #$80                        A:10 X:FF Y:00 P:24 SP:FF PPU:154, 91 CYC:10402
C658  F0 F9     BEQ $C653                       A:00 X:FF Y:00 P:26 SP:FF PPU:160, 91 CYC:10404
C653  AD 02 20  LDA $2002 = FF                  A:00 X:FF Y:00 P:26 SP:FF PPU:169, 91 CYC:10407
C656  29 80     AND #$80                        A:10 X:FF Y:00 P:24 SP:FF PPU:181, 91 CYC:10411
C658  F0 F9     BEQ $C653                       A:00 X:FF Y:00 P:26 SP:FF PPU:187, 91 CYC:10413
C653  AD 02 20  LDA $2002 = FF                  A:00 X:FF Y:00 P:26 SP:FF PPU:196, 91 CYC:10416
C656  29 80     AND #$80                        A:10 X:FF Y:00 P:24 SP:FF PPU:208, 91 CYC:10420
C658  F0 F9     BEQ $C653                       A:00 X:FF Y:00 P:26 SP:FF PPU:214, 91 CYC:10422
C653  AD 02 20  LDA $2002 = FF                  A:00 X:FF Y:00 P:26 SP:FF PPU:223, 91 CYC:10425
C656  29 80     AND #$80                        A:10 X:FF Y:00 P:24 SP:FF PPU:235, 91 CYC:10429
C658  F0 F9     BEQ $C653                       A:00 X:FF Y:00 P:26 SP:FF PPU:241, 91 CYC:10431
C653  AD 02 20  LDA $2002 = FF                  A:00 X:FF Y:00 P:26 SP:FF PPU:250, 91 CYC:10434
C656  29 80     AND #$80                        A:10 X:FF Y:00 P:24 SP:FF PPU:262, 91 CYC:10438
C658  F0 F9     BEQ $C653                       A:00 X:FF Y:00 P:26 SP:FF PPU:268, 91 CYC:10440
C653  AD 02 20  LDA $2002 = FF                  A:00 X:FF Y:00 P:26 SP:FF PPU:277, 91 CYC:10443
C656  29 80     AND #$80                        A:10 X:FF Y:00 P:24 SP:FF PPU:289, 91 CYC:10447
C658  F0 F9     BEQ $C653                       A:00 X:FF Y:00 P:26 SP:FF PPU:295, 91 CYC:10449
C653  AD 02 20  LDA $2002 = FF                  A:00 X:FF Y:00 P:26 SP:FF PPU:304, 91 CYC:10452
C656  29 80     AND #$80                        A:10 X:FF Y:00 P:24 SP:FF PPU:316, 91 CYC:10456
C658  F0 F9     BEQ $C653                       A:00 X:FF Y:00 P:26 SP:FF PPU:322, 91 CYC:10458
C653  AD 02 20  LDA $2002 = FF                  A:00 X:FF Y:00 P:26 SP:FF PPU:331, 91 CYC:10461
C656  29 80     AND #$80                        A:10 X:FF Y:00 P:24 SP:FF PPU:  2, 92 CYC:10465
C658  F0 F9     BEQ $C653                       A:00 X:FF Y:00 P:26 SP:FF PPU:  8, 92 CYC:10467
C653  AD 02 20  LDA $2002 = FF                  A:00 X:FF Y:00 P:26 SP:FF PPU: 17, 92 CYC:10470
C656  29 80     AND #$80                        A:10 X:FF Y:00 P:24 SP:FF PPU: 29, 92 CYC:10474
C658  F0 F9     BEQ $C653                       A:00 X:FF Y:00 P:26 SP:FF PPU: 35, 92 CYC:10476
C653  AD 02 20  LDA $2002 = FF                  A:00 X:FF Y:00 P:26 SP:FF PPU: 44, 92 CYC:10479
C656  29 80     AND #$80                        A:10 X:FF Y:00 P:24 SP:FF PPU: 56, 92 CYC:10483
C658  F0 F9     BEQ $C653                       A:00 X:FF Y:00 P:26 SP:FF PPU: 62, 92 CYC:10485
C653  AD 02 20  LDA $2002 = FF                  A:00 X:FF Y:00 P:26 SP:FF PPU: 71, 92 CYC:10488
C656  29 80     AND #$80                        A:10 X:FF Y:00 P:24 SP:FF PPU: 83, 92 CYC:10492
C658  F0 F9     BEQ $C653                       A:00 X:FF Y:00 P:26 SP:FF PPU: 89, 92 CYC:10494
C653  AD 02 20  LDA $2002 = FF                  A:00 X:FF Y:00 P:26 SP:FF PPU: 98, 92 CYC:10497
C656  29 80     AND #$80                        A:10 X:FF Y:00 P:24 SP:FF PPU:110, 92 CYC:10501
C658  F0 F9     BEQ $C653                       A:00 X:FF Y:00 P:26 SP:FF PPU:116, 92 CYC:10503
C653  AD 02 20  LDA $2002 = FF                  A:00 X:FF Y:00 P:26 SP:FF PPU:125, 92 CYC:10506
C656  29 80     AND #$80                        A:10 X:FF Y:00 P:24 SP:FF PPU:137, 92 CYC:10510
C658  F0 F9     BEQ $C653                       A:00 X:FF Y:00 P:26 SP:FF PPU:143, 92 CYC:10512
C653  AD 02 20  LDA $2002 = FF                  A:00 X:FF Y:00 P:26 SP:FF PPU:152, 92 CYC:10515
C656  29 80     AND #$80                        A:10 X:FF Y:00 P:24 SP:FF PPU:164, 92 CYC:10519
C658  F0 F9     BEQ $C653                       A:00 X:FF Y:00 P:26 SP:FF PPU:170, 92 CYC:10521
C653  AD 02 20  LDA $2002 = FF                  A:00 X:FF Y:00 P:26 SP:FF PPU:179, 92 CYC:10524
C656  29 80     AND #$80                        A:10 X:FF Y:00 P:24 SP:FF PPU:191, 92 CYC:10528
C658  F0 F9     BEQ $C653                       A:00 X:FF Y:00 P:26 SP:FF PPU:197, 92 CYC:10530
C653  AD 02 20  LDA $2002 = FF                  A:00 X:FF Y:00 P:26 SP:FF PPU:206, 92 CYC:10533
C656  29 80     AND #$80                        A:10 X:FF Y:00 P:24 SP:FF PPU:218, 92 CYC:10537
C658  F0 F9     BEQ $C653                       A:00 X:FF Y:00 P:26 SP:FF PPU:224, 92 CYC:10539
C653  AD 02 20  LDA $2002 = FF                  A:00 X:FF Y:00 P:26 SP:FF PPU:233, 92 CYC:10542
C656  29 80     AND #$80                        A:10 X:FF Y:00 P:24 SP:FF PPU:245, 92 CYC:10546
C658  F0 F9     BEQ $C653                       A:00 X:FF Y:00 P:26 SP:FF PPU:251, 92 CYC:10548
C653  AD 02 20  LDA $2002 = FF                  A:00 X:FF Y:00 P:26 SP:FF PPU:260, 92 CYC:10551
C656  29 80     AND #$80                        A:10 X:FF Y:00 P:24 SP:FF PPU:272, 92 CYC:10555
C658  F0 F9     BEQ $C653                       A:00 X:FF Y:00 P:26 SP:FF PPU:278, 92 CYC:10557
C653  AD 02 20  LDA $2002 = FF                  A:00 X:FF Y:00 P:26 SP:FF PPU:287, 92 CYC:10560
C656  29 80     AND #$80                        A:10 X:FF Y:00 P:24 SP:FF PPU:299, 92 CYC:10564
C658  F0 F9     BEQ $C653                       A:00 X:FF Y:00 P:26 SP:FF PPU:305, 92 CYC:10566
C653  AD 02 20  LDA $2002 = FF                  A:00 X:FF Y:00 P:26 SP:FF PPU:314, 92 CYC:10569
C656  29 80     AND #$80                        A:10 X:FF Y:00 P:24 SP:FF PPU:326, 92 CYC:10573
C658  F0 F9     BEQ $C653                       A:00 X:FF Y:00 P:26 SP:FF PPU:332, 92 CYC:10575
C653  AD 02 20  LDA $2002 = FF                  A:00 X:FF Y:00 P:26 SP:FF PPU:  0, 93 CYC:10578
C656  29 80     AND #$80                        A:10 X:FF Y:00 P:24 SP:FF PPU: 12, 93 CYC:10582
C658  F0 F9     BEQ $C653                       A:00 X:FF Y:00 P:26 SP:FF PPU: 18, 93 CYC:10584
C653  AD 02 20  LDA $2002 = FF                  A:00 X:FF Y:00 P:26 SP:FF PPU: 27, 93 CYC:10587
C656  29 80     AND #$80                        A:10 X:FF Y:00 P:24 SP:FF PPU: 39, 93 CYC:10591
C658  F0 F9     BEQ $C653                       A:00 X:FF Y:00 P:26 SP:FF PPU: 45, 93 CYC:10593
C653  AD 02 20  LDA $2002 = FF                  A:00 X:FF Y:00 P:26 SP:FF PPU: 54, 93 CYC:10596
C656  29 80     AND #$80                        A:10 X:FF Y:00 P:24 SP:FF PPU: 66, 93 CYC:10600
C658  F0 F9     BEQ $C653                       A:00 X:FF Y:00 P:26 SP:FF PPU: 72, 93 CYC:10602
C653  AD 02 20  LDA $2002 = FF                  A:00 X:FF Y:00 P:26 SP:FF PPU: 81, 93 CYC:10605
C656  29 80     AND #$80                        A:10 X:FF Y:00 P:24 SP:FF PPU: 93, 93 CYC:10609
C658  F0 F9     BEQ $C653                       A:00 X:FF Y:00 P:26 SP:FF PPU: 99, 93 CYC:10611
C653  AD 02 20  LDA $2002 = FF                  A:00 X:FF Y:00 P:26 SP:FF PPU:108, 93 CYC:10614
C656  29 80     AND #$80                        A:10 X:FF Y:00 P:24 SP:FF PPU:120, 93 CYC:10618
C658  F0 F9     BEQ $C653                       A:00 X:FF Y:00 P:26 SP:FF PPU:126, 93 CYC:10620
C653  AD 02 20  LDA $2002 = FF                  A:00 X:FF Y:00 P:26 SP:FF PPU:135, 93 CYC:10623
C656  29 80     AND #$80                        A:10 X:FF Y:00 P:24 SP:FF PPU:147, 93 CYC:10627
C658  F0 F9     BEQ $C653                       A:00 X:FF Y:00 P:26 SP:FF PPU:153, 93 CYC:10629
C653  AD 02 20  LDA $2002 = FF                  A:00 X:FF Y:00 P:26 SP:FF PPU:162, 93 CYC:10632
C656  29 80     AND #$80                        A:10 X:FF Y:00 P:24 SP:FF PPU:174, 93 CYC:10636
C658  F0 F9     BEQ $C653                       A:00 X:FF Y:00 P:26 SP:FF PPU:180, 93 CYC:10638
C653  AD 02 20  LDA $2002 = FF                  A:00 X:FF Y:00 P:26 SP:FF PPU:189, 93 CYC:10641
C656  29 80     AND #$80                        A:10 X:FF Y:00 P:24 SP:FF PPU:201, 93 CYC:10645
C658  F0 F9     BEQ $C653                       A:00 X:FF Y:00 P:26 SP:FF PPU:207, 93 CYC:10647
C653  AD 02 20  LDA $2002 = FF                  A:00 X:FF Y:00 P:26 SP:FF PPU:216, 93 CYC:10650
C656  29 80     AND #$80                        A:10 X:FF Y:00 P:24 SP:FF PPU:228, 93 CYC:10654
C658  F0 F9     BEQ $C653                       A:00 X:FF Y:00 P:26 SP:FF PPU:234, 93 CYC:10656
C653  AD 02 20  LDA $2002 = FF                  A:00 X:FF Y:00 P:26 SP:FF PPU:243, 93 CYC:10659
C656  29 80     AND #$80                        A:10 X:FF Y:00 P:24 SP:FF PPU:255, 93 CYC:10663
C658  F0 F9     BEQ $C653                       A:00 X:FF Y:00 P:26 SP:FF PPU:261, 93 CYC:10665
C653  AD 02 20  LDA $2002 = FF                  A:00 X:FF Y:00 P:26 SP:FF PPU:270, 93 CYC:10668
C656  29 80     AND #$80                        A:10 X:FF Y:00 P:24 SP:FF PPU:282, 93 CYC:10672
C658  F0 F9     BEQ $C653                       A:00 X:FF Y:00 P:26 SP:FF PPU:288, 93 CYC:10674
C653  AD 02 20  LDA $2002 = FF                  A:00 X:FF Y:00 P:26 SP:FF PPU:297, 93 CYC:10677
C656  29 80     AND #$80                        A:10 X:FF Y:00 P:24 SP:FF PPU:309, 93 CYC:10681
C658  F0 F9     BEQ $C653                       A:00 X:FF Y:00 P:26 SP:FF PPU:315, 93 CYC:10683
C653  AD 02 20  LDA $2002 = FF                  A:00 X:FF Y:00 P:26 SP:FF PPU:324, 93 CYC:10686
C656  29 80     AND #$80                        A:10 X:FF Y:00 P:24 SP:FF PPU:336, 93 CYC:10690
C658  F0 F9     BEQ $C653                       A:00 X:FF Y:00 P:26 SP:FF PPU:  1, 94 CYC:10692
C653  AD 02 20  LDA $2002 = FF                  A:00 X:FF Y:00 P:26 SP:FF PPU: 10, 94 CYC:10695
C656  29 80     AND #$80                        A:10 X:FF Y:00 P:24 SP:FF PPU: 22, 94 CYC:10699
C658  F0 F9     BEQ $C653                       A:00 X:FF Y:00 P:26 SP:FF PPU: 28, 94 CYC:10701
C653  AD 02 20  LDA $2002 = FF                  A:00 X:FF Y:00 P:26 SP:FF PPU: 37, 94 CYC:10704
C656  29 80     AND #$80                        A:10 X:FF Y:00 P:24 SP:FF PPU: 49, 94 CYC:10708
C658  F0 F9     BEQ $C653                       A:00 X:FF Y:00 P:26 SP:FF PPU: 55, 94 CYC:10710
C653  AD 02 20  LDA $2002 = FF                  A:00 X:FF Y:00 P:26 SP:FF PPU: 64, 94 CYC:10713
C656  29 80     AND #$80                        A:10 X:FF Y:00 P:24 SP:FF PPU: 76, 94 CYC:10717
C658  F0 F9     BEQ $C653                       A:00 X:FF Y:00 P:26 SP:FF PPU: 82, 94 CYC:10719
C653  AD 02 20  LDA $2002 = FF                  A:00 X:FF Y:00 P:26 SP:FF PPU: 91, 94 CYC:10722
C656  29 80     AND #$80                        A:10 X:FF Y:00 P:24 SP:FF PPU:103, 94 CYC:10726
C658  F0 F9     BEQ $C653                       A:00 X:FF Y:00 P:26 SP:FF PPU:109, 94 CYC:10728
C653  AD 02 20  LDA $2002 = FF                  A:00 X:FF Y:00 P:26 SP:FF PPU:118, 94 CYC:10731
C656  29 80     AND #$80                        A:10 X:FF Y:00 P:24 SP:FF PPU:130, 94 CYC:10735
C658  F0 F9     BEQ $C653                       A:00 X:FF Y:00 P:26 SP:FF PPU:136, 94 CYC:10737
C653  AD 02 20  LDA $2002 = FF                  A:00 X:FF Y:00 P:26 SP:FF PPU:145, 94 CYC:10740
C656  29 80     AND #$80                        A:10 X:FF Y:00 P:24 SP:FF PPU:157, 94 CYC:10744
C658  F0 F9     BEQ $C653                       A:00 X:FF Y:00 P:26 SP:FF PPU:163, 94 CYC:10746
C653  AD 02 20  LDA $2002 = FF                  A:00 X:FF Y:00 P:26 SP:FF PPU:172, 94 CYC:10749
C656  29 80     AND #$80                        A:10 X:FF Y:00 P:24 SP:FF PPU:184, 94 CYC:10753
C658  F0 F9     BEQ $C653                       A:00 X:FF Y:00 P:26 SP:FF PPU:190, 94 CYC:10755
C653  AD 02 20  LDA $2002 = FF                  A:00 X:FF Y:00 P:26 SP:FF PPU:199, 94 CYC:10758
C656  29 80     AND #$80                        A:10 X:FF Y:00 P:24 SP:FF PPU:211, 94 CYC:10762
C658  F0 F9     BEQ $C653                       A:00 X:FF Y:00 P:26 SP:FF PPU:217, 94 CYC:10764
C653  AD 02 20  LDA $2002 = FF                  A:00 X:FF Y:00 P:26 SP:FF PPU:226, 94 CYC:10767
C656  29 80     AND #$80                        A:10 X:FF Y:00 P:24 SP:FF PPU:238, 94 CYC:10771
C658  F0 F9     BEQ $C653                       A:00 X:FF Y:00 P:26 SP:FF PPU:244, 94 CYC:10773
C653  AD 02 20  LDA $2002 = FF                  A:00 X:FF Y:00 P:26 SP:FF PPU:253, 94 CYC:10776
C656  29 80     AND #$80                        A:10 X:FF Y:00 P:24 SP:FF PPU:265, 94 CYC:10780
C658  F0 F9     BEQ $C653                       A:00 X:FF Y:00 P:26 SP:FF PPU:271, 94 CYC:10782
C653  AD 02 20  LDA $2002 = FF                  A:00 X:FF Y:00 P:26 SP:FF PPU:280, 94 CYC:10785
C656  29 80     AND #$80                        A:10 X:FF Y:00 P:24 SP:FF PPU:292, 94 CYC:10789
C658  F0 F9     BEQ $C653                       A:00 X:FF Y:00 P:26 SP:FF PPU:298, 94 CYC:10791
C653  AD 02 20  LDA $2002 = FF                  A:00 X:FF Y:00 P:26 SP:FF PPU:307, 94 CYC:10794
C656  29 80     AND #$80                        A:10 X:FF Y:00 P:24 SP:FF PPU:319, 94 CYC:10798
C658  F0 F9     BEQ $C653                       A:00 X:FF Y:00 P:26 SP:FF PPU:325, 94 CYC:10800
C653  AD 02 20  LDA $2002 = FF                  A:00 X:FF Y:00 P:26 SP:FF PPU:334, 94 CYC:10803
C656  29 80     AND #$80                        A:10 X:FF Y:00 P:24 SP:FF PPU:  5, 95 CYC:10807
C658  F0 F9     BEQ $C653                       A:00 X:FF Y:00 P:26 SP:FF PPU: 11, 95 CYC:10809
C653  AD 02 20  LDA $2002 = FF                  A:00 X:FF Y:00 P:26 SP:FF PPU: 20, 95 CYC:10812
C656  29 80     AND #$80                        A:10 X:FF Y:00 P:24 SP:FF PPU: 32, 95 CYC:10816
C658  F0 F9     BEQ $C653                       A:00 X:FF Y:00 P:26 SP:FF PPU: 38, 95 CYC:10818
C653  AD 02 20  LDA $2002 = FF                  A:00 X:FF Y:00 P:26 SP:FF PPU: 47, 95 CYC:10821
C656  29 80     AND #$80                        A:10 X:FF Y:00 P:24 SP:FF PPU: 59, 95 CYC:10825
C658  F0 F9     BEQ $C653                       A:00 X:FF Y:00 P:26 SP:FF PPU: 65, 95 CYC:10827
C653  AD 02 20  LDA $2002 = FF                  A:00 X:FF Y:00 P:26 SP:FF PPU: 74, 95 CYC:10830
C656  29 80     AND #$80                        A:10 X:FF Y:00 P:24 SP:FF PPU: 86, 95 CYC:10834
C658  F0 F9     BEQ $C653                       A:00 X:FF Y:00 P:26 SP:FF PPU: 92, 95 CYC:10836
C653  AD 02 20  LDA $2002 = FF                  A:00 X:FF Y:00 P:26 SP:FF PPU:101, 95 CYC:10839
C656  29 80     AND #$80                        A:10 X:FF Y:00 P:24 SP:FF PPU:113, 95 CYC:10843
C658  F0 F9     BEQ $C653                       A:00 X:FF Y:00 P:26 SP:FF PPU:119, 95 CYC:10845
C653  AD 02 20  LDA $2002 = FF                  A:00 X:FF Y:00 P:26 SP:FF PPU:128, 95 CYC:10848
C656  29 80     AND #$80                        A:10 X:FF Y:00 P:24 SP:FF PPU:140, 95 CYC:10852
C658  F0 F9     BEQ $C653                       A:00 X:FF Y:00 P:26 SP:FF PPU:146, 95 CYC:10854
C653  AD 02 20  LDA $2002 = FF                  A:00 X:FF Y:00 P:26 SP:FF PPU:155, 95 CYC:10857
C656  29 80     AND #$80                        A:10 X:FF Y:00 P:24 SP:FF PPU:167, 95 CYC:10861
C658  F0 F9     BEQ $C653                       A:00 X:FF Y:00 P:26 SP:FF PPU:173, 95 CYC:10863
C653  AD 02 20  LDA $2002 = FF                  A:00 X:FF Y:00 P:26 SP:FF PPU:182, 95 CYC:10866
C656  29 80     AND #$80                        A:10 X:FF Y:00 P:24 SP:FF PPU:194, 95 CYC:10870
C658  F0 F9     BEQ $C653                       A:00 X:FF Y:00 P:26 SP:FF PPU:200, 95 CYC:10872
C653  AD 02 20  LDA $2002 = FF                  A:00 X:FF Y:00 P:26 SP:FF PPU:209, 95 CYC:10875
C656  29 80     AND #$80                        A:10 X:FF Y:00 P:24 SP:FF PPU:221, 95 CYC:10879
C658  F0 F9     BEQ $C653                       A:00 X:FF Y:00 P:26 SP:FF PPU:227, 95 CYC:10881
C653  AD 02 20  LDA $2002 = FF                  A:00 X:FF Y:00 P:26 SP:FF PPU:236, 95 CYC:10884
C656  29 80     AND #$80                        A:10 X:FF Y:00 P:24 SP:FF PPU:248, 95 CYC:10888
C658  F0 F9     BEQ $C653                       A:00 X:FF Y:00 P:26 SP:FF PPU:254, 95 CYC:10890
C653  AD 02 20  LDA $2002 = FF                  A:00 X:FF Y:00 P:26 SP:FF PPU:263, 95 CYC:10893
C656  29 80     AND #$80                        A:10 X:FF Y:00 P:24 SP:FF PPU:275, 95 CYC:10897
C658  F0 F9     BEQ $C653                       A:00 X:FF Y:00 P:26 SP:FF PPU:281, 95 CYC:10899
C653  AD 02 20  LDA $2002 = FF                  A:00 X:FF Y:00 P:26 SP:FF PPU:290, 95 CYC:10902
C656  29 80     AND #$80                        A:10 X:FF Y:00 P:24 SP:FF PPU:302, 95 CYC:10906
C658  F0 F9     BEQ $C653                       A:00 X:FF Y:00 P:26 SP:FF PPU:308, 95 CYC:10908
C653  AD 02 20  LDA $2002 = FF                  A:00 X:FF Y:00 P:26 SP:FF PPU:317, 95 CYC:10911
C656  29 80     AND #$80                        A:10 X:FF Y:00 P:24 SP:FF PPU:329, 95 CYC:10915
C658  F0 F9     BEQ $C653                       A:00 X:FF Y:00 P:26 SP:FF PPU:335, 95 CYC:10917
C653  AD 02 20  LDA $2002 = FF                  A:00 X:FF Y:00 P:26 SP:FF PPU:  3, 96 CYC:10920
C656  29 80     AND #$80                        A:10 X:FF Y:00 P:24 SP:FF PPU: 15, 96 CYC:10924
C658  F0 F9     BEQ $C653                       A:00 X:FF Y:00 P:26 SP:FF PPU: 21, 96 CYC:10926
C653  AD 02 20  LDA $2002 = FF                  A:00 X:FF Y:00 P:26 SP:FF PPU: 30, 96 CYC:10929
C656  29 80     AND #$80                        A:10 X:FF Y:00 P:24 SP:FF PPU: 42, 96 CYC:10933
C658  F0 F9     BEQ $C653                       A:00 X:FF Y:00 P:26 SP:FF PPU: 48, 96 CYC:10935
C653  AD 02 20  LDA $2002 = FF                  A:00 X:FF Y:00 P:26 SP:FF PPU: 57, 96 CYC:10938
C656  29 80     AND #$80                        A:10 X:FF Y:00 P:24 SP:FF PPU: 69, 96 CYC:10942
C658  F0 F9     BEQ $C653                       A:00 X:FF Y:00 P:26 SP:FF PPU: 75, 96 CYC:10944
C653  AD 02 20  LDA $2002 = FF                  A:00 X:FF Y:00 P:26 SP:FF PPU: 84, 96 CYC:10947
C656  29 80     AND #$80                        A:10 X:FF Y:00 P:24 SP:FF PPU: 96, 96 CYC:10951
C658  F0 F9     BEQ $C653                       A:00 X:FF Y:00 P:26 SP:FF PPU:102, 96 CYC:10953
C653  AD 02 20  LDA $2002 = FF                  A:00 X:FF Y:00 P:26 SP:FF PPU:111, 96 CYC:10956
C656  29 80     AND #$80                        A:10 X:FF Y:00 P:24 SP:FF PPU:123, 96 CYC:10960
C658  F0 F9     BEQ $C653                       A:00 X:FF Y:00 P:26 SP:FF PPU:129, 96 CYC:10962
C653  AD 02 20  LDA $2002 = FF                  A:00 X:FF Y:00 P:26 SP:FF PPU:138, 96 CYC:10965
C656  29 80     AND #$80                        A:10 X:FF Y:00 P:24 SP:FF PPU:150, 96 CYC:10969
C658  F0 F9     BEQ $C653                       A:00 X:FF Y:00 P:26 SP:FF PPU:156, 96 CYC:10971
C653  AD 02 20  LDA $2002 = FF                  A:00 X:FF Y:00 P:26 SP:FF PPU:165, 96 CYC:10974
C656  29 80     AND #$80                        A:10 X:FF Y:00 P:24 SP:FF PPU:177, 96 CYC:10978
C658  F0 F9     BEQ $C653                       A:00 X:FF Y:00 P:26 SP:FF PPU:183, 96 CYC:10980
C653  AD 02 20  LDA $2002 = FF                  A:00 X:FF Y:00 P:26 SP:FF PPU:192, 96 CYC:10983
C656  29 80     AND #$80                        A:10 X:FF Y:00 P:24 SP:FF PPU:204, 96 CYC:10987
C658  F0 F9     BEQ $C653                       A:00 X:FF Y:00 P:26 SP:FF PPU:210, 96 CYC:10989
C653  AD 02 20  LDA $2002 = FF                  A:00 X:FF Y:00 P:26 SP:FF PPU:219, 96 CYC:10992
C656  29 80     AND #$80                        A:10 X:FF Y:00 P:24 SP:FF PPU:231, 96 CYC:10996
C658  F0 F9     BEQ $C653                       A:00 X:FF Y:00 P:26 SP:FF PPU:237, 96 CYC:10998
C653  AD 02 20  LDA $2002 = FF                  A:00 X:FF Y:00 P:26 SP:FF PPU:246, 96 CYC:11001
C656  29 80     AND #$80                        A:10 X:FF Y:00 P:24 SP:FF PPU:258, 96 CYC:11005
C658  F0 F9     BEQ $C653                       A:00 X:FF Y:00 P:26 SP:FF PPU:264, 96 CYC:11007
C653  AD 02 20  LDA $2002 = FF                  A:00 X:FF Y:00 P:26 SP:FF PPU:273, 96 CYC:11010
C656  29 80     AND #$80                        A:10 X:FF Y:00 P:24 SP:FF PPU:285, 96 CYC:11014
C658  F0 F9     BEQ $C653                       A:00 X:FF Y:00 P:26 SP:FF PPU:291, 96 CYC:11016
C653  AD 02 20  LDA $2002 = FF                  A:00 X:FF Y:00 P:26 SP:FF PPU:300, 96 CYC:11019
C656  29 80     AND #$80                        A:10 X:FF Y:00 P:24 SP:FF PPU:312, 96 CYC:11023
C658  F0 F9     BEQ $C653                       A:00 X:FF Y:00 P:26 SP:FF PPU:318, 96 CYC:11025
C653  AD 02 20  LDA $2002 = FF                  A:00 X:FF Y:00 P:26 SP:FF PPU:327, 96 CYC:11028
C656  29 80     AND #$80                        A:10 X:FF Y:00 P:24 SP:FF PPU:339, 96 CYC:11032
C658  F0 F9     BEQ $C653                       A:00 X:FF Y:00 P:26 SP:FF PPU:  4, 97 CYC:11034
C653  AD 02 20  LDA $2002 = FF                  A:00 X:FF Y:00 P:26 SP:FF PPU: 13, 97 CYC:11037
C656  29 80     AND #$80                        A:10 X:FF Y:00 P:24 SP:FF PPU: 25, 97 CYC:11041
C658  F0 F9     BEQ $C653                       A:00 X:FF Y:00 P:26 SP:FF PPU: 31, 97 CYC:11043
C653  AD 02 20  LDA $2002 = FF                  A:00 X:FF Y:00 P:26 SP:FF PPU: 40, 97 CYC:11046
C656  29 80     AND #$80                        A:10 X:FF Y:00 P:24 SP:FF PPU: 52, 97 CYC:11050
C658  F0 F9     BEQ $C653                       A:00 X:FF Y:00 P:26 SP:FF PPU: 58, 97 CYC:11052
C653  AD 02 20  LDA $2002 = FF                  A:00 X:FF Y:00 P:26 SP:FF PPU: 67, 97 CYC:11055
C656  29 80     AND #$80                        A:10 X:FF Y:00 P:24 SP:FF PPU: 79, 97 CYC:11059
C658  F0 F9     BEQ $C653                       A:00 X:FF Y:00 P:26 SP:FF PPU: 85, 97 CYC:11061
C653  AD 02 20  LDA $2002 = FF                  A:00 X:FF Y:00 P:26 SP:FF PPU: 94, 97 CYC:11064
C656  29 80     AND #$80                        A:10 X:FF Y:00 P:24 SP:FF PPU:106, 97 CYC:11068
C658  F0 F9     BEQ $C653                       A:00 X:FF Y:00 P:26 SP:FF PPU:112, 97 CYC:11070
C653  AD 02 20  LDA $2002 = FF                  A:00 X:FF Y:00 P:26 SP:FF PPU:121, 97 CYC:11073
C656  29 80     AND #$80                        A:10 X:FF Y:00 P:24 SP:FF PPU:133, 97 CYC:11077
C658  F0 F9     BEQ $C653                       A:00 X:FF Y:00 P:26 SP:FF PPU:139, 97 CYC:11079
C653  AD 02 20  LDA $2002 = FF                  A:00 X:FF Y:00 P:26 SP:FF PPU:148, 97 CYC:11082
C656  29 80     AND #$80                        A:10 X:FF Y:00 P:24 SP:FF PPU:160, 97 CYC:11086
C658  F0 F9     BEQ $C653                       A:00 X:FF Y:00 P:26 SP:FF PPU:166, 97 CYC:11088
C653  AD 02 20  LDA $2002 = FF                  A:00 X:FF Y:00 P:26 SP:FF PPU:175, 97 CYC:11091
C656  29 80     AND #$80                        A:10 X:FF Y:00 P:24 SP:FF PPU:187, 97 CYC:11095
C658  F0 F9     BEQ $C653                       A:00 X:FF Y:00 P:26 SP:FF PPU:193, 97 CYC:11097
C653  AD 02 20  LDA $2002 = FF                  A:00 X:FF Y:00 P:26 SP:FF PPU:202, 97 CYC:11100
C656  29 80     AND #$80                        A:10 X:FF Y:00 P:24 SP:FF PPU:214, 97 CYC:11104
C658  F0 F9     BEQ $C653                       A:00 X:FF Y:00 P:26 SP:FF PPU:220, 97 CYC:11106
C653  AD 02 20  LDA $2002 = FF                  A:00 X:FF Y:00 P:26 SP:FF PPU:229, 97 CYC:11109
C656  29 80     AND #$80                        A:10 X:FF Y:00 P:24 SP:FF PPU:241, 97 CYC:11113
C658  F0 F9     BEQ $C653                       A:00 X:FF Y:00 P:26 SP:FF PPU:247, 97 CYC:11115
C653  AD 02 20  LDA $2002 = FF                  A:00 X:FF Y:00 P:26 SP:FF PPU:256, 97 CYC:11118
C656  29 80     AND #$80                        A:10 X:FF Y:00 P:24 SP:FF PPU:268, 97 CYC:11122
C658  F0 F9     BEQ $C653                       A:00 X:FF Y:00 P:26 SP:FF PPU:274, 97 CYC:11124
C653  AD 02 20  LDA $2002 = FF                  A:00 X:FF Y:00 P:26 SP:FF PPU:283, 97 CYC:11127
C656  29 80     AND #$80                        A:10 X:FF Y:00 P:24 SP:FF PPU:295, 97 CYC:11131
C658  F0 F9     BEQ $C653                       A:00 X:FF Y:00 P:26 SP:FF PPU:301, 97 CYC:11133
C653  AD 02 20  LDA $2002 = FF                  A:00 X:FF Y:00 P:26 SP:FF PPU:310, 97 CYC:11136
C656  29 80     AND #$80                        A:10 X:FF Y:00 P:24 SP:FF PPU:322, 97 CYC:11140
C658  F0 F9     BEQ $C653                       A:00 X:FF Y:00 P:26 SP:FF PPU:328, 97 CYC:11142
C653  AD 02 20  LDA $2002 = FF                  A:00 X:FF Y:00 P:26 SP:FF PPU:337, 97 CYC:11145
C656  29 80     AND #$80                        A:10 X:FF Y:00 P:24 SP:FF PPU:  8, 98 CYC:11149
C658  F0 F9     BEQ $C653                       A:00 X:FF Y:00 P:26 SP:FF PPU: 14, 98 CYC:11151
C653  AD 02 20  LDA $2002 = FF                  A:00 X:FF Y:00 P:26 SP:FF PPU: 23, 98 CYC:11154
C656  29 80     AND #$80                        A:10 X:FF Y:00 P:24 SP:FF PPU: 35, 98 CYC:11158
C658  F0 F9     BEQ $C653                       A:00 X:FF Y:00 P:26 SP:FF PPU: 41, 98 CYC:11160
C653  AD 02 20  LDA $2002 = FF                  A:00 X:FF Y:00 P:26 SP:FF PPU: 50, 98 CYC:11163
C656  29 80     AND #$80                        A:10 X:FF Y:00 P:24 SP:FF PPU: 62, 98 CYC:11167
C658  F0 F9     BEQ $C653                       A:00 X:FF Y:00 P:26 SP:FF PPU: 68, 98 CYC:11169
C653  AD 02 20  LDA $2002 = FF                  A:00 X:FF Y:00 P:26 SP:FF PPU: 77, 98 CYC:11172
C656  29 80     AND #$80                        A:10 X:FF Y:00 P:24 SP:FF PPU: 89, 98 CYC:11176
C658  F0 F9     BEQ $C653                       A:00 X:FF Y:00 P:26 SP:FF PPU: 95, 98 CYC:11178
C653  AD 02 20  LDA $2002 = FF                  A:00 X:FF Y:00 P:26 SP:FF PPU:104, 98 CYC:11181
C656  29 80     AND #$80                        A:10 X:FF Y:00 P:24 SP:FF PPU:116, 98 CYC:11185
C658  F0 F9     BEQ $C653                       A:00 X:FF Y:00 P:26 SP:FF PPU:122, 98 CYC:11187
C653  AD 02 20  LDA $2002 = FF                  A:00 X:FF Y:00 P:26 SP:FF PPU:131, 98 CYC:11190
C656  29 80     AND #$80                        A:10 X:FF Y:00 P:24 SP:FF PPU:143, 98 CYC:11194
C658  F0 F9     BEQ $C653                       A:00 X:FF Y:00 P:26 SP:FF PPU:149, 98 CYC:11196
C653  AD 02 20  LDA $2002 = FF                  A:00 X:FF Y:00 P:26 SP:FF PPU:158, 98 CYC:11199
C656  29 80     AND #$80                        A:10 X:FF Y:00 P:24 SP:FF PPU:170, 98 CYC:11203
C658  F0 F9     BEQ $C653                       A:00 X:FF Y:00 P:26 SP:FF PPU:176, 98 CYC:11205
C653  AD 02 20  LDA $2002 = FF                  A:00 X:FF Y:00 P:26 SP:FF PPU:185, 98 CYC:11208
C656  29 80     AND #$80                        A:10 X:FF Y:00 P:24 SP:FF PPU:197, 98 CYC:11212
C658  F0 F9     BEQ $C653                       A:00 X:FF Y:00 P:26 SP:FF PPU:203, 98 CYC:11214
C653  AD 02 20  LDA $2002 = FF                  A:00 X:FF Y:00 P:26 SP:FF PPU:212, 98 CYC:11217
C656  29 80     AND #$80                        A:10 X:FF Y:00 P:24 SP:FF PPU:224, 98 CYC:11221
C658  F0 F9     BEQ $C653                       A:00 X:FF Y:00 P:26 SP:FF PPU:230, 98 CYC:11223
C653  AD 02 20  LDA $2002 = FF                  A:00 X:FF Y:00 P:26 SP:FF PPU:239, 98 CYC:11226
C656  29 80     AND #$80                        A:10 X:FF Y:00 P:24 SP:FF PPU:251, 98 CYC:11230
C658  F0 F9     BEQ $C653                       A:00 X:FF Y:00 P:26 SP:FF PPU:257, 98 CYC:11232
C653  AD 02 20  LDA $2002 = FF                  A:00 X:FF Y:00 P:26 SP:FF PPU:266, 98 CYC:11235
C656  29 80     AND #$80                        A:10 X:FF Y:00 P:24 SP:FF PPU:278, 98 CYC:11239
C658  F0 F9     BEQ $C653                       A:00 X:FF Y:00 P:26 SP:FF PPU:284, 98 CYC:11241
C653  AD 02 20  LDA $2002 = FF                  A:00 X:FF Y:00 P:26 SP:FF PPU:293, 98 CYC:11244
C656  29 80     AND #$80                        A:10 X:FF Y:00 P:24 SP:FF PPU:305, 98 CYC:11248
C658  F0 F9     BEQ $C653                       A:00 X:FF Y:00 P:26 SP:FF PPU:311, 98 CYC:11250
C653  AD 02 20  LDA $2002 = FF                  A:00 X:FF Y:00 P:26 SP:FF PPU:320, 98 CYC:11253
C656  29 80     AND #$80                        A:10 X:FF Y:00 P:24 SP:FF PPU:332, 98 CYC:11257
C658  F0 F9     BEQ $C653                       A:00 X:FF Y:00 P:26 SP:FF PPU:338, 98 CYC:11259
C653  AD 02 20  LDA $2002 = FF                  A:00 X:FF Y:00 P:26 SP:FF PPU:  6, 99 CYC:11262
C656  29 80     AND #$80                        A:10 X:FF Y:00 P:24 SP:FF PPU: 18, 99 CYC:11266
C658  F0 F9     BEQ $C653                       A:00 X:FF Y:00 P:26 SP:FF PPU: 24, 99 CYC:11268
C653  AD 02 20  LDA $2002 = FF                  A:00 X:FF Y:00 P:26 SP:FF PPU: 33, 99 CYC:11271
C656  29 80     AND #$80                        A:10 X:FF Y:00 P:24 SP:FF PPU: 45, 99 CYC:11275
C658  F0 F9     BEQ $C653                       A:00 X:FF Y:00 P:26 SP:FF PPU: 51, 99 CYC:11277
C653  AD 02 20  LDA $2002 = FF                  A:00 X:FF Y:00 P:26 SP:FF PPU: 60, 99 CYC:11280
C656  29 80     AND #$80                        A:10 X:FF Y:00 P:24 SP:FF PPU: 72, 99 CYC:11284
C658  F0 F9     BEQ $C653                       A:00 X:FF Y:00 P:26 SP:FF PPU: 78, 99 CYC:11286
C653  AD 02 20  LDA $2002 = FF                  A:00 X:FF Y:00 P:26 SP:FF PPU: 87, 99 CYC:11289
C656  29 80     AND #$80                        A:10 X:FF Y:00 P:24 SP:FF PPU: 99, 99 CYC:11293
C658  F0 F9     BEQ $C653                       A:00 X:FF Y:00 P:26 SP:FF PPU:105, 99 CYC:11295
C653  AD 02 20  LDA $2002 = FF                  A:00 X:FF Y:00 P:26 SP:FF PPU:114, 99 CYC:11298
C656  29 80     AND #$80                        A:10 X:FF Y:00 P:24 SP:FF PPU:126, 99 CYC:11302
C658  F0 F9     BEQ $C653                       A:00 X:FF Y:00 P:26 SP:FF PPU:132, 99 CYC:11304
C653  AD 02 20  LDA $2002 = FF                  A:00 X:FF Y:00 P:26 SP:FF PPU:141, 99 CYC:11307
C656  29 80     AND #$80                        A:10 X:FF Y:00 P:24 SP:FF PPU:153, 99 CYC:11311
C658  F0 F9     BEQ $C653                       A:00 X:FF Y:00 P:26 SP:FF PPU:159, 99 CYC:11313
C653  AD 02 20  LDA $2002 = FF                  A:00 X:FF Y:00 P:26 SP:FF PPU:168, 99 CYC:11316
C656  29 80     AND #$80                        A:10 X:FF Y:00 P:24 SP:FF PPU:180, 99 CYC:11320
C658  F0 F9     BEQ $C653                       A:00 X:FF Y:00 P:26 SP:FF PPU:186, 99 CYC:11322
C653  AD 02 20  LDA $2002 = FF                  A:00 X:FF Y:00 P:26 SP:FF PPU:195, 99 CYC:11325
C656  29 80     AND #$80                        A:10 X:FF Y:00 P:24 SP:FF PPU:207, 99 CYC:11329
C658  F0 F9     BEQ $C653                       A:00 X:FF Y:00 P:26 SP:FF PPU:213, 99 CYC:11331
C653  AD 02 20  LDA $2002 = FF                  A:00 X:FF Y:00 P:26 SP:FF PPU:222, 99 CYC:11334
C656  29 80     AND #$80                        A:10 X:FF Y:00 P:24 SP:FF PPU:234, 99 CYC:11338
C658  F0 F9     BEQ $C653                       A:00 X:FF Y:00 P:26 SP:FF PPU:240, 99 CYC:11340
C653  AD 02 20  LDA $2002 = FF                  A:00 X:FF Y:00 P:26 SP:FF PPU:249, 99 CYC:11343
C656  29 80     AND #$80                        A:10 X:FF Y:00 P:24 SP:FF PPU:261, 99 CYC:11347
C658  F0 F9     BEQ $C653                       A:00 X:FF Y:00 P:26 SP:FF PPU:267, 99 CYC:11349
C653  AD 02 20  LDA $2002 = FF                  A:00 X:FF Y:00 P:26 SP:FF PPU:276, 99 CYC:11352
C656  29 80     AND #$80                        A:10 X:FF Y:00 P:24 SP:FF PPU:288, 99 CYC:11356
C658  F0 F9     BEQ $C653                       A:00 X:FF Y:00 P:26 SP:FF PPU:294, 99 CYC:11358
C653  AD 02 20  LDA $2002 = FF                  A:00 X:FF Y:00 P:26 SP:FF PPU:303, 99 CYC:11361
C656  29 80     AND #$80                        A:10 X:FF Y:00 P:24 SP:FF PPU:315, 99 CYC:11365
C658  F0 F9     BEQ $C653                       A:00 X:FF Y:00 P:26 SP:FF PPU:321, 99 CYC:11367
C653  AD 02 20  LDA $2002 = FF                  A:00 X:FF Y:00 P:26 SP:FF PPU:330, 99 CYC:11370
C656  29 80     AND #$80                        A:10 X:FF Y:00 P:24 SP:FF PPU:  1,100 CYC:11374
C658  F0 F9     BEQ $C653                       A:00 X:FF Y:00 P:26 SP:FF PPU:  7,100 CYC:11376
C653  AD 02 20  LDA $2002 = FF                  A:00 X:FF Y:00 P:26 SP:FF PPU: 16,100 CYC:11379
C656  29 80     AND #$80                        A:10 X:FF Y:00 P:24 SP:FF PPU: 28,100 CYC:11383
C658  F0 F9     BEQ $C653                       A:00 X:FF Y:00 P:26 SP:FF PPU: 34,100 CYC:11385
C653  AD 02 20  LDA $2002 = FF                  A:00 X:FF Y:00 P:26 SP:FF PPU: 43,100 CYC:11388
C656  29 80     AND #$80                        A:10 X:FF Y:00 P:24 SP:FF PPU: 55,100 CYC:11392
C658  F0 F9     BEQ $C653                       A:00 X:FF Y:00 P:26 SP:FF PPU: 61,100 CYC:11394
C653  AD 02 20  LDA $2002 = FF                  A:00 X:FF Y:00 P:26 SP:FF PPU: 70,100 CYC:11397
C656  29 80     AND #$80                        A:10 X:FF Y:00 P:24 SP:FF PPU: 82,100 CYC:11401
C658  F0 F9     BEQ $C653                       A:00 X:FF Y:00 P:26 SP:FF PPU: 88,100 CYC:11403
C653  AD 02 20  LDA $2002 = FF                  A:00 X:FF Y:00 P:26 SP:FF PPU: 97,100 CYC:11406
C656  29 80     AND #$80                        A:10 X:FF Y:00 P:24 SP:FF PPU:109,100 CYC:11410
C658  F0 F9     BEQ $C653                       A:00 X:FF Y:00 P:26 SP:FF PPU:115,100 CYC:11412
C653  AD 02 20  LDA $2002 = FF                  A:00 X:FF Y:00 P:26 SP:FF PPU:124,100 CYC:11415
C656  29 80     AND #$80                        A:10 X:FF Y:00 P:24 SP:FF PPU:136,100 CYC:11419
C658  F0 F9     BEQ $C653                       A:00 X:FF Y:00 P:26 SP:FF PPU:142,100 CYC:11421
C653  AD 02 20  LDA $2002 = FF                  A:00 X:FF Y:00 P:26 SP:FF PPU:151,100 CYC:11424
C656  29 80     AND #$80                        A:10 X:FF Y:00 P:24 SP:FF PPU:163,100 CYC:11428
C658  F0 F9     BEQ $C653                       A:00 X:FF Y:00 P:26 SP:FF PPU:169,100 CYC:11430
C653  AD 02 20  LDA $2002 = FF                  A:00 X:FF Y:00 P:26 SP:FF PPU:178,100 CYC:11433
C656  29 80     AND #$80                        A:10 X:FF Y:00 P:24 SP:FF PPU:190,100 CYC:11437
C658  F0 F9     BEQ $C653                       A:00 X:FF Y:00 P:26 SP:FF PPU:196,100 CYC:11439
C653  AD 02 20  LDA $2002 = FF                  A:00 X:FF Y:00 P:26 SP:FF PPU:205,100 CYC:11442
C656  29 80     AND #$80                        A:10 X:FF Y:00 P:24 SP:FF PPU:217,100 CYC:11446
C658  F0 F9     BEQ $C653                       A:00 X:FF Y:00 P:26 SP:FF PPU:223,100 CYC:11448
C653  AD 02 20  LDA $2002 = FF                  A:00 X:FF Y:00 P:26 SP:FF PPU:232,100 CYC:11451
C656  29 80     AND #$80                        A:10 X:FF Y:00 P:24 SP:FF PPU:244,100 CYC:11455
C658  F0 F9     BEQ $C653                       A:00 X:FF Y:00 P:26 SP:FF PPU:250,100 CYC:11457
C653  AD 02 20  LDA $2002 = FF                  A:00 X:FF Y:00 P:26 SP:FF PPU:259,100 CYC:11460
C656  29 80     AND #$80                        A:10 X:FF Y:00 P:24 SP:FF PPU:271,100 CYC:11464
C658  F0 F9     BEQ $C653                       A:00 X:FF Y:00 P:26 SP:FF PPU:277,100 CYC:11466
C653  AD 02 20  LDA $2002 = FF                  A:00 X:FF Y:00 P:26 SP:FF PPU:286,100 CYC:11469
C656  29 80     AND #$80                        A:10 X:FF Y:00 P:24 SP:FF PPU:298,100 CYC:11473
C658  F0 F9     BEQ $C653                       A:00 X:FF Y:00 P:26 SP:FF PPU:304,100 CYC:11475
C653  AD 02 20  LDA $2002 = FF                  A:00 X:FF Y:00 P:26 SP:FF PPU:313,100 CYC:11478
C656  29 80     AND #$80                        A:10 X:FF Y:00 P:24 SP:FF PPU:325,100 CYC:11482
C658  F0 F9     BEQ $C653                       A:00 X:FF Y:00 P:26 SP:FF PPU:331,100 CYC:11484
C653  AD 02 20  LDA $2002 = FF                  A:00 X:FF Y:00 P:26 SP:FF PPU:340,100 CYC:11487
C656  29 80     AND #$80                        A:10 X:FF Y:00 P:24 SP:FF PPU: 11,101 CYC:11491
C658  F0 F9     BEQ $C653                       A:00 X:FF Y:00 P:26 SP:FF PPU: 17,101 CYC:11493
C653  AD 02 20  LDA $2002 = FF                  A:00 X:FF Y:00 P:26 SP:FF PPU: 26,101 CYC:11496
C656  29 80     AND #$80                        A:10 X:FF Y:00 P:24 SP:FF PPU: 38,101 CYC:11500
C658  F0 F9     BEQ $C653                       A:00 X:FF Y:00 P:26 SP:FF PPU: 44,101 CYC:11502
C653  AD 02 20  LDA $2002 = FF                  A:00 X:FF Y:00 P:26 SP:FF PPU: 53,101 CYC:11505
C656  29 80     AND #$80                        A:10 X:FF Y:00 P:24 SP:FF PPU: 65,101 CYC:11509
C658  F0 F9     BEQ $C653                       A:00 X:FF Y:00 P:26 SP:FF PPU: 71,101 CYC:11511
C653  AD 02 20  LDA $2002 = FF                  A:00 X:FF Y:00 P:26 SP:FF PPU: 80,101 CYC:11514
C656  29 80     AND #$80                        A:10 X:FF Y:00 P:24 SP:FF PPU: 92,101 CYC:11518
C658  F0 F9     BEQ $C653                       A:00 X:FF Y:00 P:26 SP:FF PPU: 98,101 CYC:11520
C653  AD 02 20  LDA $2002 = FF                  A:00 X:FF Y:00 P:26 SP:FF PPU:107,101 CYC:11523
C656  29 80     AND #$80                        A:10 X:FF Y:00 P:24 SP:FF PPU:119,101 CYC:11527
C658  F0 F9     BEQ $C653                       A:00 X:FF Y:00 P:26 SP:FF PPU:125,101 CYC:11529
C653  AD 02 20  LDA $2002 = FF                  A:00 X:FF Y:00 P:26 SP:FF PPU:134,101 CYC:11532
C656  29 80     AND #$80                        A:10 X:FF Y:00 P:24 SP:FF PPU:146,101 CYC:11536
C658  F0 F9     BEQ $C653                       A:00 X:FF Y:00 P:26 SP:FF PPU:152,101 CYC:11538
C653  AD 02 20  LDA $2002 = FF                  A:00 X:FF Y:00 P:26 SP:FF PPU:161,101 CYC:11541
C656  29 80     AND #$80                        A:10 X:FF Y:00 P:24 SP:FF PPU:173,101 CYC:11545
C658  F0 F9     BEQ $C653                       A:00 X:FF Y:00 P:26 SP:FF PPU:179,101 CYC:11547
C653  AD 02 20  LDA $2002 = FF                  A:00 X:FF Y:00 P:26 SP:FF PPU:188,101 CYC:11550
C656  29 80     AND #$80                        A:10 X:FF Y:00 P:24 SP:FF PPU:200,101 CYC:11554
C658  F0 F9     BEQ $C653                       A:00 X:FF Y:00 P:26 SP:FF PPU:206,101 CYC:11556
C653  AD 02 20  LDA $2002 = FF                  A:00 X:FF Y:00 P:26 SP:FF PPU:215,101 CYC:11559
C656  29 80     AND #$80                        A:10 X:FF Y:00 P:24 SP:FF PPU:227,101 CYC:11563
C658  F0 F9     BEQ $C653                       A:00 X:FF Y:00 P:26 SP:FF PPU:233,101 CYC:11565
C653  AD 02 20  LDA $2002 = FF                  A:00 X:FF Y:00 P:26 SP:FF PPU:242,101 CYC:11568
C656  29 80     AND #$80                        A:10 X:FF Y:00 P:24 SP:FF PPU:254,101 CYC:11572
C658  F0 F9     BEQ $C653                       A:00 X:FF Y:00 P:26 SP:FF PPU:260,101 CYC:11574
C653  AD 02 20  LDA $2002 = FF                  A:00 X:FF Y:00 P:26 SP:FF PPU:269,101 CYC:11577
C656  29 80     AND #$80                        A:10 X:FF Y:00 P:24 SP:FF PPU:281,101 CYC:11581
C658  F0 F9     BEQ $C653                       A:00 X:FF Y:00 P:26 SP:FF PPU:287,101 CYC:11583
C653  AD 02 20  LDA $2002 = FF                  A:00 X:FF Y:00 P:26 SP:FF PPU:296,101 CYC:11586
C656  29 80     AND #$80                        A:10 X:FF Y:00 P:24 SP:FF PPU:308,101 CYC:11590
C658  F0 F9     BEQ $C653                       A:00 X:FF Y:00 P:26 SP:FF PPU:314,101 CYC:11592
C653  AD 02 20  LDA $2002 = FF                  A:00 X:FF Y:00 P:26 SP:FF PPU:323,101 CYC:11595
C656  29 80     AND #$80                        A:10 X:FF Y:00 P:24 SP:FF PPU:335,101 CYC:11599
C658  F0 F9     BEQ $C653                       A:00 X:FF Y:00 P:26 SP:FF PPU:  0,102 CYC:11601
C653  AD 02 20  LDA $2002 = FF                  A:00 X:FF Y:00 P:26 SP:FF PPU:  9,102 CYC:11604
C656  29 80     AND #$80                        A:10 X:FF Y:00 P:24 SP:FF PPU: 21,102 CYC:11608
C658  F0 F9     BEQ $C653                       A:00 X:FF Y:00 P:26 SP:FF PPU: 27,102 CYC:11610
C653  AD 02 20  LDA $2002 = FF                  A:00 X:FF Y:00 P:26 SP:FF PPU: 36,102 CYC:11613
C656  29 80     AND #$80                        A:10 X:FF Y:00 P:24 SP:FF PPU: 48,102 CYC:11617
C658  F0 F9     BEQ $C653                       A:00 X:FF Y:00 P:26 SP:FF PPU: 54,102 CYC:11619
C653  AD 02 20  LDA $2002 = FF                  A:00 X:FF Y:00 P:26 SP:FF PPU: 63,102 CYC:11622
C656  29 80     AND #$80                        A:10 X:FF Y:00 P:24 SP:FF PPU: 75,102 CYC:11626
C658  F0 F9     BEQ $C653                       A:00 X:FF Y:00 P:26 SP:FF PPU: 81,102 CYC:11628
C653  AD 02 20  LDA $2002 = FF                  A:00 X:FF Y:00 P:26 SP:FF PPU: 90,102 CYC:11631
C656  29 80     AND #$80                        A:10 X:FF Y:00 P:24 SP:FF PPU:102,102 CYC:11635
C658  F0 F9     BEQ $C653                       A:00 X:FF Y:00 P:26 SP:FF PPU:108,102 CYC:11637
C653  AD 02 20  LDA $2002 = FF                  A:00 X:FF Y:00 P:26 SP:FF PPU:117,102 CYC:11640
C656  29 80     AND #$80                        A:10 X:FF Y:00 P:24 SP:FF PPU:129,102 CYC:11644
C658  F0 F9     BEQ $C653                       A:00 X:FF Y:00 P:26 SP:FF PPU:135,102 CYC:11646
C653  AD 02 20  LDA $2002 = FF                  A:00 X:FF Y:00 P:26 SP:FF PPU:144,102 CYC:11649
C656  29 80     AND #$80                        A:10 X:FF Y:00 P:24 SP:FF PPU:156,102 CYC:11653
C658  F0 F9     BEQ $C653                       A:00 X:FF Y:00 P:26 SP:FF PPU:162,102 CYC:11655
C653  AD 02 20  LDA $2002 = FF                  A:00 X:FF Y:00 P:26 SP:FF PPU:171,102 CYC:11658
C656  29 80     AND #$80                        A:10 X:FF Y:00 P:24 SP:FF PPU:183,102 CYC:11662
C658  F0 F9     BEQ $C653                       A:00 X:FF Y:00 P:26 SP:FF PPU:189,102 CYC:11664
C653  AD 02 20  LDA $2002 = FF                  A:00 X:FF Y:00 P:26 SP:FF PPU:198,102 CYC:11667
C656  29 80     AND #$80                        A:10 X:FF Y:00 P:24 SP:FF PPU:210,102 CYC:11671
C658  F0 F9     BEQ $C653                       A:00 X:FF Y:00 P:26 SP:FF PPU:216,102 CYC:11673
C653  AD 02 20  LDA $2002 = FF                  A:00 X:FF Y:00 P:26 SP:FF PPU:225,102 CYC:11676
C656  29 80     AND #$80                        A:10 X:FF Y:00 P:24 SP:FF PPU:237,102 CYC:11680
C658  F0 F9     BEQ $C653                       A:00 X:FF Y:00 P:26 SP:FF PPU:243,102 CYC:11682
C653  AD 02 20  LDA $2002 = FF                  A:00 X:FF Y:00 P:26 SP:FF PPU:252,102 CYC:11685
C656  29 80     AND #$80                        A:10 X:FF Y:00 P:24 SP:FF PPU:264,102 CYC:11689
C658  F0 F9     BEQ $C653                       A:00 X:FF Y:00 P:26 SP:FF PPU:270,102 CYC:11691
C653  AD 02 20  LDA $2002 = FF                  A:00 X:FF Y:00 P:26 SP:FF PPU:279,102 CYC:11694
C656  29 80     AND #$80                        A:10 X:FF Y:00 P:24 SP:FF PPU:291,102 CYC:11698
C658  F0 F9     BEQ $C653                       A:00 X:FF Y:00 P:26 SP:FF PPU:297,102 CYC:11700
C653  AD 02 20  LDA $2002 = FF                  A:00 X:FF Y:00 P:26 SP:FF PPU:306,102 CYC:11703
C656  29 80     AND #$80                        A:10 X:FF Y:00 P:24 SP:FF PPU:318,102 CYC:11707
C658  F0 F9     BEQ $C653                       A:00 X:FF Y:00 P:26 SP:FF PPU:324,102 CYC:11709
C653  AD 02 20  LDA $2002 = FF                  A:00 X:FF Y:00 P:26 SP:FF PPU:333,102 CYC:11712
C656  29 80     AND #$80                        A:10 X:FF Y:00 P:24 SP:FF PPU:  4,103 CYC:11716
C658  F0 F9     BEQ $C653                       A:00 X:FF Y:00 P:26 SP:FF PPU: 10,103 CYC:11718
C653  AD 02 20  LDA $2002 = FF                  A:00 X:FF Y:00 P:26 SP:FF PPU: 19,103 CYC:11721
C656  29 80     AND #$80                        A:10 X:FF Y:00 P:24 SP:FF PPU: 31,103 CYC:11725
C658  F0 F9     BEQ $C653                       A:00 X:FF Y:00 P:26 SP:FF PPU: 37,103 CYC:11727
C653  AD 02 20  LDA $2002 = FF                  A:00 X:FF Y:00 P:26 SP:FF PPU: 46,103 CYC:11730
C656  29 80     AND #$80                        A:10 X:FF Y:00 P:24 SP:FF PPU: 58,103 CYC:11734
C658  F0 F9     BEQ $C653                       A:00 X:FF Y:00 P:26 SP:FF PPU: 64,103 CYC:11736
C653  AD 02 20  LDA $2002 = FF                  A:00 X:FF Y:00 P:26 SP:FF PPU: 73,103 CYC:11739
C656  29 80     AND #$80                        A:10 X:FF Y:00 P:24 SP:FF PPU: 85,103 CYC:11743
C658  F0 F9     BEQ $C653                       A:00 X:FF Y:00 P:26 SP:FF PPU: 91,103 CYC:11745
C653  AD 02 20  LDA $2002 = FF                  A:00 X:FF Y:00 P:26 SP:FF PPU:100,103 CYC:11748
C656  29 80     AND #$80                        A:10 X:FF Y:00 P:24 SP:FF PPU:112,103 CYC:11752
C658  F0 F9     BEQ $C653                       A:00 X:FF Y:00 P:26 SP:FF PPU:118,103 CYC:11754
C653  AD 02 20  LDA $2002 = FF                  A:00 X:FF Y:00 P:26 SP:FF PPU:127,103 CYC:11757
C656  29 80     AND #$80                        A:10 X:FF Y:00 P:24 SP:FF PPU:139,103 CYC:11761
C658  F0 F9     BEQ $C653                       A:00 X:FF Y:00 P:26 SP:FF PPU:145,103 CYC:11763
C653  AD 02 20  LDA $2002 = FF                  A:00 X:FF Y:00 P:26 SP:FF PPU:154,103 CYC:11766
C656  29 80     AND #$80                        A:10 X:FF Y:00 P:24 SP:FF PPU:166,103 CYC:11770
C658  F0 F9     BEQ $C653                       A:00 X:FF Y:00 P:26 SP:FF PPU:172,103 CYC:11772
C653  AD 02 20  LDA $2002 = FF                  A:00 X:FF Y:00 P:26 SP:FF PPU:181,103 CYC:11775
C656  29 80     AND #$80                        A:10 X:FF Y:00 P:24 SP:FF PPU:193,103 CYC:11779
C658  F0 F9     BEQ $C653                       A:00 X:FF Y:00 P:26 SP:FF PPU:199,103 CYC:11781
C653  AD 02 20  LDA $2002 = FF                  A:00 X:FF Y:00 P:26 SP:FF PPU:208,103 CYC:11784
C656  29 80     AND #$80                        A:10 X:FF Y:00 P:24 SP:FF PPU:220,103 CYC:11788
C658  F0 F9     BEQ $C653                       A:00 X:FF Y:00 P:26 SP:FF PPU:226,103 CYC:11790
C653  AD 02 20  LDA $2002 = FF                  A:00 X:FF Y:00 P:26 SP:FF PPU:235,103 CYC:11793
C656  29 80     AND #$80                        A:10 X:FF Y:00 P:24 SP:FF PPU:247,103 CYC:11797
C658  F0 F9     BEQ $C653                       A:00 X:FF Y:00 P:26 SP:FF PPU:253,103 CYC:11799
C653  AD 02 20  LDA $2002 = FF                  A:00 X:FF Y:00 P:26 SP:FF PPU:262,103 CYC:11802
C656  29 80     AND #$80                        A:10 X:FF Y:00 P:24 SP:FF PPU:274,103 CYC:11806
C658  F0 F9     BEQ $C653                       A:00 X:FF Y:00 P:26 SP:FF PPU:280,103 CYC:11808
C653  AD 02 20  LDA $2002 = FF                  A:00 X:FF Y:00 P:26 SP:FF PPU:289,103 CYC:11811
C656  29 80     AND #$80                        A:10 X:FF Y:00 P:24 SP:FF PPU:301,103 CYC:11815
C658  F0 F9     BEQ $C653                       A:00 X:FF Y:00 P:26 SP:FF PPU:307,103 CYC:11817
C653  AD 02 20  LDA $2002 = FF                  A:00 X:FF Y:00 P:26 SP:FF PPU:316,103 CYC:11820
C656  29 80     AND #$80                        A:10 X:FF Y:00 P:24 SP:FF PPU:328,103 CYC:11824
C658  F0 F9     BEQ $C653                       A:00 X:FF Y:00 P:26 SP:FF PPU:334,103 CYC:11826
C653  AD 02 20  LDA $2002 = FF                  A:00 X:FF Y:00 P:26 SP:FF PPU:  2,104 CYC:11829
C656  29 80     AND #$80                        A:10 X:FF Y:00 P:24 SP:FF PPU: 14,104 CYC:11833
C658  F0 F9     BEQ $C653                       A:00 X:FF Y:00 P:26 SP:FF PPU: 20,104 CYC:11835
C653  AD 02 20  LDA $2002 = FF                  A:00 X:FF Y:00 P:26 SP:FF PPU: 29,104 CYC:11838
C656  29 80     AND #$80                        A:10 X:FF Y:00 P:24 SP:FF PPU: 41,104 CYC:11842
C658  F0 F9     BEQ $C653                       A:00 X:FF Y:00 P:26 SP:FF PPU: 47,104 CYC:11844
C653  AD 02 20  LDA $2002 = FF                  A:00 X:FF Y:00 P:26 SP:FF PPU: 56,104 CYC:11847
C656  29 80     AND #$80                        A:10 X:FF Y:00 P:24 SP:FF PPU: 68,104 CYC:11851
C658  F0 F9     BEQ $C653                       A:00 X:FF Y:00 P:26 SP:FF PPU: 74,104 CYC:11853
C653  AD 02 20  LDA $2002 = FF                  A:00 X:FF Y:00 P:26 SP:FF PPU: 83,104 CYC:11856
C656  29 80     AND #$80                        A:10 X:FF Y:00 P:24 SP:FF PPU: 95,104 CYC:11860
C658  F0 F9     BEQ $C653                       A:00 X:FF Y:00 P:26 SP:FF PPU:101,104 CYC:11862
C653  AD 02 20  LDA $2002 = FF                  A:00 X:FF Y:00 P:26 SP:FF PPU:110,104 CYC:11865
C656  29 80     AND #$80                        A:10 X:FF Y:00 P:24 SP:FF PPU:122,104 CYC:11869
C658  F0 F9     BEQ $C653                       A:00 X:FF Y:00 P:26 SP:FF PPU:128,104 CYC:11871
C653  AD 02 20  LDA $2002 = FF                  A:00 X:FF Y:00 P:26 SP:FF PPU:137,104 CYC:11874
C656  29 80     AND #$80                        A:10 X:FF Y:00 P:24 SP:FF PPU:149,104 CYC:11878
C658  F0 F9     BEQ $C653                       A:00 X:FF Y:00 P:26 SP:FF PPU:155,104 CYC:11880
C653  AD 02 20  LDA $2002 = FF                  A:00 X:FF Y:00 P:26 SP:FF PPU:164,104 CYC:11883
C656  29 80     AND #$80                        A:10 X:FF Y:00 P:24 SP:FF PPU:176,104 CYC:11887
C658  F0 F9     BEQ $C653                       A:00 X:FF Y:00 P:26 SP:FF PPU:182,104 CYC:11889
C653  AD 02 20  LDA $2002 = FF                  A:00 X:FF Y:00 P:26 SP:FF PPU:191,104 CYC:11892
C656  29 80     AND #$80                        A:10 X:FF Y:00 P:24 SP:FF PPU:203,104 CYC:11896
C658  F0 F9     BEQ $C653                       A:00 X:FF Y:00 P:26 SP:FF PPU:209,104 CYC:11898
C653  AD 02 20  LDA $2002 = FF                  A:00 X:FF Y:00 P:26 SP:FF PPU:218,104 CYC:11901
C656  29 80     AND #$80                        A:10 X:FF Y:00 P:24 SP:FF PPU:230,104 CYC:11905
C658  F0 F9     BEQ $C653                       A:00 X:FF Y:00 P:26 SP:FF PPU:236,104 CYC:11907
C653  AD 02 20  LDA $2002 = FF                  A:00 X:FF Y:00 P:26 SP:FF PPU:245,104 CYC:11910
C656  29 80     AND #$80                        A:10 X:FF Y:00 P:24 SP:FF PPU:257,104 CYC:11914
C658  F0 F9     BEQ $C653                       A:00 X:FF Y:00 P:26 SP:FF PPU:263,104 CYC:11916
C653  AD 02 20  LDA $2002 = FF                  A:00 X:FF Y:00 P:26 SP:FF PPU:272,104 CYC:11919
C656  29 80     AND #$80                        A:10 X:FF Y:00 P:24 SP:FF PPU:284,104 CYC:11923
C658  F0 F9     BEQ $C653                       A:00 X:FF Y:00 P:26 SP:FF PPU:290,104 CYC:11925
C653  AD 02 20  LDA $2002 = FF                  A:00 X:FF Y:00 P:26 SP:FF PPU:299,104 CYC:11928
C656  29 80     AND #$80                        A:10 X:FF Y:00 P:24 SP:FF PPU:311,104 CYC:11932
C658  F0 F9     BEQ $C653                       A:00 X:FF Y:00 P:26 SP:FF PPU:317,104 CYC:11934
C653  AD 02 20  LDA $2002 = FF                  A:00 X:FF Y:00 P:26 SP:FF PPU:326,104 CYC:11937
C656  29 80     AND #$80                        A:10 X:FF Y:00 P:24 SP:FF PPU:338,104 CYC:11941
C658  F0 F9     BEQ $C653                       A:00 X:FF Y:00 P:26 SP:FF PPU:  3,105 CYC:11943
C653  AD 02 20  LDA $2002 = FF                  A:00 X:FF Y:00 P:26 SP:FF PPU: 12,105 CYC:11946
C656  29 80     AND #$80                        A:10 X:FF Y:00 P:24 SP:FF PPU: 24,105 CYC:11950
C658  F0 F9     BEQ $C653                       A:00 X:FF Y:00 P:26 SP:FF PPU: 30,105 CYC:11952
C653  AD 02 20  LDA $2002 = FF                  A:00 X:FF Y:00 P:26 SP:FF PPU: 39,105 CYC:11955
C656  29 80     AND #$80                        A:10 X:FF Y:00 P:24 SP:FF PPU: 51,105 CYC:11959
C658  F0 F9     BEQ $C653                       A:00 X:FF Y:00 P:26 SP:FF PPU: 57,105 CYC:11961
C653  AD 02 20  LDA $2002 = FF                  A:00 X:FF Y:00 P:26 SP:FF PPU: 66,105 CYC:11964
C656  29 80     AND #$80                        A:10 X:FF Y:00 P:24 SP:FF PPU: 78,105 CYC:11968
C658  F0 F9     BEQ $C653                       A:00 X:FF Y:00 P:26 SP:FF PPU: 84,105 CYC:11970
C653  AD 02 20  LDA $2002 = FF                  A:00 X:FF Y:00 P:26 SP:FF PPU: 93,105 CYC:11973
C656  29 80     AND #$80                        A:10 X:FF Y:00 P:24 SP:FF PPU:105,105 CYC:11977
C658  F0 F9     BEQ $C653                       A:00 X:FF Y:00 P:26 SP:FF PPU:111,105 CYC:11979
C653  AD 02 20  LDA $2002 = FF                  A:00 X:FF Y:00 P:26 SP:FF PPU:120,105 CYC:11982
C656  29 80     AND #$80                        A:10 X:FF Y:00 P:24 SP:FF PPU:132,105 CYC:11986
C658  F0 F9     BEQ $C653                       A:00 X:FF Y:00 P:26 SP:FF PPU:138,105 CYC:11988
C653  AD 02 20  LDA $2002 = FF                  A:00 X:FF Y:00 P:26 SP:FF PPU:147,105 CYC:11991
C656  29 80     AND #$80                        A:10 X:FF Y:00 P:24 SP:FF PPU:159,105 CYC:11995
C658  F0 F9     BEQ $C653                       A:00 X:FF Y:00 P:26 SP:FF PPU:165,105 CYC:11997
C653  AD 02 20  LDA $2002 = FF                  A:00 X:FF Y:00 P:26 SP:FF PPU:174,105 CYC:12000
C656  29 80     AND #$80                        A:10 X:FF Y:00 P:24 SP:FF PPU:186,105 CYC:12004
C658  F0 F9     BEQ $C653                       A:00 X:FF Y:00 P:26 SP:FF PPU:192,105 CYC:12006
C653  AD 02 20  LDA $2002 = FF                  A:00 X:FF Y:00 P:26 SP:FF PPU:201,105 CYC:12009
C656  29 80     AND #$80                        A:10 X:FF Y:00 P:24 SP:FF PPU:213,105 CYC:12013
C658  F0 F9     BEQ $C653                       A:00 X:FF Y:00 P:26 SP:FF PPU:219,105 CYC:12015
C653  AD 02 20  LDA $2002 = FF                  A:00 X:FF Y:00 P:26 SP:FF PPU:228,105 CYC:12018
C656  29 80     AND #$80                        A:10 X:FF Y:00 P:24 SP:FF PPU:240,105 CYC:12022
C658  F0 F9     BEQ $C653                       A:00 X:FF Y:00 P:26 SP:FF PPU:246,105 CYC:12024
C653  AD 02 20  LDA $2002 = FF                  A:00 X:FF Y:00 P:26 SP:FF PPU:255,105 CYC:12027
C656  29 80     AND #$80                        A:10 X:FF Y:00 P:24 SP:FF PPU:267,105 CYC:12031
C658  F0 F9     BEQ $C653                       A:00 X:FF Y:00 P:26 SP:FF PPU:273,105 CYC:12033
C653  AD 02 20  LDA $2002 = FF                  A:00 X:FF Y:00 P:26 SP:FF PPU:282,105 CYC:12036
C656  29 80     AND #$80                        A:10 X:FF Y:00 P:24 SP:FF PPU:294,105 CYC:12040
C658  F0 F9     BEQ $C653                       A:00 X:FF Y:00 P:26 SP:FF PPU:300,105 CYC:12042
C653  AD 02 20  LDA $2002 = FF                  A:00 X:FF Y:00 P:26 SP:FF PPU:309,105 CYC:12045
C656  29 80     AND #$80                        A:10 X:FF Y:00 P:24 SP:FF PPU:321,105 CYC:12049
C658  F0 F9     BEQ $C653                       A:00 X:FF Y:00 P:26 SP:FF PPU:327,105 CYC:12051
C653  AD 02 20  LDA $2002 = FF                  A:00 X:FF Y:00 P:26 SP:FF PPU:336,105 CYC:12054
C656  29 80     AND #$80                        A:10 X:FF Y:00 P:24 SP:FF PPU:  7,106 CYC:12058
C658  F0 F9     BEQ $C653                       A:00 X:FF Y:00 P:26 SP:FF PPU: 13,106 CYC:12060
C653  AD 02 20  LDA $2002 = FF                  A:00 X:FF Y:00 P:26 SP:FF PPU: 22,106 CYC:12063
C656  29 80     AND #$80                        A:10 X:FF Y:00 P:24 SP:FF PPU: 34,106 CYC:12067
C658  F0 F9     BEQ $C653                       A:00 X:FF Y:00 P:26 SP:FF PPU: 40,106 CYC:12069
C653  AD 02 20  LDA $2002 = FF                  A:00 X:FF Y:00 P:26 SP:FF PPU: 49,106 CYC:12072
C656  29 80     AND #$80                        A:10 X:FF Y:00 P:24 SP:FF PPU: 61,106 CYC:12076
C658  F0 F9     BEQ $C653                       A:00 X:FF Y:00 P:26 SP:FF PPU: 67,106 CYC:12078
C653  AD 02 20  LDA $2002 = FF                  A:00 X:FF Y:00 P:26 SP:FF PPU: 76,106 CYC:12081
C656  29 80     AND #$80                        A:10 X:FF Y:00 P:24 SP:FF PPU: 88,106 CYC:12085
C658  F0 F9     BEQ $C653                       A:00 X:FF Y:00 P:26 SP:FF PPU: 94,106 CYC:12087
C653  AD 02 20  LDA $2002 = FF                  A:00 X:FF Y:00 P:26 SP:FF PPU:103,106 CYC:12090
C656  29 80     AND #$80                        A:10 X:FF Y:00 P:24 SP:FF PPU:115,106 CYC:12094
C658  F0 F9     BEQ $C653                       A:00 X:FF Y:00 P:26 SP:FF PPU:121,106 CYC:12096
C653  AD 02 20  LDA $2002 = FF                  A:00 X:FF Y:00 P:26 SP:FF PPU:130,106 CYC:12099
C656  29 80     AND #$80                        A:10 X:FF Y:00 P:24 SP:FF PPU:142,106 CYC:12103
C658  F0 F9     BEQ $C653                       A:00 X:FF Y:00 P:26 SP:FF PPU:148,106 CYC:12105
C653  AD 02 20  LDA $2002 = FF                  A:00 X:FF Y:00 P:26 SP:FF PPU:157,106 CYC:12108
C656  29 80     AND #$80                        A:10 X:FF Y:00 P:24 SP:FF PPU:169,106 CYC:12112
C658  F0 F9     BEQ $C653                       A:00 X:FF Y:00 P:26 SP:FF PPU:175,106 CYC:12114
C653  AD 02 20  LDA $2002 = FF                  A:00 X:FF Y:00 P:26 SP:FF PPU:184,106 CYC:12117
C656  29 80     AND #$80                        A:10 X:FF Y:00 P:24 SP:FF PPU:196,106 CYC:12121
C658  F0 F9     BEQ $C653                       A:00 X:FF Y:00 P:26 SP:FF PPU:202,106 CYC:12123
C653  AD 02 20  LDA $2002 = FF                  A:00 X:FF Y:00 P:26 SP:FF PPU:211,106 CYC:12126
C656  29 80     AND #$80                        A:10 X:FF Y:00 P:24 SP:FF PPU:223,106 CYC:12130
C658  F0 F9     BEQ $C653                       A:00 X:FF Y:00 P:26 SP:FF PPU:229,106 CYC:12132
C653  AD 02 20  LDA $2002 = FF                  A:00 X:FF Y:00 P:26 SP:FF PPU:238,106 CYC:12135
C656  29 80     AND #$80                        A:10 X:FF Y:00 P:24 SP:FF PPU:250,106 CYC:12139
C658  F0 F9     BEQ $C653                       A:00 X:FF Y:00 P:26 SP:FF PPU:256,106 CYC:12141
C653  AD 02 20  LDA $2002 = FF                  A:00 X:FF Y:00 P:26 SP:FF PPU:265,106 CYC:12144
C656  29 80     AND #$80                        A:10 X:FF Y:00 P:24 SP:FF PPU:277,106 CYC:12148
C658  F0 F9     BEQ $C653                       A:00 X:FF Y:00 P:26 SP:FF PPU:283,106 CYC:12150
C653  AD 02 20  LDA $2002 = FF                  A:00 X:FF Y:00 P:26 SP:FF PPU:292,106 CYC:12153
C656  29 80     AND #$80                        A:10 X:FF Y:00 P:24 SP:FF PPU:304,106 CYC:12157
C658  F0 F9     BEQ $C653                       A:00 X:FF Y:00 P:26 SP:FF PPU:310,106 CYC:12159
C653  AD 02 20  LDA $2002 = FF                  A:00 X:FF Y:00 P:26 SP:FF PPU:319,106 CYC:12162
C656  29 80     AND #$80                        A:10 X:FF Y:00 P:24 SP:FF PPU:331,106 CYC:12166
C658  F0 F9     BEQ $C653                       A:00 X:FF Y:00 P:26 SP:FF PPU:337,106 CYC:12168
C653  AD 02 20  LDA $2002 = FF                  A:00 X:FF Y:00 P:26 SP:FF PPU:  5,107 CYC:12171
C656  29 80     AND #$80                        A:10 X:FF Y:00 P:24 SP:FF PPU: 17,107 CYC:12175
C658  F0 F9     BEQ $C653                       A:00 X:FF Y:00 P:26 SP:FF PPU: 23,107 CYC:12177
C653  AD 02 20  LDA $2002 = FF                  A:00 X:FF Y:00 P:26 SP:FF PPU: 32,107 CYC:12180
C656  29 80     AND #$80                        A:10 X:FF Y:00 P:24 SP:FF PPU: 44,107 CYC:12184
C658  F0 F9     BEQ $C653                       A:00 X:FF Y:00 P:26 SP:FF PPU: 50,107 CYC:12186
C653  AD 02 20  LDA $2002 = FF                  A:00 X:FF Y:00 P:26 SP:FF PPU: 59,107 CYC:12189
C656  29 80     AND #$80                        A:10 X:FF Y:00 P:24 SP:FF PPU: 71,107 CYC:12193
C658  F0 F9     BEQ $C653                       A:00 X:FF Y:00 P:26 SP:FF PPU: 77,107 CYC:12195
C653  AD 02 20  LDA $2002 = FF                  A:00 X:FF Y:00 P:26 SP:FF PPU: 86,107 CYC:12198
C656  29 80     AND #$80                        A:10 X:FF Y:00 P:24 SP:FF PPU: 98,107 CYC:12202
C658  F0 F9     BEQ $C653                       A:00 X:FF Y:00 P:26 SP:FF PPU:104,107 CYC:12204
C653  AD 02 20  LDA $2002 = FF                  A:00 X:FF Y:00 P:26 SP:FF PPU:113,107 CYC:12207
C656  29 80     AND #$80                        A:10 X:FF Y:00 P:24 SP:FF PPU:125,107 CYC:12211
C658  F0 F9     BEQ $C653                       A:00 X:FF Y:00 P:26 SP:FF PPU:131,107 CYC:12213
C653  AD 02 20  LDA $2002 = FF                  A:00 X:FF Y:00 P:26 SP:FF PPU:140,107 CYC:12216
C656  29 80     AND #$80                        A:10 X:FF Y:00 P:24 SP:FF PPU:152,107 CYC:12220
C658  F0 F9     BEQ $C653                       A:00 X:FF Y:00 P:26 SP:FF PPU:158,107 CYC:12222
C653  AD 02 20  LDA $2002 = FF                  A:00 X:FF Y:00 P:26 SP:FF PPU:167,107 CYC:12225
C656  29 80     AND #$80                        A:10 X:FF Y:00 P:24 SP:FF PPU:179,107 CYC:12229
C658  F0 F9     BEQ $C653                       A:00 X:FF Y:00 P:26 SP:FF PPU:185,107 CYC:12231
C653  AD 02 20  LDA $2002 = FF                  A:00 X:FF Y:00 P:26 SP:FF PPU:194,107 CYC:12234
C656  29 80     AND #$80                        A:10 X:FF Y:00 P:24 SP:FF PPU:206,107 CYC:12238
C658  F0 F9     BEQ $C653                       A:00 X:FF Y:00 P:26 SP:FF PPU:212,107 CYC:12240
C653  AD 02 20  LDA $2002 = FF                  A:00 X:FF Y:00 P:26 SP:FF PPU:221,107 CYC:12243
C656  29 80     AND #$80                        A:10 X:FF Y:00 P:24 SP:FF PPU:233,107 CYC:12247
C658  F0 F9     BEQ $C653                       A:00 X:FF Y:00 P:26 SP:FF PPU:239,107 CYC:12249
C653  AD 02 20  LDA $2002 = FF                  A:00 X:FF Y:00 P:26 SP:FF PPU:248,107 CYC:12252
C656  29 80     AND #$80                        A:10 X:FF Y:00 P:24 SP:FF PPU:260,107 CYC:12256
C658  F0 F9     BEQ $C653                       A:00 X:FF Y:00 P:26 SP:FF PPU:266,107 CYC:12258
C653  AD 02 20  LDA $2002 = FF                  A:00 X:FF Y:00 P:26 SP:FF PPU:275,107 CYC:12261
C656  29 80     AND #$80                        A:10 X:FF Y:00 P:24 SP:FF PPU:287,107 CYC:12265
C658  F0 F9     BEQ $C653                       A:00 X:FF Y:00 P:26 SP:FF PPU:293,107 CYC:12267
C653  AD 02 20  LDA $2002 = FF                  A:00 X:FF Y:00 P:26 SP:FF PPU:302,107 CYC:12270
C656  29 80     AND #$80                        A:10 X:FF Y:00 P:24 SP:FF PPU:314,107 CYC:12274
C658  F0 F9     BEQ $C653                       A:00 X:FF Y:00 P:26 SP:FF PPU:320,107 CYC:12276
C653  AD 02 20  LDA $2002 = FF                  A:00 X:FF Y:00 P:26 SP:FF PPU:329,107 CYC:12279
C656  29 80     AND #$80                        A:10 X:FF Y:00 P:24 SP:FF PPU:  0,108 CYC:12283
C658  F0 F9     BEQ $C653                       A:00 X:FF Y:00 P:26 SP:FF PPU:  6,108 CYC:12285
C653  AD 02 20  LDA $2002 = FF                  A:00 X:FF Y:00 P:26 SP:FF PPU: 15,108 CYC:12288
C656  29 80     AND #$80                        A:10 X:FF Y:00 P:24 SP:FF PPU: 27,108 CYC:12292
C658  F0 F9     BEQ $C653                       A:00 X:FF Y:00 P:26 SP:FF PPU: 33,108 CYC:12294
C653  AD 02 20  LDA $2002 = FF                  A:00 X:FF Y:00 P:26 SP:FF PPU: 42,108 CYC:12297
C656  29 80     AND #$80                        A:10 X:FF Y:00 P:24 SP:FF PPU: 54,108 CYC:12301
C658  F0 F9     BEQ $C653                       A:00 X:FF Y:00 P:26 SP:FF PPU: 60,108 CYC:12303
C653  AD 02 20  LDA $2002 = FF                  A:00 X:FF Y:00 P:26 SP:FF PPU: 69,108 CYC:12306
C656  29 80     AND #$80                        A:10 X:FF Y:00 P:24 SP:FF PPU: 81,108 CYC:12310
C658  F0 F9     BEQ $C653                       A:00 X:FF Y:00 P:26 SP:FF PPU: 87,108 CYC:12312
C653  AD 02 20  LDA $2002 = FF                  A:00 X:FF Y:00 P:26 SP:FF PPU: 96,108 CYC:12315
C656  29 80     AND #$80                        A:10 X:FF Y:00 P:24 SP:FF PPU:108,108 CYC:12319
C658  F0 F9     BEQ $C653                       A:00 X:FF Y:00 P:26 SP:FF PPU:114,108 CYC:12321
C653  AD 02 20  LDA $2002 = FF                  A:00 X:FF Y:00 P:26 SP:FF PPU:123,108 CYC:12324
C656  29 80     AND #$80                        A:10 X:FF Y:00 P:24 SP:FF PPU:135,108 CYC:12328
C658  F0 F9     BEQ $C653                       A:00 X:FF Y:00 P:26 SP:FF PPU:141,108 CYC:12330
C653  AD 02 20  LDA $2002 = FF                  A:00 X:FF Y:00 P:26 SP:FF PPU:150,108 CYC:12333
C656  29 80     AND #$80                        A:10 X:FF Y:00 P:24 SP:FF PPU:162,108 CYC:12337
C658  F0 F9     BEQ $C653                       A:00 X:FF Y:00 P:26 SP:FF PPU:168,108 CYC:12339
C653  AD 02 20  LDA $2002 = FF                  A:00 X:FF Y:00 P:26 SP:FF PPU:177,108 CYC:12342
C656  29 80     AND #$80                        A:10 X:FF Y:00 P:24 SP:FF PPU:189,108 CYC:12346
C658  F0 F9     BEQ $C653                       A:00 X:FF Y:00 P:26 SP:FF PPU:195,108 CYC:12348
C653  AD 02 20  LDA $2002 = FF                  A:00 X:FF Y:00 P:26 SP:FF PPU:204,108 CYC:12351
C656  29 80     AND #$80                        A:10 X:FF Y:00 P:24 SP:FF PPU:216,108 CYC:12355
C658  F0 F9     BEQ $C653                       A:00 X:FF Y:00 P:26 SP:FF PPU:222,108 CYC:12357
C653  AD 02 20  LDA $2002 = FF                  A:00 X:FF Y:00 P:26 SP:FF PPU:231,108 CYC:12360
C656  29 80     AND #$80                        A:10 X:FF Y:00 P:24 SP:FF PPU:243,108 CYC:12364
C658  F0 F9     BEQ $C653                       A:00 X:FF Y:00 P:26 SP:FF PPU:249,108 CYC:12366
C653  AD 02 20  LDA $2002 = FF                  A:00 X:FF Y:00 P:26 SP:FF PPU:258,108 CYC:12369
C656  29 80     AND #$80                        A:10 X:FF Y:00 P:24 SP:FF PPU:270,108 CYC:12373
C658  F0 F9     BEQ $C653                       A:00 X:FF Y:00 P:26 SP:FF PPU:276,108 CYC:12375
C653  AD 02 20  LDA $2002 = FF                  A:00 X:FF Y:00 P:26 SP:FF PPU:285,108 CYC:12378
C656  29 80     AND #$80                        A:10 X:FF Y:00 P:24 SP:FF PPU:297,108 CYC:12382
C658  F0 F9     BEQ $C653                       A:00 X:FF Y:00 P:26 SP:FF PPU:303,108 CYC:12384
C653  AD 02 20  LDA $2002 = FF                  A:00 X:FF Y:00 P:26 SP:FF PPU:312,108 CYC:12387
C656  29 80     AND #$80                        A:10 X:FF Y:00 P:24 SP:FF PPU:324,108 CYC:12391
C658  F0 F9     BEQ $C653                       A:00 X:FF Y:00 P:26 SP:FF PPU:330,108 CYC:12393
C653  AD 02 20  LDA $2002 = FF                  A:00 X:FF Y:00 P:26 SP:FF PPU:339,108 CYC:12396
C656  29 80     AND #$80                        A:10 X:FF Y:00 P:24 SP:FF PPU: 10,109 CYC:12400
C658  F0 F9     BEQ $C653                       A:00 X:FF Y:00 P:26 SP:FF PPU: 16,109 CYC:12402
C653  AD 02 20  LDA $2002 = FF                  A:00 X:FF Y:00 P:26 SP:FF PPU: 25,109 CYC:12405
C656  29 80     AND #$80                        A:10 X:FF Y:00 P:24 SP:FF PPU: 37,109 CYC:12409
C658  F0 F9     BEQ $C653                       A:00 X:FF Y:00 P:26 SP:FF PPU: 43,109 CYC:12411
C653  AD 02 20  LDA $2002 = FF                  A:00 X:FF Y:00 P:26 SP:FF PPU: 52,109 CYC:12414
C656  29 80     AND #$80                        A:10 X:FF Y:00 P:24 SP:FF PPU: 64,109 CYC:12418
C658  F0 F9     BEQ $C653                       A:00 X:FF Y:00 P:26 SP:FF PPU: 70,109 CYC:12420
C653  AD 02 20  LDA $2002 = FF                  A:00 X:FF Y:00 P:26 SP:FF PPU: 79,109 CYC:12423
C656  29 80     AND #$80                        A:10 X:FF Y:00 P:24 SP:FF PPU: 91,109 CYC:12427
C658  F0 F9     BEQ $C653                       A:00 X:FF Y:00 P:26 SP:FF PPU: 97,109 CYC:12429
C653  AD 02 20  LDA $2002 = FF                  A:00 X:FF Y:00 P:26 SP:FF PPU:106,109 CYC:12432
C656  29 80     AND #$80                        A:10 X:FF Y:00 P:24 SP:FF PPU:118,109 CYC:12436
C658  F0 F9     BEQ $C653                       A:00 X:FF Y:00 P:26 SP:FF PPU:124,109 CYC:12438
C653  AD 02 20  LDA $2002 = FF                  A:00 X:FF Y:00 P:26 SP:FF PPU:133,109 CYC:12441
C656  29 80     AND #$80                        A:10 X:FF Y:00 P:24 SP:FF PPU:145,109 CYC:12445
C658  F0 F9     BEQ $C653                       A:00 X:FF Y:00 P:26 SP:FF PPU:151,109 CYC:12447
C653  AD 02 20  LDA $2002 = FF                  A:00 X:FF Y:00 P:26 SP:FF PPU:160,109 CYC:12450
C656  29 80     AND #$80                        A:10 X:FF Y:00 P:24 SP:FF PPU:172,109 CYC:12454
C658  F0 F9     BEQ $C653                       A:00 X:FF Y:00 P:26 SP:FF PPU:178,109 CYC:12456
C653  AD 02 20  LDA $2002 = FF                  A:00 X:FF Y:00 P:26 SP:FF PPU:187,109 CYC:12459
C656  29 80     AND #$80                        A:10 X:FF Y:00 P:24 SP:FF PPU:199,109 CYC:12463
C658  F0 F9     BEQ $C653                       A:00 X:FF Y:00 P:26 SP:FF PPU:205,109 CYC:12465
C653  AD 02 20  LDA $2002 = FF                  A:00 X:FF Y:00 P:26 SP:FF PPU:214,109 CYC:12468
C656  29 80     AND #$80                        A:10 X:FF Y:00 P:24 SP:FF PPU:226,109 CYC:12472
C658  F0 F9     BEQ $C653                       A:00 X:FF Y:00 P:26 SP:FF PPU:232,109 CYC:12474
C653  AD 02 20  LDA $2002 = FF                  A:00 X:FF Y:00 P:26 SP:FF PPU:241,109 CYC:12477
C656  29 80     AND #$80                        A:10 X:FF Y:00 P:24 SP:FF PPU:253,109 CYC:12481
C658  F0 F9     BEQ $C653                       A:00 X:FF Y:00 P:26 SP:FF PPU:259,109 CYC:12483
C653  AD 02 20  LDA $2002 = FF                  A:00 X:FF Y:00 P:26 SP:FF PPU:268,109 CYC:12486
C656  29 80     AND #$80                        A:10 X:FF Y:00 P:24 SP:FF PPU:280,109 CYC:12490
C658  F0 F9     BEQ $C653                       A:00 X:FF Y:00 P:26 SP:FF PPU:286,109 CYC:12492
C653  AD 02 20  LDA $2002 = FF                  A:00 X:FF Y:00 P:26 SP:FF PPU:295,109 CYC:12495
C656  29 80     AND #$80                        A:10 X:FF Y:00 P:24 SP:FF PPU:307,109 CYC:12499
C658  F0 F9     BEQ $C653                       A:00 X:FF Y:00 P:26 SP:FF PPU:313,109 CYC:12501
C653  AD 02 20  LDA $2002 = FF                  A:00 X:FF Y:00 P:26 SP:FF PPU:322,109 CYC:12504
C656  29 80     AND #$80                        A:10 X:FF Y:00 P:24 SP:FF PPU:334,109 CYC:12508
C658  F0 F9     BEQ $C653                       A:00 X:FF Y:00 P:26 SP:FF PPU:340,109 CYC:12510
C653  AD 02 20  LDA $2002 = FF                  A:00 X:FF Y:00 P:26 SP:FF PPU:  8,110 CYC:12513
C656  29 80     AND #$80                        A:10 X:FF Y:00 P:24 SP:FF PPU: 20,110 CYC:12517
C658  F0 F9     BEQ $C653                       A:00 X:FF Y:00 P:26 SP:FF PPU: 26,110 CYC:12519
C653  AD 02 20  LDA $2002 = FF                  A:00 X:FF Y:00 P:26 SP:FF PPU: 35,110 CYC:12522
C656  29 80     AND #$80                        A:10 X:FF Y:00 P:24 SP:FF PPU: 47,110 CYC:12526
C658  F0 F9     BEQ $C653                       A:00 X:FF Y:00 P:26 SP:FF PPU: 53,110 CYC:12528
C653  AD 02 20  LDA $2002 = FF                  A:00 X:FF Y:00 P:26 SP:FF PPU: 62,110 CYC:12531
C656  29 80     AND #$80                        A:10 X:FF Y:00 P:24 SP:FF PPU: 74,110 CYC:12535
C658  F0 F9     BEQ $C653                       A:00 X:FF Y:00 P:26 SP:FF PPU: 80,110 CYC:12537
C653  AD 02 20  LDA $2002 = FF                  A:00 X:FF Y:00 P:26 SP:FF PPU: 89,110 CYC:12540
C656  29 80     AND #$80                        A:10 X:FF Y:00 P:24 SP:FF PPU:101,110 CYC:12544
C658  F0 F9     BEQ $C653                       A:00 X:FF Y:00 P:26 SP:FF PPU:107,110 CYC:12546
C653  AD 02 20  LDA $2002 = FF                  A:00 X:FF Y:00 P:26 SP:FF PPU:116,110 CYC:12549
C656  29 80     AND #$80                        A:10 X:FF Y:00 P:24 SP:FF PPU:128,110 CYC:12553
C658  F0 F9     BEQ $C653                       A:00 X:FF Y:00 P:26 SP:FF PPU:134,110 CYC:12555
C653  AD 02 20  LDA $2002 = FF                  A:00 X:FF Y:00 P:26 SP:FF PPU:143,110 CYC:12558
C656  29 80     AND #$80                        A:10 X:FF Y:00 P:24 SP:FF PPU:155,110 CYC:12562
C658  F0 F9     BEQ $C653                       A:00 X:FF Y:00 P:26 SP:FF PPU:161,110 CYC:12564
C653  AD 02 20  LDA $2002 = FF                  A:00 X:FF Y:00 P:26 SP:FF PPU:170,110 CYC:12567
C656  29 80     AND #$80                        A:10 X:FF Y:00 P:24 SP:FF PPU:182,110 CYC:12571
C658  F0 F9     BEQ $C653                       A:00 X:FF Y:00 P:26 SP:FF PPU:188,110 CYC:12573
C653  AD 02 20  LDA $2002 = FF                  A:00 X:FF Y:00 P:26 SP:FF PPU:197,110 CYC:12576
C656  29 80     AND #$80                        A:10 X:FF Y:00 P:24 SP:FF PPU:209,110 CYC:12580
C658  F0 F9     BEQ $C653                       A:00 X:FF Y:00 P:26 SP:FF PPU:215,110 CYC:12582
C653  AD 02 20  LDA $2002 = FF                  A:00 X:FF Y:00 P:26 SP:FF PPU:224,110 CYC:12585
C656  29 80     AND #$80                        A:10 X:FF Y:00 P:24 SP:FF PPU:236,110 CYC:12589
C658  F0 F9     BEQ $C653                       A:00 X:FF Y:00 P:26 SP:FF PPU:242,110 CYC:12591
C653  AD 02 20  LDA $2002 = FF                  A:00 X:FF Y:00 P:26 SP:FF PPU:251,110 CYC:12594
C656  29 80     AND #$80                        A:10 X:FF Y:00 P:24 SP:FF PPU:263,110 CYC:12598
C658  F0 F9     BEQ $C653                       A:00 X:FF Y:00 P:26 SP:FF PPU:269,110 CYC:12600
C653  AD 02 20  LDA $2002 = FF                  A:00 X:FF Y:00 P:26 SP:FF PPU:278,110 CYC:12603
C656  29 80     AND #$80                        A:10 X:FF Y:00 P:24 SP:FF PPU:290,110 CYC:12607
C658  F0 F9     BEQ $C653                       A:00 X:FF Y:00 P:26 SP:FF PPU:296,110 CYC:12609
C653  AD 02 20  LDA $2002 = FF                  A:00 X:FF Y:00 P:26 SP:FF PPU:305,110 CYC:12612
C656  29 80     AND #$80                        A:10 X:FF Y:00 P:24 SP:FF PPU:317,110 CYC:12616
C658  F0 F9     BEQ $C653                       A:00 X:FF Y:00 P:26 SP:FF PPU:323,110 CYC:12618
C653  AD 02 20  LDA $2002 = FF                  A:00 X:FF Y:00 P:26 SP:FF PPU:332,110 CYC:12621
C656  29 80     AND #$80                        A:10 X:FF Y:00 P:24 SP:FF PPU:  3,111 CYC:12625
C658  F0 F9     BEQ $C653                       A:00 X:FF Y:00 P:26 SP:FF PPU:  9,111 CYC:12627
C653  AD 02 20  LDA $2002 = FF                  A:00 X:FF Y:00 P:26 SP:FF PPU: 18,111 CYC:12630
C656  29 80     AND #$80                        A:10 X:FF Y:00 P:24 SP:FF PPU: 30,111 CYC:12634
C658  F0 F9     BEQ $C653                       A:00 X:FF Y:00 P:26 SP:FF PPU: 36,111 CYC:12636
C653  AD 02 20  LDA $2002 = FF                  A:00 X:FF Y:00 P:26 SP:FF PPU: 45,111 CYC:12639
C656  29 80     AND #$80                        A:10 X:FF Y:00 P:24 SP:FF PPU: 57,111 CYC:12643
C658  F0 F9     BEQ $C653                       A:00 X:FF Y:00 P:26 SP:FF PPU: 63,111 CYC:12645
C653  AD 02 20  LDA $2002 = FF                  A:00 X:FF Y:00 P:26 SP:FF PPU: 72,111 CYC:12648
C656  29 80     AND #$80                        A:10 X:FF Y:00 P:24 SP:FF PPU: 84,111 CYC:12652
C658  F0 F9     BEQ $C653                       A:00 X:FF Y:00 P:26 SP:FF PPU: 90,111 CYC:12654
C653  AD 02 20  LDA $2002 = FF                  A:00 X:FF Y:00 P:26 SP:FF PPU: 99,111 CYC:12657
C656  29 80     AND #$80                        A:10 X:FF Y:00 P:24 SP:FF PPU:111,111 CYC:12661
C658  F0 F9     BEQ $C653                       A:00 X:FF Y:00 P:26 SP:FF PPU:117,111 CYC:12663
C653  AD 02 20  LDA $2002 = FF                  A:00 X:FF Y:00 P:26 SP:FF PPU:126,111 CYC:12666
C656  29 80     AND #$80                        A:10 X:FF Y:00 P:24 SP:FF PPU:138,111 CYC:12670
C658  F0 F9     BEQ $C653                       A:00 X:FF Y:00 P:26 SP:FF PPU:144,111 CYC:12672
C653  AD 02 20  LDA $2002 = FF                  A:00 X:FF Y:00 P:26 SP:FF PPU:153,111 CYC:12675
C656  29 80     AND #$80                        A:10 X:FF Y:00 P:24 SP:FF PPU:165,111 CYC:12679
C658  F0 F9     BEQ $C653                       A:00 X:FF Y:00 P:26 SP:FF PPU:171,111 CYC:12681
C653  AD 02 20  LDA $2002 = FF                  A:00 X:FF Y:00 P:26 SP:FF PPU:180,111 CYC:12684
C656  29 80     AND #$80                        A:10 X:FF Y:00 P:24 SP:FF PPU:192,111 CYC:12688
C658  F0 F9     BEQ $C653                       A:00 X:FF Y:00 P:26 SP:FF PPU:198,111 CYC:12690
C653  AD 02 20  LDA $2002 = FF                  A:00 X:FF Y:00 P:26 SP:FF PPU:207,111 CYC:12693
C656  29 80     AND #$80                        A:10 X:FF Y:00 P:24 SP:FF PPU:219,111 CYC:12697
C658  F0 F9     BEQ $C653                       A:00 X:FF Y:00 P:26 SP:FF PPU:225,111 CYC:12699
C653  AD 02 20  LDA $2002 = FF                  A:00 X:FF Y:00 P:26 SP:FF PPU:234,111 CYC:12702
C656  29 80     AND #$80                        A:10 X:FF Y:00 P:24 SP:FF PPU:246,111 CYC:12706
C658  F0 F9     BEQ $C653                       A:00 X:FF Y:00 P:26 SP:FF PPU:252,111 CYC:12708
C653  AD 02 20  LDA $2002 = FF                  A:00 X:FF Y:00 P:26 SP:FF PPU:261,111 CYC:12711
C656  29 80     AND #$80                        A:10 X:FF Y:00 P:24 SP:FF PPU:273,111 CYC:12715
C658  F0 F9     BEQ $C653                       A:00 X:FF Y:00 P:26 SP:FF PPU:279,111 CYC:12717
C653  AD 02 20  LDA $2002 = FF                  A:00 X:FF Y:00 P:26 SP:FF PPU:288,111 CYC:12720
C656  29 80     AND #$80                        A:10 X:FF Y:00 P:24 SP:FF PPU:300,111 CYC:12724
C658  F0 F9     BEQ $C653                       A:00 X:FF Y:00 P:26 SP:FF PPU:306,111 CYC:12726
C653  AD 02 20  LDA $2002 = FF                  A:00 X:FF Y:00 P:26 SP:FF PPU:315,111 CYC:12729
C656  29 80     AND #$80                        A:10 X:FF Y:00 P:24 SP:FF PPU:327,111 CYC:12733
C658  F0 F9     BEQ $C653                       A:00 X:FF Y:00 P:26 SP:FF PPU:333,111 CYC:12735
C653  AD 02 20  LDA $2002 = FF                  A:00 X:FF Y:00 P:26 SP:FF PPU:  1,112 CYC:12738
C656  29 80     AND #$80                        A:10 X:FF Y:00 P:24 SP:FF PPU: 13,112 CYC:12742
C658  F0 F9     BEQ $C653                       A:00 X:FF Y:00 P:26 SP:FF PPU: 19,112 CYC:12744
C653  AD 02 20  LDA $2002 = FF                  A:00 X:FF Y:00 P:26 SP:FF PPU: 28,112 CYC:12747
C656  29 80     AND #$80                        A:10 X:FF Y:00 P:24 SP:FF PPU: 40,112 CYC:12751
C658  F0 F9     BEQ $C653                       A:00 X:FF Y:00 P:26 SP:FF PPU: 46,112 CYC:12753
C653  AD 02 20  LDA $2002 = FF                  A:00 X:FF Y:00 P:26 SP:FF PPU: 55,112 CYC:12756
C656  29 80     AND #$80                        A:10 X:FF Y:00 P:24 SP:FF PPU: 67,112 CYC:12760
C658  F0 F9     BEQ $C653                       A:00 X:FF Y:00 P:26 SP:FF PPU: 73,112 CYC:12762
C653  AD 02 20  LDA $2002 = FF                  A:00 X:FF Y:00 P:26 SP:FF PPU: 82,112 CYC:12765
C656  29 80     AND #$80                        A:10 X:FF Y:00 P:24 SP:FF PPU: 94,112 CYC:12769
C658  F0 F9     BEQ $C653                       A:00 X:FF Y:00 P:26 SP:FF PPU:100,112 CYC:12771
C653  AD 02 20  LDA $2002 = FF                  A:00 X:FF Y:00 P:26 SP:FF PPU:109,112 CYC:12774
C656  29 80     AND #$80                        A:10 X:FF Y:00 P:24 SP:FF PPU:121,112 CYC:12778
C658  F0 F9     BEQ $C653                       A:00 X:FF Y:00 P:26 SP:FF PPU:127,112 CYC:12780
C653  AD 02 20  LDA $2002 = FF                  A:00 X:FF Y:00 P:26 SP:FF PPU:136,112 CYC:12783
C656  29 80     AND #$80                        A:10 X:FF Y:00 P:24 SP:FF PPU:148,112 CYC:12787
C658  F0 F9     BEQ $C653                       A:00 X:FF Y:00 P:26 SP:FF PPU:154,112 CYC:12789
C653  AD 02 20  LDA $2002 = FF                  A:00 X:FF Y:00 P:26 SP:FF PPU:163,112 CYC:12792
C656  29 80     AND #$80                        A:10 X:FF Y:00 P:24 SP:FF PPU:175,112 CYC:12796
C658  F0 F9     BEQ $C653                       A:00 X:FF Y:00 P:26 SP:FF PPU:181,112 CYC:12798
C653  AD 02 20  LDA $2002 = FF                  A:00 X:FF Y:00 P:26 SP:FF PPU:190,112 CYC:12801
C656  29 80     AND #$80                        A:10 X:FF Y:00 P:24 SP:FF PPU:202,112 CYC:12805
C658  F0 F9     BEQ $C653                       A:00 X:FF Y:00 P:26 SP:FF PPU:208,112 CYC:12807
C653  AD 02 20  LDA $2002 = FF                  A:00 X:FF Y:00 P:26 SP:FF PPU:217,112 CYC:12810
C656  29 80     AND #$80                        A:10 X:FF Y:00 P:24 SP:FF PPU:229,112 CYC:12814
C658  F0 F9     BEQ $C653                       A:00 X:FF Y:00 P:26 SP:FF PPU:235,112 CYC:12816
C653  AD 02 20  LDA $2002 = FF                  A:00 X:FF Y:00 P:26 SP:FF PPU:244,112 CYC:12819
C656  29 80     AND #$80                        A:10 X:FF Y:00 P:24 SP:FF PPU:256,112 CYC:12823
C658  F0 F9     BEQ $C653                       A:00 X:FF Y:00 P:26 SP:FF PPU:262,112 CYC:12825
C653  AD 02 20  LDA $2002 = FF                  A:00 X:FF Y:00 P:26 SP:FF PPU:271,112 CYC:12828
C656  29 80     AND #$80                        A:10 X:FF Y:00 P:24 SP:FF PPU:283,112 CYC:12832
C658  F0 F9     BEQ $C653                       A:00 X:FF Y:00 P:26 SP:FF PPU:289,112 CYC:12834
C653  AD 02 20  LDA $2002 = FF                  A:00 X:FF Y:00 P:26 SP:FF PPU:298,112 CYC:12837
C656  29 80     AND #$80                        A:10 X:FF Y:00 P:24 SP:FF PPU:310,112 CYC:12841
C658  F0 F9     BEQ $C653                       A:00 X:FF Y:00 P:26 SP:FF PPU:316,112 CYC:12843
C653  AD 02 20  LDA $2002 = FF                  A:00 X:FF Y:00 P:26 SP:FF PPU:325,112 CYC:12846
C656  29 80     AND #$80                        A:10 X:FF Y:00 P:24 SP:FF PPU:337,112 CYC:12850
C658  F0 F9     BEQ $C653                       A:00 X:FF Y:00 P:26 SP:FF PPU:  2,113 CYC:12852
C653  AD 02 20  LDA $2002 = FF                  A:00 X:FF Y:00 P:26 SP:FF PPU: 11,113 CYC:12855
C656  29 80     AND #$80                        A:10 X:FF Y:00 P:24 SP:FF PPU: 23,113 CYC:12859
C658  F0 F9     BEQ $C653                       A:00 X:FF Y:00 P:26 SP:FF PPU: 29,113 CYC:12861
C653  AD 02 20  LDA $2002 = FF                  A:00 X:FF Y:00 P:26 SP:FF PPU: 38,113 CYC:12864
C656  29 80     AND #$80                        A:10 X:FF Y:00 P:24 SP:FF PPU: 50,113 CYC:12868
C658  F0 F9     BEQ $C653                       A:00 X:FF Y:00 P:26 SP:FF PPU: 56,113 CYC:12870
C653  AD 02 20  LDA $2002 = FF                  A:00 X:FF Y:00 P:26 SP:FF PPU: 65,113 CYC:12873
C656  29 80     AND #$80                        A:10 X:FF Y:00 P:24 SP:FF PPU: 77,113 CYC:12877
C658  F0 F9     BEQ $C653                       A:00 X:FF Y:00 P:26 SP:FF PPU: 83,113 CYC:12879
C653  AD 02 20  LDA $2002 = FF                  A:00 X:FF Y:00 P:26 SP:FF PPU: 92,113 CYC:12882
C656  29 80     AND #$80                        A:10 X:FF Y:00 P:24 SP:FF PPU:104,113 CYC:12886
C658  F0 F9     BEQ $C653                       A:00 X:FF Y:00 P:26 SP:FF PPU:110,113 CYC:12888
C653  AD 02 20  LDA $2002 = FF                  A:00 X:FF Y:00 P:26 SP:FF PPU:119,113 CYC:12891
C656  29 80     AND #$80                        A:10 X:FF Y:00 P:24 SP:FF PPU:131,113 CYC:12895
C658  F0 F9     BEQ $C653                       A:00 X:FF Y:00 P:26 SP:FF PPU:137,113 CYC:12897
C653  AD 02 20  LDA $2002 = FF                  A:00 X:FF Y:00 P:26 SP:FF PPU:146,113 CYC:12900
C656  29 80     AND #$80                        A:10 X:FF Y:00 P:24 SP:FF PPU:158,113 CYC:12904
C658  F0 F9     BEQ $C653                       A:00 X:FF Y:00 P:26 SP:FF PPU:164,113 CYC:12906
C653  AD 02 20  LDA $2002 = FF                  A:00 X:FF Y:00 P:26 SP:FF PPU:173,113 CYC:12909
C656  29 80     AND #$80                        A:10 X:FF Y:00 P:24 SP:FF PPU:185,113 CYC:12913
C658  F0 F9     BEQ $C653                       A:00 X:FF Y:00 P:26 SP:FF PPU:191,113 CYC:12915
C653  AD 02 20  LDA $2002 = FF                  A:00 X:FF Y:00 P:26 SP:FF PPU:200,113 CYC:12918
C656  29 80     AND #$80                        A:10 X:FF Y:00 P:24 SP:FF PPU:212,113 CYC:12922
C658  F0 F9     BEQ $C653                       A:00 X:FF Y:00 P:26 SP:FF PPU:218,113 CYC:12924
C653  AD 02 20  LDA $2002 = FF                  A:00 X:FF Y:00 P:26 SP:FF PPU:227,113 CYC:12927
C656  29 80     AND #$80                        A:10 X:FF Y:00 P:24 SP:FF PPU:239,113 CYC:12931
C658  F0 F9     BEQ $C653                       A:00 X:FF Y:00 P:26 SP:FF PPU:245,113 CYC:12933
C653  AD 02 20  LDA $2002 = FF                  A:00 X:FF Y:00 P:26 SP:FF PPU:254,113 CYC:12936
C656  29 80     AND #$80                        A:10 X:FF Y:00 P:24 SP:FF PPU:266,113 CYC:12940
C658  F0 F9     BEQ $C653                       A:00 X:FF Y:00 P:26 SP:FF PPU:272,113 CYC:12942
C653  AD 02 20  LDA $2002 = FF                  A:00 X:FF Y:00 P:26 SP:FF PPU:281,113 CYC:12945
C656  29 80     AND #$80                        A:10 X:FF Y:00 P:24 SP:FF PPU:293,113 CYC:12949
C658  F0 F9     BEQ $C653                       A:00 X:FF Y:00 P:26 SP:FF PPU:299,113 CYC:12951
C653  AD 02 20  LDA $2002 = FF                  A:00 X:FF Y:00 P:26 SP:FF PPU:308,113 CYC:12954
C656  29 80     AND #$80                        A:10 X:FF Y:00 P:24 SP:FF PPU:320,113 CYC:12958
C658  F0 F9     BEQ $C653                       A:00 X:FF Y:00 P:26 SP:FF PPU:326,113 CYC:12960
C653  AD 02 20  LDA $2002 = FF                  A:00 X:FF Y:00 P:26 SP:FF PPU:335,113 CYC:12963
C656  29 80     AND #$80                        A:10 X:FF Y:00 P:24 SP:FF PPU:  6,114 CYC:12967
C658  F0 F9     BEQ $C653                       A:00 X:FF Y:00 P:26 SP:FF PPU: 12,114 CYC:12969
C653  AD 02 20  LDA $2002 = FF                  A:00 X:FF Y:00 P:26 SP:FF PPU: 21,114 CYC:12972
C656  29 80     AND #$80                        A:10 X:FF Y:00 P:24 SP:FF PPU: 33,114 CYC:12976
C658  F0 F9     BEQ $C653                       A:00 X:FF Y:00 P:26 SP:FF PPU: 39,114 CYC:12978
C653  AD 02 20  LDA $2002 = FF                  A:00 X:FF Y:00 P:26 SP:FF PPU: 48,114 CYC:12981
C656  29 80     AND #$80                        A:10 X:FF Y:00 P:24 SP:FF PPU: 60,114 CYC:12985
C658  F0 F9     BEQ $C653                       A:00 X:FF Y:00 P:26 SP:FF PPU: 66,114 CYC:12987
C653  AD 02 20  LDA $2002 = FF                  A:00 X:FF Y:00 P:26 SP:FF PPU: 75,114 CYC:12990
C656  29 80     AND #$80                        A:10 X:FF Y:00 P:24 SP:FF PPU: 87,114 CYC:12994
C658  F0 F9     BEQ $C653                       A:00 X:FF Y:00 P:26 SP:FF PPU: 93,114 CYC:12996
C653  AD 02 20  LDA $2002 = FF                  A:00 X:FF Y:00 P:26 SP:FF PPU:102,114 CYC:12999
C656  29 80     AND #$80                        A:10 X:FF Y:00 P:24 SP:FF PPU:114,114 CYC:13003
C658  F0 F9     BEQ $C653                       A:00 X:FF Y:00 P:26 SP:FF PPU:120,114 CYC:13005
C653  AD 02 20  LDA $2002 = FF                  A:00 X:FF Y:00 P:26 SP:FF PPU:129,114 CYC:13008
C656  29 80     AND #$80                        A:10 X:FF Y:00 P:24 SP:FF PPU:141,114 CYC:13012
C658  F0 F9     BEQ $C653                       A:00 X:FF Y:00 P:26 SP:FF PPU:147,114 CYC:13014
C653  AD 02 20  LDA $2002 = FF                  A:00 X:FF Y:00 P:26 SP:FF PPU:156,114 CYC:13017
C656  29 80     AND #$80                        A:10 X:FF Y:00 P:24 SP:FF PPU:168,114 CYC:13021
C658  F0 F9     BEQ $C653                       A:00 X:FF Y:00 P:26 SP:FF PPU:174,114 CYC:13023
C653  AD 02 20  LDA $2002 = FF                  A:00 X:FF Y:00 P:26 SP:FF PPU:183,114 CYC:13026
C656  29 80     AND #$80                        A:10 X:FF Y:00 P:24 SP:FF PPU:195,114 CYC:13030
C658  F0 F9     BEQ $C653                       A:00 X:FF Y:00 P:26 SP:FF PPU:201,114 CYC:13032
C653  AD 02 20  LDA $2002 = FF                  A:00 X:FF Y:00 P:26 SP:FF PPU:210,114 CYC:13035
C656  29 80     AND #$80                        A:10 X:FF Y:00 P:24 SP:FF PPU:222,114 CYC:13039
C658  F0 F9     BEQ $C653                       A:00 X:FF Y:00 P:26 SP:FF PPU:228,114 CYC:13041
C653  AD 02 20  LDA $2002 = FF                  A:00 X:FF Y:00 P:26 SP:FF PPU:237,114 CYC:13044
C656  29 80     AND #$80                        A:10 X:FF Y:00 P:24 SP:FF PPU:249,114 CYC:13048
C658  F0 F9     BEQ $C653                       A:00 X:FF Y:00 P:26 SP:FF PPU:255,114 CYC:13050
C653  AD 02 20  LDA $2002 = FF                  A:00 X:FF Y:00 P:26 SP:FF PPU:264,114 CYC:13053
C656  29 80     AND #$80                        A:10 X:FF Y:00 P:24 SP:FF PPU:276,114 CYC:13057
C658  F0 F9     BEQ $C653                       A:00 X:FF Y:00 P:26 SP:FF PPU:282,114 CYC:13059
C653  AD 02 20  LDA $2002 = FF                  A:00 X:FF Y:00 P:26 SP:FF PPU:291,114 CYC:13062
C656  29 80     AND #$80                        A:10 X:FF Y:00 P:24 SP:FF PPU:303,114 CYC:13066
C658  F0 F9     BEQ $C653                       A:00 X:FF Y:00 P:26 SP:FF PPU:309,114 CYC:13068
C653  AD 02 20  LDA $2002 = FF                  A:00 X:FF Y:00 P:26 SP:FF PPU:318,114 CYC:13071
C656  29 80     AND #$80                        A:10 X:FF Y:00 P:24 SP:FF PPU:330,114 CYC:13075
C658  F0 F9     BEQ $C653                       A:00 X:FF Y:00 P:26 SP:FF PPU:336,114 CYC:13077
C653  AD 02 20  LDA $2002 = FF                  A:00 X:FF Y:00 P:26 SP:FF PPU:  4,115 CYC:13080
C656  29 80     AND #$80                        A:10 X:FF Y:00 P:24 SP:FF PPU: 16,115 CYC:13084
C658  F0 F9     BEQ $C653                       A:00 X:FF Y:00 P:26 SP:FF PPU: 22,115 CYC:13086
C653  AD 02 20  LDA $2002 = FF                  A:00 X:FF Y:00 P:26 SP:FF PPU: 31,115 CYC:13089
C656  29 80     AND #$80                        A:10 X:FF Y:00 P:24 SP:FF PPU: 43,115 CYC:13093
C658  F0 F9     BEQ $C653                       A:00 X:FF Y:00 P:26 SP:FF PPU: 49,115 CYC:13095
C653  AD 02 20  LDA $2002 = FF                  A:00 X:FF Y:00 P:26 SP:FF PPU: 58,115 CYC:13098
C656  29 80     AND #$80                        A:10 X:FF Y:00 P:24 SP:FF PPU: 70,115 CYC:13102
C658  F0 F9     BEQ $C653                       A:00 X:FF Y:00 P:26 SP:FF PPU: 76,115 CYC:13104
C653  AD 02 20  LDA $2002 = FF                  A:00 X:FF Y:00 P:26 SP:FF PPU: 85,115 CYC:13107
C656  29 80     AND #$80                        A:10 X:FF Y:00 P:24 SP:FF PPU: 97,115 CYC:13111
C658  F0 F9     BEQ $C653                       A:00 X:FF Y:00 P:26 SP:FF PPU:103,115 CYC:13113
C653  AD 02 20  LDA $2002 = FF                  A:00 X:FF Y:00 P:26 SP:FF PPU:112,115 CYC:13116
C656  29 80     AND #$80                        A:10 X:FF Y:00 P:24 SP:FF PPU:124,115 CYC:13120
C658  F0 F9     BEQ $C653                       A:00 X:FF Y:00 P:26 SP:FF PPU:130,115 CYC:13122
C653  AD 02 20  LDA $2002 = FF                  A:00 X:FF Y:00 P:26 SP:FF PPU:139,115 CYC:13125
C656  29 80     AND #$80                        A:10 X:FF Y:00 P:24 SP:FF PPU:151,115 CYC:13129
C658  F0 F9     BEQ $C653                       A:00 X:FF Y:00 P:26 SP:FF PPU:157,115 CYC:13131
C653  AD 02 20  LDA $2002 = FF                  A:00 X:FF Y:00 P:26 SP:FF PPU:166,115 CYC:13134
C656  29 80     AND #$80                        A:10 X:FF Y:00 P:24 SP:FF PPU:178,115 CYC:13138
C658  F0 F9     BEQ $C653                       A:00 X:FF Y:00 P:26 SP:FF PPU:184,115 CYC:13140
C653  AD 02 20  LDA $2002 = FF                  A:00 X:FF Y:00 P:26 SP:FF PPU:193,115 CYC:13143
C656  29 80     AND #$80                        A:10 X:FF Y:00 P:24 SP:FF PPU:205,115 CYC:13147
C658  F0 F9     BEQ $C653                       A:00 X:FF Y:00 P:26 SP:FF PPU:211,115 CYC:13149
C653  AD 02 20  LDA $2002 = FF                  A:00 X:FF Y:00 P:26 SP:FF PPU:220,115 CYC:13152
C656  29 80     AND #$80                        A:10 X:FF Y:00 P:24 SP:FF PPU:232,115 CYC:13156
C658  F0 F9     BEQ $C653                       A:00 X:FF Y:00 P:26 SP:FF PPU:238,115 CYC:13158
C653  AD 02 20  LDA $2002 = FF                  A:00 X:FF Y:00 P:26 SP:FF PPU:247,115 CYC:13161
C656  29 80     AND #$80                        A:10 X:FF Y:00 P:24 SP:FF PPU:259,115 CYC:13165
C658  F0 F9     BEQ $C653                       A:00 X:FF Y:00 P:26 SP:FF PPU:265,115 CYC:13167
C653  AD 02 20  LDA $2002 = FF                  A:00 X:FF Y:00 P:26 SP:FF PPU:274,115 CYC:13170
C656  29 80     AND #$80                        A:10 X:FF Y:00 P:24 SP:FF PPU:286,115 CYC:13174
C658  F0 F9     BEQ $C653                       A:00 X:FF Y:00 P:26 SP:FF PPU:292,115 CYC:13176
C653  AD 02 20  LDA $2002 = FF                  A:00 X:FF Y:00 P:26 SP:FF PPU:301,115 CYC:13179
C656  29 80     AND #$80                        A:10 X:FF Y:00 P:24 SP:FF PPU:313,115 CYC:13183
C658  F0 F9     BEQ $C653                       A:00 X:FF Y:00 P:26 SP:FF PPU:319,115 CYC:13185
C653  AD 02 20  LDA $2002 = FF                  A:00 X:FF Y:00 P:26 SP:FF PPU:328,115 CYC:13188
C656  29 80     AND #$80                        A:10 X:FF Y:00 P:24 SP:FF PPU:340,115 CYC:13192
C658  F0 F9     BEQ $C653                       A:00 X:FF Y:00 P:26 SP:FF PPU:  5,116 CYC:13194
C653  AD 02 20  LDA $2002 = FF                  A:00 X:FF Y:00 P:26 SP:FF PPU: 14,116 CYC:13197
C656  29 80     AND #$80                        A:10 X:FF Y:00 P:24 SP:FF PPU: 26,116 CYC:13201
C658  F0 F9     BEQ $C653                       A:00 X:FF Y:00 P:26 SP:FF PPU: 32,116 CYC:13203
C653  AD 02 20  LDA $2002 = FF                  A:00 X:FF Y:00 P:26 SP:FF PPU: 41,116 CYC:13206
C656  29 80     AND #$80                        A:10 X:FF Y:00 P:24 SP:FF PPU: 53,116 CYC:13210
C658  F0 F9     BEQ $C653                       A:00 X:FF Y:00 P:26 SP:FF PPU: 59,116 CYC:13212
C653  AD 02 20  LDA $2002 = FF                  A:00 X:FF Y:00 P:26 SP:FF PPU: 68,116 CYC:13215
C656  29 80     AND #$80                        A:10 X:FF Y:00 P:24 SP:FF PPU: 80,116 CYC:13219
C658  F0 F9     BEQ $C653                       A:00 X:FF Y:00 P:26 SP:FF PPU: 86,116 CYC:13221
C653  AD 02 20  LDA $2002 = FF                  A:00 X:FF Y:00 P:26 SP:FF PPU: 95,116 CYC:13224
C656  29 80     AND #$80                        A:10 X:FF Y:00 P:24 SP:FF PPU:107,116 CYC:13228
C658  F0 F9     BEQ $C653                       A:00 X:FF Y:00 P:26 SP:FF PPU:113,116 CYC:13230
C653  AD 02 20  LDA $2002 = FF                  A:00 X:FF Y:00 P:26 SP:FF PPU:122,116 CYC:13233
C656  29 80     AND #$80                        A:10 X:FF Y:00 P:24 SP:FF PPU:134,116 CYC:13237
C658  F0 F9     BEQ $C653                       A:00 X:FF Y:00 P:26 SP:FF PPU:140,116 CYC:13239
C653  AD 02 20  LDA $2002 = FF                  A:00 X:FF Y:00 P:26 SP:FF PPU:149,116 CYC:13242
C656  29 80     AND #$80                        A:10 X:FF Y:00 P:24 SP:FF PPU:161,116 CYC:13246
C658  F0 F9     BEQ $C653                       A:00 X:FF Y:00 P:26 SP:FF PPU:167,116 CYC:13248
C653  AD 02 20  LDA $2002 = FF                  A:00 X:FF Y:00 P:26 SP:FF PPU:176,116 CYC:13251
C656  29 80     AND #$80                        A:10 X:FF Y:00 P:24 SP:FF PPU:188,116 CYC:13255
C658  F0 F9     BEQ $C653                       A:00 X:FF Y:00 P:26 SP:FF PPU:194,116 CYC:13257
C653  AD 02 20  LDA $2002 = FF                  A:00 X:FF Y:00 P:26 SP:FF PPU:203,116 CYC:13260
C656  29 80     AND #$80                        A:10 X:FF Y:00 P:24 SP:FF PPU:215,116 CYC:13264
C658  F0 F9     BEQ $C653                       A:00 X:FF Y:00 P:26 SP:FF PPU:221,116 CYC:13266
C653  AD 02 20  LDA $2002 = FF                  A:00 X:FF Y:00 P:26 SP:FF PPU:230,116 CYC:13269
C656  29 80     AND #$80                        A:10 X:FF Y:00 P:24 SP:FF PPU:242,116 CYC:13273
C658  F0 F9     BEQ $C653                       A:00 X:FF Y:00 P:26 SP:FF PPU:248,116 CYC:13275
C653  AD 02 20  LDA $2002 = FF                  A:00 X:FF Y:00 P:26 SP:FF PPU:257,116 CYC:13278
C656  29 80     AND #$80                        A:10 X:FF Y:00 P:24 SP:FF PPU:269,116 CYC:13282
C658  F0 F9     BEQ $C653                       A:00 X:FF Y:00 P:26 SP:FF PPU:275,116 CYC:13284
C653  AD 02 20  LDA $2002 = FF                  A:00 X:FF Y:00 P:26 SP:FF PPU:284,116 CYC:13287
C656  29 80     AND #$80                        A:10 X:FF Y:00 P:24 SP:FF PPU:296,116 CYC:13291
C658  F0 F9     BEQ $C653                       A:00 X:FF Y:00 P:26 SP:FF PPU:302,116 CYC:13293
C653  AD 02 20  LDA $2002 = FF                  A:00 X:FF Y:00 P:26 SP:FF PPU:311,116 CYC:13296
C656  29 80     AND #$80                        A:10 X:FF Y:00 P:24 SP:FF PPU:323,116 CYC:13300
C658  F0 F9     BEQ $C653                       A:00 X:FF Y:00 P:26 SP:FF PPU:329,116 CYC:13302
C653  AD 02 20  LDA $2002 = FF                  A:00 X:FF Y:00 P:26 SP:FF PPU:338,116 CYC:13305
C656  29 80     AND #$80                        A:10 X:FF Y:00 P:24 SP:FF PPU:  9,117 CYC:13309
C658  F0 F9     BEQ $C653                       A:00 X:FF Y:00 P:26 SP:FF PPU: 15,117 CYC:13311
C653  AD 02 20  LDA $2002 = FF                  A:00 X:FF Y:00 P:26 SP:FF PPU: 24,117 CYC:13314
C656  29 80     AND #$80                        A:10 X:FF Y:00 P:24 SP:FF PPU: 36,117 CYC:13318
C658  F0 F9     BEQ $C653                       A:00 X:FF Y:00 P:26 SP:FF PPU: 42,117 CYC:13320
C653  AD 02 20  LDA $2002 = FF                  A:00 X:FF Y:00 P:26 SP:FF PPU: 51,117 CYC:13323
C656  29 80     AND #$80                        A:10 X:FF Y:00 P:24 SP:FF PPU: 63,117 CYC:13327
C658  F0 F9     BEQ $C653                       A:00 X:FF Y:00 P:26 SP:FF PPU: 69,117 CYC:13329
C653  AD 02 20  LDA $2002 = FF                  A:00 X:FF Y:00 P:26 SP:FF PPU: 78,117 CYC:13332
C656  29 80     AND #$80                        A:10 X:FF Y:00 P:24 SP:FF PPU: 90,117 CYC:13336
C658  F0 F9     BEQ $C653                       A:00 X:FF Y:00 P:26 SP:FF PPU: 96,117 CYC:13338
C653  AD 02 20  LDA $2002 = FF                  A:00 X:FF Y:00 P:26 SP:FF PPU:105,117 CYC:13341
C656  29 80     AND #$80                        A:10 X:FF Y:00 P:24 SP:FF PPU:117,117 CYC:13345
C658  F0 F9     BEQ $C653                       A:00 X:FF Y:00 P:26 SP:FF PPU:123,117 CYC:13347
C653  AD 02 20  LDA $2002 = FF                  A:00 X:FF Y:00 P:26 SP:FF PPU:132,117 CYC:13350
C656  29 80     AND #$80                        A:10 X:FF Y:00 P:24 SP:FF PPU:144,117 CYC:13354
C658  F0 F9     BEQ $C653                       A:00 X:FF Y:00 P:26 SP:FF PPU:150,117 CYC:13356
C653  AD 02 20  LDA $2002 = FF                  A:00 X:FF Y:00 P:26 SP:FF PPU:159,117 CYC:13359
C656  29 80     AND #$80                        A:10 X:FF Y:00 P:24 SP:FF PPU:171,117 CYC:13363
C658  F0 F9     BEQ $C653                       A:00 X:FF Y:00 P:26 SP:FF PPU:177,117 CYC:13365
C653  AD 02 20  LDA $2002 = FF                  A:00 X:FF Y:00 P:26 SP:FF PPU:186,117 CYC:13368
C656  29 80     AND #$80                        A:10 X:FF Y:00 P:24 SP:FF PPU:198,117 CYC:13372
C658  F0 F9     BEQ $C653                       A:00 X:FF Y:00 P:26 SP:FF PPU:204,117 CYC:13374
C653  AD 02 20  LDA $2002 = FF                  A:00 X:FF Y:00 P:26 SP:FF PPU:213,117 CYC:13377
C656  29 80     AND #$80                        A:10 X:FF Y:00 P:24 SP:FF PPU:225,117 CYC:13381
C658  F0 F9     BEQ $C653                       A:00 X:FF Y:00 P:26 SP:FF PPU:231,117 CYC:13383
C653  AD 02 20  LDA $2002 = FF                  A:00 X:FF Y:00 P:26 SP:FF PPU:240,117 CYC:13386
C656  29 80     AND #$80                        A:10 X:FF Y:00 P:24 SP:FF PPU:252,117 CYC:13390
C658  F0 F9     BEQ $C653                       A:00 X:FF Y:00 P:26 SP:FF PPU:258,117 CYC:13392
C653  AD 02 20  LDA $2002 = FF                  A:00 X:FF Y:00 P:26 SP:FF PPU:267,117 CYC:13395
C656  29 80     AND #$80                        A:10 X:FF Y:00 P:24 SP:FF PPU:279,117 CYC:13399
C658  F0 F9     BEQ $C653                       A:00 X:FF Y:00 P:26 SP:FF PPU:285,117 CYC:13401
C653  AD 02 20  LDA $2002 = FF                  A:00 X:FF Y:00 P:26 SP:FF PPU:294,117 CYC:13404
C656  29 80     AND #$80                        A:10 X:FF Y:00 P:24 SP:FF PPU:306,117 CYC:13408
C658  F0 F9     BEQ $C653                       A:00 X:FF Y:00 P:26 SP:FF PPU:312,117 CYC:13410
C653  AD 02 20  LDA $2002 = FF                  A:00 X:FF Y:00 P:26 SP:FF PPU:321,117 CYC:13413
C656  29 80     AND #$80                        A:10 X:FF Y:00 P:24 SP:FF PPU:333,117 CYC:13417
C658  F0 F9     BEQ $C653                       A:00 X:FF Y:00 P:26 SP:FF PPU:339,117 CYC:13419
C653  AD 02 20  LDA $2002 = FF                  A:00 X:FF Y:00 P:26 SP:FF PPU:  7,118 CYC:13422
C656  29 80     AND #$80                        A:10 X:FF Y:00 P:24 SP:FF PPU: 19,118 CYC:13426
C658  F0 F9     BEQ $C653                       A:00 X:FF Y:00 P:26 SP:FF PPU: 25,118 CYC:13428
C653  AD 02 20  LDA $2002 = FF                  A:00 X:FF Y:00 P:26 SP:FF PPU: 34,118 CYC:13431
C656  29 80     AND #$80                        A:10 X:FF Y:00 P:24 SP:FF PPU: 46,118 CYC:13435
C658  F0 F9     BEQ $C653                       A:00 X:FF Y:00 P:26 SP:FF PPU: 52,118 CYC:13437
C653  AD 02 20  LDA $2002 = FF                  A:00 X:FF Y:00 P:26 SP:FF PPU: 61,118 CYC:13440
C656  29 80     AND #$80                        A:10 X:FF Y:00 P:24 SP:FF PPU: 73,118 CYC:13444
C658  F0 F9     BEQ $C653                       A:00 X:FF Y:00 P:26 SP:FF PPU: 79,118 CYC:13446
C653  AD 02 20  LDA $2002 = FF                  A:00 X:FF Y:00 P:26 SP:FF PPU: 88,118 CYC:13449
C656  29 80     AND #$80                        A:10 X:FF Y:00 P:24 SP:FF PPU:100,118 CYC:13453
C658  F0 F9     BEQ $C653                       A:00 X:FF Y:00 P:26 SP:FF PPU:106,118 CYC:13455
C653  AD 02 20  LDA $2002 = FF                  A:00 X:FF Y:00 P:26 SP:FF PPU:115,118 CYC:13458
C656  29 80     AND #$80                        A:10 X:FF Y:00 P:24 SP:FF PPU:127,118 CYC:13462
C658  F0 F9     BEQ $C653                       A:00 X:FF Y:00 P:26 SP:FF PPU:133,118 CYC:13464
C653  AD 02 20  LDA $2002 = FF                  A:00 X:FF Y:00 P:26 SP:FF PPU:142,118 CYC:13467
C656  29 80     AND #$80                        A:10 X:FF Y:00 P:24 SP:FF PPU:154,118 CYC:13471
C658  F0 F9     BEQ $C653                       A:00 X:FF Y:00 P:26 SP:FF PPU:160,118 CYC:13473
C653  AD 02 20  LDA $2002 = FF                  A:00 X:FF Y:00 P:26 SP:FF PPU:169,118 CYC:13476
C656  29 80     AND #$80                        A:10 X:FF Y:00 P:24 SP:FF PPU:181,118 CYC:13480
C658  F0 F9     BEQ $C653                       A:00 X:FF Y:00 P:26 SP:FF PPU:187,118 CYC:13482
C653  AD 02 20  LDA $2002 = FF                  A:00 X:FF Y:00 P:26 SP:FF PPU:196,118 CYC:13485
C656  29 80     AND #$80                        A:10 X:FF Y:00 P:24 SP:FF PPU:208,118 CYC:13489
C658  F0 F9     BEQ $C653                       A:00 X:FF Y:00 P:26 SP:FF PPU:214,118 CYC:13491
C653  AD 02 20  LDA $2002 = FF                  A:00 X:FF Y:00 P:26 SP:FF PPU:223,118 CYC:13494
C656  29 80     AND #$80                        A:10 X:FF Y:00 P:24 SP:FF PPU:235,118 CYC:13498
C658  F0 F9     BEQ $C653                       A:00 X:FF Y:00 P:26 SP:FF PPU:241,118 CYC:13500
C653  AD 02 20  LDA $2002 = FF                  A:00 X:FF Y:00 P:26 SP:FF PPU:250,118 CYC:13503
C656  29 80     AND #$80                        A:10 X:FF Y:00 P:24 SP:FF PPU:262,118 CYC:13507
C658  F0 F9     BEQ $C653                       A:00 X:FF Y:00 P:26 SP:FF PPU:268,118 CYC:13509
C653  AD 02 20  LDA $2002 = FF                  A:00 X:FF Y:00 P:26 SP:FF PPU:277,118 CYC:13512
C656  29 80     AND #$80                        A:10 X:FF Y:00 P:24 SP:FF PPU:289,118 CYC:13516
C658  F0 F9     BEQ $C653                       A:00 X:FF Y:00 P:26 SP:FF PPU:295,118 CYC:13518
C653  AD 02 20  LDA $2002 = FF                  A:00 X:FF Y:00 P:26 SP:FF PPU:304,118 CYC:13521
C656  29 80     AND #$80                        A:10 X:FF Y:00 P:24 SP:FF PPU:316,118 CYC:13525
C658  F0 F9     BEQ $C653                       A:00 X:FF Y:00 P:26 SP:FF PPU:322,118 CYC:13527
C653  AD 02 20  LDA $2002 = FF                  A:00 X:FF Y:00 P:26 SP:FF PPU:331,118 CYC:13530
C656  29 80     AND #$80                        A:10 X:FF Y:00 P:24 SP:FF PPU:  2,119 CYC:13534
C658  F0 F9     BEQ $C653                       A:00 X:FF Y:00 P:26 SP:FF PPU:  8,119 CYC:13536
C653  AD 02 20  LDA $2002 = FF                  A:00 X:FF Y:00 P:26 SP:FF PPU: 17,119 CYC:13539
C656  29 80     AND #$80                        A:10 X:FF Y:00 P:24 SP:FF PPU: 29,119 CYC:13543
C658  F0 F9     BEQ $C653                       A:00 X:FF Y:00 P:26 SP:FF PPU: 35,119 CYC:13545
C653  AD 02 20  LDA $2002 = FF                  A:00 X:FF Y:00 P:26 SP:FF PPU: 44,119 CYC:13548
C656  29 80     AND #$80                        A:10 X:FF Y:00 P:24 SP:FF PPU: 56,119 CYC:13552
C658  F0 F9     BEQ $C653                       A:00 X:FF Y:00 P:26 SP:FF PPU: 62,119 CYC:13554
C653  AD 02 20  LDA $2002 = FF                  A:00 X:FF Y:00 P:26 SP:FF PPU: 71,119 CYC:13557
C656  29 80     AND #$80                        A:10 X:FF Y:00 P:24 SP:FF PPU: 83,119 CYC:13561
C658  F0 F9     BEQ $C653                       A:00 X:FF Y:00 P:26 SP:FF PPU: 89,119 CYC:13563
C653  AD 02 20  LDA $2002 = FF                  A:00 X:FF Y:00 P:26 SP:FF PPU: 98,119 CYC:13566
C656  29 80     AND #$80                        A:10 X:FF Y:00 P:24 SP:FF PPU:110,119 CYC:13570
C658  F0 F9     BEQ $C653                       A:00 X:FF Y:00 P:26 SP:FF PPU:116,119 CYC:13572
C653  AD 02 20  LDA $2002 = FF                  A:00 X:FF Y:00 P:26 SP:FF PPU:125,119 CYC:13575
C656  29 80     AND #$80                        A:10 X:FF Y:00 P:24 SP:FF PPU:137,119 CYC:13579
C658  F0 F9     BEQ $C653                       A:00 X:FF Y:00 P:26 SP:FF PPU:143,119 CYC:13581
C653  AD 02 20  LDA $2002 = FF                  A:00 X:FF Y:00 P:26 SP:FF PPU:152,119 CYC:13584
C656  29 80     AND #$80                        A:10 X:FF Y:00 P:24 SP:FF PPU:164,119 CYC:13588
C658  F0 F9     BEQ $C653                       A:00 X:FF Y:00 P:26 SP:FF PPU:170,119 CYC:13590
C653  AD 02 20  LDA $2002 = FF                  A:00 X:FF Y:00 P:26 SP:FF PPU:179,119 CYC:13593
C656  29 80     AND #$80                        A:10 X:FF Y:00 P:24 SP:FF PPU:191,119 CYC:13597
C658  F0 F9     BEQ $C653                       A:00 X:FF Y:00 P:26 SP:FF PPU:197,119 CYC:13599
C653  AD 02 20  LDA $2002 = FF                  A:00 X:FF Y:00 P:26 SP:FF PPU:206,119 CYC:13602
C656  29 80     AND #$80                        A:10 X:FF Y:00 P:24 SP:FF PPU:218,119 CYC:13606
C658  F0 F9     BEQ $C653                       A:00 X:FF Y:00 P:26 SP:FF PPU:224,119 CYC:13608
C653  AD 02 20  LDA $2002 = FF                  A:00 X:FF Y:00 P:26 SP:FF PPU:233,119 CYC:13611
C656  29 80     AND #$80                        A:10 X:FF Y:00 P:24 SP:FF PPU:245,119 CYC:13615
C658  F0 F9     BEQ $C653                       A:00 X:FF Y:00 P:26 SP:FF PPU:251,119 CYC:13617
C653  AD 02 20  LDA $2002 = FF                  A:00 X:FF Y:00 P:26 SP:FF PPU:260,119 CYC:13620
C656  29 80     AND #$80                        A:10 X:FF Y:00 P:24 SP:FF PPU:272,119 CYC:13624
C658  F0 F9     BEQ $C653                       A:00 X:FF Y:00 P:26 SP:FF PPU:278,119 CYC:13626
C653  AD 02 20  LDA $2002 = FF                  A:00 X:FF Y:00 P:26 SP:FF PPU:287,119 CYC:13629
C656  29 80     AND #$80                        A:10 X:FF Y:00 P:24 SP:FF PPU:299,119 CYC:13633
C658  F0 F9     BEQ $C653                       A:00 X:FF Y:00 P:26 SP:FF PPU:305,119 CYC:13635
C653  AD 02 20  LDA $2002 = FF                  A:00 X:FF Y:00 P:26 SP:FF PPU:314,119 CYC:13638
C656  29 80     AND #$80                        A:10 X:FF Y:00 P:24 SP:FF PPU:326,119 CYC:13642
C658  F0 F9     BEQ $C653                       A:00 X:FF Y:00 P:26 SP:FF PPU:332,119 CYC:13644
C653  AD 02 20  LDA $2002 = FF                  A:00 X:FF Y:00 P:26 SP:FF PPU:  0,120 CYC:13647
C656  29 80     AND #$80                        A:10 X:FF Y:00 P:24 SP:FF PPU: 12,120 CYC:13651
C658  F0 F9     BEQ $C653                       A:00 X:FF Y:00 P:26 SP:FF PPU: 18,120 CYC:13653
C653  AD 02 20  LDA $2002 = FF                  A:00 X:FF Y:00 P:26 SP:FF PPU: 27,120 CYC:13656
C656  29 80     AND #$80                        A:10 X:FF Y:00 P:24 SP:FF PPU: 39,120 CYC:13660
C658  F0 F9     BEQ $C653                       A:00 X:FF Y:00 P:26 SP:FF PPU: 45,120 CYC:13662
C653  AD 02 20  LDA $2002 = FF                  A:00 X:FF Y:00 P:26 SP:FF PPU: 54,120 CYC:13665
C656  29 80     AND #$80                        A:10 X:FF Y:00 P:24 SP:FF PPU: 66,120 CYC:13669
C658  F0 F9     BEQ $C653                       A:00 X:FF Y:00 P:26 SP:FF PPU: 72,120 CYC:13671
C653  AD 02 20  LDA $2002 = FF                  A:00 X:FF Y:00 P:26 SP:FF PPU: 81,120 CYC:13674
C656  29 80     AND #$80                        A:10 X:FF Y:00 P:24 SP:FF PPU: 93,120 CYC:13678
C658  F0 F9     BEQ $C653                       A:00 X:FF Y:00 P:26 SP:FF PPU: 99,120 CYC:13680
C653  AD 02 20  LDA $2002 = FF                  A:00 X:FF Y:00 P:26 SP:FF PPU:108,120 CYC:13683
C656  29 80     AND #$80                        A:10 X:FF Y:00 P:24 SP:FF PPU:120,120 CYC:13687
C658  F0 F9     BEQ $C653                       A:00 X:FF Y:00 P:26 SP:FF PPU:126,120 CYC:13689
C653  AD 02 20  LDA $2002 = FF                  A:00 X:FF Y:00 P:26 SP:FF PPU:135,120 CYC:13692
C656  29 80     AND #$80                        A:10 X:FF Y:00 P:24 SP:FF PPU:147,120 CYC:13696
C658  F0 F9     BEQ $C653                       A:00 X:FF Y:00 P:26 SP:FF PPU:153,120 CYC:13698
C653  AD 02 20  LDA $2002 = FF                  A:00 X:FF Y:00 P:26 SP:FF PPU:162,120 CYC:13701
C656  29 80     AND #$80                        A:10 X:FF Y:00 P:24 SP:FF PPU:174,120 CYC:13705
C658  F0 F9     BEQ $C653                       A:00 X:FF Y:00 P:26 SP:FF PPU:180,120 CYC:13707
C653  AD 02 20  LDA $2002 = FF                  A:00 X:FF Y:00 P:26 SP:FF PPU:189,120 CYC:13710
C656  29 80     AND #$80                        A:10 X:FF Y:00 P:24 SP:FF PPU:201,120 CYC:13714
C658  F0 F9     BEQ $C653                       A:00 X:FF Y:00 P:26 SP:FF PPU:207,120 CYC:13716
C653  AD 02 20  LDA $2002 = FF                  A:00 X:FF Y:00 P:26 SP:FF PPU:216,120 CYC:13719
C656  29 80     AND #$80                        A:10 X:FF Y:00 P:24 SP:FF PPU:228,120 CYC:13723
C658  F0 F9     BEQ $C653                       A:00 X:FF Y:00 P:26 SP:FF PPU:234,120 CYC:13725
C653  AD 02 20  LDA $2002 = FF                  A:00 X:FF Y:00 P:26 SP:FF PPU:243,120 CYC:13728
C656  29 80     AND #$80                        A:10 X:FF Y:00 P:24 SP:FF PPU:255,120 CYC:13732
C658  F0 F9     BEQ $C653                       A:00 X:FF Y:00 P:26 SP:FF PPU:261,120 CYC:13734
C653  AD 02 20  LDA $2002 = FF                  A:00 X:FF Y:00 P:26 SP:FF PPU:270,120 CYC:13737
C656  29 80     AND #$80                        A:10 X:FF Y:00 P:24 SP:FF PPU:282,120 CYC:13741
C658  F0 F9     BEQ $C653                       A:00 X:FF Y:00 P:26 SP:FF PPU:288,120 CYC:13743
C653  AD 02 20  LDA $2002 = FF                  A:00 X:FF Y:00 P:26 SP:FF PPU:297,120 CYC:13746
C656  29 80     AND #$80                        A:10 X:FF Y:00 P:24 SP:FF PPU:309,120 CYC:13750
C658  F0 F9     BEQ $C653                       A:00 X:FF Y:00 P:26 SP:FF PPU:315,120 CYC:13752
C653  AD 02 20  LDA $2002 = FF                  A:00 X:FF Y:00 P:26 SP:FF PPU:324,120 CYC:13755
C656  29 80     AND #$80                        A:10 X:FF Y:00 P:24 SP:FF PPU:336,120 CYC:13759
C658  F0 F9     BEQ $C653                       A:00 X:FF Y:00 P:26 SP:FF PPU:  1,121 CYC:13761
C653  AD 02 20  LDA $2002 = FF                  A:00 X:FF Y:00 P:26 SP:FF PPU: 10,121 CYC:13764
C656  29 80     AND #$80                        A:10 X:FF Y:00 P:24 SP:FF PPU: 22,121 CYC:13768
C658  F0 F9     BEQ $C653                       A:00 X:FF Y:00 P:26 SP:FF PPU: 28,121 CYC:13770
C653  AD 02 20  LDA $2002 = FF                  A:00 X:FF Y:00 P:26 SP:FF PPU: 37,121 CYC:13773
C656  29 80     AND #$80                        A:10 X:FF Y:00 P:24 SP:FF PPU: 49,121 CYC:13777
C658  F0 F9     BEQ $C653                       A:00 X:FF Y:00 P:26 SP:FF PPU: 55,121 CYC:13779
C653  AD 02 20  LDA $2002 = FF                  A:00 X:FF Y:00 P:26 SP:FF PPU: 64,121 CYC:13782
C656  29 80     AND #$80                        A:10 X:FF Y:00 P:24 SP:FF PPU: 76,121 CYC:13786
C658  F0 F9     BEQ $C653                       A:00 X:FF Y:00 P:26 SP:FF PPU: 82,121 CYC:13788
C653  AD 02 20  LDA $2002 = FF                  A:00 X:FF Y:00 P:26 SP:FF PPU: 91,121 CYC:13791
C656  29 80     AND #$80                        A:10 X:FF Y:00 P:24 SP:FF PPU:103,121 CYC:13795
C658  F0 F9     BEQ $C653                       A:00 X:FF Y:00 P:26 SP:FF PPU:109,121 CYC:13797
C653  AD 02 20  LDA $2002 = FF                  A:00 X:FF Y:00 P:26 SP:FF PPU:118,121 CYC:13800
C656  29 80     AND #$80                        A:10 X:FF Y:00 P:24 SP:FF PPU:130,121 CYC:13804
C658  F0 F9     BEQ $C653                       A:00 X:FF Y:00 P:26 SP:FF PPU:136,121 CYC:13806
C653  AD 02 20  LDA $2002 = FF                  A:00 X:FF Y:00 P:26 SP:FF PPU:145,121 CYC:13809
C656  29 80     AND #$80                        A:10 X:FF Y:00 P:24 SP:FF PPU:157,121 CYC:13813
C658  F0 F9     BEQ $C653                       A:00 X:FF Y:00 P:26 SP:FF PPU:163,121 CYC:13815
C653  AD 02 20  LDA $2002 = FF                  A:00 X:FF Y:00 P:26 SP:FF PPU:172,121 CYC:13818
C656  29 80     AND #$80                        A:10 X:FF Y:00 P:24 SP:FF PPU:184,121 CYC:13822
C658  F0 F9     BEQ $C653                       A:00 X:FF Y:00 P:26 SP:FF PPU:190,121 CYC:13824
C653  AD 02 20  LDA $2002 = FF                  A:00 X:FF Y:00 P:26 SP:FF PPU:199,121 CYC:13827
C656  29 80     AND #$80                        A:10 X:FF Y:00 P:24 SP:FF PPU:211,121 CYC:13831
C658  F0 F9     BEQ $C653                       A:00 X:FF Y:00 P:26 SP:FF PPU:217,121 CYC:13833
C653  AD 02 20  LDA $2002 = FF                  A:00 X:FF Y:00 P:26 SP:FF PPU:226,121 CYC:13836
C656  29 80     AND #$80                        A:10 X:FF Y:00 P:24 SP:FF PPU:238,121 CYC:13840
C658  F0 F9     BEQ $C653                       A:00 X:FF Y:00 P:26 SP:FF PPU:244,121 CYC:13842
C653  AD 02 20  LDA $2002 = FF                  A:00 X:FF Y:00 P:26 SP:FF PPU:253,121 CYC:13845
C656  29 80     AND #$80                        A:10 X:FF Y:00 P:24 SP:FF PPU:265,121 CYC:13849
C658  F0 F9     BEQ $C653                       A:00 X:FF Y:00 P:26 SP:FF PPU:271,121 CYC:13851
C653  AD 02 20  LDA $2002 = FF                  A:00 X:FF Y:00 P:26 SP:FF PPU:280,121 CYC:13854
C656  29 80     AND #$80                        A:10 X:FF Y:00 P:24 SP:FF PPU:292,121 CYC:13858
C658  F0 F9     BEQ $C653                       A:00 X:FF Y:00 P:26 SP:FF PPU:298,121 CYC:13860
C653  AD 02 20  LDA $2002 = FF                  A:00 X:FF Y:00 P:26 SP:FF PPU:307,121 CYC:13863
C656  29 80     AND #$80                        A:10 X:FF Y:00 P:24 SP:FF PPU:319,121 CYC:13867
C658  F0 F9     BEQ $C653                       A:00 X:FF Y:00 P:26 SP:FF PPU:325,121 CYC:13869
C653  AD 02 20  LDA $2002 = FF                  A:00 X:FF Y:00 P:26 SP:FF PPU:334,121 CYC:13872
C656  29 80     AND #$80                        A:10 X:FF Y:00 P:24 SP:FF PPU:  5,122 CYC:13876
C658  F0 F9     BEQ $C653                       A:00 X:FF Y:00 P:26 SP:FF PPU: 11,122 CYC:13878
C653  AD 02 20  LDA $2002 = FF                  A:00 X:FF Y:00 P:26 SP:FF PPU: 20,122 CYC:13881
C656  29 80     AND #$80                        A:10 X:FF Y:00 P:24 SP:FF PPU: 32,122 CYC:13885
C658  F0 F9     BEQ $C653                       A:00 X:FF Y:00 P:26 SP:FF PPU: 38,122 CYC:13887
C653  AD 02 20  LDA $2002 = FF                  A:00 X:FF Y:00 P:26 SP:FF PPU: 47,122 CYC:13890
C656  29 80     AND #$80                        A:10 X:FF Y:00 P:24 SP:FF PPU: 59,122 CYC:13894
C658  F0 F9     BEQ $C653                       A:00 X:FF Y:00 P:26 SP:FF PPU: 65,122 CYC:13896
C653  AD 02 20  LDA $2002 = FF                  A:00 X:FF Y:00 P:26 SP:FF PPU: 74,122 CYC:13899
C656  29 80     AND #$80                        A:10 X:FF Y:00 P:24 SP:FF PPU: 86,122 CYC:13903
C658  F0 F9     BEQ $C653                       A:00 X:FF Y:00 P:26 SP:FF PPU: 92,122 CYC:13905
C653  AD 02 20  LDA $2002 = FF                  A:00 X:FF Y:00 P:26 SP:FF PPU:101,122 CYC:13908
C656  29 80     AND #$80                        A:10 X:FF Y:00 P:24 SP:FF PPU:113,122 CYC:13912
C658  F0 F9     BEQ $C653                       A:00 X:FF Y:00 P:26 SP:FF PPU:119,122 CYC:13914
C653  AD 02 20  LDA $2002 = FF                  A:00 X:FF Y:00 P:26 SP:FF PPU:128,122 CYC:13917
C656  29 80     AND #$80                        A:10 X:FF Y:00 P:24 SP:FF PPU:140,122 CYC:13921
C658  F0 F9     BEQ $C653                       A:00 X:FF Y:00 P:26 SP:FF PPU:146,122 CYC:13923
C653  AD 02 20  LDA $2002 = FF                  A:00 X:FF Y:00 P:26 SP:FF PPU:155,122 CYC:13926
C656  29 80     AND #$80                        A:10 X:FF Y:00 P:24 SP:FF PPU:167,122 CYC:13930
C658  F0 F9     BEQ $C653                       A:00 X:FF Y:00 P:26 SP:FF PPU:173,122 CYC:13932
C653  AD 02 20  LDA $2002 = FF                  A:00 X:FF Y:00 P:26 SP:FF PPU:182,122 CYC:13935
C656  29 80     AND #$80                        A:10 X:FF Y:00 P:24 SP:FF PPU:194,122 CYC:13939
C658  F0 F9     BEQ $C653                       A:00 X:FF Y:00 P:26 SP:FF PPU:200,122 CYC:13941
C653  AD 02 20  LDA $2002 = FF                  A:00 X:FF Y:00 P:26 SP:FF PPU:209,122 CYC:13944
C656  29 80     AND #$80                        A:10 X:FF Y:00 P:24 SP:FF PPU:221,122 CYC:13948
C658  F0 F9     BEQ $C653                       A:00 X:FF Y:00 P:26 SP:FF PPU:227,122 CYC:13950
C653  AD 02 20  LDA $2002 = FF                  A:00 X:FF Y:00 P:26 SP:FF PPU:236,122 CYC:13953
C656  29 80     AND #$80                        A:10 X:FF Y:00 P:24 SP:FF PPU:248,122 CYC:13957
C658  F0 F9     BEQ $C653                       A:00 X:FF Y:00 P:26 SP:FF PPU:254,122 CYC:13959
C653  AD 02 20  LDA $2002 = FF                  A:00 X:FF Y:00 P:26 SP:FF PPU:263,122 CYC:13962
C656  29 80     AND #$80                        A:10 X:FF Y:00 P:24 SP:FF PPU:275,122 CYC:13966
C658  F0 F9     BEQ $C653                       A:00 X:FF Y:00 P:26 SP:FF PPU:281,122 CYC:13968
C653  AD 02 20  LDA $2002 = FF                  A:00 X:FF Y:00 P:26 SP:FF PPU:290,122 CYC:13971
C656  29 80     AND #$80                        A:10 X:FF Y:00 P:24 SP:FF PPU:302,122 CYC:13975
C658  F0 F9     BEQ $C653                       A:00 X:FF Y:00 P:26 SP:FF PPU:308,122 CYC:13977
C653  AD 02 20  LDA $2002 = FF                  A:00 X:FF Y:00 P:26 SP:FF PPU:317,122 CYC:13980
C656  29 80     AND #$80                        A:10 X:FF Y:00 P:24 SP:FF PPU:329,122 CYC:13984
C658  F0 F9     BEQ $C653                       A:00 X:FF Y:00 P:26 SP:FF PPU:335,122 CYC:13986
C653  AD 02 20  LDA $2002 = FF                  A:00 X:FF Y:00 P:26 SP:FF PPU:  3,123 CYC:13989
C656  29 80     AND #$80                        A:10 X:FF Y:00 P:24 SP:FF PPU: 15,123 CYC:13993
C658  F0 F9     BEQ $C653                       A:00 X:FF Y:00 P:26 SP:FF PPU: 21,123 CYC:13995
C653  AD 02 20  LDA $2002 = FF                  A:00 X:FF Y:00 P:26 SP:FF PPU: 30,123 CYC:13998
C656  29 80     AND #$80                        A:10 X:FF Y:00 P:24 SP:FF PPU: 42,123 CYC:14002
C658  F0 F9     BEQ $C653                       A:00 X:FF Y:00 P:26 SP:FF PPU: 48,123 CYC:14004
C653  AD 02 20  LDA $2002 = FF                  A:00 X:FF Y:00 P:26 SP:FF PPU: 57,123 CYC:14007
C656  29 80     AND #$80                        A:10 X:FF Y:00 P:24 SP:FF PPU: 69,123 CYC:14011
C658  F0 F9     BEQ $C653                       A:00 X:FF Y:00 P:26 SP:FF PPU: 75,123 CYC:14013
C653  AD 02 20  LDA $2002 = FF                  A:00 X:FF Y:00 P:26 SP:FF PPU: 84,123 CYC:14016
C656  29 80     AND #$80                        A:10 X:FF Y:00 P:24 SP:FF PPU: 96,123 CYC:14020
C658  F0 F9     BEQ $C653                       A:00 X:FF Y:00 P:26 SP:FF PPU:102,123 CYC:14022
C653  AD 02 20  LDA $2002 = FF                  A:00 X:FF Y:00 P:26 SP:FF PPU:111,123 CYC:14025
C656  29 80     AND #$80                        A:10 X:FF Y:00 P:24 SP:FF PPU:123,123 CYC:14029
C658  F0 F9     BEQ $C653                       A:00 X:FF Y:00 P:26 SP:FF PPU:129,123 CYC:14031
C653  AD 02 20  LDA $2002 = FF                  A:00 X:FF Y:00 P:26 SP:FF PPU:138,123 CYC:14034
C656  29 80     AND #$80                        A:10 X:FF Y:00 P:24 SP:FF PPU:150,123 CYC:14038
C658  F0 F9     BEQ $C653                       A:00 X:FF Y:00 P:26 SP:FF PPU:156,123 CYC:14040
C653  AD 02 20  LDA $2002 = FF                  A:00 X:FF Y:00 P:26 SP:FF PPU:165,123 CYC:14043
C656  29 80     AND #$80                        A:10 X:FF Y:00 P:24 SP:FF PPU:177,123 CYC:14047
C658  F0 F9     BEQ $C653                       A:00 X:FF Y:00 P:26 SP:FF PPU:183,123 CYC:14049
C653  AD 02 20  LDA $2002 = FF                  A:00 X:FF Y:00 P:26 SP:FF PPU:192,123 CYC:14052
C656  29 80     AND #$80                        A:10 X:FF Y:00 P:24 SP:FF PPU:204,123 CYC:14056
C658  F0 F9     BEQ $C653                       A:00 X:FF Y:00 P:26 SP:FF PPU:210,123 CYC:14058
C653  AD 02 20  LDA $2002 = FF                  A:00 X:FF Y:00 P:26 SP:FF PPU:219,123 CYC:14061
C656  29 80     AND #$80                        A:10 X:FF Y:00 P:24 SP:FF PPU:231,123 CYC:14065
C658  F0 F9     BEQ $C653                       A:00 X:FF Y:00 P:26 SP:FF PPU:237,123 CYC:14067
C653  AD 02 20  LDA $2002 = FF                  A:00 X:FF Y:00 P:26 SP:FF PPU:246,123 CYC:14070
C656  29 80     AND #$80                        A:10 X:FF Y:00 P:24 SP:FF PPU:258,123 CYC:14074
C658  F0 F9     BEQ $C653                       A:00 X:FF Y:00 P:26 SP:FF PPU:264,123 CYC:14076
C653  AD 02 20  LDA $2002 = FF                  A:00 X:FF Y:00 P:26 SP:FF PPU:273,123 CYC:14079
C656  29 80     AND #$80                        A:10 X:FF Y:00 P:24 SP:FF PPU:285,123 CYC:14083
C658  F0 F9     BEQ $C653                       A:00 X:FF Y:00 P:26 SP:FF PPU:291,123 CYC:14085
C653  AD 02 20  LDA $2002 = FF                  A:00 X:FF Y:00 P:26 SP:FF PPU:300,123 CYC:14088
C656  29 80     AND #$80                        A:10 X:FF Y:00 P:24 SP:FF PPU:312,123 CYC:14092
C658  F0 F9     BEQ $C653                       A:00 X:FF Y:00 P:26 SP:FF PPU:318,123 CYC:14094
C653  AD 02 20  LDA $2002 = FF                  A:00 X:FF Y:00 P:26 SP:FF PPU:327,123 CYC:14097
C656  29 80     AND #$80                        A:10 X:FF Y:00 P:24 SP:FF PPU:339,123 CYC:14101
C658  F0 F9     BEQ $C653                       A:00 X:FF Y:00 P:26 SP:FF PPU:  4,124 CYC:14103
C653  AD 02 20  LDA $2002 = FF                  A:00 X:FF Y:00 P:26 SP:FF PPU: 13,124 CYC:14106
C656  29 80     AND #$80                        A:10 X:FF Y:00 P:24 SP:FF PPU: 25,124 CYC:14110
C658  F0 F9     BEQ $C653                       A:00 X:FF Y:00 P:26 SP:FF PPU: 31,124 CYC:14112
C653  AD 02 20  LDA $2002 = FF                  A:00 X:FF Y:00 P:26 SP:FF PPU: 40,124 CYC:14115
C656  29 80     AND #$80                        A:10 X:FF Y:00 P:24 SP:FF PPU: 52,124 CYC:14119
C658  F0 F9     BEQ $C653                       A:00 X:FF Y:00 P:26 SP:FF PPU: 58,124 CYC:14121
C653  AD 02 20  LDA $2002 = FF                  A:00 X:FF Y:00 P:26 SP:FF PPU: 67,124 CYC:14124
C656  29 80     AND #$80                        A:10 X:FF Y:00 P:24 SP:FF PPU: 79,124 CYC:14128
C658  F0 F9     BEQ $C653                       A:00 X:FF Y:00 P:26 SP:FF PPU: 85,124 CYC:14130
C653  AD 02 20  LDA $2002 = FF                  A:00 X:FF Y:00 P:26 SP:FF PPU: 94,124 CYC:14133
C656  29 80     AND #$80                        A:10 X:FF Y:00 P:24 SP:FF PPU:106,124 CYC:14137
C658  F0 F9     BEQ $C653                       A:00 X:FF Y:00 P:26 SP:FF PPU:112,124 CYC:14139
C653  AD 02 20  LDA $2002 = FF                  A:00 X:FF Y:00 P:26 SP:FF PPU:121,124 CYC:14142
C656  29 80     AND #$80                        A:10 X:FF Y:00 P:24 SP:FF PPU:133,124 CYC:14146
C658  F0 F9     BEQ $C653                       A:00 X:FF Y:00 P:26 SP:FF PPU:139,124 CYC:14148
C653  AD 02 20  LDA $2002 = FF                  A:00 X:FF Y:00 P:26 SP:FF PPU:148,124 CYC:14151
C656  29 80     AND #$80                        A:10 X:FF Y:00 P:24 SP:FF PPU:160,124 CYC:14155
C658  F0 F9     BEQ $C653                       A:00 X:FF Y:00 P:26 SP:FF PPU:166,124 CYC:14157
C653  AD 02 20  LDA $2002 = FF                  A:00 X:FF Y:00 P:26 SP:FF PPU:175,124 CYC:14160
C656  29 80     AND #$80                        A:10 X:FF Y:00 P:24 SP:FF PPU:187,124 CYC:14164
C658  F0 F9     BEQ $C653                       A:00 X:FF Y:00 P:26 SP:FF PPU:193,124 CYC:14166
C653  AD 02 20  LDA $2002 = FF                  A:00 X:FF Y:00 P:26 SP:FF PPU:202,124 CYC:14169
C656  29 80     AND #$80                        A:10 X:FF Y:00 P:24 SP:FF PPU:214,124 CYC:14173
C658  F0 F9     BEQ $C653                       A:00 X:FF Y:00 P:26 SP:FF PPU:220,124 CYC:14175
C653  AD 02 20  LDA $2002 = FF                  A:00 X:FF Y:00 P:26 SP:FF PPU:229,124 CYC:14178
C656  29 80     AND #$80                        A:10 X:FF Y:00 P:24 SP:FF PPU:241,124 CYC:14182
C658  F0 F9     BEQ $C653                       A:00 X:FF Y:00 P:26 SP:FF PPU:247,124 CYC:14184
C653  AD 02 20  LDA $2002 = FF                  A:00 X:FF Y:00 P:26 SP:FF PPU:256,124 CYC:14187
C656  29 80     AND #$80                        A:10 X:FF Y:00 P:24 SP:FF PPU:268,124 CYC:14191
C658  F0 F9     BEQ $C653                       A:00 X:FF Y:00 P:26 SP:FF PPU:274,124 CYC:14193
C653  AD 02 20  LDA $2002 = FF                  A:00 X:FF Y:00 P:26 SP:FF PPU:283,124 CYC:14196
C656  29 80     AND #$80                        A:10 X:FF Y:00 P:24 SP:FF PPU:295,124 CYC:14200
C658  F0 F9     BEQ $C653                       A:00 X:FF Y:00 P:26 SP:FF PPU:301,124 CYC:14202
C653  AD 02 20  LDA $2002 = FF                  A:00 X:FF Y:00 P:26 SP:FF PPU:310,124 CYC:14205
C656  29 80     AND #$80                        A:10 X:FF Y:00 P:24 SP:FF PPU:322,124 CYC:14209
C658  F0 F9     BEQ $C653                       A:00 X:FF Y:00 P:26 SP:FF PPU:328,124 CYC:14211
C653  AD 02 20  LDA $2002 = FF                  A:00 X:FF Y:00 P:26 SP:FF PPU:337,124 CYC:14214
C656  29 80     AND #$80                        A:10 X:FF Y:00 P:24 SP:FF PPU:  8,125 CYC:14218
C658  F0 F9     BEQ $C653                       A:00 X:FF Y:00 P:26 SP:FF PPU: 14,125 CYC:14220
C653  AD 02 20  LDA $2002 = FF                  A:00 X:FF Y:00 P:26 SP:FF PPU: 23,125 CYC:14223
C656  29 80     AND #$80                        A:10 X:FF Y:00 P:24 SP:FF PPU: 35,125 CYC:14227
C658  F0 F9     BEQ $C653                       A:00 X:FF Y:00 P:26 SP:FF PPU: 41,125 CYC:14229
C653  AD 02 20  LDA $2002 = FF                  A:00 X:FF Y:00 P:26 SP:FF PPU: 50,125 CYC:14232
C656  29 80     AND #$80                        A:10 X:FF Y:00 P:24 SP:FF PPU: 62,125 CYC:14236
C658  F0 F9     BEQ $C653                       A:00 X:FF Y:00 P:26 SP:FF PPU: 68,125 CYC:14238
C653  AD 02 20  LDA $2002 = FF                  A:00 X:FF Y:00 P:26 SP:FF PPU: 77,125 CYC:14241
C656  29 80     AND #$80                        A:10 X:FF Y:00 P:24 SP:FF PPU: 89,125 CYC:14245
C658  F0 F9     BEQ $C653                       A:00 X:FF Y:00 P:26 SP:FF PPU: 95,125 CYC:14247
C653  AD 02 20  LDA $2002 = FF                  A:00 X:FF Y:00 P:26 SP:FF PPU:104,125 CYC:14250
C656  29 80     AND #$80                        A:10 X:FF Y:00 P:24 SP:FF PPU:116,125 CYC:14254
C658  F0 F9     BEQ $C653                       A:00 X:FF Y:00 P:26 SP:FF PPU:122,125 CYC:14256
C653  AD 02 20  LDA $2002 = FF                  A:00 X:FF Y:00 P:26 SP:FF PPU:131,125 CYC:14259
C656  29 80     AND #$80                        A:10 X:FF Y:00 P:24 SP:FF PPU:143,125 CYC:14263
C658  F0 F9     BEQ $C653                       A:00 X:FF Y:00 P:26 SP:FF PPU:149,125 CYC:14265
C653  AD 02 20  LDA $2002 = FF                  A:00 X:FF Y:00 P:26 SP:FF PPU:158,125 CYC:14268
C656  29 80     AND #$80                        A:10 X:FF Y:00 P:24 SP:FF PPU:170,125 CYC:14272
C658  F0 F9     BEQ $C653                       A:00 X:FF Y:00 P:26 SP:FF PPU:176,125 CYC:14274
C653  AD 02 20  LDA $2002 = FF                  A:00 X:FF Y:00 P:26 SP:FF PPU:185,125 CYC:14277
C656  29 80     AND #$80                        A:10 X:FF Y:00 P:24 SP:FF PPU:197,125 CYC:14281
C658  F0 F9     BEQ $C653                       A:00 X:FF Y:00 P:26 SP:FF PPU:203,125 CYC:14283
C653  AD 02 20  LDA $2002 = FF                  A:00 X:FF Y:00 P:26 SP:FF PPU:212,125 CYC:14286
C656  29 80     AND #$80                        A:10 X:FF Y:00 P:24 SP:FF PPU:224,125 CYC:14290
C658  F0 F9     BEQ $C653                       A:00 X:FF Y:00 P:26 SP:FF PPU:230,125 CYC:14292
C653  AD 02 20  LDA $2002 = FF                  A:00 X:FF Y:00 P:26 SP:FF PPU:239,125 CYC:14295
C656  29 80     AND #$80                        A:10 X:FF Y:00 P:24 SP:FF PPU:251,125 CYC:14299
C658  F0 F9     BEQ $C653                       A:00 X:FF Y:00 P:26 SP:FF PPU:257,125 CYC:14301
C653  AD 02 20  LDA $2002 = FF                  A:00 X:FF Y:00 P:26 SP:FF PPU:266,125 CYC:14304
C656  29 80     AND #$80                        A:10 X:FF Y:00 P:24 SP:FF PPU:278,125 CYC:14308
C658  F0 F9     BEQ $C653                       A:00 X:FF Y:00 P:26 SP:FF PPU:284,125 CYC:14310
C653  AD 02 20  LDA $2002 = FF                  A:00 X:FF Y:00 P:26 SP:FF PPU:293,125 CYC:14313
C656  29 80     AND #$80                        A:10 X:FF Y:00 P:24 SP:FF PPU:305,125 CYC:14317
C658  F0 F9     BEQ $C653                       A:00 X:FF Y:00 P:26 SP:FF PPU:311,125 CYC:14319
C653  AD 02 20  LDA $2002 = FF                  A:00 X:FF Y:00 P:26 SP:FF PPU:320,125 CYC:14322
C656  29 80     AND #$80                        A:10 X:FF Y:00 P:24 SP:FF PPU:332,125 CYC:14326
C658  F0 F9     BEQ $C653                       A:00 X:FF Y:00 P:26 SP:FF PPU:338,125 CYC:14328
C653  AD 02 20  LDA $2002 = FF                  A:00 X:FF Y:00 P:26 SP:FF PPU:  6,126 CYC:14331
C656  29 80     AND #$80                        A:10 X:FF Y:00 P:24 SP:FF PPU: 18,126 CYC:14335
C658  F0 F9     BEQ $C653                       A:00 X:FF Y:00 P:26 SP:FF PPU: 24,126 CYC:14337
C653  AD 02 20  LDA $2002 = FF                  A:00 X:FF Y:00 P:26 SP:FF PPU: 33,126 CYC:14340
C656  29 80     AND #$80                        A:10 X:FF Y:00 P:24 SP:FF PPU: 45,126 CYC:14344
C658  F0 F9     BEQ $C653                       A:00 X:FF Y:00 P:26 SP:FF PPU: 51,126 CYC:14346
C653  AD 02 20  LDA $2002 = FF                  A:00 X:FF Y:00 P:26 SP:FF PPU: 60,126 CYC:14349
C656  29 80     AND #$80                        A:10 X:FF Y:00 P:24 SP:FF PPU: 72,126 CYC:14353
C658  F0 F9     BEQ $C653                       A:00 X:FF Y:00 P:26 SP:FF PPU: 78,126 CYC:14355
C653  AD 02 20  LDA $2002 = FF                  A:00 X:FF Y:00 P:26 SP:FF PPU: 87,126 CYC:14358
C656  29 80     AND #$80                        A:10 X:FF Y:00 P:24 SP:FF PPU: 99,126 CYC:14362
C658  F0 F9     BEQ $C653                       A:00 X:FF Y:00 P:26 SP:FF PPU:105,126 CYC:14364
C653  AD 02 20  LDA $2002 = FF                  A:00 X:FF Y:00 P:26 SP:FF PPU:114,126 CYC:14367
C656  29 80     AND #$80                        A:10 X:FF Y:00 P:24 SP:FF PPU:126,126 CYC:14371
C658  F0 F9     BEQ $C653                       A:00 X:FF Y:00 P:26 SP:FF PPU:132,126 CYC:14373
C653  AD 02 20  LDA $2002 = FF                  A:00 X:FF Y:00 P:26 SP:FF PPU:141,126 CYC:14376
C656  29 80     AND #$80                        A:10 X:FF Y:00 P:24 SP:FF PPU:153,126 CYC:14380
C658  F0 F9     BEQ $C653                       A:00 X:FF Y:00 P:26 SP:FF PPU:159,126 CYC:14382
C653  AD 02 20  LDA $2002 = FF                  A:00 X:FF Y:00 P:26 SP:FF PPU:168,126 CYC:14385
C656  29 80     AND #$80                        A:10 X:FF Y:00 P:24 SP:FF PPU:180,126 CYC:14389
C658  F0 F9     BEQ $C653                       A:00 X:FF Y:00 P:26 SP:FF PPU:186,126 CYC:14391
C653  AD 02 20  LDA $2002 = FF                  A:00 X:FF Y:00 P:26 SP:FF PPU:195,126 CYC:14394
C656  29 80     AND #$80                        A:10 X:FF Y:00 P:24 SP:FF PPU:207,126 CYC:14398
C658  F0 F9     BEQ $C653                       A:00 X:FF Y:00 P:26 SP:FF PPU:213,126 CYC:14400
C653  AD 02 20  LDA $2002 = FF                  A:00 X:FF Y:00 P:26 SP:FF PPU:222,126 CYC:14403
C656  29 80     AND #$80                        A:10 X:FF Y:00 P:24 SP:FF PPU:234,126 CYC:14407
C658  F0 F9     BEQ $C653                       A:00 X:FF Y:00 P:26 SP:FF PPU:240,126 CYC:14409
C653  AD 02 20  LDA $2002 = FF                  A:00 X:FF Y:00 P:26 SP:FF PPU:249,126 CYC:14412
C656  29 80     AND #$80                        A:10 X:FF Y:00 P:24 SP:FF PPU:261,126 CYC:14416
C658  F0 F9     BEQ $C653                       A:00 X:FF Y:00 P:26 SP:FF PPU:267,126 CYC:14418
C653  AD 02 20  LDA $2002 = FF                  A:00 X:FF Y:00 P:26 SP:FF PPU:276,126 CYC:14421
C656  29 80     AND #$80                        A:10 X:FF Y:00 P:24 SP:FF PPU:288,126 CYC:14425
C658  F0 F9     BEQ $C653                       A:00 X:FF Y:00 P:26 SP:FF PPU:294,126 CYC:14427
C653  AD 02 20  LDA $2002 = FF                  A:00 X:FF Y:00 P:26 SP:FF PPU:303,126 CYC:14430
C656  29 80     AND #$80                        A:10 X:FF Y:00 P:24 SP:FF PPU:315,126 CYC:14434
C658  F0 F9     BEQ $C653                       A:00 X:FF Y:00 P:26 SP:FF PPU:321,126 CYC:14436
C653  AD 02 20  LDA $2002 = FF                  A:00 X:FF Y:00 P:26 SP:FF PPU:330,126 CYC:14439
C656  29 80     AND #$80                        A:10 X:FF Y:00 P:24 SP:FF PPU:  1,127 CYC:14443
C658  F0 F9     BEQ $C653                       A:00 X:FF Y:00 P:26 SP:FF PPU:  7,127 CYC:14445
C653  AD 02 20  LDA $2002 = FF                  A:00 X:FF Y:00 P:26 SP:FF PPU: 16,127 CYC:14448
C656  29 80     AND #$80                        A:10 X:FF Y:00 P:24 SP:FF PPU: 28,127 CYC:14452
C658  F0 F9     BEQ $C653                       A:00 X:FF Y:00 P:26 SP:FF PPU: 34,127 CYC:14454
C653  AD 02 20  LDA $2002 = FF                  A:00 X:FF Y:00 P:26 SP:FF PPU: 43,127 CYC:14457
C656  29 80     AND #$80                        A:10 X:FF Y:00 P:24 SP:FF PPU: 55,127 CYC:14461
C658  F0 F9     BEQ $C653                       A:00 X:FF Y:00 P:26 SP:FF PPU: 61,127 CYC:14463
C653  AD 02 20  LDA $2002 = FF                  A:00 X:FF Y:00 P:26 SP:FF PPU: 70,127 CYC:14466
C656  29 80     AND #$80                        A:10 X:FF Y:00 P:24 SP:FF PPU: 82,127 CYC:14470
C658  F0 F9     BEQ $C653                       A:00 X:FF Y:00 P:26 SP:FF PPU: 88,127 CYC:14472
C653  AD 02 20  LDA $2002 = FF                  A:00 X:FF Y:00 P:26 SP:FF PPU: 97,127 CYC:14475
C656  29 80     AND #$80                        A:10 X:FF Y:00 P:24 SP:FF PPU:109,127 CYC:14479
C658  F0 F9     BEQ $C653                       A:00 X:FF Y:00 P:26 SP:FF PPU:115,127 CYC:14481
C653  AD 02 20  LDA $2002 = FF                  A:00 X:FF Y:00 P:26 SP:FF PPU:124,127 CYC:14484
C656  29 80     AND #$80                        A:10 X:FF Y:00 P:24 SP:FF PPU:136,127 CYC:14488
C658  F0 F9     BEQ $C653                       A:00 X:FF Y:00 P:26 SP:FF PPU:142,127 CYC:14490
C653  AD 02 20  LDA $2002 = FF                  A:00 X:FF Y:00 P:26 SP:FF PPU:151,127 CYC:14493
C656  29 80     AND #$80                        A:10 X:FF Y:00 P:24 SP:FF PPU:163,127 CYC:14497
C658  F0 F9     BEQ $C653                       A:00 X:FF Y:00 P:26 SP:FF PPU:169,127 CYC:14499
C653  AD 02 20  LDA $2002 = FF                  A:00 X:FF Y:00 P:26 SP:FF PPU:178,127 CYC:14502
C656  29 80     AND #$80                        A:10 X:FF Y:00 P:24 SP:FF PPU:190,127 CYC:14506
C658  F0 F9     BEQ $C653                       A:00 X:FF Y:00 P:26 SP:FF PPU:196,127 CYC:14508
C653  AD 02 20  LDA $2002 = FF                  A:00 X:FF Y:00 P:26 SP:FF PPU:205,127 CYC:14511
C656  29 80     AND #$80                        A:10 X:FF Y:00 P:24 SP:FF PPU:217,127 CYC:14515
C658  F0 F9     BEQ $C653                       A:00 X:FF Y:00 P:26 SP:FF PPU:223,127 CYC:14517
C653  AD 02 20  LDA $2002 = FF                  A:00 X:FF Y:00 P:26 SP:FF PPU:232,127 CYC:14520
C656  29 80     AND #$80                        A:10 X:FF Y:00 P:24 SP:FF PPU:244,127 CYC:14524
C658  F0 F9     BEQ $C653                       A:00 X:FF Y:00 P:26 SP:FF PPU:250,127 CYC:14526
C653  AD 02 20  LDA $2002 = FF                  A:00 X:FF Y:00 P:26 SP:FF PPU:259,127 CYC:14529
C656  29 80     AND #$80                        A:10 X:FF Y:00 P:24 SP:FF PPU:271,127 CYC:14533
C658  F0 F9     BEQ $C653                       A:00 X:FF Y:00 P:26 SP:FF PPU:277,127 CYC:14535
C653  AD 02 20  LDA $2002 = FF                  A:00 X:FF Y:00 P:26 SP:FF PPU:286,127 CYC:14538
C656  29 80     AND #$80                        A:10 X:FF Y:00 P:24 SP:FF PPU:298,127 CYC:14542
C658  F0 F9     BEQ $C653                       A:00 X:FF Y:00 P:26 SP:FF PPU:304,127 CYC:14544
C653  AD 02 20  LDA $2002 = FF                  A:00 X:FF Y:00 P:26 SP:FF PPU:313,127 CYC:14547
C656  29 80     AND #$80                        A:10 X:FF Y:00 P:24 SP:FF PPU:325,127 CYC:14551
C658  F0 F9     BEQ $C653                       A:00 X:FF Y:00 P:26 SP:FF PPU:331,127 CYC:14553
C653  AD 02 20  LDA $2002 = FF                  A:00 X:FF Y:00 P:26 SP:FF PPU:340,127 CYC:14556
C656  29 80     AND #$80                        A:10 X:FF Y:00 P:24 SP:FF PPU: 11,128 CYC:14560
C658  F0 F9     BEQ $C653                       A:00 X:FF Y:00 P:26 SP:FF PPU: 17,128 CYC:14562
C653  AD 02 20  LDA $2002 = FF                  A:00 X:FF Y:00 P:26 SP:FF PPU: 26,128 CYC:14565
C656  29 80     AND #$80                        A:10 X:FF Y:00 P:24 SP:FF PPU: 38,128 CYC:14569
C658  F0 F9     BEQ $C653                       A:00 X:FF Y:00 P:26 SP:FF PPU: 44,128 CYC:14571
C653  AD 02 20  LDA $2002 = FF                  A:00 X:FF Y:00 P:26 SP:FF PPU: 53,128 CYC:14574
C656  29 80     AND #$80                        A:10 X:FF Y:00 P:24 SP:FF PPU: 65,128 CYC:14578
C658  F0 F9     BEQ $C653                       A:00 X:FF Y:00 P:26 SP:FF PPU: 71,128 CYC:14580
C653  AD 02 20  LDA $2002 = FF                  A:00 X:FF Y:00 P:26 SP:FF PPU: 80,128 CYC:14583
C656  29 80     AND #$80                        A:10 X:FF Y:00 P:24 SP:FF PPU: 92,128 CYC:14587
C658  F0 F9     BEQ $C653                       A:00 X:FF Y:00 P:26 SP:FF PPU: 98,128 CYC:14589
C653  AD 02 20  LDA $2002 = FF                  A:00 X:FF Y:00 P:26 SP:FF PPU:107,128 CYC:14592
C656  29 80     AND #$80                        A:10 X:FF Y:00 P:24 SP:FF PPU:119,128 CYC:14596
C658  F0 F9     BEQ $C653                       A:00 X:FF Y:00 P:26 SP:FF PPU:125,128 CYC:14598
C653  AD 02 20  LDA $2002 = FF                  A:00 X:FF Y:00 P:26 SP:FF PPU:134,128 CYC:14601
C656  29 80     AND #$80                        A:10 X:FF Y:00 P:24 SP:FF PPU:146,128 CYC:14605
C658  F0 F9     BEQ $C653                       A:00 X:FF Y:00 P:26 SP:FF PPU:152,128 CYC:14607
C653  AD 02 20  LDA $2002 = FF                  A:00 X:FF Y:00 P:26 SP:FF PPU:161,128 CYC:14610
C656  29 80     AND #$80                        A:10 X:FF Y:00 P:24 SP:FF PPU:173,128 CYC:14614
C658  F0 F9     BEQ $C653                       A:00 X:FF Y:00 P:26 SP:FF PPU:179,128 CYC:14616
C653  AD 02 20  LDA $2002 = FF                  A:00 X:FF Y:00 P:26 SP:FF PPU:188,128 CYC:14619
C656  29 80     AND #$80                        A:10 X:FF Y:00 P:24 SP:FF PPU:200,128 CYC:14623
C658  F0 F9     BEQ $C653                       A:00 X:FF Y:00 P:26 SP:FF PPU:206,128 CYC:14625
C653  AD 02 20  LDA $2002 = FF                  A:00 X:FF Y:00 P:26 SP:FF PPU:215,128 CYC:14628
C656  29 80     AND #$80                        A:10 X:FF Y:00 P:24 SP:FF PPU:227,128 CYC:14632
C658  F0 F9     BEQ $C653                       A:00 X:FF Y:00 P:26 SP:FF PPU:233,128 CYC:14634
C653  AD 02 20  LDA $2002 = FF                  A:00 X:FF Y:00 P:26 SP:FF PPU:242,128 CYC:14637
C656  29 80     AND #$80                        A:10 X:FF Y:00 P:24 SP:FF PPU:254,128 CYC:14641
C658  F0 F9     BEQ $C653                       A:00 X:FF Y:00 P:26 SP:FF PPU:260,128 CYC:14643
C653  AD 02 20  LDA $2002 = FF                  A:00 X:FF Y:00 P:26 SP:FF PPU:269,128 CYC:14646
C656  29 80     AND #$80                        A:10 X:FF Y:00 P:24 SP:FF PPU:281,128 CYC:14650
C658  F0 F9     BEQ $C653                       A:00 X:FF Y:00 P:26 SP:FF PPU:287,128 CYC:14652
C653  AD 02 20  LDA $2002 = FF                  A:00 X:FF Y:00 P:26 SP:FF PPU:296,128 CYC:14655
C656  29 80     AND #$80                        A:10 X:FF Y:00 P:24 SP:FF PPU:308,128 CYC:14659
C658  F0 F9     BEQ $C653                       A:00 X:FF Y:00 P:26 SP:FF PPU:314,128 CYC:14661
C653  AD 02 20  LDA $2002 = FF                  A:00 X:FF Y:00 P:26 SP:FF PPU:323,128 CYC:14664
C656  29 80     AND #$80                        A:10 X:FF Y:00 P:24 SP:FF PPU:335,128 CYC:14668
C658  F0 F9     BEQ $C653                       A:00 X:FF Y:00 P:26 SP:FF PPU:  0,129 CYC:14670
C653  AD 02 20  LDA $2002 = FF                  A:00 X:FF Y:00 P:26 SP:FF PPU:  9,129 CYC:14673
C656  29 80     AND #$80                        A:10 X:FF Y:00 P:24 SP:FF PPU: 21,129 CYC:14677
C658  F0 F9     BEQ $C653                       A:00 X:FF Y:00 P:26 SP:FF PPU: 27,129 CYC:14679
C653  AD 02 20  LDA $2002 = FF                  A:00 X:FF Y:00 P:26 SP:FF PPU: 36,129 CYC:14682
C656  29 80     AND #$80                        A:10 X:FF Y:00 P:24 SP:FF PPU: 48,129 CYC:14686
C658  F0 F9     BEQ $C653                       A:00 X:FF Y:00 P:26 SP:FF PPU: 54,129 CYC:14688
C653  AD 02 20  LDA $2002 = FF                  A:00 X:FF Y:00 P:26 SP:FF PPU: 63,129 CYC:14691
C656  29 80     AND #$80                        A:10 X:FF Y:00 P:24 SP:FF PPU: 75,129 CYC:14695
C658  F0 F9     BEQ $C653                       A:00 X:FF Y:00 P:26 SP:FF PPU: 81,129 CYC:14697
C653  AD 02 20  LDA $2002 = FF                  A:00 X:FF Y:00 P:26 SP:FF PPU: 90,129 CYC:14700
C656  29 80     AND #$80                        A:10 X:FF Y:00 P:24 SP:FF PPU:102,129 CYC:14704
C658  F0 F9     BEQ $C653                       A:00 X:FF Y:00 P:26 SP:FF PPU:108,129 CYC:14706
C653  AD 02 20  LDA $2002 = FF                  A:00 X:FF Y:00 P:26 SP:FF PPU:117,129 CYC:14709
C656  29 80     AND #$80                        A:10 X:FF Y:00 P:24 SP:FF PPU:129,129 CYC:14713
C658  F0 F9     BEQ $C653                       A:00 X:FF Y:00 P:26 SP:FF PPU:135,129 CYC:14715
C653  AD 02 20  LDA $2002 = FF                  A:00 X:FF Y:00 P:26 SP:FF PPU:144,129 CYC:14718
C656  29 80     AND #$80                        A:10 X:FF Y:00 P:24 SP:FF PPU:156,129 CYC:14722
C658  F0 F9     BEQ $C653                       A:00 X:FF Y:00 P:26 SP:FF PPU:162,129 CYC:14724
C653  AD 02 20  LDA $2002 = FF                  A:00 X:FF Y:00 P:26 SP:FF PPU:171,129 CYC:14727
C656  29 80     AND #$80                        A:10 X:FF Y:00 P:24 SP:FF PPU:183,129 CYC:14731
C658  F0 F9     BEQ $C653                       A:00 X:FF Y:00 P:26 SP:FF PPU:189,129 CYC:14733
C653  AD 02 20  LDA $2002 = FF                  A:00 X:FF Y:00 P:26 SP:FF PPU:198,129 CYC:14736
C656  29 80     AND #$80                        A:10 X:FF Y:00 P:24 SP:FF PPU:210,129 CYC:14740
C658  F0 F9     BEQ $C653                       A:00 X:FF Y:00 P:26 SP:FF PPU:216,129 CYC:14742
C653  AD 02 20  LDA $2002 = FF                  A:00 X:FF Y:00 P:26 SP:FF PPU:225,129 CYC:14745
C656  29 80     AND #$80                        A:10 X:FF Y:00 P:24 SP:FF PPU:237,129 CYC:14749
C658  F0 F9     BEQ $C653                       A:00 X:FF Y:00 P:26 SP:FF PPU:243,129 CYC:14751
C653  AD 02 20  LDA $2002 = FF                  A:00 X:FF Y:00 P:26 SP:FF PPU:252,129 CYC:14754
C656  29 80     AND #$80                        A:10 X:FF Y:00 P:24 SP:FF PPU:264,129 CYC:14758
C658  F0 F9     BEQ $C653                       A:00 X:FF Y:00 P:26 SP:FF PPU:270,129 CYC:14760
C653  AD 02 20  LDA $2002 = FF                  A:00 X:FF Y:00 P:26 SP:FF PPU:279,129 CYC:14763
C656  29 80     AND #$80                        A:10 X:FF Y:00 P:24 SP:FF PPU:291,129 CYC:14767
C658  F0 F9     BEQ $C653                       A:00 X:FF Y:00 P:26 SP:FF PPU:297,129 CYC:14769
C653  AD 02 20  LDA $2002 = FF                  A:00 X:FF Y:00 P:26 SP:FF PPU:306,129 CYC:14772
C656  29 80     AND #$80                        A:10 X:FF Y:00 P:24 SP:FF PPU:318,129 CYC:14776
C658  F0 F9     BEQ $C653                       A:00 X:FF Y:00 P:26 SP:FF PPU:324,129 CYC:14778
C653  AD 02 20  LDA $2002 = FF                  A:00 X:FF Y:00 P:26 SP:FF PPU:333,129 CYC:14781
C656  29 80     AND #$80                        A:10 X:FF Y:00 P:24 SP:FF PPU:  4,130 CYC:14785
C658  F0 F9     BEQ $C653                       A:00 X:FF Y:00 P:26 SP:FF PPU: 10,130 CYC:14787
C653  AD 02 20  LDA $2002 = FF                  A:00 X:FF Y:00 P:26 SP:FF PPU: 19,130 CYC:14790
C656  29 80     AND #$80                        A:10 X:FF Y:00 P:24 SP:FF PPU: 31,130 CYC:14794
C658  F0 F9     BEQ $C653                       A:00 X:FF Y:00 P:26 SP:FF PPU: 37,130 CYC:14796
C653  AD 02 20  LDA $2002 = FF                  A:00 X:FF Y:00 P:26 SP:FF PPU: 46,130 CYC:14799
C656  29 80     AND #$80                        A:10 X:FF Y:00 P:24 SP:FF PPU: 58,130 CYC:14803
C658  F0 F9     BEQ $C653                       A:00 X:FF Y:00 P:26 SP:FF PPU: 64,130 CYC:14805
C653  AD 02 20  LDA $2002 = FF                  A:00 X:FF Y:00 P:26 SP:FF PPU: 73,130 CYC:14808
C656  29 80     AND #$80                        A:10 X:FF Y:00 P:24 SP:FF PPU: 85,130 CYC:14812
C658  F0 F9     BEQ $C653                       A:00 X:FF Y:00 P:26 SP:FF PPU: 91,130 CYC:14814
C653  AD 02 20  LDA $2002 = FF                  A:00 X:FF Y:00 P:26 SP:FF PPU:100,130 CYC:14817
C656  29 80     AND #$80                        A:10 X:FF Y:00 P:24 SP:FF PPU:112,130 CYC:14821
C658  F0 F9     BEQ $C653                       A:00 X:FF Y:00 P:26 SP:FF PPU:118,130 CYC:14823
C653  AD 02 20  LDA $2002 = FF                  A:00 X:FF Y:00 P:26 SP:FF PPU:127,130 CYC:14826
C656  29 80     AND #$80                        A:10 X:FF Y:00 P:24 SP:FF PPU:139,130 CYC:14830
C658  F0 F9     BEQ $C653                       A:00 X:FF Y:00 P:26 SP:FF PPU:145,130 CYC:14832
C653  AD 02 20  LDA $2002 = FF                  A:00 X:FF Y:00 P:26 SP:FF PPU:154,130 CYC:14835
C656  29 80     AND #$80                        A:10 X:FF Y:00 P:24 SP:FF PPU:166,130 CYC:14839
C658  F0 F9     BEQ $C653                       A:00 X:FF Y:00 P:26 SP:FF PPU:172,130 CYC:14841
C653  AD 02 20  LDA $2002 = FF                  A:00 X:FF Y:00 P:26 SP:FF PPU:181,130 CYC:14844
C656  29 80     AND #$80                        A:10 X:FF Y:00 P:24 SP:FF PPU:193,130 CYC:14848
C658  F0 F9     BEQ $C653                       A:00 X:FF Y:00 P:26 SP:FF PPU:199,130 CYC:14850
C653  AD 02 20  LDA $2002 = FF                  A:00 X:FF Y:00 P:26 SP:FF PPU:208,130 CYC:14853
C656  29 80     AND #$80                        A:10 X:FF Y:00 P:24 SP:FF PPU:220,130 CYC:14857
C658  F0 F9     BEQ $C653                       A:00 X:FF Y:00 P:26 SP:FF PPU:226,130 CYC:14859
C653  AD 02 20  LDA $2002 = FF                  A:00 X:FF Y:00 P:26 SP:FF PPU:235,130 CYC:14862
C656  29 80     AND #$80                        A:10 X:FF Y:00 P:24 SP:FF PPU:247,130 CYC:14866
C658  F0 F9     BEQ $C653                       A:00 X:FF Y:00 P:26 SP:FF PPU:253,130 CYC:14868
C653  AD 02 20  LDA $2002 = FF                  A:00 X:FF Y:00 P:26 SP:FF PPU:262,130 CYC:14871
C656  29 80     AND #$80                        A:10 X:FF Y:00 P:24 SP:FF PPU:274,130 CYC:14875
C658  F0 F9     BEQ $C653                       A:00 X:FF Y:00 P:26 SP:FF PPU:280,130 CYC:14877
C653  AD 02 20  LDA $2002 = FF                  A:00 X:FF Y:00 P:26 SP:FF PPU:289,130 CYC:14880
C656  29 80     AND #$80                        A:10 X:FF Y:00 P:24 SP:FF PPU:301,130 CYC:14884
C658  F0 F9     BEQ $C653                       A:00 X:FF Y:00 P:26 SP:FF PPU:307,130 CYC:14886
C653  AD 02 20  LDA $2002 = FF                  A:00 X:FF Y:00 P:26 SP:FF PPU:316,130 CYC:14889
C656  29 80     AND #$80                        A:10 X:FF Y:00 P:24 SP:FF PPU:328,130 CYC:14893
C658  F0 F9     BEQ $C653                       A:00 X:FF Y:00 P:26 SP:FF PPU:334,130 CYC:14895
C653  AD 02 20  LDA $2002 = FF                  A:00 X:FF Y:00 P:26 SP:FF PPU:  2,131 CYC:14898
C656  29 80     AND #$80                        A:10 X:FF Y:00 P:24 SP:FF PPU: 14,131 CYC:14902
C658  F0 F9     BEQ $C653                       A:00 X:FF Y:00 P:26 SP:FF PPU: 20,131 CYC:14904
C653  AD 02 20  LDA $2002 = FF                  A:00 X:FF Y:00 P:26 SP:FF PPU: 29,131 CYC:14907
C656  29 80     AND #$80                        A:10 X:FF Y:00 P:24 SP:FF PPU: 41,131 CYC:14911
C658  F0 F9     BEQ $C653                       A:00 X:FF Y:00 P:26 SP:FF PPU: 47,131 CYC:14913
C653  AD 02 20  LDA $2002 = FF                  A:00 X:FF Y:00 P:26 SP:FF PPU: 56,131 CYC:14916
C656  29 80     AND #$80                        A:10 X:FF Y:00 P:24 SP:FF PPU: 68,131 CYC:14920
C658  F0 F9     BEQ $C653                       A:00 X:FF Y:00 P:26 SP:FF PPU: 74,131 CYC:14922
C653  AD 02 20  LDA $2002 = FF                  A:00 X:FF Y:00 P:26 SP:FF PPU: 83,131 CYC:14925
C656  29 80     AND #$80                        A:10 X:FF Y:00 P:24 SP:FF PPU: 95,131 CYC:14929
C658  F0 F9     BEQ $C653                       A:00 X:FF Y:00 P:26 SP:FF PPU:101,131 CYC:14931
C653  AD 02 20  LDA $2002 = FF                  A:00 X:FF Y:00 P:26 SP:FF PPU:110,131 CYC:14934
C656  29 80     AND #$80                        A:10 X:FF Y:00 P:24 SP:FF PPU:122,131 CYC:14938
C658  F0 F9     BEQ $C653                       A:00 X:FF Y:00 P:26 SP:FF PPU:128,131 CYC:14940
C653  AD 02 20  LDA $2002 = FF                  A:00 X:FF Y:00 P:26 SP:FF PPU:137,131 CYC:14943
C656  29 80     AND #$80                        A:10 X:FF Y:00 P:24 SP:FF PPU:149,131 CYC:14947
C658  F0 F9     BEQ $C653                       A:00 X:FF Y:00 P:26 SP:FF PPU:155,131 CYC:14949
C653  AD 02 20  LDA $2002 = FF                  A:00 X:FF Y:00 P:26 SP:FF PPU:164,131 CYC:14952
C656  29 80     AND #$80                        A:10 X:FF Y:00 P:24 SP:FF PPU:176,131 CYC:14956
C658  F0 F9     BEQ $C653                       A:00 X:FF Y:00 P:26 SP:FF PPU:182,131 CYC:14958
C653  AD 02 20  LDA $2002 = FF                  A:00 X:FF Y:00 P:26 SP:FF PPU:191,131 CYC:14961
C656  29 80     AND #$80                        A:10 X:FF Y:00 P:24 SP:FF PPU:203,131 CYC:14965
C658  F0 F9     BEQ $C653                       A:00 X:FF Y:00 P:26 SP:FF PPU:209,131 CYC:14967
C653  AD 02 20  LDA $2002 = FF                  A:00 X:FF Y:00 P:26 SP:FF PPU:218,131 CYC:14970
C656  29 80     AND #$80                        A:10 X:FF Y:00 P:24 SP:FF PPU:230,131 CYC:14974
C658  F0 F9     BEQ $C653                       A:00 X:FF Y:00 P:26 SP:FF PPU:236,131 CYC:14976
C653  AD 02 20  LDA $2002 = FF                  A:00 X:FF Y:00 P:26 SP:FF PPU:245,131 CYC:14979
C656  29 80     AND #$80                        A:10 X:FF Y:00 P:24 SP:FF PPU:257,131 CYC:14983
C658  F0 F9     BEQ $C653                       A:00 X:FF Y:00 P:26 SP:FF PPU:263,131 CYC:14985
C653  AD 02 20  LDA $2002 = FF                  A:00 X:FF Y:00 P:26 SP:FF PPU:272,131 CYC:14988
C656  29 80     AND #$80                        A:10 X:FF Y:00 P:24 SP:FF PPU:284,131 CYC:14992
C658  F0 F9     BEQ $C653                       A:00 X:FF Y:00 P:26 SP:FF PPU:290,131 CYC:14994
C653  AD 02 20  LDA $2002 = FF                  A:00 X:FF Y:00 P:26 SP:FF PPU:299,131 CYC:14997
C656  29 80     AND #$80                        A:10 X:FF Y:00 P:24 SP:FF PPU:311,131 CYC:15001
C658  F0 F9     BEQ $C653                       A:00 X:FF Y:00 P:26 SP:FF PPU:317,131 CYC:15003
C653  AD 02 20  LDA $2002 = FF                  A:00 X:FF Y:00 P:26 SP:FF PPU:326,131 CYC:15006
C656  29 80     AND #$80                        A:10 X:FF Y:00 P:24 SP:FF PPU:338,131 CYC:15010
C658  F0 F9     BEQ $C653                       A:00 X:FF Y:00 P:26 SP:FF PPU:  3,132 CYC:15012
C653  AD 02 20  LDA $2002 = FF                  A:00 X:FF Y:00 P:26 SP:FF PPU: 12,132 CYC:15015
C656  29 80     AND #$80                        A:10 X:FF Y:00 P:24 SP:FF PPU: 24,132 CYC:15019
C658  F0 F9     BEQ $C653                       A:00 X:FF Y:00 P:26 SP:FF PPU: 30,132 CYC:15021
C653  AD 02 20  LDA $2002 = FF                  A:00 X:FF Y:00 P:26 SP:FF PPU: 39,132 CYC:15024
C656  29 80     AND #$80                        A:10 X:FF Y:00 P:24 SP:FF PPU: 51,132 CYC:15028
C658  F0 F9     BEQ $C653                       A:00 X:FF Y:00 P:26 SP:FF PPU: 57,132 CYC:15030
C653  AD 02 20  LDA $2002 = FF                  A:00 X:FF Y:00 P:26 SP:FF PPU: 66,132 CYC:15033
C656  29 80     AND #$80                        A:10 X:FF Y:00 P:24 SP:FF PPU: 78,132 CYC:15037
C658  F0 F9     BEQ $C653                       A:00 X:FF Y:00 P:26 SP:FF PPU: 84,132 CYC:15039
C653  AD 02 20  LDA $2002 = FF                  A:00 X:FF Y:00 P:26 SP:FF PPU: 93,132 CYC:15042
C656  29 80     AND #$80                        A:10 X:FF Y:00 P:24 SP:FF PPU:105,132 CYC:15046
C658  F0 F9     BEQ $C653                       A:00 X:FF Y:00 P:26 SP:FF PPU:111,132 CYC:15048
C653  AD 02 20  LDA $2002 = FF                  A:00 X:FF Y:00 P:26 SP:FF PPU:120,132 CYC:15051
C656  29 80     AND #$80                        A:10 X:FF Y:00 P:24 SP:FF PPU:132,132 CYC:15055
C658  F0 F9     BEQ $C653                       A:00 X:FF Y:00 P:26 SP:FF PPU:138,132 CYC:15057
C653  AD 02 20  LDA $2002 = FF                  A:00 X:FF Y:00 P:26 SP:FF PPU:147,132 CYC:15060
C656  29 80     AND #$80                        A:10 X:FF Y:00 P:24 SP:FF PPU:159,132 CYC:15064
C658  F0 F9     BEQ $C653                       A:00 X:FF Y:00 P:26 SP:FF PPU:165,132 CYC:15066
C653  AD 02 20  LDA $2002 = FF                  A:00 X:FF Y:00 P:26 SP:FF PPU:174,132 CYC:15069
C656  29 80     AND #$80                        A:10 X:FF Y:00 P:24 SP:FF PPU:186,132 CYC:15073
C658  F0 F9     BEQ $C653                       A:00 X:FF Y:00 P:26 SP:FF PPU:192,132 CYC:15075
C653  AD 02 20  LDA $2002 = FF                  A:00 X:FF Y:00 P:26 SP:FF PPU:201,132 CYC:15078
C656  29 80     AND #$80                        A:10 X:FF Y:00 P:24 SP:FF PPU:213,132 CYC:15082
C658  F0 F9     BEQ $C653                       A:00 X:FF Y:00 P:26 SP:FF PPU:219,132 CYC:15084
C653  AD 02 20  LDA $2002 = FF                  A:00 X:FF Y:00 P:26 SP:FF PPU:228,132 CYC:15087
C656  29 80     AND #$80                        A:10 X:FF Y:00 P:24 SP:FF PPU:240,132 CYC:15091
C658  F0 F9     BEQ $C653                       A:00 X:FF Y:00 P:26 SP:FF PPU:246,132 CYC:15093
C653  AD 02 20  LDA $2002 = FF                  A:00 X:FF Y:00 P:26 SP:FF PPU:255,132 CYC:15096
C656  29 80     AND #$80                        A:10 X:FF Y:00 P:24 SP:FF PPU:267,132 CYC:15100
C658  F0 F9     BEQ $C653                       A:00 X:FF Y:00 P:26 SP:FF PPU:273,132 CYC:15102
C653  AD 02 20  LDA $2002 = FF                  A:00 X:FF Y:00 P:26 SP:FF PPU:282,132 CYC:15105
C656  29 80     AND #$80                        A:10 X:FF Y:00 P:24 SP:FF PPU:294,132 CYC:15109
C658  F0 F9     BEQ $C653                       A:00 X:FF Y:00 P:26 SP:FF PPU:300,132 CYC:15111
C653  AD 02 20  LDA $2002 = FF                  A:00 X:FF Y:00 P:26 SP:FF PPU:309,132 CYC:15114
C656  29 80     AND #$80                        A:10 X:FF Y:00 P:24 SP:FF PPU:321,132 CYC:15118
C658  F0 F9     BEQ $C653                       A:00 X:FF Y:00 P:26 SP:FF PPU:327,132 CYC:15120
C653  AD 02 20  LDA $2002 = FF                  A:00 X:FF Y:00 P:26 SP:FF PPU:336,132 CYC:15123
C656  29 80     AND #$80                        A:10 X:FF Y:00 P:24 SP:FF PPU:  7,133 CYC:15127
C658  F0 F9     BEQ $C653                       A:00 X:FF Y:00 P:26 SP:FF PPU: 13,133 CYC:15129
C653  AD 02 20  LDA $2002 = FF                  A:00 X:FF Y:00 P:26 SP:FF PPU: 22,133 CYC:15132
C656  29 80     AND #$80                        A:10 X:FF Y:00 P:24 SP:FF PPU: 34,133 CYC:15136
C658  F0 F9     BEQ $C653                       A:00 X:FF Y:00 P:26 SP:FF PPU: 40,133 CYC:15138
C653  AD 02 20  LDA $2002 = FF                  A:00 X:FF Y:00 P:26 SP:FF PPU: 49,133 CYC:15141
C656  29 80     AND #$80                        A:10 X:FF Y:00 P:24 SP:FF PPU: 61,133 CYC:15145
C658  F0 F9     BEQ $C653                       A:00 X:FF Y:00 P:26 SP:FF PPU: 67,133 CYC:15147
C653  AD 02 20  LDA $2002 = FF                  A:00 X:FF Y:00 P:26 SP:FF PPU: 76,133 CYC:15150
C656  29 80     AND #$80                        A:10 X:FF Y:00 P:24 SP:FF PPU: 88,133 CYC:15154
C658  F0 F9     BEQ $C653                       A:00 X:FF Y:00 P:26 SP:FF PPU: 94,133 CYC:15156
C653  AD 02 20  LDA $2002 = FF                  A:00 X:FF Y:00 P:26 SP:FF PPU:103,133 CYC:15159
C656  29 80     AND #$80                        A:10 X:FF Y:00 P:24 SP:FF PPU:115,133 CYC:15163
C658  F0 F9     BEQ $C653                       A:00 X:FF Y:00 P:26 SP:FF PPU:121,133 CYC:15165
C653  AD 02 20  LDA $2002 = FF                  A:00 X:FF Y:00 P:26 SP:FF PPU:130,133 CYC:15168
C656  29 80     AND #$80                        A:10 X:FF Y:00 P:24 SP:FF PPU:142,133 CYC:15172
C658  F0 F9     BEQ $C653                       A:00 X:FF Y:00 P:26 SP:FF PPU:148,133 CYC:15174
C653  AD 02 20  LDA $2002 = FF                  A:00 X:FF Y:00 P:26 SP:FF PPU:157,133 CYC:15177
C656  29 80     AND #$80                        A:10 X:FF Y:00 P:24 SP:FF PPU:169,133 CYC:15181
C658  F0 F9     BEQ $C653                       A:00 X:FF Y:00 P:26 SP:FF PPU:175,133 CYC:15183
C653  AD 02 20  LDA $2002 = FF                  A:00 X:FF Y:00 P:26 SP:FF PPU:184,133 CYC:15186
C656  29 80     AND #$80                        A:10 X:FF Y:00 P:24 SP:FF PPU:196,133 CYC:15190
C658  F0 F9     BEQ $C653                       A:00 X:FF Y:00 P:26 SP:FF PPU:202,133 CYC:15192
C653  AD 02 20  LDA $2002 = FF                  A:00 X:FF Y:00 P:26 SP:FF PPU:211,133 CYC:15195
C656  29 80     AND #$80                        A:10 X:FF Y:00 P:24 SP:FF PPU:223,133 CYC:15199
C658  F0 F9     BEQ $C653                       A:00 X:FF Y:00 P:26 SP:FF PPU:229,133 CYC:15201
C653  AD 02 20  LDA $2002 = FF                  A:00 X:FF Y:00 P:26 SP:FF PPU:238,133 CYC:15204
C656  29 80     AND #$80                        A:10 X:FF Y:00 P:24 SP:FF PPU:250,133 CYC:15208
C658  F0 F9     BEQ $C653                       A:00 X:FF Y:00 P:26 SP:FF PPU:256,133 CYC:15210
C653  AD 02 20  LDA $2002 = FF                  A:00 X:FF Y:00 P:26 SP:FF PPU:265,133 CYC:15213
C656  29 80     AND #$80                        A:10 X:FF Y:00 P:24 SP:FF PPU:277,133 CYC:15217
C658  F0 F9     BEQ $C653                       A:00 X:FF Y:00 P:26 SP:FF PPU:283,133 CYC:15219
C653  AD 02 20  LDA $2002 = FF                  A:00 X:FF Y:00 P:26 SP:FF PPU:292,133 CYC:15222
C656  29 80     AND #$80                        A:10 X:FF Y:00 P:24 SP:FF PPU:304,133 CYC:15226
C658  F0 F9     BEQ $C653                       A:00 X:FF Y:00 P:26 SP:FF PPU:310,133 CYC:15228
C653  AD 02 20  LDA $2002 = FF                  A:00 X:FF Y:00 P:26 SP:FF PPU:319,133 CYC:15231
C656  29 80     AND #$80                        A:10 X:FF Y:00 P:24 SP:FF PPU:331,133 CYC:15235
C658  F0 F9     BEQ $C653                       A:00 X:FF Y:00 P:26 SP:FF PPU:337,133 CYC:15237
C653  AD 02 20  LDA $2002 = FF                  A:00 X:FF Y:00 P:26 SP:FF PPU:  5,134 CYC:15240
C656  29 80     AND #$80                        A:10 X:FF Y:00 P:24 SP:FF PPU: 17,134 CYC:15244
C658  F0 F9     BEQ $C653                       A:00 X:FF Y:00 P:26 SP:FF PPU: 23,134 CYC:15246
C653  AD 02 20  LDA $2002 = FF                  A:00 X:FF Y:00 P:26 SP:FF PPU: 32,134 CYC:15249
C656  29 80     AND #$80                        A:10 X:FF Y:00 P:24 SP:FF PPU: 44,134 CYC:15253
C658  F0 F9     BEQ $C653                       A:00 X:FF Y:00 P:26 SP:FF PPU: 50,134 CYC:15255
C653  AD 02 20  LDA $2002 = FF                  A:00 X:FF Y:00 P:26 SP:FF PPU: 59,134 CYC:15258
C656  29 80     AND #$80                        A:10 X:FF Y:00 P:24 SP:FF PPU: 71,134 CYC:15262
C658  F0 F9     BEQ $C653                       A:00 X:FF Y:00 P:26 SP:FF PPU: 77,134 CYC:15264
C653  AD 02 20  LDA $2002 = FF                  A:00 X:FF Y:00 P:26 SP:FF PPU: 86,134 CYC:15267
C656  29 80     AND #$80                        A:10 X:FF Y:00 P:24 SP:FF PPU: 98,134 CYC:15271
C658  F0 F9     BEQ $C653                       A:00 X:FF Y:00 P:26 SP:FF PPU:104,134 CYC:15273
C653  AD 02 20  LDA $2002 = FF                  A:00 X:FF Y:00 P:26 SP:FF PPU:113,134 CYC:15276
C656  29 80     AND #$80                        A:10 X:FF Y:00 P:24 SP:FF PPU:125,134 CYC:15280
C658  F0 F9     BEQ $C653                       A:00 X:FF Y:00 P:26 SP:FF PPU:131,134 CYC:15282
C653  AD 02 20  LDA $2002 = FF                  A:00 X:FF Y:00 P:26 SP:FF PPU:140,134 CYC:15285
C656  29 80     AND #$80                        A:10 X:FF Y:00 P:24 SP:FF PPU:152,134 CYC:15289
C658  F0 F9     BEQ $C653                       A:00 X:FF Y:00 P:26 SP:FF PPU:158,134 CYC:15291
C653  AD 02 20  LDA $2002 = FF                  A:00 X:FF Y:00 P:26 SP:FF PPU:167,134 CYC:15294
C656  29 80     AND #$80                        A:10 X:FF Y:00 P:24 SP:FF PPU:179,134 CYC:15298
C658  F0 F9     BEQ $C653                       A:00 X:FF Y:00 P:26 SP:FF PPU:185,134 CYC:15300
C653  AD 02 20  LDA $2002 = FF                  A:00 X:FF Y:00 P:26 SP:FF PPU:194,134 CYC:15303
C656  29 80     AND #$80                        A:10 X:FF Y:00 P:24 SP:FF PPU:206,134 CYC:15307
C658  F0 F9     BEQ $C653                       A:00 X:FF Y:00 P:26 SP:FF PPU:212,134 CYC:15309
C653  AD 02 20  LDA $2002 = FF                  A:00 X:FF Y:00 P:26 SP:FF PPU:221,134 CYC:15312
C656  29 80     AND #$80                        A:10 X:FF Y:00 P:24 SP:FF PPU:233,134 CYC:15316
C658  F0 F9     BEQ $C653                       A:00 X:FF Y:00 P:26 SP:FF PPU:239,134 CYC:15318
C653  AD 02 20  LDA $2002 = FF                  A:00 X:FF Y:00 P:26 SP:FF PPU:248,134 CYC:15321
C656  29 80     AND #$80                        A:10 X:FF Y:00 P:24 SP:FF PPU:260,134 CYC:15325
C658  F0 F9     BEQ $C653                       A:00 X:FF Y:00 P:26 SP:FF PPU:266,134 CYC:15327
C653  AD 02 20  LDA $2002 = FF                  A:00 X:FF Y:00 P:26 SP:FF PPU:275,134 CYC:15330
C656  29 80     AND #$80                        A:10 X:FF Y:00 P:24 SP:FF PPU:287,134 CYC:15334
C658  F0 F9     BEQ $C653                       A:00 X:FF Y:00 P:26 SP:FF PPU:293,134 CYC:15336
C653  AD 02 20  LDA $2002 = FF                  A:00 X:FF Y:00 P:26 SP:FF PPU:302,134 CYC:15339
C656  29 80     AND #$80                        A:10 X:FF Y:00 P:24 SP:FF PPU:314,134 CYC:15343
C658  F0 F9     BEQ $C653                       A:00 X:FF Y:00 P:26 SP:FF PPU:320,134 CYC:15345
C653  AD 02 20  LDA $2002 = FF                  A:00 X:FF Y:00 P:26 SP:FF PPU:329,134 CYC:15348
C656  29 80     AND #$80                        A:10 X:FF Y:00 P:24 SP:FF PPU:  0,135 CYC:15352
C658  F0 F9     BEQ $C653                       A:00 X:FF Y:00 P:26 SP:FF PPU:  6,135 CYC:15354
C653  AD 02 20  LDA $2002 = FF                  A:00 X:FF Y:00 P:26 SP:FF PPU: 15,135 CYC:15357
C656  29 80     AND #$80                        A:10 X:FF Y:00 P:24 SP:FF PPU: 27,135 CYC:15361
C658  F0 F9     BEQ $C653                       A:00 X:FF Y:00 P:26 SP:FF PPU: 33,135 CYC:15363
C653  AD 02 20  LDA $2002 = FF                  A:00 X:FF Y:00 P:26 SP:FF PPU: 42,135 CYC:15366
C656  29 80     AND #$80                        A:10 X:FF Y:00 P:24 SP:FF PPU: 54,135 CYC:15370
C658  F0 F9     BEQ $C653                       A:00 X:FF Y:00 P:26 SP:FF PPU: 60,135 CYC:15372
C653  AD 02 20  LDA $2002 = FF                  A:00 X:FF Y:00 P:26 SP:FF PPU: 69,135 CYC:15375
C656  29 80     AND #$80                        A:10 X:FF Y:00 P:24 SP:FF PPU: 81,135 CYC:15379
C658  F0 F9     BEQ $C653                       A:00 X:FF Y:00 P:26 SP:FF PPU: 87,135 CYC:15381
C653  AD 02 20  LDA $2002 = FF                  A:00 X:FF Y:00 P:26 SP:FF PPU: 96,135 CYC:15384
C656  29 80     AND #$80                        A:10 X:FF Y:00 P:24 SP:FF PPU:108,135 CYC:15388
C658  F0 F9     BEQ $C653                       A:00 X:FF Y:00 P:26 SP:FF PPU:114,135 CYC:15390
C653  AD 02 20  LDA $2002 = FF                  A:00 X:FF Y:00 P:26 SP:FF PPU:123,135 CYC:15393
C656  29 80     AND #$80                        A:10 X:FF Y:00 P:24 SP:FF PPU:135,135 CYC:15397
C658  F0 F9     BEQ $C653                       A:00 X:FF Y:00 P:26 SP:FF PPU:141,135 CYC:15399
C653  AD 02 20  LDA $2002 = FF                  A:00 X:FF Y:00 P:26 SP:FF PPU:150,135 CYC:15402
C656  29 80     AND #$80                        A:10 X:FF Y:00 P:24 SP:FF PPU:162,135 CYC:15406
C658  F0 F9     BEQ $C653                       A:00 X:FF Y:00 P:26 SP:FF PPU:168,135 CYC:15408
C653  AD 02 20  LDA $2002 = FF                  A:00 X:FF Y:00 P:26 SP:FF PPU:177,135 CYC:15411
C656  29 80     AND #$80                        A:10 X:FF Y:00 P:24 SP:FF PPU:189,135 CYC:15415
C658  F0 F9     BEQ $C653                       A:00 X:FF Y:00 P:26 SP:FF PPU:195,135 CYC:15417
C653  AD 02 20  LDA $2002 = FF                  A:00 X:FF Y:00 P:26 SP:FF PPU:204,135 CYC:15420
C656  29 80     AND #$80                        A:10 X:FF Y:00 P:24 SP:FF PPU:216,135 CYC:15424
C658  F0 F9     BEQ $C653                       A:00 X:FF Y:00 P:26 SP:FF PPU:222,135 CYC:15426
C653  AD 02 20  LDA $2002 = FF                  A:00 X:FF Y:00 P:26 SP:FF PPU:231,135 CYC:15429
C656  29 80     AND #$80                        A:10 X:FF Y:00 P:24 SP:FF PPU:243,135 CYC:15433
C658  F0 F9     BEQ $C653                       A:00 X:FF Y:00 P:26 SP:FF PPU:249,135 CYC:15435
C653  AD 02 20  LDA $2002 = FF                  A:00 X:FF Y:00 P:26 SP:FF PPU:258,135 CYC:15438
C656  29 80     AND #$80                        A:10 X:FF Y:00 P:24 SP:FF PPU:270,135 CYC:15442
C658  F0 F9     BEQ $C653                       A:00 X:FF Y:00 P:26 SP:FF PPU:276,135 CYC:15444
C653  AD 02 20  LDA $2002 = FF                  A:00 X:FF Y:00 P:26 SP:FF PPU:285,135 CYC:15447
C656  29 80     AND #$80                        A:10 X:FF Y:00 P:24 SP:FF PPU:297,135 CYC:15451
C658  F0 F9     BEQ $C653                       A:00 X:FF Y:00 P:26 SP:FF PPU:303,135 CYC:15453
C653  AD 02 20  LDA $2002 = FF                  A:00 X:FF Y:00 P:26 SP:FF PPU:312,135 CYC:15456
C656  29 80     AND #$80                        A:10 X:FF Y:00 P:24 SP:FF PPU:324,135 CYC:15460
C658  F0 F9     BEQ $C653                       A:00 X:FF Y:00 P:26 SP:FF PPU:330,135 CYC:15462
C653  AD 02 20  LDA $2002 = FF                  A:00 X:FF Y:00 P:26 SP:FF PPU:339,135 CYC:15465
C656  29 80     AND #$80                        A:10 X:FF Y:00 P:24 SP:FF PPU: 10,136 CYC:15469
C658  F0 F9     BEQ $C653                       A:00 X:FF Y:00 P:26 SP:FF PPU: 16,136 CYC:15471
C653  AD 02 20  LDA $2002 = FF                  A:00 X:FF Y:00 P:26 SP:FF PPU: 25,136 CYC:15474
C656  29 80     AND #$80                        A:10 X:FF Y:00 P:24 SP:FF PPU: 37,136 CYC:15478
C658  F0 F9     BEQ $C653                       A:00 X:FF Y:00 P:26 SP:FF PPU: 43,136 CYC:15480
C653  AD 02 20  LDA $2002 = FF                  A:00 X:FF Y:00 P:26 SP:FF PPU: 52,136 CYC:15483
C656  29 80     AND #$80                        A:10 X:FF Y:00 P:24 SP:FF PPU: 64,136 CYC:15487
C658  F0 F9     BEQ $C653                       A:00 X:FF Y:00 P:26 SP:FF PPU: 70,136 CYC:15489
C653  AD 02 20  LDA $2002 = FF                  A:00 X:FF Y:00 P:26 SP:FF PPU: 79,136 CYC:15492
C656  29 80     AND #$80                        A:10 X:FF Y:00 P:24 SP:FF PPU: 91,136 CYC:15496
C658  F0 F9     BEQ $C653                       A:00 X:FF Y:00 P:26 SP:FF PPU: 97,136 CYC:15498
C653  AD 02 20  LDA $2002 = FF                  A:00 X:FF Y:00 P:26 SP:FF PPU:106,136 CYC:15501
C656  29 80     AND #$80                        A:10 X:FF Y:00 P:24 SP:FF PPU:118,136 CYC:15505
C658  F0 F9     BEQ $C653                       A:00 X:FF Y:00 P:26 SP:FF PPU:124,136 CYC:15507
C653  AD 02 20  LDA $2002 = FF                  A:00 X:FF Y:00 P:26 SP:FF PPU:133,136 CYC:15510
C656  29 80     AND #$80                        A:10 X:FF Y:00 P:24 SP:FF PPU:145,136 CYC:15514
C658  F0 F9     BEQ $C653                       A:00 X:FF Y:00 P:26 SP:FF PPU:151,136 CYC:15516
C653  AD 02 20  LDA $2002 = FF                  A:00 X:FF Y:00 P:26 SP:FF PPU:160,136 CYC:15519
C656  29 80     AND #$80                        A:10 X:FF Y:00 P:24 SP:FF PPU:172,136 CYC:15523
C658  F0 F9     BEQ $C653                       A:00 X:FF Y:00 P:26 SP:FF PPU:178,136 CYC:15525
C653  AD 02 20  LDA $2002 = FF                  A:00 X:FF Y:00 P:26 SP:FF PPU:187,136 CYC:15528
C656  29 80     AND #$80                        A:10 X:FF Y:00 P:24 SP:FF PPU:199,136 CYC:15532
C658  F0 F9     BEQ $C653                       A:00 X:FF Y:00 P:26 SP:FF PPU:205,136 CYC:15534
C653  AD 02 20  LDA $2002 = FF                  A:00 X:FF Y:00 P:26 SP:FF PPU:214,136 CYC:15537
C656  29 80     AND #$80                        A:10 X:FF Y:00 P:24 SP:FF PPU:226,136 CYC:15541
C658  F0 F9     BEQ $C653                       A:00 X:FF Y:00 P:26 SP:FF PPU:232,136 CYC:15543
C653  AD 02 20  LDA $2002 = FF                  A:00 X:FF Y:00 P:26 SP:FF PPU:241,136 CYC:15546
C656  29 80     AND #$80                        A:10 X:FF Y:00 P:24 SP:FF PPU:253,136 CYC:15550
C658  F0 F9     BEQ $C653                       A:00 X:FF Y:00 P:26 SP:FF PPU:259,136 CYC:15552
C653  AD 02 20  LDA $2002 = FF                  A:00 X:FF Y:00 P:26 SP:FF PPU:268,136 CYC:15555
C656  29 80     AND #$80                        A:10 X:FF Y:00 P:24 SP:FF PPU:280,136 CYC:15559
C658  F0 F9     BEQ $C653                       A:00 X:FF Y:00 P:26 SP:FF PPU:286,136 CYC:15561
C653  AD 02 20  LDA $2002 = FF                  A:00 X:FF Y:00 P:26 SP:FF PPU:295,136 CYC:15564
C656  29 80     AND #$80                        A:10 X:FF Y:00 P:24 SP:FF PPU:307,136 CYC:15568
C658  F0 F9     BEQ $C653                       A:00 X:FF Y:00 P:26 SP:FF PPU:313,136 CYC:15570
C653  AD 02 20  LDA $2002 = FF                  A:00 X:FF Y:00 P:26 SP:FF PPU:322,136 CYC:15573
C656  29 80     AND #$80                        A:10 X:FF Y:00 P:24 SP:FF PPU:334,136 CYC:15577
C658  F0 F9     BEQ $C653                       A:00 X:FF Y:00 P:26 SP:FF PPU:340,136 CYC:15579
C653  AD 02 20  LDA $2002 = FF                  A:00 X:FF Y:00 P:26 SP:FF PPU:  8,137 CYC:15582
C656  29 80     AND #$80                        A:10 X:FF Y:00 P:24 SP:FF PPU: 20,137 CYC:15586
C658  F0 F9     BEQ $C653                       A:00 X:FF Y:00 P:26 SP:FF PPU: 26,137 CYC:15588
C653  AD 02 20  LDA $2002 = FF                  A:00 X:FF Y:00 P:26 SP:FF PPU: 35,137 CYC:15591
C656  29 80     AND #$80                        A:10 X:FF Y:00 P:24 SP:FF PPU: 47,137 CYC:15595
C658  F0 F9     BEQ $C653                       A:00 X:FF Y:00 P:26 SP:FF PPU: 53,137 CYC:15597
C653  AD 02 20  LDA $2002 = FF                  A:00 X:FF Y:00 P:26 SP:FF PPU: 62,137 CYC:15600
C656  29 80     AND #$80                        A:10 X:FF Y:00 P:24 SP:FF PPU: 74,137 CYC:15604
C658  F0 F9     BEQ $C653                       A:00 X:FF Y:00 P:26 SP:FF PPU: 80,137 CYC:15606
C653  AD 02 20  LDA $2002 = FF                  A:00 X:FF Y:00 P:26 SP:FF PPU: 89,137 CYC:15609
C656  29 80     AND #$80                        A:10 X:FF Y:00 P:24 SP:FF PPU:101,137 CYC:15613
C658  F0 F9     BEQ $C653                       A:00 X:FF Y:00 P:26 SP:FF PPU:107,137 CYC:15615
C653  AD 02 20  LDA $2002 = FF                  A:00 X:FF Y:00 P:26 SP:FF PPU:116,137 CYC:15618
C656  29 80     AND #$80                        A:10 X:FF Y:00 P:24 SP:FF PPU:128,137 CYC:15622
C658  F0 F9     BEQ $C653                       A:00 X:FF Y:00 P:26 SP:FF PPU:134,137 CYC:15624
C653  AD 02 20  LDA $2002 = FF                  A:00 X:FF Y:00 P:26 SP:FF PPU:143,137 CYC:15627
C656  29 80     AND #$80                        A:10 X:FF Y:00 P:24 SP:FF PPU:155,137 CYC:15631
C658  F0 F9     BEQ $C653                       A:00 X:FF Y:00 P:26 SP:FF PPU:161,137 CYC:15633
C653  AD 02 20  LDA $2002 = FF                  A:00 X:FF Y:00 P:26 SP:FF PPU:170,137 CYC:15636
C656  29 80     AND #$80                        A:10 X:FF Y:00 P:24 SP:FF PPU:182,137 CYC:15640
C658  F0 F9     BEQ $C653                       A:00 X:FF Y:00 P:26 SP:FF PPU:188,137 CYC:15642
C653  AD 02 20  LDA $2002 = FF                  A:00 X:FF Y:00 P:26 SP:FF PPU:197,137 CYC:15645
C656  29 80     AND #$80                        A:10 X:FF Y:00 P:24 SP:FF PPU:209,137 CYC:15649
C658  F0 F9     BEQ $C653                       A:00 X:FF Y:00 P:26 SP:FF PPU:215,137 CYC:15651
C653  AD 02 20  LDA $2002 = FF                  A:00 X:FF Y:00 P:26 SP:FF PPU:224,137 CYC:15654
C656  29 80     AND #$80                        A:10 X:FF Y:00 P:24 SP:FF PPU:236,137 CYC:15658
C658  F0 F9     BEQ $C653                       A:00 X:FF Y:00 P:26 SP:FF PPU:242,137 CYC:15660
C653  AD 02 20  LDA $2002 = FF                  A:00 X:FF Y:00 P:26 SP:FF PPU:251,137 CYC:15663
C656  29 80     AND #$80                        A:10 X:FF Y:00 P:24 SP:FF PPU:263,137 CYC:15667
C658  F0 F9     BEQ $C653                       A:00 X:FF Y:00 P:26 SP:FF PPU:269,137 CYC:15669
C653  AD 02 20  LDA $2002 = FF                  A:00 X:FF Y:00 P:26 SP:FF PPU:278,137 CYC:15672
C656  29 80     AND #$80                        A:10 X:FF Y:00 P:24 SP:FF PPU:290,137 CYC:15676
C658  F0 F9     BEQ $C653                       A:00 X:FF Y:00 P:26 SP:FF PPU:296,137 CYC:15678
C653  AD 02 20  LDA $2002 = FF                  A:00 X:FF Y:00 P:26 SP:FF PPU:305,137 CYC:15681
C656  29 80     AND #$80                        A:10 X:FF Y:00 P:24 SP:FF PPU:317,137 CYC:15685
C658  F0 F9     BEQ $C653                       A:00 X:FF Y:00 P:26 SP:FF PPU:323,137 CYC:15687
C653  AD 02 20  LDA $2002 = FF                  A:00 X:FF Y:00 P:26 SP:FF PPU:332,137 CYC:15690
C656  29 80     AND #$80                        A:10 X:FF Y:00 P:24 SP:FF PPU:  3,138 CYC:15694
C658  F0 F9     BEQ $C653                       A:00 X:FF Y:00 P:26 SP:FF PPU:  9,138 CYC:15696
C653  AD 02 20  LDA $2002 = FF                  A:00 X:FF Y:00 P:26 SP:FF PPU: 18,138 CYC:15699
C656  29 80     AND #$80                        A:10 X:FF Y:00 P:24 SP:FF PPU: 30,138 CYC:15703
C658  F0 F9     BEQ $C653                       A:00 X:FF Y:00 P:26 SP:FF PPU: 36,138 CYC:15705
C653  AD 02 20  LDA $2002 = FF                  A:00 X:FF Y:00 P:26 SP:FF PPU: 45,138 CYC:15708
C656  29 80     AND #$80                        A:10 X:FF Y:00 P:24 SP:FF PPU: 57,138 CYC:15712
C658  F0 F9     BEQ $C653                       A:00 X:FF Y:00 P:26 SP:FF PPU: 63,138 CYC:15714
C653  AD 02 20  LDA $2002 = FF                  A:00 X:FF Y:00 P:26 SP:FF PPU: 72,138 CYC:15717
C656  29 80     AND #$80                        A:10 X:FF Y:00 P:24 SP:FF PPU: 84,138 CYC:15721
C658  F0 F9     BEQ $C653                       A:00 X:FF Y:00 P:26 SP:FF PPU: 90,138 CYC:15723
C653  AD 02 20  LDA $2002 = FF                  A:00 X:FF Y:00 P:26 SP:FF PPU: 99,138 CYC:15726
C656  29 80     AND #$80                        A:10 X:FF Y:00 P:24 SP:FF PPU:111,138 CYC:15730
C658  F0 F9     BEQ $C653                       A:00 X:FF Y:00 P:26 SP:FF PPU:117,138 CYC:15732
C653  AD 02 20  LDA $2002 = FF                  A:00 X:FF Y:00 P:26 SP:FF PPU:126,138 CYC:15735
C656  29 80     AND #$80                        A:10 X:FF Y:00 P:24 SP:FF PPU:138,138 CYC:15739
C658  F0 F9     BEQ $C653                       A:00 X:FF Y:00 P:26 SP:FF PPU:144,138 CYC:15741
C653  AD 02 20  LDA $2002 = FF                  A:00 X:FF Y:00 P:26 SP:FF PPU:153,138 CYC:15744
C656  29 80     AND #$80                        A:10 X:FF Y:00 P:24 SP:FF PPU:165,138 CYC:15748
C658  F0 F9     BEQ $C653                       A:00 X:FF Y:00 P:26 SP:FF PPU:171,138 CYC:15750
C653  AD 02 20  LDA $2002 = FF                  A:00 X:FF Y:00 P:26 SP:FF PPU:180,138 CYC:15753
C656  29 80     AND #$80                        A:10 X:FF Y:00 P:24 SP:FF PPU:192,138 CYC:15757
C658  F0 F9     BEQ $C653                       A:00 X:FF Y:00 P:26 SP:FF PPU:198,138 CYC:15759
C653  AD 02 20  LDA $2002 = FF                  A:00 X:FF Y:00 P:26 SP:FF PPU:207,138 CYC:15762
C656  29 80     AND #$80                        A:10 X:FF Y:00 P:24 SP:FF PPU:219,138 CYC:15766
C658  F0 F9     BEQ $C653                       A:00 X:FF Y:00 P:26 SP:FF PPU:225,138 CYC:15768
C653  AD 02 20  LDA $2002 = FF                  A:00 X:FF Y:00 P:26 SP:FF PPU:234,138 CYC:15771
C656  29 80     AND #$80                        A:10 X:FF Y:00 P:24 SP:FF PPU:246,138 CYC:15775
C658  F0 F9     BEQ $C653                       A:00 X:FF Y:00 P:26 SP:FF PPU:252,138 CYC:15777
C653  AD 02 20  LDA $2002 = FF                  A:00 X:FF Y:00 P:26 SP:FF PPU:261,138 CYC:15780
C656  29 80     AND #$80                        A:10 X:FF Y:00 P:24 SP:FF PPU:273,138 CYC:15784
C658  F0 F9     BEQ $C653                       A:00 X:FF Y:00 P:26 SP:FF PPU:279,138 CYC:15786
C653  AD 02 20  LDA $2002 = FF                  A:00 X:FF Y:00 P:26 SP:FF PPU:288,138 CYC:15789
C656  29 80     AND #$80                        A:10 X:FF Y:00 P:24 SP:FF PPU:300,138 CYC:15793
C658  F0 F9     BEQ $C653                       A:00 X:FF Y:00 P:26 SP:FF PPU:306,138 CYC:15795
C653  AD 02 20  LDA $2002 = FF                  A:00 X:FF Y:00 P:26 SP:FF PPU:315,138 CYC:15798
C656  29 80     AND #$80                        A:10 X:FF Y:00 P:24 SP:FF PPU:327,138 CYC:15802
C658  F0 F9     BEQ $C653                       A:00 X:FF Y:00 P:26 SP:FF PPU:333,138 CYC:15804
C653  AD 02 20  LDA $2002 = FF                  A:00 X:FF Y:00 P:26 SP:FF PPU:  1,139 CYC:15807
C656  29 80     AND #$80                        A:10 X:FF Y:00 P:24 SP:FF PPU: 13,139 CYC:15811
C658  F0 F9     BEQ $C653                       A:00 X:FF Y:00 P:26 SP:FF PPU: 19,139 CYC:15813
C653  AD 02 20  LDA $2002 = FF                  A:00 X:FF Y:00 P:26 SP:FF PPU: 28,139 CYC:15816
C656  29 80     AND #$80                        A:10 X:FF Y:00 P:24 SP:FF PPU: 40,139 CYC:15820
C658  F0 F9     BEQ $C653                       A:00 X:FF Y:00 P:26 SP:FF PPU: 46,139 CYC:15822
C653  AD 02 20  LDA $2002 = FF                  A:00 X:FF Y:00 P:26 SP:FF PPU: 55,139 CYC:15825
C656  29 80     AND #$80                        A:10 X:FF Y:00 P:24 SP:FF PPU: 67,139 CYC:15829
C658  F0 F9     BEQ $C653                       A:00 X:FF Y:00 P:26 SP:FF PPU: 73,139 CYC:15831
C653  AD 02 20  LDA $2002 = FF                  A:00 X:FF Y:00 P:26 SP:FF PPU: 82,139 CYC:15834
C656  29 80     AND #$80                        A:10 X:FF Y:00 P:24 SP:FF PPU: 94,139 CYC:15838
C658  F0 F9     BEQ $C653                       A:00 X:FF Y:00 P:26 SP:FF PPU:100,139 CYC:15840
C653  AD 02 20  LDA $2002 = FF                  A:00 X:FF Y:00 P:26 SP:FF PPU:109,139 CYC:15843
C656  29 80     AND #$80                        A:10 X:FF Y:00 P:24 SP:FF PPU:121,139 CYC:15847
C658  F0 F9     BEQ $C653                       A:00 X:FF Y:00 P:26 SP:FF PPU:127,139 CYC:15849
C653  AD 02 20  LDA $2002 = FF                  A:00 X:FF Y:00 P:26 SP:FF PPU:136,139 CYC:15852
C656  29 80     AND #$80                        A:10 X:FF Y:00 P:24 SP:FF PPU:148,139 CYC:15856
C658  F0 F9     BEQ $C653                       A:00 X:FF Y:00 P:26 SP:FF PPU:154,139 CYC:15858
C653  AD 02 20  LDA $2002 = FF                  A:00 X:FF Y:00 P:26 SP:FF PPU:163,139 CYC:15861
C656  29 80     AND #$80                        A:10 X:FF Y:00 P:24 SP:FF PPU:175,139 CYC:15865
C658  F0 F9     BEQ $C653                       A:00 X:FF Y:00 P:26 SP:FF PPU:181,139 CYC:15867
C653  AD 02 20  LDA $2002 = FF                  A:00 X:FF Y:00 P:26 SP:FF PPU:190,139 CYC:15870
C656  29 80     AND #$80                        A:10 X:FF Y:00 P:24 SP:FF PPU:202,139 CYC:15874
C658  F0 F9     BEQ $C653                       A:00 X:FF Y:00 P:26 SP:FF PPU:208,139 CYC:15876
C653  AD 02 20  LDA $2002 = FF                  A:00 X:FF Y:00 P:26 SP:FF PPU:217,139 CYC:15879
C656  29 80     AND #$80                        A:10 X:FF Y:00 P:24 SP:FF PPU:229,139 CYC:15883
C658  F0 F9     BEQ $C653                       A:00 X:FF Y:00 P:26 SP:FF PPU:235,139 CYC:15885
C653  AD 02 20  LDA $2002 = FF                  A:00 X:FF Y:00 P:26 SP:FF PPU:244,139 CYC:15888
C656  29 80     AND #$80                        A:10 X:FF Y:00 P:24 SP:FF PPU:256,139 CYC:15892
C658  F0 F9     BEQ $C653                       A:00 X:FF Y:00 P:26 SP:FF PPU:262,139 CYC:15894
C653  AD 02 20  LDA $2002 = FF                  A:00 X:FF Y:00 P:26 SP:FF PPU:271,139 CYC:15897
C656  29 80     AND #$80                        A:10 X:FF Y:00 P:24 SP:FF PPU:283,139 CYC:15901
C658  F0 F9     BEQ $C653                       A:00 X:FF Y:00 P:26 SP:FF PPU:289,139 CYC:15903
C653  AD 02 20  LDA $2002 = FF                  A:00 X:FF Y:00 P:26 SP:FF PPU:298,139 CYC:15906
C656  29 80     AND #$80                        A:10 X:FF Y:00 P:24 SP:FF PPU:310,139 CYC:15910
C658  F0 F9     BEQ $C653                       A:00 X:FF Y:00 P:26 SP:FF PPU:316,139 CYC:15912
C653  AD 02 20  LDA $2002 = FF                  A:00 X:FF Y:00 P:26 SP:FF PPU:325,139 CYC:15915
C656  29 80     AND #$80                        A:10 X:FF Y:00 P:24 SP:FF PPU:337,139 CYC:15919
C658  F0 F9     BEQ $C653                       A:00 X:FF Y:00 P:26 SP:FF PPU:  2,140 CYC:15921
C653  AD 02 20  LDA $2002 = FF                  A:00 X:FF Y:00 P:26 SP:FF PPU: 11,140 CYC:15924
C656  29 80     AND #$80                        A:10 X:FF Y:00 P:24 SP:FF PPU: 23,140 CYC:15928
C658  F0 F9     BEQ $C653                       A:00 X:FF Y:00 P:26 SP:FF PPU: 29,140 CYC:15930
C653  AD 02 20  LDA $2002 = FF                  A:00 X:FF Y:00 P:26 SP:FF PPU: 38,140 CYC:15933
C656  29 80     AND #$80                        A:10 X:FF Y:00 P:24 SP:FF PPU: 50,140 CYC:15937
C658  F0 F9     BEQ $C653                       A:00 X:FF Y:00 P:26 SP:FF PPU: 56,140 CYC:15939
C653  AD 02 20  LDA $2002 = FF                  A:00 X:FF Y:00 P:26 SP:FF PPU: 65,140 CYC:15942
C656  29 80     AND #$80                        A:10 X:FF Y:00 P:24 SP:FF PPU: 77,140 CYC:15946
C658  F0 F9     BEQ $C653                       A:00 X:FF Y:00 P:26 SP:FF PPU: 83,140 CYC:15948
C653  AD 02 20  LDA $2002 = FF                  A:00 X:FF Y:00 P:26 SP:FF PPU: 92,140 CYC:15951
C656  29 80     AND #$80                        A:10 X:FF Y:00 P:24 SP:FF PPU:104,140 CYC:15955
C658  F0 F9     BEQ $C653                       A:00 X:FF Y:00 P:26 SP:FF PPU:110,140 CYC:15957
C653  AD 02 20  LDA $2002 = FF                  A:00 X:FF Y:00 P:26 SP:FF PPU:119,140 CYC:15960
C656  29 80     AND #$80                        A:10 X:FF Y:00 P:24 SP:FF PPU:131,140 CYC:15964
C658  F0 F9     BEQ $C653                       A:00 X:FF Y:00 P:26 SP:FF PPU:137,140 CYC:15966
C653  AD 02 20  LDA $2002 = FF                  A:00 X:FF Y:00 P:26 SP:FF PPU:146,140 CYC:15969
C656  29 80     AND #$80                        A:10 X:FF Y:00 P:24 SP:FF PPU:158,140 CYC:15973
C658  F0 F9     BEQ $C653                       A:00 X:FF Y:00 P:26 SP:FF PPU:164,140 CYC:15975
C653  AD 02 20  LDA $2002 = FF                  A:00 X:FF Y:00 P:26 SP:FF PPU:173,140 CYC:15978
C656  29 80     AND #$80                        A:10 X:FF Y:00 P:24 SP:FF PPU:185,140 CYC:15982
C658  F0 F9     BEQ $C653                       A:00 X:FF Y:00 P:26 SP:FF PPU:191,140 CYC:15984
C653  AD 02 20  LDA $2002 = FF                  A:00 X:FF Y:00 P:26 SP:FF PPU:200,140 CYC:15987
C656  29 80     AND #$80                        A:10 X:FF Y:00 P:24 SP:FF PPU:212,140 CYC:15991
C658  F0 F9     BEQ $C653                       A:00 X:FF Y:00 P:26 SP:FF PPU:218,140 CYC:15993
C653  AD 02 20  LDA $2002 = FF                  A:00 X:FF Y:00 P:26 SP:FF PPU:227,140 CYC:15996
C656  29 80     AND #$80                        A:10 X:FF Y:00 P:24 SP:FF PPU:239,140 CYC:16000
C658  F0 F9     BEQ $C653                       A:00 X:FF Y:00 P:26 SP:FF PPU:245,140 CYC:16002
C653  AD 02 20  LDA $2002 = FF                  A:00 X:FF Y:00 P:26 SP:FF PPU:254,140 CYC:16005
C656  29 80     AND #$80                        A:10 X:FF Y:00 P:24 SP:FF PPU:266,140 CYC:16009
C658  F0 F9     BEQ $C653                       A:00 X:FF Y:00 P:26 SP:FF PPU:272,140 CYC:16011
C653  AD 02 20  LDA $2002 = FF                  A:00 X:FF Y:00 P:26 SP:FF PPU:281,140 CYC:16014
C656  29 80     AND #$80                        A:10 X:FF Y:00 P:24 SP:FF PPU:293,140 CYC:16018
C658  F0 F9     BEQ $C653                       A:00 X:FF Y:00 P:26 SP:FF PPU:299,140 CYC:16020
C653  AD 02 20  LDA $2002 = FF                  A:00 X:FF Y:00 P:26 SP:FF PPU:308,140 CYC:16023
C656  29 80     AND #$80                        A:10 X:FF Y:00 P:24 SP:FF PPU:320,140 CYC:16027
C658  F0 F9     BEQ $C653                       A:00 X:FF Y:00 P:26 SP:FF PPU:326,140 CYC:16029
C653  AD 02 20  LDA $2002 = FF                  A:00 X:FF Y:00 P:26 SP:FF PPU:335,140 CYC:16032
C656  29 80     AND #$80                        A:10 X:FF Y:00 P:24 SP:FF PPU:  6,141 CYC:16036
C658  F0 F9     BEQ $C653                       A:00 X:FF Y:00 P:26 SP:FF PPU: 12,141 CYC:16038
C653  AD 02 20  LDA $2002 = FF                  A:00 X:FF Y:00 P:26 SP:FF PPU: 21,141 CYC:16041
C656  29 80     AND #$80                        A:10 X:FF Y:00 P:24 SP:FF PPU: 33,141 CYC:16045
C658  F0 F9     BEQ $C653                       A:00 X:FF Y:00 P:26 SP:FF PPU: 39,141 CYC:16047
C653  AD 02 20  LDA $2002 = FF                  A:00 X:FF Y:00 P:26 SP:FF PPU: 48,141 CYC:16050
C656  29 80     AND #$80                        A:10 X:FF Y:00 P:24 SP:FF PPU: 60,141 CYC:16054
C658  F0 F9     BEQ $C653                       A:00 X:FF Y:00 P:26 SP:FF PPU: 66,141 CYC:16056
C653  AD 02 20  LDA $2002 = FF                  A:00 X:FF Y:00 P:26 SP:FF PPU: 75,141 CYC:16059
C656  29 80     AND #$80                        A:10 X:FF Y:00 P:24 SP:FF PPU: 87,141 CYC:16063
C658  F0 F9     BEQ $C653                       A:00 X:FF Y:00 P:26 SP:FF PPU: 93,141 CYC:16065
C653  AD 02 20  LDA $2002 = FF                  A:00 X:FF Y:00 P:26 SP:FF PPU:102,141 CYC:16068
C656  29 80     AND #$80                        A:10 X:FF Y:00 P:24 SP:FF PPU:114,141 CYC:16072
C658  F0 F9     BEQ $C653                       A:00 X:FF Y:00 P:26 SP:FF PPU:120,141 CYC:16074
C653  AD 02 20  LDA $2002 = FF                  A:00 X:FF Y:00 P:26 SP:FF PPU:129,141 CYC:16077
C656  29 80     AND #$80                        A:10 X:FF Y:00 P:24 SP:FF PPU:141,141 CYC:16081
C658  F0 F9     BEQ $C653                       A:00 X:FF Y:00 P:26 SP:FF PPU:147,141 CYC:16083
C653  AD 02 20  LDA $2002 = FF                  A:00 X:FF Y:00 P:26 SP:FF PPU:156,141 CYC:16086
C656  29 80     AND #$80                        A:10 X:FF Y:00 P:24 SP:FF PPU:168,141 CYC:16090
C658  F0 F9     BEQ $C653                       A:00 X:FF Y:00 P:26 SP:FF PPU:174,141 CYC:16092
C653  AD 02 20  LDA $2002 = FF                  A:00 X:FF Y:00 P:26 SP:FF PPU:183,141 CYC:16095
C656  29 80     AND #$80                        A:10 X:FF Y:00 P:24 SP:FF PPU:195,141 CYC:16099
C658  F0 F9     BEQ $C653                       A:00 X:FF Y:00 P:26 SP:FF PPU:201,141 CYC:16101
C653  AD 02 20  LDA $2002 = FF                  A:00 X:FF Y:00 P:26 SP:FF PPU:210,141 CYC:16104
C656  29 80     AND #$80                        A:10 X:FF Y:00 P:24 SP:FF PPU:222,141 CYC:16108
C658  F0 F9     BEQ $C653                       A:00 X:FF Y:00 P:26 SP:FF PPU:228,141 CYC:16110
C653  AD 02 20  LDA $2002 = FF                  A:00 X:FF Y:00 P:26 SP:FF PPU:237,141 CYC:16113
C656  29 80     AND #$80                        A:10 X:FF Y:00 P:24 SP:FF PPU:249,141 CYC:16117
C658  F0 F9     BEQ $C653                       A:00 X:FF Y:00 P:26 SP:FF PPU:255,141 CYC:16119
C653  AD 02 20  LDA $2002 = FF                  A:00 X:FF Y:00 P:26 SP:FF PPU:264,141 CYC:16122
C656  29 80     AND #$80                        A:10 X:FF Y:00 P:24 SP:FF PPU:276,141 CYC:16126
C658  F0 F9     BEQ $C653                       A:00 X:FF Y:00 P:26 SP:FF PPU:282,141 CYC:16128
C653  AD 02 20  LDA $2002 = FF                  A:00 X:FF Y:00 P:26 SP:FF PPU:291,141 CYC:16131
C656  29 80     AND #$80                        A:10 X:FF Y:00 P:24 SP:FF PPU:303,141 CYC:16135
C658  F0 F9     BEQ $C653                       A:00 X:FF Y:00 P:26 SP:FF PPU:309,141 CYC:16137
C653  AD 02 20  LDA $2002 = FF                  A:00 X:FF Y:00 P:26 SP:FF PPU:318,141 CYC:16140
C656  29 80     AND #$80                        A:10 X:FF Y:00 P:24 SP:FF PPU:330,141 CYC:16144
C658  F0 F9     BEQ $C653                       A:00 X:FF Y:00 P:26 SP:FF PPU:336,141 CYC:16146
C653  AD 02 20  LDA $2002 = FF                  A:00 X:FF Y:00 P:26 SP:FF PPU:  4,142 CYC:16149
C656  29 80     AND #$80                        A:10 X:FF Y:00 P:24 SP:FF PPU: 16,142 CYC:16153
C658  F0 F9     BEQ $C653                       A:00 X:FF Y:00 P:26 SP:FF PPU: 22,142 CYC:16155
C653  AD 02 20  LDA $2002 = FF                  A:00 X:FF Y:00 P:26 SP:FF PPU: 31,142 CYC:16158
C656  29 80     AND #$80                        A:10 X:FF Y:00 P:24 SP:FF PPU: 43,142 CYC:16162
C658  F0 F9     BEQ $C653                       A:00 X:FF Y:00 P:26 SP:FF PPU: 49,142 CYC:16164
C653  AD 02 20  LDA $2002 = FF                  A:00 X:FF Y:00 P:26 SP:FF PPU: 58,142 CYC:16167
C656  29 80     AND #$80                        A:10 X:FF Y:00 P:24 SP:FF PPU: 70,142 CYC:16171
C658  F0 F9     BEQ $C653                       A:00 X:FF Y:00 P:26 SP:FF PPU: 76,142 CYC:16173
C653  AD 02 20  LDA $2002 = FF                  A:00 X:FF Y:00 P:26 SP:FF PPU: 85,142 CYC:16176
C656  29 80     AND #$80                        A:10 X:FF Y:00 P:24 SP:FF PPU: 97,142 CYC:16180
C658  F0 F9     BEQ $C653                       A:00 X:FF Y:00 P:26 SP:FF PPU:103,142 CYC:16182
C653  AD 02 20  LDA $2002 = FF                  A:00 X:FF Y:00 P:26 SP:FF PPU:112,142 CYC:16185
C656  29 80     AND #$80                        A:10 X:FF Y:00 P:24 SP:FF PPU:124,142 CYC:16189
C658  F0 F9     BEQ $C653                       A:00 X:FF Y:00 P:26 SP:FF PPU:130,142 CYC:16191
C653  AD 02 20  LDA $2002 = FF                  A:00 X:FF Y:00 P:26 SP:FF PPU:139,142 CYC:16194
C656  29 80     AND #$80                        A:10 X:FF Y:00 P:24 SP:FF PPU:151,142 CYC:16198
C658  F0 F9     BEQ $C653                       A:00 X:FF Y:00 P:26 SP:FF PPU:157,142 CYC:16200
C653  AD 02 20  LDA $2002 = FF                  A:00 X:FF Y:00 P:26 SP:FF PPU:166,142 CYC:16203
C656  29 80     AND #$80                        A:10 X:FF Y:00 P:24 SP:FF PPU:178,142 CYC:16207
C658  F0 F9     BEQ $C653                       A:00 X:FF Y:00 P:26 SP:FF PPU:184,142 CYC:16209
C653  AD 02 20  LDA $2002 = FF                  A:00 X:FF Y:00 P:26 SP:FF PPU:193,142 CYC:16212
C656  29 80     AND #$80                        A:10 X:FF Y:00 P:24 SP:FF PPU:205,142 CYC:16216
C658  F0 F9     BEQ $C653                       A:00 X:FF Y:00 P:26 SP:FF PPU:211,142 CYC:16218
C653  AD 02 20  LDA $2002 = FF                  A:00 X:FF Y:00 P:26 SP:FF PPU:220,142 CYC:16221
C656  29 80     AND #$80                        A:10 X:FF Y:00 P:24 SP:FF PPU:232,142 CYC:16225
C658  F0 F9     BEQ $C653                       A:00 X:FF Y:00 P:26 SP:FF PPU:238,142 CYC:16227
C653  AD 02 20  LDA $2002 = FF                  A:00 X:FF Y:00 P:26 SP:FF PPU:247,142 CYC:16230
C656  29 80     AND #$80                        A:10 X:FF Y:00 P:24 SP:FF PPU:259,142 CYC:16234
C658  F0 F9     BEQ $C653                       A:00 X:FF Y:00 P:26 SP:FF PPU:265,142 CYC:16236
C653  AD 02 20  LDA $2002 = FF                  A:00 X:FF Y:00 P:26 SP:FF PPU:274,142 CYC:16239
C656  29 80     AND #$80                        A:10 X:FF Y:00 P:24 SP:FF PPU:286,142 CYC:16243
C658  F0 F9     BEQ $C653                       A:00 X:FF Y:00 P:26 SP:FF PPU:292,142 CYC:16245
C653  AD 02 20  LDA $2002 = FF                  A:00 X:FF Y:00 P:26 SP:FF PPU:301,142 CYC:16248
C656  29 80     AND #$80                        A:10 X:FF Y:00 P:24 SP:FF PPU:313,142 CYC:16252
C658  F0 F9     BEQ $C653                       A:00 X:FF Y:00 P:26 SP:FF PPU:319,142 CYC:16254
C653  AD 02 20  LDA $2002 = FF                  A:00 X:FF Y:00 P:26 SP:FF PPU:328,142 CYC:16257
C656  29 80     AND #$80                        A:10 X:FF Y:00 P:24 SP:FF PPU:340,142 CYC:16261
C658  F0 F9     BEQ $C653                       A:00 X:FF Y:00 P:26 SP:FF PPU:  5,143 CYC:16263
C653  AD 02 20  LDA $2002 = FF                  A:00 X:FF Y:00 P:26 SP:FF PPU: 14,143 CYC:16266
C656  29 80     AND #$80                        A:10 X:FF Y:00 P:24 SP:FF PPU: 26,143 CYC:16270
C658  F0 F9     BEQ $C653                       A:00 X:FF Y:00 P:26 SP:FF PPU: 32,143 CYC:16272
C653  AD 02 20  LDA $2002 = FF                  A:00 X:FF Y:00 P:26 SP:FF PPU: 41,143 CYC:16275
C656  29 80     AND #$80                        A:10 X:FF Y:00 P:24 SP:FF PPU: 53,143 CYC:16279
C658  F0 F9     BEQ $C653                       A:00 X:FF Y:00 P:26 SP:FF PPU: 59,143 CYC:16281
C653  AD 02 20  LDA $2002 = FF                  A:00 X:FF Y:00 P:26 SP:FF PPU: 68,143 CYC:16284
C656  29 80     AND #$80                        A:10 X:FF Y:00 P:24 SP:FF PPU: 80,143 CYC:16288
C658  F0 F9     BEQ $C653                       A:00 X:FF Y:00 P:26 SP:FF PPU: 86,143 CYC:16290
C653  AD 02 20  LDA $2002 = FF                  A:00 X:FF Y:00 P:26 SP:FF PPU: 95,143 CYC:16293
C656  29 80     AND #$80                        A:10 X:FF Y:00 P:24 SP:FF PPU:107,143 CYC:16297
C658  F0 F9     BEQ $C653                       A:00 X:FF Y:00 P:26 SP:FF PPU:113,143 CYC:16299
C653  AD 02 20  LDA $2002 = FF                  A:00 X:FF Y:00 P:26 SP:FF PPU:122,143 CYC:16302
C656  29 80     AND #$80                        A:10 X:FF Y:00 P:24 SP:FF PPU:134,143 CYC:16306
C658  F0 F9     BEQ $C653                       A:00 X:FF Y:00 P:26 SP:FF PPU:140,143 CYC:16308
C653  AD 02 20  LDA $2002 = FF                  A:00 X:FF Y:00 P:26 SP:FF PPU:149,143 CYC:16311
C656  29 80     AND #$80                        A:10 X:FF Y:00 P:24 SP:FF PPU:161,143 CYC:16315
C658  F0 F9     BEQ $C653                       A:00 X:FF Y:00 P:26 SP:FF PPU:167,143 CYC:16317
C653  AD 02 20  LDA $2002 = FF                  A:00 X:FF Y:00 P:26 SP:FF PPU:176,143 CYC:16320
C656  29 80     AND #$80                        A:10 X:FF Y:00 P:24 SP:FF PPU:188,143 CYC:16324
C658  F0 F9     BEQ $C653                       A:00 X:FF Y:00 P:26 SP:FF PPU:194,143 CYC:16326
C653  AD 02 20  LDA $2002 = FF                  A:00 X:FF Y:00 P:26 SP:FF PPU:203,143 CYC:16329
C656  29 80     AND #$80                        A:10 X:FF Y:00 P:24 SP:FF PPU:215,143 CYC:16333
C658  F0 F9     BEQ $C653                       A:00 X:FF Y:00 P:26 SP:FF PPU:221,143 CYC:16335
C653  AD 02 20  LDA $2002 = FF                  A:00 X:FF Y:00 P:26 SP:FF PPU:230,143 CYC:16338
C656  29 80     AND #$80                        A:10 X:FF Y:00 P:24 SP:FF PPU:242,143 CYC:16342
C658  F0 F9     BEQ $C653                       A:00 X:FF Y:00 P:26 SP:FF PPU:248,143 CYC:16344
C653  AD 02 20  LDA $2002 = FF                  A:00 X:FF Y:00 P:26 SP:FF PPU:257,143 CYC:16347
C656  29 80     AND #$80                        A:10 X:FF Y:00 P:24 SP:FF PPU:269,143 CYC:16351
C658  F0 F9     BEQ $C653                       A:00 X:FF Y:00 P:26 SP:FF PPU:275,143 CYC:16353
C653  AD 02 20  LDA $2002 = FF                  A:00 X:FF Y:00 P:26 SP:FF PPU:284,143 CYC:16356
C656  29 80     AND #$80                        A:10 X:FF Y:00 P:24 SP:FF PPU:296,143 CYC:16360
C658  F0 F9     BEQ $C653                       A:00 X:FF Y:00 P:26 SP:FF PPU:302,143 CYC:16362
C653  AD 02 20  LDA $2002 = FF                  A:00 X:FF Y:00 P:26 SP:FF PPU:311,143 CYC:16365
C656  29 80     AND #$80                        A:10 X:FF Y:00 P:24 SP:FF PPU:323,143 CYC:16369
C658  F0 F9     BEQ $C653                       A:00 X:FF Y:00 P:26 SP:FF PPU:329,143 CYC:16371
C653  AD 02 20  LDA $2002 = FF                  A:00 X:FF Y:00 P:26 SP:FF PPU:338,143 CYC:16374
C656  29 80     AND #$80                        A:10 X:FF Y:00 P:24 SP:FF PPU:  9,144 CYC:16378
C658  F0 F9     BEQ $C653                       A:00 X:FF Y:00 P:26 SP:FF PPU: 15,144 CYC:16380
C653  AD 02 20  LDA $2002 = FF                  A:00 X:FF Y:00 P:26 SP:FF PPU: 24,144 CYC:16383
C656  29 80     AND #$80                        A:10 X:FF Y:00 P:24 SP:FF PPU: 36,144 CYC:16387
C658  F0 F9     BEQ $C653                       A:00 X:FF Y:00 P:26 SP:FF PPU: 42,144 CYC:16389
C653  AD 02 20  LDA $2002 = FF                  A:00 X:FF Y:00 P:26 SP:FF PPU: 51,144 CYC:16392
C656  29 80     AND #$80                        A:10 X:FF Y:00 P:24 SP:FF PPU: 63,144 CYC:16396
C658  F0 F9     BEQ $C653                       A:00 X:FF Y:00 P:26 SP:FF PPU: 69,144 CYC:16398
C653  AD 02 20  LDA $2002 = FF                  A:00 X:FF Y:00 P:26 SP:FF PPU: 78,144 CYC:16401
C656  29 80     AND #$80                        A:10 X:FF Y:00 P:24 SP:FF PPU: 90,144 CYC:16405
C658  F0 F9     BEQ $C653                       A:00 X:FF Y:00 P:26 SP:FF PPU: 96,144 CYC:16407
C653  AD 02 20  LDA $2002 = FF                  A:00 X:FF Y:00 P:26 SP:FF PPU:105,144 CYC:16410
C656  29 80     AND #$80                        A:10 X:FF Y:00 P:24 SP:FF PPU:117,144 CYC:16414
C658  F0 F9     BEQ $C653                       A:00 X:FF Y:00 P:26 SP:FF PPU:123,144 CYC:16416
C653  AD 02 20  LDA $2002 = FF                  A:00 X:FF Y:00 P:26 SP:FF PPU:132,144 CYC:16419
C656  29 80     AND #$80                        A:10 X:FF Y:00 P:24 SP:FF PPU:144,144 CYC:16423
C658  F0 F9     BEQ $C653                       A:00 X:FF Y:00 P:26 SP:FF PPU:150,144 CYC:16425
C653  AD 02 20  LDA $2002 = FF                  A:00 X:FF Y:00 P:26 SP:FF PPU:159,144 CYC:16428
C656  29 80     AND #$80                        A:10 X:FF Y:00 P:24 SP:FF PPU:171,144 CYC:16432
C658  F0 F9     BEQ $C653                       A:00 X:FF Y:00 P:26 SP:FF PPU:177,144 CYC:16434
C653  AD 02 20  LDA $2002 = FF                  A:00 X:FF Y:00 P:26 SP:FF PPU:186,144 CYC:16437
C656  29 80     AND #$80                        A:10 X:FF Y:00 P:24 SP:FF PPU:198,144 CYC:16441
C658  F0 F9     BEQ $C653                       A:00 X:FF Y:00 P:26 SP:FF PPU:204,144 CYC:16443
C653  AD 02 20  LDA $2002 = FF                  A:00 X:FF Y:00 P:26 SP:FF PPU:213,144 CYC:16446
C656  29 80     AND #$80                        A:10 X:FF Y:00 P:24 SP:FF PPU:225,144 CYC:16450
C658  F0 F9     BEQ $C653                       A:00 X:FF Y:00 P:26 SP:FF PPU:231,144 CYC:16452
C653  AD 02 20  LDA $2002 = FF                  A:00 X:FF Y:00 P:26 SP:FF PPU:240,144 CYC:16455
C656  29 80     AND #$80                        A:10 X:FF Y:00 P:24 SP:FF PPU:252,144 CYC:16459
C658  F0 F9     BEQ $C653                       A:00 X:FF Y:00 P:26 SP:FF PPU:258,144 CYC:16461
C653  AD 02 20  LDA $2002 = FF                  A:00 X:FF Y:00 P:26 SP:FF PPU:267,144 CYC:16464
C656  29 80     AND #$80                        A:10 X:FF Y:00 P:24 SP:FF PPU:279,144 CYC:16468
C658  F0 F9     BEQ $C653                       A:00 X:FF Y:00 P:26 SP:FF PPU:285,144 CYC:16470
C653  AD 02 20  LDA $2002 = FF                  A:00 X:FF Y:00 P:26 SP:FF PPU:294,144 CYC:16473
C656  29 80     AND #$80                        A:10 X:FF Y:00 P:24 SP:FF PPU:306,144 CYC:16477
C658  F0 F9     BEQ $C653                       A:00 X:FF Y:00 P:26 SP:FF PPU:312,144 CYC:16479
C653  AD 02 20  LDA $2002 = FF                  A:00 X:FF Y:00 P:26 SP:FF PPU:321,144 CYC:16482
C656  29 80     AND #$80                        A:10 X:FF Y:00 P:24 SP:FF PPU:333,144 CYC:16486
C658  F0 F9     BEQ $C653                       A:00 X:FF Y:00 P:26 SP:FF PPU:339,144 CYC:16488
C653  AD 02 20  LDA $2002 = FF                  A:00 X:FF Y:00 P:26 SP:FF PPU:  7,145 CYC:16491
C656  29 80     AND #$80                        A:10 X:FF Y:00 P:24 SP:FF PPU: 19,145 CYC:16495
C658  F0 F9     BEQ $C653                       A:00 X:FF Y:00 P:26 SP:FF PPU: 25,145 CYC:16497
C653  AD 02 20  LDA $2002 = FF                  A:00 X:FF Y:00 P:26 SP:FF PPU: 34,145 CYC:16500
C656  29 80     AND #$80                        A:10 X:FF Y:00 P:24 SP:FF PPU: 46,145 CYC:16504
C658  F0 F9     BEQ $C653                       A:00 X:FF Y:00 P:26 SP:FF PPU: 52,145 CYC:16506
C653  AD 02 20  LDA $2002 = FF                  A:00 X:FF Y:00 P:26 SP:FF PPU: 61,145 CYC:16509
C656  29 80     AND #$80                        A:10 X:FF Y:00 P:24 SP:FF PPU: 73,145 CYC:16513
C658  F0 F9     BEQ $C653                       A:00 X:FF Y:00 P:26 SP:FF PPU: 79,145 CYC:16515
C653  AD 02 20  LDA $2002 = FF                  A:00 X:FF Y:00 P:26 SP:FF PPU: 88,145 CYC:16518
C656  29 80     AND #$80                        A:10 X:FF Y:00 P:24 SP:FF PPU:100,145 CYC:16522
C658  F0 F9     BEQ $C653                       A:00 X:FF Y:00 P:26 SP:FF PPU:106,145 CYC:16524
C653  AD 02 20  LDA $2002 = FF                  A:00 X:FF Y:00 P:26 SP:FF PPU:115,145 CYC:16527
C656  29 80     AND #$80                        A:10 X:FF Y:00 P:24 SP:FF PPU:127,145 CYC:16531
C658  F0 F9     BEQ $C653                       A:00 X:FF Y:00 P:26 SP:FF PPU:133,145 CYC:16533
C653  AD 02 20  LDA $2002 = FF                  A:00 X:FF Y:00 P:26 SP:FF PPU:142,145 CYC:16536
C656  29 80     AND #$80                        A:10 X:FF Y:00 P:24 SP:FF PPU:154,145 CYC:16540
C658  F0 F9     BEQ $C653                       A:00 X:FF Y:00 P:26 SP:FF PPU:160,145 CYC:16542
C653  AD 02 20  LDA $2002 = FF                  A:00 X:FF Y:00 P:26 SP:FF PPU:169,145 CYC:16545
C656  29 80     AND #$80                        A:10 X:FF Y:00 P:24 SP:FF PPU:181,145 CYC:16549
C658  F0 F9     BEQ $C653                       A:00 X:FF Y:00 P:26 SP:FF PPU:187,145 CYC:16551
C653  AD 02 20  LDA $2002 = FF                  A:00 X:FF Y:00 P:26 SP:FF PPU:196,145 CYC:16554
C656  29 80     AND #$80                        A:10 X:FF Y:00 P:24 SP:FF PPU:208,145 CYC:16558
C658  F0 F9     BEQ $C653                       A:00 X:FF Y:00 P:26 SP:FF PPU:214,145 CYC:16560
C653  AD 02 20  LDA $2002 = FF                  A:00 X:FF Y:00 P:26 SP:FF PPU:223,145 CYC:16563
C656  29 80     AND #$80                        A:10 X:FF Y:00 P:24 SP:FF PPU:235,145 CYC:16567
C658  F0 F9     BEQ $C653                       A:00 X:FF Y:00 P:26 SP:FF PPU:241,145 CYC:16569
C653  AD 02 20  LDA $2002 = FF                  A:00 X:FF Y:00 P:26 SP:FF PPU:250,145 CYC:16572
C656  29 80     AND #$80                        A:10 X:FF Y:00 P:24 SP:FF PPU:262,145 CYC:16576
C658  F0 F9     BEQ $C653                       A:00 X:FF Y:00 P:26 SP:FF PPU:268,145 CYC:16578
C653  AD 02 20  LDA $2002 = FF                  A:00 X:FF Y:00 P:26 SP:FF PPU:277,145 CYC:16581
C656  29 80     AND #$80                        A:10 X:FF Y:00 P:24 SP:FF PPU:289,145 CYC:16585
C658  F0 F9     BEQ $C653                       A:00 X:FF Y:00 P:26 SP:FF PPU:295,145 CYC:16587
C653  AD 02 20  LDA $2002 = FF                  A:00 X:FF Y:00 P:26 SP:FF PPU:304,145 CYC:16590
C656  29 80     AND #$80                        A:10 X:FF Y:00 P:24 SP:FF PPU:316,145 CYC:16594
C658  F0 F9     BEQ $C653                       A:00 X:FF Y:00 P:26 SP:FF PPU:322,145 CYC:16596
C653  AD 02 20  LDA $2002 = FF                  A:00 X:FF Y:00 P:26 SP:FF PPU:331,145 CYC:16599
C656  29 80     AND #$80                        A:10 X:FF Y:00 P:24 SP:FF PPU:  2,146 CYC:16603
C658  F0 F9     BEQ $C653                       A:00 X:FF Y:00 P:26 SP:FF PPU:  8,146 CYC:16605
C653  AD 02 20  LDA $2002 = FF                  A:00 X:FF Y:00 P:26 SP:FF PPU: 17,146 CYC:16608
C656  29 80     AND #$80                        A:10 X:FF Y:00 P:24 SP:FF PPU: 29,146 CYC:16612
C658  F0 F9     BEQ $C653                       A:00 X:FF Y:00 P:26 SP:FF PPU: 35,146 CYC:16614
C653  AD 02 20  LDA $2002 = FF                  A:00 X:FF Y:00 P:26 SP:FF PPU: 44,146 CYC:16617
C656  29 80     AND #$80                        A:10 X:FF Y:00 P:24 SP:FF PPU: 56,146 CYC:16621
C658  F0 F9     BEQ $C653                       A:00 X:FF Y:00 P:26 SP:FF PPU: 62,146 CYC:16623
C653  AD 02 20  LDA $2002 = FF                  A:00 X:FF Y:00 P:26 SP:FF PPU: 71,146 CYC:16626
C656  29 80     AND #$80                        A:10 X:FF Y:00 P:24 SP:FF PPU: 83,146 CYC:16630
C658  F0 F9     BEQ $C653                       A:00 X:FF Y:00 P:26 SP:FF PPU: 89,146 CYC:16632
C653  AD 02 20  LDA $2002 = FF                  A:00 X:FF Y:00 P:26 SP:FF PPU: 98,146 CYC:16635
C656  29 80     AND #$80                        A:10 X:FF Y:00 P:24 SP:FF PPU:110,146 CYC:16639
C658  F0 F9     BEQ $C653                       A:00 X:FF Y:00 P:26 SP:FF PPU:116,146 CYC:16641
C653  AD 02 20  LDA $2002 = FF                  A:00 X:FF Y:00 P:26 SP:FF PPU:125,146 CYC:16644
C656  29 80     AND #$80                        A:10 X:FF Y:00 P:24 SP:FF PPU:137,146 CYC:16648
C658  F0 F9     BEQ $C653                       A:00 X:FF Y:00 P:26 SP:FF PPU:143,146 CYC:16650
C653  AD 02 20  LDA $2002 = FF                  A:00 X:FF Y:00 P:26 SP:FF PPU:152,146 CYC:16653
C656  29 80     AND #$80                        A:10 X:FF Y:00 P:24 SP:FF PPU:164,146 CYC:16657
C658  F0 F9     BEQ $C653                       A:00 X:FF Y:00 P:26 SP:FF PPU:170,146 CYC:16659
C653  AD 02 20  LDA $2002 = FF                  A:00 X:FF Y:00 P:26 SP:FF PPU:179,146 CYC:16662
C656  29 80     AND #$80                        A:10 X:FF Y:00 P:24 SP:FF PPU:191,146 CYC:16666
C658  F0 F9     BEQ $C653                       A:00 X:FF Y:00 P:26 SP:FF PPU:197,146 CYC:16668
C653  AD 02 20  LDA $2002 = FF                  A:00 X:FF Y:00 P:26 SP:FF PPU:206,146 CYC:16671
C656  29 80     AND #$80                        A:10 X:FF Y:00 P:24 SP:FF PPU:218,146 CYC:16675
C658  F0 F9     BEQ $C653                       A:00 X:FF Y:00 P:26 SP:FF PPU:224,146 CYC:16677
C653  AD 02 20  LDA $2002 = FF                  A:00 X:FF Y:00 P:26 SP:FF PPU:233,146 CYC:16680
C656  29 80     AND #$80                        A:10 X:FF Y:00 P:24 SP:FF PPU:245,146 CYC:16684
C658  F0 F9     BEQ $C653                       A:00 X:FF Y:00 P:26 SP:FF PPU:251,146 CYC:16686
C653  AD 02 20  LDA $2002 = FF                  A:00 X:FF Y:00 P:26 SP:FF PPU:260,146 CYC:16689
C656  29 80     AND #$80                        A:10 X:FF Y:00 P:24 SP:FF PPU:272,146 CYC:16693
C658  F0 F9     BEQ $C653                       A:00 X:FF Y:00 P:26 SP:FF PPU:278,146 CYC:16695
C653  AD 02 20  LDA $2002 = FF                  A:00 X:FF Y:00 P:26 SP:FF PPU:287,146 CYC:16698
C656  29 80     AND #$80                        A:10 X:FF Y:00 P:24 SP:FF PPU:299,146 CYC:16702
C658  F0 F9     BEQ $C653                       A:00 X:FF Y:00 P:26 SP:FF PPU:305,146 CYC:16704
C653  AD 02 20  LDA $2002 = FF                  A:00 X:FF Y:00 P:26 SP:FF PPU:314,146 CYC:16707
C656  29 80     AND #$80                        A:10 X:FF Y:00 P:24 SP:FF PPU:326,146 CYC:16711
C658  F0 F9     BEQ $C653                       A:00 X:FF Y:00 P:26 SP:FF PPU:332,146 CYC:16713
C653  AD 02 20  LDA $2002 = FF                  A:00 X:FF Y:00 P:26 SP:FF PPU:  0,147 CYC:16716
C656  29 80     AND #$80                        A:10 X:FF Y:00 P:24 SP:FF PPU: 12,147 CYC:16720
C658  F0 F9     BEQ $C653                       A:00 X:FF Y:00 P:26 SP:FF PPU: 18,147 CYC:16722
C653  AD 02 20  LDA $2002 = FF                  A:00 X:FF Y:00 P:26 SP:FF PPU: 27,147 CYC:16725
C656  29 80     AND #$80                        A:10 X:FF Y:00 P:24 SP:FF PPU: 39,147 CYC:16729
C658  F0 F9     BEQ $C653                       A:00 X:FF Y:00 P:26 SP:FF PPU: 45,147 CYC:16731
C653  AD 02 20  LDA $2002 = FF                  A:00 X:FF Y:00 P:26 SP:FF PPU: 54,147 CYC:16734
C656  29 80     AND #$80                        A:10 X:FF Y:00 P:24 SP:FF PPU: 66,147 CYC:16738
C658  F0 F9     BEQ $C653                       A:00 X:FF Y:00 P:26 SP:FF PPU: 72,147 CYC:16740
C653  AD 02 20  LDA $2002 = FF                  A:00 X:FF Y:00 P:26 SP:FF PPU: 81,147 CYC:16743
C656  29 80     AND #$80                        A:10 X:FF Y:00 P:24 SP:FF PPU: 93,147 CYC:16747
C658  F0 F9     BEQ $C653                       A:00 X:FF Y:00 P:26 SP:FF PPU: 99,147 CYC:16749
C653  AD 02 20  LDA $2002 = FF                  A:00 X:FF Y:00 P:26 SP:FF PPU:108,147 CYC:16752
C656  29 80     AND #$80                        A:10 X:FF Y:00 P:24 SP:FF PPU:120,147 CYC:16756
C658  F0 F9     BEQ $C653                       A:00 X:FF Y:00 P:26 SP:FF PPU:126,147 CYC:16758
C653  AD 02 20  LDA $2002 = FF                  A:00 X:FF Y:00 P:26 SP:FF PPU:135,147 CYC:16761
C656  29 80     AND #$80                        A:10 X:FF Y:00 P:24 SP:FF PPU:147,147 CYC:16765
C658  F0 F9     BEQ $C653                       A:00 X:FF Y:00 P:26 SP:FF PPU:153,147 CYC:16767
C653  AD 02 20  LDA $2002 = FF                  A:00 X:FF Y:00 P:26 SP:FF PPU:162,147 CYC:16770
C656  29 80     AND #$80                        A:10 X:FF Y:00 P:24 SP:FF PPU:174,147 CYC:16774
C658  F0 F9     BEQ $C653                       A:00 X:FF Y:00 P:26 SP:FF PPU:180,147 CYC:16776
C653  AD 02 20  LDA $2002 = FF                  A:00 X:FF Y:00 P:26 SP:FF PPU:189,147 CYC:16779
C656  29 80     AND #$80                        A:10 X:FF Y:00 P:24 SP:FF PPU:201,147 CYC:16783
C658  F0 F9     BEQ $C653                       A:00 X:FF Y:00 P:26 SP:FF PPU:207,147 CYC:16785
C653  AD 02 20  LDA $2002 = FF                  A:00 X:FF Y:00 P:26 SP:FF PPU:216,147 CYC:16788
C656  29 80     AND #$80                        A:10 X:FF Y:00 P:24 SP:FF PPU:228,147 CYC:16792
C658  F0 F9     BEQ $C653                       A:00 X:FF Y:00 P:26 SP:FF PPU:234,147 CYC:16794
C653  AD 02 20  LDA $2002 = FF                  A:00 X:FF Y:00 P:26 SP:FF PPU:243,147 CYC:16797
C656  29 80     AND #$80                        A:10 X:FF Y:00 P:24 SP:FF PPU:255,147 CYC:16801
C658  F0 F9     BEQ $C653                       A:00 X:FF Y:00 P:26 SP:FF PPU:261,147 CYC:16803
C653  AD 02 20  LDA $2002 = FF                  A:00 X:FF Y:00 P:26 SP:FF PPU:270,147 CYC:16806
C656  29 80     AND #$80                        A:10 X:FF Y:00 P:24 SP:FF PPU:282,147 CYC:16810
C658  F0 F9     BEQ $C653                       A:00 X:FF Y:00 P:26 SP:FF PPU:288,147 CYC:16812
C653  AD 02 20  LDA $2002 = FF                  A:00 X:FF Y:00 P:26 SP:FF PPU:297,147 CYC:16815
C656  29 80     AND #$80                        A:10 X:FF Y:00 P:24 SP:FF PPU:309,147 CYC:16819
C658  F0 F9     BEQ $C653                       A:00 X:FF Y:00 P:26 SP:FF PPU:315,147 CYC:16821
C653  AD 02 20  LDA $2002 = FF                  A:00 X:FF Y:00 P:26 SP:FF PPU:324,147 CYC:16824
C656  29 80     AND #$80                        A:10 X:FF Y:00 P:24 SP:FF PPU:336,147 CYC:16828
C658  F0 F9     BEQ $C653                       A:00 X:FF Y:00 P:26 SP:FF PPU:  1,148 CYC:16830
C653  AD 02 20  LDA $2002 = FF                  A:00 X:FF Y:00 P:26 SP:FF PPU: 10,148 CYC:16833
C656  29 80     AND #$80                        A:10 X:FF Y:00 P:24 SP:FF PPU: 22,148 CYC:16837
C658  F0 F9     BEQ $C653                       A:00 X:FF Y:00 P:26 SP:FF PPU: 28,148 CYC:16839
C653  AD 02 20  LDA $2002 = FF                  A:00 X:FF Y:00 P:26 SP:FF PPU: 37,148 CYC:16842
C656  29 80     AND #$80                        A:10 X:FF Y:00 P:24 SP:FF PPU: 49,148 CYC:16846
C658  F0 F9     BEQ $C653                       A:00 X:FF Y:00 P:26 SP:FF PPU: 55,148 CYC:16848
C653  AD 02 20  LDA $2002 = FF                  A:00 X:FF Y:00 P:26 SP:FF PPU: 64,148 CYC:16851
C656  29 80     AND #$80                        A:10 X:FF Y:00 P:24 SP:FF PPU: 76,148 CYC:16855
C658  F0 F9     BEQ $C653                       A:00 X:FF Y:00 P:26 SP:FF PPU: 82,148 CYC:16857
C653  AD 02 20  LDA $2002 = FF                  A:00 X:FF Y:00 P:26 SP:FF PPU: 91,148 CYC:16860
C656  29 80     AND #$80                        A:10 X:FF Y:00 P:24 SP:FF PPU:103,148 CYC:16864
C658  F0 F9     BEQ $C653                       A:00 X:FF Y:00 P:26 SP:FF PPU:109,148 CYC:16866
C653  AD 02 20  LDA $2002 = FF                  A:00 X:FF Y:00 P:26 SP:FF PPU:118,148 CYC:16869
C656  29 80     AND #$80                        A:10 X:FF Y:00 P:24 SP:FF PPU:130,148 CYC:16873
C658  F0 F9     BEQ $C653                       A:00 X:FF Y:00 P:26 SP:FF PPU:136,148 CYC:16875
C653  AD 02 20  LDA $2002 = FF                  A:00 X:FF Y:00 P:26 SP:FF PPU:145,148 CYC:16878
C656  29 80     AND #$80                        A:10 X:FF Y:00 P:24 SP:FF PPU:157,148 CYC:16882
C658  F0 F9     BEQ $C653                       A:00 X:FF Y:00 P:26 SP:FF PPU:163,148 CYC:16884
C653  AD 02 20  LDA $2002 = FF                  A:00 X:FF Y:00 P:26 SP:FF PPU:172,148 CYC:16887
C656  29 80     AND #$80                        A:10 X:FF Y:00 P:24 SP:FF PPU:184,148 CYC:16891
C658  F0 F9     BEQ $C653                       A:00 X:FF Y:00 P:26 SP:FF PPU:190,148 CYC:16893
C653  AD 02 20  LDA $2002 = FF                  A:00 X:FF Y:00 P:26 SP:FF PPU:199,148 CYC:16896
C656  29 80     AND #$80                        A:10 X:FF Y:00 P:24 SP:FF PPU:211,148 CYC:16900
C658  F0 F9     BEQ $C653                       A:00 X:FF Y:00 P:26 SP:FF PPU:217,148 CYC:16902
C653  AD 02 20  LDA $2002 = FF                  A:00 X:FF Y:00 P:26 SP:FF PPU:226,148 CYC:16905
C656  29 80     AND #$80                        A:10 X:FF Y:00 P:24 SP:FF PPU:238,148 CYC:16909
C658  F0 F9     BEQ $C653                       A:00 X:FF Y:00 P:26 SP:FF PPU:244,148 CYC:16911
C653  AD 02 20  LDA $2002 = FF                  A:00 X:FF Y:00 P:26 SP:FF PPU:253,148 CYC:16914
C656  29 80     AND #$80                        A:10 X:FF Y:00 P:24 SP:FF PPU:265,148 CYC:16918
C658  F0 F9     BEQ $C653                       A:00 X:FF Y:00 P:26 SP:FF PPU:271,148 CYC:16920
C653  AD 02 20  LDA $2002 = FF                  A:00 X:FF Y:00 P:26 SP:FF PPU:280,148 CYC:16923
C656  29 80     AND #$80                        A:10 X:FF Y:00 P:24 SP:FF PPU:292,148 CYC:16927
C658  F0 F9     BEQ $C653                       A:00 X:FF Y:00 P:26 SP:FF PPU:298,148 CYC:16929
C653  AD 02 20  LDA $2002 = FF                  A:00 X:FF Y:00 P:26 SP:FF PPU:307,148 CYC:16932
C656  29 80     AND #$80                        A:10 X:FF Y:00 P:24 SP:FF PPU:319,148 CYC:16936
C658  F0 F9     BEQ $C653                       A:00 X:FF Y:00 P:26 SP:FF PPU:325,148 CYC:16938
C653  AD 02 20  LDA $2002 = FF                  A:00 X:FF Y:00 P:26 SP:FF PPU:334,148 CYC:16941
C656  29 80     AND #$80                        A:10 X:FF Y:00 P:24 SP:FF PPU:  5,149 CYC:16945
C658  F0 F9     BEQ $C653                       A:00 X:FF Y:00 P:26 SP:FF PPU: 11,149 CYC:16947
C653  AD 02 20  LDA $2002 = FF                  A:00 X:FF Y:00 P:26 SP:FF PPU: 20,149 CYC:16950
C656  29 80     AND #$80                        A:10 X:FF Y:00 P:24 SP:FF PPU: 32,149 CYC:16954
C658  F0 F9     BEQ $C653                       A:00 X:FF Y:00 P:26 SP:FF PPU: 38,149 CYC:16956
C653  AD 02 20  LDA $2002 = FF                  A:00 X:FF Y:00 P:26 SP:FF PPU: 47,149 CYC:16959
C656  29 80     AND #$80                        A:10 X:FF Y:00 P:24 SP:FF PPU: 59,149 CYC:16963
C658  F0 F9     BEQ $C653                       A:00 X:FF Y:00 P:26 SP:FF PPU: 65,149 CYC:16965
C653  AD 02 20  LDA $2002 = FF                  A:00 X:FF Y:00 P:26 SP:FF PPU: 74,149 CYC:16968
C656  29 80     AND #$80                        A:10 X:FF Y:00 P:24 SP:FF PPU: 86,149 CYC:16972
C658  F0 F9     BEQ $C653                       A:00 X:FF Y:00 P:26 SP:FF PPU: 92,149 CYC:16974
C653  AD 02 20  LDA $2002 = FF                  A:00 X:FF Y:00 P:26 SP:FF PPU:101,149 CYC:16977
C656  29 80     AND #$80                        A:10 X:FF Y:00 P:24 SP:FF PPU:113,149 CYC:16981
C658  F0 F9     BEQ $C653                       A:00 X:FF Y:00 P:26 SP:FF PPU:119,149 CYC:16983
C653  AD 02 20  LDA $2002 = FF                  A:00 X:FF Y:00 P:26 SP:FF PPU:128,149 CYC:16986
C656  29 80     AND #$80                        A:10 X:FF Y:00 P:24 SP:FF PPU:140,149 CYC:16990
C658  F0 F9     BEQ $C653                       A:00 X:FF Y:00 P:26 SP:FF PPU:146,149 CYC:16992
C653  AD 02 20  LDA $2002 = FF                  A:00 X:FF Y:00 P:26 SP:FF PPU:155,149 CYC:16995
C656  29 80     AND #$80                        A:10 X:FF Y:00 P:24 SP:FF PPU:167,149 CYC:16999
C658  F0 F9     BEQ $C653                       A:00 X:FF Y:00 P:26 SP:FF PPU:173,149 CYC:17001
C653  AD 02 20  LDA $2002 = FF                  A:00 X:FF Y:00 P:26 SP:FF PPU:182,149 CYC:17004
C656  29 80     AND #$80                        A:10 X:FF Y:00 P:24 SP:FF PPU:194,149 CYC:17008
C658  F0 F9     BEQ $C653                       A:00 X:FF Y:00 P:26 SP:FF PPU:200,149 CYC:17010
C653  AD 02 20  LDA $2002 = FF                  A:00 X:FF Y:00 P:26 SP:FF PPU:209,149 CYC:17013
C656  29 80     AND #$80                        A:10 X:FF Y:00 P:24 SP:FF PPU:221,149 CYC:17017
C658  F0 F9     BEQ $C653                       A:00 X:FF Y:00 P:26 SP:FF PPU:227,149 CYC:17019
C653  AD 02 20  LDA $2002 = FF                  A:00 X:FF Y:00 P:26 SP:FF PPU:236,149 CYC:17022
C656  29 80     AND #$80                        A:10 X:FF Y:00 P:24 SP:FF PPU:248,149 CYC:17026
C658  F0 F9     BEQ $C653                       A:00 X:FF Y:00 P:26 SP:FF PPU:254,149 CYC:17028
C653  AD 02 20  LDA $2002 = FF                  A:00 X:FF Y:00 P:26 SP:FF PPU:263,149 CYC:17031
C656  29 80     AND #$80                        A:10 X:FF Y:00 P:24 SP:FF PPU:275,149 CYC:17035
C658  F0 F9     BEQ $C653                       A:00 X:FF Y:00 P:26 SP:FF PPU:281,149 CYC:17037
C653  AD 02 20  LDA $2002 = FF                  A:00 X:FF Y:00 P:26 SP:FF PPU:290,149 CYC:17040
C656  29 80     AND #$80                        A:10 X:FF Y:00 P:24 SP:FF PPU:302,149 CYC:17044
C658  F0 F9     BEQ $C653                       A:00 X:FF Y:00 P:26 SP:FF PPU:308,149 CYC:17046
C653  AD 02 20  LDA $2002 = FF                  A:00 X:FF Y:00 P:26 SP:FF PPU:317,149 CYC:17049
C656  29 80     AND #$80                        A:10 X:FF Y:00 P:24 SP:FF PPU:329,149 CYC:17053
C658  F0 F9     BEQ $C653                       A:00 X:FF Y:00 P:26 SP:FF PPU:335,149 CYC:17055
C653  AD 02 20  LDA $2002 = FF                  A:00 X:FF Y:00 P:26 SP:FF PPU:  3,150 CYC:17058
C656  29 80     AND #$80                        A:10 X:FF Y:00 P:24 SP:FF PPU: 15,150 CYC:17062
C658  F0 F9     BEQ $C653                       A:00 X:FF Y:00 P:26 SP:FF PPU: 21,150 CYC:17064
C653  AD 02 20  LDA $2002 = FF                  A:00 X:FF Y:00 P:26 SP:FF PPU: 30,150 CYC:17067
C656  29 80     AND #$80                        A:10 X:FF Y:00 P:24 SP:FF PPU: 42,150 CYC:17071
C658  F0 F9     BEQ $C653                       A:00 X:FF Y:00 P:26 SP:FF PPU: 48,150 CYC:17073
C653  AD 02 20  LDA $2002 = FF                  A:00 X:FF Y:00 P:26 SP:FF PPU: 57,150 CYC:17076
C656  29 80     AND #$80                        A:10 X:FF Y:00 P:24 SP:FF PPU: 69,150 CYC:17080
C658  F0 F9     BEQ $C653                       A:00 X:FF Y:00 P:26 SP:FF PPU: 75,150 CYC:17082
C653  AD 02 20  LDA $2002 = FF                  A:00 X:FF Y:00 P:26 SP:FF PPU: 84,150 CYC:17085
C656  29 80     AND #$80                        A:10 X:FF Y:00 P:24 SP:FF PPU: 96,150 CYC:17089
C658  F0 F9     BEQ $C653                       A:00 X:FF Y:00 P:26 SP:FF PPU:102,150 CYC:17091
C653  AD 02 20  LDA $2002 = FF                  A:00 X:FF Y:00 P:26 SP:FF PPU:111,150 CYC:17094
C656  29 80     AND #$80                        A:10 X:FF Y:00 P:24 SP:FF PPU:123,150 CYC:17098
C658  F0 F9     BEQ $C653                       A:00 X:FF Y:00 P:26 SP:FF PPU:129,150 CYC:17100
C653  AD 02 20  LDA $2002 = FF                  A:00 X:FF Y:00 P:26 SP:FF PPU:138,150 CYC:17103
C656  29 80     AND #$80                        A:10 X:FF Y:00 P:24 SP:FF PPU:150,150 CYC:17107
C658  F0 F9     BEQ $C653                       A:00 X:FF Y:00 P:26 SP:FF PPU:156,150 CYC:17109
C653  AD 02 20  LDA $2002 = FF                  A:00 X:FF Y:00 P:26 SP:FF PPU:165,150 CYC:17112
C656  29 80     AND #$80                        A:10 X:FF Y:00 P:24 SP:FF PPU:177,150 CYC:17116
C658  F0 F9     BEQ $C653                       A:00 X:FF Y:00 P:26 SP:FF PPU:183,150 CYC:17118
C653  AD 02 20  LDA $2002 = FF                  A:00 X:FF Y:00 P:26 SP:FF PPU:192,150 CYC:17121
C656  29 80     AND #$80                        A:10 X:FF Y:00 P:24 SP:FF PPU:204,150 CYC:17125
C658  F0 F9     BEQ $C653                       A:00 X:FF Y:00 P:26 SP:FF PPU:210,150 CYC:17127
C653  AD 02 20  LDA $2002 = FF                  A:00 X:FF Y:00 P:26 SP:FF PPU:219,150 CYC:17130
C656  29 80     AND #$80                        A:10 X:FF Y:00 P:24 SP:FF PPU:231,150 CYC:17134
C658  F0 F9     BEQ $C653                       A:00 X:FF Y:00 P:26 SP:FF PPU:237,150 CYC:17136
C653  AD 02 20  LDA $2002 = FF                  A:00 X:FF Y:00 P:26 SP:FF PPU:246,150 CYC:17139
C656  29 80     AND #$80                        A:10 X:FF Y:00 P:24 SP:FF PPU:258,150 CYC:17143
C658  F0 F9     BEQ $C653                       A:00 X:FF Y:00 P:26 SP:FF PPU:264,150 CYC:17145
C653  AD 02 20  LDA $2002 = FF                  A:00 X:FF Y:00 P:26 SP:FF PPU:273,150 CYC:17148
C656  29 80     AND #$80                        A:10 X:FF Y:00 P:24 SP:FF PPU:285,150 CYC:17152
C658  F0 F9     BEQ $C653                       A:00 X:FF Y:00 P:26 SP:FF PPU:291,150 CYC:17154
C653  AD 02 20  LDA $2002 = FF                  A:00 X:FF Y:00 P:26 SP:FF PPU:300,150 CYC:17157
C656  29 80     AND #$80                        A:10 X:FF Y:00 P:24 SP:FF PPU:312,150 CYC:17161
C658  F0 F9     BEQ $C653                       A:00 X:FF Y:00 P:26 SP:FF PPU:318,150 CYC:17163
C653  AD 02 20  LDA $2002 = FF                  A:00 X:FF Y:00 P:26 SP:FF PPU:327,150 CYC:17166
C656  29 80     AND #$80                        A:10 X:FF Y:00 P:24 SP:FF PPU:339,150 CYC:17170
C658  F0 F9     BEQ $C653                       A:00 X:FF Y:00 P:26 SP:FF PPU:  4,151 CYC:17172
C653  AD 02 20  LDA $2002 = FF                  A:00 X:FF Y:00 P:26 SP:FF PPU: 13,151 CYC:17175
C656  29 80     AND #$80                        A:10 X:FF Y:00 P:24 SP:FF PPU: 25,151 CYC:17179
C658  F0 F9     BEQ $C653                       A:00 X:FF Y:00 P:26 SP:FF PPU: 31,151 CYC:17181
C653  AD 02 20  LDA $2002 = FF                  A:00 X:FF Y:00 P:26 SP:FF PPU: 40,151 CYC:17184
C656  29 80     AND #$80                        A:10 X:FF Y:00 P:24 SP:FF PPU: 52,151 CYC:17188
C658  F0 F9     BEQ $C653                       A:00 X:FF Y:00 P:26 SP:FF PPU: 58,151 CYC:17190
C653  AD 02 20  LDA $2002 = FF                  A:00 X:FF Y:00 P:26 SP:FF PPU: 67,151 CYC:17193
C656  29 80     AND #$80                        A:10 X:FF Y:00 P:24 SP:FF PPU: 79,151 CYC:17197
C658  F0 F9     BEQ $C653                       A:00 X:FF Y:00 P:26 SP:FF PPU: 85,151 CYC:17199
C653  AD 02 20  LDA $2002 = FF                  A:00 X:FF Y:00 P:26 SP:FF PPU: 94,151 CYC:17202
C656  29 80     AND #$80                        A:10 X:FF Y:00 P:24 SP:FF PPU:106,151 CYC:17206
C658  F0 F9     BEQ $C653                       A:00 X:FF Y:00 P:26 SP:FF PPU:112,151 CYC:17208
C653  AD 02 20  LDA $2002 = FF                  A:00 X:FF Y:00 P:26 SP:FF PPU:121,151 CYC:17211
C656  29 80     AND #$80                        A:10 X:FF Y:00 P:24 SP:FF PPU:133,151 CYC:17215
C658  F0 F9     BEQ $C653                       A:00 X:FF Y:00 P:26 SP:FF PPU:139,151 CYC:17217
C653  AD 02 20  LDA $2002 = FF                  A:00 X:FF Y:00 P:26 SP:FF PPU:148,151 CYC:17220
C656  29 80     AND #$80                        A:10 X:FF Y:00 P:24 SP:FF PPU:160,151 CYC:17224
C658  F0 F9     BEQ $C653                       A:00 X:FF Y:00 P:26 SP:FF PPU:166,151 CYC:17226
C653  AD 02 20  LDA $2002 = FF                  A:00 X:FF Y:00 P:26 SP:FF PPU:175,151 CYC:17229
C656  29 80     AND #$80                        A:10 X:FF Y:00 P:24 SP:FF PPU:187,151 CYC:17233
C658  F0 F9     BEQ $C653                       A:00 X:FF Y:00 P:26 SP:FF PPU:193,151 CYC:17235
C653  AD 02 20  LDA $2002 = FF                  A:00 X:FF Y:00 P:26 SP:FF PPU:202,151 CYC:17238
C656  29 80     AND #$80                        A:10 X:FF Y:00 P:24 SP:FF PPU:214,151 CYC:17242
C658  F0 F9     BEQ $C653                       A:00 X:FF Y:00 P:26 SP:FF PPU:220,151 CYC:17244
C653  AD 02 20  LDA $2002 = FF                  A:00 X:FF Y:00 P:26 SP:FF PPU:229,151 CYC:17247
C656  29 80     AND #$80                        A:10 X:FF Y:00 P:24 SP:FF PPU:241,151 CYC:17251
C658  F0 F9     BEQ $C653                       A:00 X:FF Y:00 P:26 SP:FF PPU:247,151 CYC:17253
C653  AD 02 20  LDA $2002 = FF                  A:00 X:FF Y:00 P:26 SP:FF PPU:256,151 CYC:17256
C656  29 80     AND #$80                        A:10 X:FF Y:00 P:24 SP:FF PPU:268,151 CYC:17260
C658  F0 F9     BEQ $C653                       A:00 X:FF Y:00 P:26 SP:FF PPU:274,151 CYC:17262
C653  AD 02 20  LDA $2002 = FF                  A:00 X:FF Y:00 P:26 SP:FF PPU:283,151 CYC:17265
C656  29 80     AND #$80                        A:10 X:FF Y:00 P:24 SP:FF PPU:295,151 CYC:17269
C658  F0 F9     BEQ $C653                       A:00 X:FF Y:00 P:26 SP:FF PPU:301,151 CYC:17271
C653  AD 02 20  LDA $2002 = FF                  A:00 X:FF Y:00 P:26 SP:FF PPU:310,151 CYC:17274
C656  29 80     AND #$80                        A:10 X:FF Y:00 P:24 SP:FF PPU:322,151 CYC:17278
C658  F0 F9     BEQ $C653                       A:00 X:FF Y:00 P:26 SP:FF PPU:328,151 CYC:17280
C653  AD 02 20  LDA $2002 = FF                  A:00 X:FF Y:00 P:26 SP:FF PPU:337,151 CYC:17283
C656  29 80     AND #$80                        A:10 X:FF Y:00 P:24 SP:FF PPU:  8,152 CYC:17287
C658  F0 F9     BEQ $C653                       A:00 X:FF Y:00 P:26 SP:FF PPU: 14,152 CYC:17289
C653  AD 02 20  LDA $2002 = FF                  A:00 X:FF Y:00 P:26 SP:FF PPU: 23,152 CYC:17292
C656  29 80     AND #$80                        A:10 X:FF Y:00 P:24 SP:FF PPU: 35,152 CYC:17296
C658  F0 F9     BEQ $C653                       A:00 X:FF Y:00 P:26 SP:FF PPU: 41,152 CYC:17298
C653  AD 02 20  LDA $2002 = FF                  A:00 X:FF Y:00 P:26 SP:FF PPU: 50,152 CYC:17301
C656  29 80     AND #$80                        A:10 X:FF Y:00 P:24 SP:FF PPU: 62,152 CYC:17305
C658  F0 F9     BEQ $C653                       A:00 X:FF Y:00 P:26 SP:FF PPU: 68,152 CYC:17307
C653  AD 02 20  LDA $2002 = FF                  A:00 X:FF Y:00 P:26 SP:FF PPU: 77,152 CYC:17310
C656  29 80     AND #$80                        A:10 X:FF Y:00 P:24 SP:FF PPU: 89,152 CYC:17314
C658  F0 F9     BEQ $C653                       A:00 X:FF Y:00 P:26 SP:FF PPU: 95,152 CYC:17316
C653  AD 02 20  LDA $2002 = FF                  A:00 X:FF Y:00 P:26 SP:FF PPU:104,152 CYC:17319
C656  29 80     AND #$80                        A:10 X:FF Y:00 P:24 SP:FF PPU:116,152 CYC:17323
C658  F0 F9     BEQ $C653                       A:00 X:FF Y:00 P:26 SP:FF PPU:122,152 CYC:17325
C653  AD 02 20  LDA $2002 = FF                  A:00 X:FF Y:00 P:26 SP:FF PPU:131,152 CYC:17328
C656  29 80     AND #$80                        A:10 X:FF Y:00 P:24 SP:FF PPU:143,152 CYC:17332
C658  F0 F9     BEQ $C653                       A:00 X:FF Y:00 P:26 SP:FF PPU:149,152 CYC:17334
C653  AD 02 20  LDA $2002 = FF                  A:00 X:FF Y:00 P:26 SP:FF PPU:158,152 CYC:17337
C656  29 80     AND #$80                        A:10 X:FF Y:00 P:24 SP:FF PPU:170,152 CYC:17341
C658  F0 F9     BEQ $C653                       A:00 X:FF Y:00 P:26 SP:FF PPU:176,152 CYC:17343
C653  AD 02 20  LDA $2002 = FF                  A:00 X:FF Y:00 P:26 SP:FF PPU:185,152 CYC:17346
C656  29 80     AND #$80                        A:10 X:FF Y:00 P:24 SP:FF PPU:197,152 CYC:17350
C658  F0 F9     BEQ $C653                       A:00 X:FF Y:00 P:26 SP:FF PPU:203,152 CYC:17352
C653  AD 02 20  LDA $2002 = FF                  A:00 X:FF Y:00 P:26 SP:FF PPU:212,152 CYC:17355
C656  29 80     AND #$80                        A:10 X:FF Y:00 P:24 SP:FF PPU:224,152 CYC:17359
C658  F0 F9     BEQ $C653                       A:00 X:FF Y:00 P:26 SP:FF PPU:230,152 CYC:17361
C653  AD 02 20  LDA $2002 = FF                  A:00 X:FF Y:00 P:26 SP:FF PPU:239,152 CYC:17364
C656  29 80     AND #$80                        A:10 X:FF Y:00 P:24 SP:FF PPU:251,152 CYC:17368
C658  F0 F9     BEQ $C653                       A:00 X:FF Y:00 P:26 SP:FF PPU:257,152 CYC:17370
C653  AD 02 20  LDA $2002 = FF                  A:00 X:FF Y:00 P:26 SP:FF PPU:266,152 CYC:17373
C656  29 80     AND #$80                        A:10 X:FF Y:00 P:24 SP:FF PPU:278,152 CYC:17377
C658  F0 F9     BEQ $C653                       A:00 X:FF Y:00 P:26 SP:FF PPU:284,152 CYC:17379
C653  AD 02 20  LDA $2002 = FF                  A:00 X:FF Y:00 P:26 SP:FF PPU:293,152 CYC:17382
C656  29 80     AND #$80                        A:10 X:FF Y:00 P:24 SP:FF PPU:305,152 CYC:17386
C658  F0 F9     BEQ $C653                       A:00 X:FF Y:00 P:26 SP:FF PPU:311,152 CYC:17388
C653  AD 02 20  LDA $2002 = FF                  A:00 X:FF Y:00 P:26 SP:FF PPU:320,152 CYC:17391
C656  29 80     AND #$80                        A:10 X:FF Y:00 P:24 SP:FF PPU:332,152 CYC:17395
C658  F0 F9     BEQ $C653                       A:00 X:FF Y:00 P:26 SP:FF PPU:338,152 CYC:17397
C653  AD 02 20  LDA $2002 = FF                  A:00 X:FF Y:00 P:26 SP:FF PPU:  6,153 CYC:17400
C656  29 80     AND #$80                        A:10 X:FF Y:00 P:24 SP:FF PPU: 18,153 CYC:17404
C658  F0 F9     BEQ $C653                       A:00 X:FF Y:00 P:26 SP:FF PPU: 24,153 CYC:17406
C653  AD 02 20  LDA $2002 = FF                  A:00 X:FF Y:00 P:26 SP:FF PPU: 33,153 CYC:17409
C656  29 80     AND #$80                        A:10 X:FF Y:00 P:24 SP:FF PPU: 45,153 CYC:17413
C658  F0 F9     BEQ $C653                       A:00 X:FF Y:00 P:26 SP:FF PPU: 51,153 CYC:17415
C653  AD 02 20  LDA $2002 = FF                  A:00 X:FF Y:00 P:26 SP:FF PPU: 60,153 CYC:17418
C656  29 80     AND #$80                        A:10 X:FF Y:00 P:24 SP:FF PPU: 72,153 CYC:17422
C658  F0 F9     BEQ $C653                       A:00 X:FF Y:00 P:26 SP:FF PPU: 78,153 CYC:17424
C653  AD 02 20  LDA $2002 = FF                  A:00 X:FF Y:00 P:26 SP:FF PPU: 87,153 CYC:17427
C656  29 80     AND #$80                        A:10 X:FF Y:00 P:24 SP:FF PPU: 99,153 CYC:17431
C658  F0 F9     BEQ $C653                       A:00 X:FF Y:00 P:26 SP:FF PPU:105,153 CYC:17433
C653  AD 02 20  LDA $2002 = FF                  A:00 X:FF Y:00 P:26 SP:FF PPU:114,153 CYC:17436
C656  29 80     AND #$80                        A:10 X:FF Y:00 P:24 SP:FF PPU:126,153 CYC:17440
C658  F0 F9     BEQ $C653                       A:00 X:FF Y:00 P:26 SP:FF PPU:132,153 CYC:17442
C653  AD 02 20  LDA $2002 = FF                  A:00 X:FF Y:00 P:26 SP:FF PPU:141,153 CYC:17445
C656  29 80     AND #$80                        A:10 X:FF Y:00 P:24 SP:FF PPU:153,153 CYC:17449
C658  F0 F9     BEQ $C653                       A:00 X:FF Y:00 P:26 SP:FF PPU:159,153 CYC:17451
C653  AD 02 20  LDA $2002 = FF                  A:00 X:FF Y:00 P:26 SP:FF PPU:168,153 CYC:17454
C656  29 80     AND #$80                        A:10 X:FF Y:00 P:24 SP:FF PPU:180,153 CYC:17458
C658  F0 F9     BEQ $C653                       A:00 X:FF Y:00 P:26 SP:FF PPU:186,153 CYC:17460
C653  AD 02 20  LDA $2002 = FF                  A:00 X:FF Y:00 P:26 SP:FF PPU:195,153 CYC:17463
C656  29 80     AND #$80                        A:10 X:FF Y:00 P:24 SP:FF PPU:207,153 CYC:17467
C658  F0 F9     BEQ $C653                       A:00 X:FF Y:00 P:26 SP:FF PPU:213,153 CYC:17469
C653  AD 02 20  LDA $2002 = FF                  A:00 X:FF Y:00 P:26 SP:FF PPU:222,153 CYC:17472
C656  29 80     AND #$80                        A:10 X:FF Y:00 P:24 SP:FF PPU:234,153 CYC:17476
C658  F0 F9     BEQ $C653                       A:00 X:FF Y:00 P:26 SP:FF PPU:240,153 CYC:17478
C653  AD 02 20  LDA $2002 = FF                  A:00 X:FF Y:00 P:26 SP:FF PPU:249,153 CYC:17481
C656  29 80     AND #$80                        A:10 X:FF Y:00 P:24 SP:FF PPU:261,153 CYC:17485
C658  F0 F9     BEQ $C653                       A:00 X:FF Y:00 P:26 SP:FF PPU:267,153 CYC:17487
C653  AD 02 20  LDA $2002 = FF                  A:00 X:FF Y:00 P:26 SP:FF PPU:276,153 CYC:17490
C656  29 80     AND #$80                        A:10 X:FF Y:00 P:24 SP:FF PPU:288,153 CYC:17494
C658  F0 F9     BEQ $C653                       A:00 X:FF Y:00 P:26 SP:FF PPU:294,153 CYC:17496
C653  AD 02 20  LDA $2002 = FF                  A:00 X:FF Y:00 P:26 SP:FF PPU:303,153 CYC:17499
C656  29 80     AND #$80                        A:10 X:FF Y:00 P:24 SP:FF PPU:315,153 CYC:17503
C658  F0 F9     BEQ $C653                       A:00 X:FF Y:00 P:26 SP:FF PPU:321,153 CYC:17505
C653  AD 02 20  LDA $2002 = FF                  A:00 X:FF Y:00 P:26 SP:FF PPU:330,153 CYC:17508
C656  29 80     AND #$80                        A:10 X:FF Y:00 P:24 SP:FF PPU:  1,154 CYC:17512
C658  F0 F9     BEQ $C653                       A:00 X:FF Y:00 P:26 SP:FF PPU:  7,154 CYC:17514
C653  AD 02 20  LDA $2002 = FF                  A:00 X:FF Y:00 P:26 SP:FF PPU: 16,154 CYC:17517
C656  29 80     AND #$80                        A:10 X:FF Y:00 P:24 SP:FF PPU: 28,154 CYC:17521
C658  F0 F9     BEQ $C653                       A:00 X:FF Y:00 P:26 SP:FF PPU: 34,154 CYC:17523
C653  AD 02 20  LDA $2002 = FF                  A:00 X:FF Y:00 P:26 SP:FF PPU: 43,154 CYC:17526
C656  29 80     AND #$80                        A:10 X:FF Y:00 P:24 SP:FF PPU: 55,154 CYC:17530
C658  F0 F9     BEQ $C653                       A:00 X:FF Y:00 P:26 SP:FF PPU: 61,154 CYC:17532
C653  AD 02 20  LDA $2002 = FF                  A:00 X:FF Y:00 P:26 SP:FF PPU: 70,154 CYC:17535
C656  29 80     AND #$80                        A:10 X:FF Y:00 P:24 SP:FF PPU: 82,154 CYC:17539
C658  F0 F9     BEQ $C653                       A:00 X:FF Y:00 P:26 SP:FF PPU: 88,154 CYC:17541
C653  AD 02 20  LDA $2002 = FF                  A:00 X:FF Y:00 P:26 SP:FF PPU: 97,154 CYC:17544
C656  29 80     AND #$80                        A:10 X:FF Y:00 P:24 SP:FF PPU:109,154 CYC:17548
C658  F0 F9     BEQ $C653                       A:00 X:FF Y:00 P:26 SP:FF PPU:115,154 CYC:17550
C653  AD 02 20  LDA $2002 = FF                  A:00 X:FF Y:00 P:26 SP:FF PPU:124,154 CYC:17553
C656  29 80     AND #$80                        A:10 X:FF Y:00 P:24 SP:FF PPU:136,154 CYC:17557
C658  F0 F9     BEQ $C653                       A:00 X:FF Y:00 P:26 SP:FF PPU:142,154 CYC:17559
C653  AD 02 20  LDA $2002 = FF                  A:00 X:FF Y:00 P:26 SP:FF PPU:151,154 CYC:17562
C656  29 80     AND #$80                        A:10 X:FF Y:00 P:24 SP:FF PPU:163,154 CYC:17566
C658  F0 F9     BEQ $C653                       A:00 X:FF Y:00 P:26 SP:FF PPU:169,154 CYC:17568
C653  AD 02 20  LDA $2002 = FF                  A:00 X:FF Y:00 P:26 SP:FF PPU:178,154 CYC:17571
C656  29 80     AND #$80                        A:10 X:FF Y:00 P:24 SP:FF PPU:190,154 CYC:17575
C658  F0 F9     BEQ $C653                       A:00 X:FF Y:00 P:26 SP:FF PPU:196,154 CYC:17577
C653  AD 02 20  LDA $2002 = FF                  A:00 X:FF Y:00 P:26 SP:FF PPU:205,154 CYC:17580
C656  29 80     AND #$80                        A:10 X:FF Y:00 P:24 SP:FF PPU:217,154 CYC:17584
C658  F0 F9     BEQ $C653                       A:00 X:FF Y:00 P:26 SP:FF PPU:223,154 CYC:17586
C653  AD 02 20  LDA $2002 = FF                  A:00 X:FF Y:00 P:26 SP:FF PPU:232,154 CYC:17589
C656  29 80     AND #$80                        A:10 X:FF Y:00 P:24 SP:FF PPU:244,154 CYC:17593
C658  F0 F9     BEQ $C653                       A:00 X:FF Y:00 P:26 SP:FF PPU:250,154 CYC:17595
C653  AD 02 20  LDA $2002 = FF                  A:00 X:FF Y:00 P:26 SP:FF PPU:259,154 CYC:17598
C656  29 80     AND #$80                        A:10 X:FF Y:00 P:24 SP:FF PPU:271,154 CYC:17602
C658  F0 F9     BEQ $C653                       A:00 X:FF Y:00 P:26 SP:FF PPU:277,154 CYC:17604
C653  AD 02 20  LDA $2002 = FF                  A:00 X:FF Y:00 P:26 SP:FF PPU:286,154 CYC:17607
C656  29 80     AND #$80                        A:10 X:FF Y:00 P:24 SP:FF PPU:298,154 CYC:17611
C658  F0 F9     BEQ $C653                       A:00 X:FF Y:00 P:26 SP:FF PPU:304,154 CYC:17613
C653  AD 02 20  LDA $2002 = FF                  A:00 X:FF Y:00 P:26 SP:FF PPU:313,154 CYC:17616
C656  29 80     AND #$80                        A:10 X:FF Y:00 P:24 SP:FF PPU:325,154 CYC:17620
C658  F0 F9     BEQ $C653                       A:00 X:FF Y:00 P:26 SP:FF PPU:331,154 CYC:17622
C653  AD 02 20  LDA $2002 = FF                  A:00 X:FF Y:00 P:26 SP:FF PPU:340,154 CYC:17625
C656  29 80     AND #$80                        A:10 X:FF Y:00 P:24 SP:FF PPU: 11,155 CYC:17629
C658  F0 F9     BEQ $C653                       A:00 X:FF Y:00 P:26 SP:FF PPU: 17,155 CYC:17631
C653  AD 02 20  LDA $2002 = FF                  A:00 X:FF Y:00 P:26 SP:FF PPU: 26,155 CYC:17634
C656  29 80     AND #$80                        A:10 X:FF Y:00 P:24 SP:FF PPU: 38,155 CYC:17638
C658  F0 F9     BEQ $C653                       A:00 X:FF Y:00 P:26 SP:FF PPU: 44,155 CYC:17640
C653  AD 02 20  LDA $2002 = FF                  A:00 X:FF Y:00 P:26 SP:FF PPU: 53,155 CYC:17643
C656  29 80     AND #$80                        A:10 X:FF Y:00 P:24 SP:FF PPU: 65,155 CYC:17647
C658  F0 F9     BEQ $C653                       A:00 X:FF Y:00 P:26 SP:FF PPU: 71,155 CYC:17649
C653  AD 02 20  LDA $2002 = FF                  A:00 X:FF Y:00 P:26 SP:FF PPU: 80,155 CYC:17652
C656  29 80     AND #$80                        A:10 X:FF Y:00 P:24 SP:FF PPU: 92,155 CYC:17656
C658  F0 F9     BEQ $C653                       A:00 X:FF Y:00 P:26 SP:FF PPU: 98,155 CYC:17658
C653  AD 02 20  LDA $2002 = FF                  A:00 X:FF Y:00 P:26 SP:FF PPU:107,155 CYC:17661
C656  29 80     AND #$80                        A:10 X:FF Y:00 P:24 SP:FF PPU:119,155 CYC:17665
C658  F0 F9     BEQ $C653                       A:00 X:FF Y:00 P:26 SP:FF PPU:125,155 CYC:17667
C653  AD 02 20  LDA $2002 = FF                  A:00 X:FF Y:00 P:26 SP:FF PPU:134,155 CYC:17670
C656  29 80     AND #$80                        A:10 X:FF Y:00 P:24 SP:FF PPU:146,155 CYC:17674
C658  F0 F9     BEQ $C653                       A:00 X:FF Y:00 P:26 SP:FF PPU:152,155 CYC:17676
C653  AD 02 20  LDA $2002 = FF                  A:00 X:FF Y:00 P:26 SP:FF PPU:161,155 CYC:17679
C656  29 80     AND #$80                        A:10 X:FF Y:00 P:24 SP:FF PPU:173,155 CYC:17683
C658  F0 F9     BEQ $C653                       A:00 X:FF Y:00 P:26 SP:FF PPU:179,155 CYC:17685
C653  AD 02 20  LDA $2002 = FF                  A:00 X:FF Y:00 P:26 SP:FF PPU:188,155 CYC:17688
C656  29 80     AND #$80                        A:10 X:FF Y:00 P:24 SP:FF PPU:200,155 CYC:17692
C658  F0 F9     BEQ $C653                       A:00 X:FF Y:00 P:26 SP:FF PPU:206,155 CYC:17694
C653  AD 02 20  LDA $2002 = FF                  A:00 X:FF Y:00 P:26 SP:FF PPU:215,155 CYC:17697
C656  29 80     AND #$80                        A:10 X:FF Y:00 P:24 SP:FF PPU:227,155 CYC:17701
C658  F0 F9     BEQ $C653                       A:00 X:FF Y:00 P:26 SP:FF PPU:233,155 CYC:17703
C653  AD 02 20  LDA $2002 = FF                  A:00 X:FF Y:00 P:26 SP:FF PPU:242,155 CYC:17706
C656  29 80     AND #$80                        A:10 X:FF Y:00 P:24 SP:FF PPU:254,155 CYC:17710
C658  F0 F9     BEQ $C653                       A:00 X:FF Y:00 P:26 SP:FF PPU:260,155 CYC:17712
C653  AD 02 20  LDA $2002 = FF                  A:00 X:FF Y:00 P:26 SP:FF PPU:269,155 CYC:17715
C656  29 80     AND #$80                        A:10 X:FF Y:00 P:24 SP:FF PPU:281,155 CYC:17719
C658  F0 F9     BEQ $C653                       A:00 X:FF Y:00 P:26 SP:FF PPU:287,155 CYC:17721
C653  AD 02 20  LDA $2002 = FF                  A:00 X:FF Y:00 P:26 SP:FF PPU:296,155 CYC:17724
C656  29 80     AND #$80                        A:10 X:FF Y:00 P:24 SP:FF PPU:308,155 CYC:17728
C658  F0 F9     BEQ $C653                       A:00 X:FF Y:00 P:26 SP:FF PPU:314,155 CYC:17730
C653  AD 02 20  LDA $2002 = FF                  A:00 X:FF Y:00 P:26 SP:FF PPU:323,155 CYC:17733
C656  29 80     AND #$80                        A:10 X:FF Y:00 P:24 SP:FF PPU:335,155 CYC:17737
C658  F0 F9     BEQ $C653                       A:00 X:FF Y:00 P:26 SP:FF PPU:  0,156 CYC:17739
C653  AD 02 20  LDA $2002 = FF                  A:00 X:FF Y:00 P:26 SP:FF PPU:  9,156 CYC:17742
C656  29 80     AND #$80                        A:10 X:FF Y:00 P:24 SP:FF PPU: 21,156 CYC:17746
C658  F0 F9     BEQ $C653                       A:00 X:FF Y:00 P:26 SP:FF PPU: 27,156 CYC:17748
C653  AD 02 20  LDA $2002 = FF                  A:00 X:FF Y:00 P:26 SP:FF PPU: 36,156 CYC:17751
C656  29 80     AND #$80                        A:10 X:FF Y:00 P:24 SP:FF PPU: 48,156 CYC:17755
C658  F0 F9     BEQ $C653                       A:00 X:FF Y:00 P:26 SP:FF PPU: 54,156 CYC:17757
C653  AD 02 20  LDA $2002 = FF                  A:00 X:FF Y:00 P:26 SP:FF PPU: 63,156 CYC:17760
C656  29 80     AND #$80                        A:10 X:FF Y:00 P:24 SP:FF PPU: 75,156 CYC:17764
C658  F0 F9     BEQ $C653                       A:00 X:FF Y:00 P:26 SP:FF PPU: 81,156 CYC:17766
C653  AD 02 20  LDA $2002 = FF                  A:00 X:FF Y:00 P:26 SP:FF PPU: 90,156 CYC:17769
C656  29 80     AND #$80                        A:10 X:FF Y:00 P:24 SP:FF PPU:102,156 CYC:17773
C658  F0 F9     BEQ $C653                       A:00 X:FF Y:00 P:26 SP:FF PPU:108,156 CYC:17775
C653  AD 02 20  LDA $2002 = FF                  A:00 X:FF Y:00 P:26 SP:FF PPU:117,156 CYC:17778
C656  29 80     AND #$80                        A:10 X:FF Y:00 P:24 SP:FF PPU:129,156 CYC:17782
C658  F0 F9     BEQ $C653                       A:00 X:FF Y:00 P:26 SP:FF PPU:135,156 CYC:17784
C653  AD 02 20  LDA $2002 = FF                  A:00 X:FF Y:00 P:26 SP:FF PPU:144,156 CYC:17787
C656  29 80     AND #$80                        A:10 X:FF Y:00 P:24 SP:FF PPU:156,156 CYC:17791
C658  F0 F9     BEQ $C653                       A:00 X:FF Y:00 P:26 SP:FF PPU:162,156 CYC:17793
C653  AD 02 20  LDA $2002 = FF                  A:00 X:FF Y:00 P:26 SP:FF PPU:171,156 CYC:17796
C656  29 80     AND #$80                        A:10 X:FF Y:00 P:24 SP:FF PPU:183,156 CYC:17800
C658  F0 F9     BEQ $C653                       A:00 X:FF Y:00 P:26 SP:FF PPU:189,156 CYC:17802
C653  AD 02 20  LDA $2002 = FF                  A:00 X:FF Y:00 P:26 SP:FF PPU:198,156 CYC:17805
C656  29 80     AND #$80                        A:10 X:FF Y:00 P:24 SP:FF PPU:210,156 CYC:17809
C658  F0 F9     BEQ $C653                       A:00 X:FF Y:00 P:26 SP:FF PPU:216,156 CYC:17811
C653  AD 02 20  LDA $2002 = FF                  A:00 X:FF Y:00 P:26 SP:FF PPU:225,156 CYC:17814
C656  29 80     AND #$80                        A:10 X:FF Y:00 P:24 SP:FF PPU:237,156 CYC:17818
C658  F0 F9     BEQ $C653                       A:00 X:FF Y:00 P:26 SP:FF PPU:243,156 CYC:17820
C653  AD 02 20  LDA $2002 = FF                  A:00 X:FF Y:00 P:26 SP:FF PPU:252,156 CYC:17823
C656  29 80     AND #$80                        A:10 X:FF Y:00 P:24 SP:FF PPU:264,156 CYC:17827
C658  F0 F9     BEQ $C653                       A:00 X:FF Y:00 P:26 SP:FF PPU:270,156 CYC:17829
C653  AD 02 20  LDA $2002 = FF                  A:00 X:FF Y:00 P:26 SP:FF PPU:279,156 CYC:17832
C656  29 80     AND #$80                        A:10 X:FF Y:00 P:24 SP:FF PPU:291,156 CYC:17836
C658  F0 F9     BEQ $C653                       A:00 X:FF Y:00 P:26 SP:FF PPU:297,156 CYC:17838
C653  AD 02 20  LDA $2002 = FF                  A:00 X:FF Y:00 P:26 SP:FF PPU:306,156 CYC:17841
C656  29 80     AND #$80                        A:10 X:FF Y:00 P:24 SP:FF PPU:318,156 CYC:17845
C658  F0 F9     BEQ $C653                       A:00 X:FF Y:00 P:26 SP:FF PPU:324,156 CYC:17847
C653  AD 02 20  LDA $2002 = FF                  A:00 X:FF Y:00 P:26 SP:FF PPU:333,156 CYC:17850
C656  29 80     AND #$80                        A:10 X:FF Y:00 P:24 SP:FF PPU:  4,157 CYC:17854
C658  F0 F9     BEQ $C653                       A:00 X:FF Y:00 P:26 SP:FF PPU: 10,157 CYC:17856
C653  AD 02 20  LDA $2002 = FF                  A:00 X:FF Y:00 P:26 SP:FF PPU: 19,157 CYC:17859
C656  29 80     AND #$80                        A:10 X:FF Y:00 P:24 SP:FF PPU: 31,157 CYC:17863
C658  F0 F9     BEQ $C653                       A:00 X:FF Y:00 P:26 SP:FF PPU: 37,157 CYC:17865
C653  AD 02 20  LDA $2002 = FF                  A:00 X:FF Y:00 P:26 SP:FF PPU: 46,157 CYC:17868
C656  29 80     AND #$80                        A:10 X:FF Y:00 P:24 SP:FF PPU: 58,157 CYC:17872
C658  F0 F9     BEQ $C653                       A:00 X:FF Y:00 P:26 SP:FF PPU: 64,157 CYC:17874
C653  AD 02 20  LDA $2002 = FF                  A:00 X:FF Y:00 P:26 SP:FF PPU: 73,157 CYC:17877
C656  29 80     AND #$80                        A:10 X:FF Y:00 P:24 SP:FF PPU: 85,157 CYC:17881
C658  F0 F9     BEQ $C653                       A:00 X:FF Y:00 P:26 SP:FF PPU: 91,157 CYC:17883
C653  AD 02 20  LDA $2002 = FF                  A:00 X:FF Y:00 P:26 SP:FF PPU:100,157 CYC:17886
C656  29 80     AND #$80                        A:10 X:FF Y:00 P:24 SP:FF PPU:112,157 CYC:17890
C658  F0 F9     BEQ $C653                       A:00 X:FF Y:00 P:26 SP:FF PPU:118,157 CYC:17892
C653  AD 02 20  LDA $2002 = FF                  A:00 X:FF Y:00 P:26 SP:FF PPU:127,157 CYC:17895
C656  29 80     AND #$80                        A:10 X:FF Y:00 P:24 SP:FF PPU:139,157 CYC:17899
C658  F0 F9     BEQ $C653                       A:00 X:FF Y:00 P:26 SP:FF PPU:145,157 CYC:17901
C653  AD 02 20  LDA $2002 = FF                  A:00 X:FF Y:00 P:26 SP:FF PPU:154,157 CYC:17904
C656  29 80     AND #$80                        A:10 X:FF Y:00 P:24 SP:FF PPU:166,157 CYC:17908
C658  F0 F9     BEQ $C653                       A:00 X:FF Y:00 P:26 SP:FF PPU:172,157 CYC:17910
C653  AD 02 20  LDA $2002 = FF                  A:00 X:FF Y:00 P:26 SP:FF PPU:181,157 CYC:17913
C656  29 80     AND #$80                        A:10 X:FF Y:00 P:24 SP:FF PPU:193,157 CYC:17917
C658  F0 F9     BEQ $C653                       A:00 X:FF Y:00 P:26 SP:FF PPU:199,157 CYC:17919
C653  AD 02 20  LDA $2002 = FF                  A:00 X:FF Y:00 P:26 SP:FF PPU:208,157 CYC:17922
C656  29 80     AND #$80                        A:10 X:FF Y:00 P:24 SP:FF PPU:220,157 CYC:17926
C658  F0 F9     BEQ $C653                       A:00 X:FF Y:00 P:26 SP:FF PPU:226,157 CYC:17928
C653  AD 02 20  LDA $2002 = FF                  A:00 X:FF Y:00 P:26 SP:FF PPU:235,157 CYC:17931
C656  29 80     AND #$80                        A:10 X:FF Y:00 P:24 SP:FF PPU:247,157 CYC:17935
C658  F0 F9     BEQ $C653                       A:00 X:FF Y:00 P:26 SP:FF PPU:253,157 CYC:17937
C653  AD 02 20  LDA $2002 = FF                  A:00 X:FF Y:00 P:26 SP:FF PPU:262,157 CYC:17940
C656  29 80     AND #$80                        A:10 X:FF Y:00 P:24 SP:FF PPU:274,157 CYC:17944
C658  F0 F9     BEQ $C653                       A:00 X:FF Y:00 P:26 SP:FF PPU:280,157 CYC:17946
C653  AD 02 20  LDA $2002 = FF                  A:00 X:FF Y:00 P:26 SP:FF PPU:289,157 CYC:17949
C656  29 80     AND #$80                        A:10 X:FF Y:00 P:24 SP:FF PPU:301,157 CYC:17953
C658  F0 F9     BEQ $C653                       A:00 X:FF Y:00 P:26 SP:FF PPU:307,157 CYC:17955
C653  AD 02 20  LDA $2002 = FF                  A:00 X:FF Y:00 P:26 SP:FF PPU:316,157 CYC:17958
C656  29 80     AND #$80                        A:10 X:FF Y:00 P:24 SP:FF PPU:328,157 CYC:17962
C658  F0 F9     BEQ $C653                       A:00 X:FF Y:00 P:26 SP:FF PPU:334,157 CYC:17964
C653  AD 02 20  LDA $2002 = FF                  A:00 X:FF Y:00 P:26 SP:FF PPU:  2,158 CYC:17967
C656  29 80     AND #$80                        A:10 X:FF Y:00 P:24 SP:FF PPU: 14,158 CYC:17971
C658  F0 F9     BEQ $C653                       A:00 X:FF Y:00 P:26 SP:FF PPU: 20,158 CYC:17973
C653  AD 02 20  LDA $2002 = FF                  A:00 X:FF Y:00 P:26 SP:FF PPU: 29,158 CYC:17976
C656  29 80     AND #$80                        A:10 X:FF Y:00 P:24 SP:FF PPU: 41,158 CYC:17980
C658  F0 F9     BEQ $C653                       A:00 X:FF Y:00 P:26 SP:FF PPU: 47,158 CYC:17982
C653  AD 02 20  LDA $2002 = FF                  A:00 X:FF Y:00 P:26 SP:FF PPU: 56,158 CYC:17985
C656  29 80     AND #$80                        A:10 X:FF Y:00 P:24 SP:FF PPU: 68,158 CYC:17989
C658  F0 F9     BEQ $C653                       A:00 X:FF Y:00 P:26 SP:FF PPU: 74,158 CYC:17991
C653  AD 02 20  LDA $2002 = FF                  A:00 X:FF Y:00 P:26 SP:FF PPU: 83,158 CYC:17994
C656  29 80     AND #$80                        A:10 X:FF Y:00 P:24 SP:FF PPU: 95,158 CYC:17998
C658  F0 F9     BEQ $C653                       A:00 X:FF Y:00 P:26 SP:FF PPU:101,158 CYC:18000
C653  AD 02 20  LDA $2002 = FF                  A:00 X:FF Y:00 P:26 SP:FF PPU:110,158 CYC:18003
C656  29 80     AND #$80                        A:10 X:FF Y:00 P:24 SP:FF PPU:122,158 CYC:18007
C658  F0 F9     BEQ $C653                       A:00 X:FF Y:00 P:26 SP:FF PPU:128,158 CYC:18009
C653  AD 02 20  LDA $2002 = FF                  A:00 X:FF Y:00 P:26 SP:FF PPU:137,158 CYC:18012
C656  29 80     AND #$80                        A:10 X:FF Y:00 P:24 SP:FF PPU:149,158 CYC:18016
C658  F0 F9     BEQ $C653                       A:00 X:FF Y:00 P:26 SP:FF PPU:155,158 CYC:18018
C653  AD 02 20  LDA $2002 = FF                  A:00 X:FF Y:00 P:26 SP:FF PPU:164,158 CYC:18021
C656  29 80     AND #$80                        A:10 X:FF Y:00 P:24 SP:FF PPU:176,158 CYC:18025
C658  F0 F9     BEQ $C653                       A:00 X:FF Y:00 P:26 SP:FF PPU:182,158 CYC:18027
C653  AD 02 20  LDA $2002 = FF                  A:00 X:FF Y:00 P:26 SP:FF PPU:191,158 CYC:18030
C656  29 80     AND #$80                        A:10 X:FF Y:00 P:24 SP:FF PPU:203,158 CYC:18034
C658  F0 F9     BEQ $C653                       A:00 X:FF Y:00 P:26 SP:FF PPU:209,158 CYC:18036
C653  AD 02 20  LDA $2002 = FF                  A:00 X:FF Y:00 P:26 SP:FF PPU:218,158 CYC:18039
C656  29 80     AND #$80                        A:10 X:FF Y:00 P:24 SP:FF PPU:230,158 CYC:18043
C658  F0 F9     BEQ $C653                       A:00 X:FF Y:00 P:26 SP:FF PPU:236,158 CYC:18045
C653  AD 02 20  LDA $2002 = FF                  A:00 X:FF Y:00 P:26 SP:FF PPU:245,158 CYC:18048
C656  29 80     AND #$80                        A:10 X:FF Y:00 P:24 SP:FF PPU:257,158 CYC:18052
C658  F0 F9     BEQ $C653                       A:00 X:FF Y:00 P:26 SP:FF PPU:263,158 CYC:18054
C653  AD 02 20  LDA $2002 = FF                  A:00 X:FF Y:00 P:26 SP:FF PPU:272,158 CYC:18057
C656  29 80     AND #$80                        A:10 X:FF Y:00 P:24 SP:FF PPU:284,158 CYC:18061
C658  F0 F9     BEQ $C653                       A:00 X:FF Y:00 P:26 SP:FF PPU:290,158 CYC:18063
C653  AD 02 20  LDA $2002 = FF                  A:00 X:FF Y:00 P:26 SP:FF PPU:299,158 CYC:18066
C656  29 80     AND #$80                        A:10 X:FF Y:00 P:24 SP:FF PPU:311,158 CYC:18070
C658  F0 F9     BEQ $C653                       A:00 X:FF Y:00 P:26 SP:FF PPU:317,158 CYC:18072
C653  AD 02 20  LDA $2002 = FF                  A:00 X:FF Y:00 P:26 SP:FF PPU:326,158 CYC:18075
C656  29 80     AND #$80                        A:10 X:FF Y:00 P:24 SP:FF PPU:338,158 CYC:18079
C658  F0 F9     BEQ $C653                       A:00 X:FF Y:00 P:26 SP:FF PPU:  3,159 CYC:18081
C653  AD 02 20  LDA $2002 = FF                  A:00 X:FF Y:00 P:26 SP:FF PPU: 12,159 CYC:18084
C656  29 80     AND #$80                        A:10 X:FF Y:00 P:24 SP:FF PPU: 24,159 CYC:18088
C658  F0 F9     BEQ $C653                       A:00 X:FF Y:00 P:26 SP:FF PPU: 30,159 CYC:18090
C653  AD 02 20  LDA $2002 = FF                  A:00 X:FF Y:00 P:26 SP:FF PPU: 39,159 CYC:18093
C656  29 80     AND #$80                        A:10 X:FF Y:00 P:24 SP:FF PPU: 51,159 CYC:18097
C658  F0 F9     BEQ $C653                       A:00 X:FF Y:00 P:26 SP:FF PPU: 57,159 CYC:18099
C653  AD 02 20  LDA $2002 = FF                  A:00 X:FF Y:00 P:26 SP:FF PPU: 66,159 CYC:18102
C656  29 80     AND #$80                        A:10 X:FF Y:00 P:24 SP:FF PPU: 78,159 CYC:18106
C658  F0 F9     BEQ $C653                       A:00 X:FF Y:00 P:26 SP:FF PPU: 84,159 CYC:18108
C653  AD 02 20  LDA $2002 = FF                  A:00 X:FF Y:00 P:26 SP:FF PPU: 93,159 CYC:18111
C656  29 80     AND #$80                        A:10 X:FF Y:00 P:24 SP:FF PPU:105,159 CYC:18115
C658  F0 F9     BEQ $C653                       A:00 X:FF Y:00 P:26 SP:FF PPU:111,159 CYC:18117
C653  AD 02 20  LDA $2002 = FF                  A:00 X:FF Y:00 P:26 SP:FF PPU:120,159 CYC:18120
C656  29 80     AND #$80                        A:10 X:FF Y:00 P:24 SP:FF PPU:132,159 CYC:18124
C658  F0 F9     BEQ $C653                       A:00 X:FF Y:00 P:26 SP:FF PPU:138,159 CYC:18126
C653  AD 02 20  LDA $2002 = FF                  A:00 X:FF Y:00 P:26 SP:FF PPU:147,159 CYC:18129
C656  29 80     AND #$80                        A:10 X:FF Y:00 P:24 SP:FF PPU:159,159 CYC:18133
C658  F0 F9     BEQ $C653                       A:00 X:FF Y:00 P:26 SP:FF PPU:165,159 CYC:18135
C653  AD 02 20  LDA $2002 = FF                  A:00 X:FF Y:00 P:26 SP:FF PPU:174,159 CYC:18138
C656  29 80     AND #$80                        A:10 X:FF Y:00 P:24 SP:FF PPU:186,159 CYC:18142
C658  F0 F9     BEQ $C653                       A:00 X:FF Y:00 P:26 SP:FF PPU:192,159 CYC:18144
C653  AD 02 20  LDA $2002 = FF                  A:00 X:FF Y:00 P:26 SP:FF PPU:201,159 CYC:18147
C656  29 80     AND #$80                        A:10 X:FF Y:00 P:24 SP:FF PPU:213,159 CYC:18151
C658  F0 F9     BEQ $C653                       A:00 X:FF Y:00 P:26 SP:FF PPU:219,159 CYC:18153
C653  AD 02 20  LDA $2002 = FF                  A:00 X:FF Y:00 P:26 SP:FF PPU:228,159 CYC:18156
C656  29 80     AND #$80                        A:10 X:FF Y:00 P:24 SP:FF PPU:240,159 CYC:18160
C658  F0 F9     BEQ $C653                       A:00 X:FF Y:00 P:26 SP:FF PPU:246,159 CYC:18162
C653  AD 02 20  LDA $2002 = FF                  A:00 X:FF Y:00 P:26 SP:FF PPU:255,159 CYC:18165
C656  29 80     AND #$80                        A:10 X:FF Y:00 P:24 SP:FF PPU:267,159 CYC:18169
C658  F0 F9     BEQ $C653                       A:00 X:FF Y:00 P:26 SP:FF PPU:273,159 CYC:18171
C653  AD 02 20  LDA $2002 = FF                  A:00 X:FF Y:00 P:26 SP:FF PPU:282,159 CYC:18174
C656  29 80     AND #$80                        A:10 X:FF Y:00 P:24 SP:FF PPU:294,159 CYC:18178
C658  F0 F9     BEQ $C653                       A:00 X:FF Y:00 P:26 SP:FF PPU:300,159 CYC:18180
C653  AD 02 20  LDA $2002 = FF                  A:00 X:FF Y:00 P:26 SP:FF PPU:309,159 CYC:18183
C656  29 80     AND #$80                        A:10 X:FF Y:00 P:24 SP:FF PPU:321,159 CYC:18187
C658  F0 F9     BEQ $C653                       A:00 X:FF Y:00 P:26 SP:FF PPU:327,159 CYC:18189
C653  AD 02 20  LDA $2002 = FF                  A:00 X:FF Y:00 P:26 SP:FF PPU:336,159 CYC:18192
C656  29 80     AND #$80                        A:10 X:FF Y:00 P:24 SP:FF PPU:  7,160 CYC:18196
C658  F0 F9     BEQ $C653                       A:00 X:FF Y:00 P:26 SP:FF PPU: 13,160 CYC:18198
C653  AD 02 20  LDA $2002 = FF                  A:00 X:FF Y:00 P:26 SP:FF PPU: 22,160 CYC:18201
C656  29 80     AND #$80                        A:10 X:FF Y:00 P:24 SP:FF PPU: 34,160 CYC:18205
C658  F0 F9     BEQ $C653                       A:00 X:FF Y:00 P:26 SP:FF PPU: 40,160 CYC:18207
C653  AD 02 20  LDA $2002 = FF                  A:00 X:FF Y:00 P:26 SP:FF PPU: 49,160 CYC:18210
C656  29 80     AND #$80                        A:10 X:FF Y:00 P:24 SP:FF PPU: 61,160 CYC:18214
C658  F0 F9     BEQ $C653                       A:00 X:FF Y:00 P:26 SP:FF PPU: 67,160 CYC:18216
C653  AD 02 20  LDA $2002 = FF                  A:00 X:FF Y:00 P:26 SP:FF PPU: 76,160 CYC:18219
C656  29 80     AND #$80                        A:10 X:FF Y:00 P:24 SP:FF PPU: 88,160 CYC:18223
C658  F0 F9     BEQ $C653                       A:00 X:FF Y:00 P:26 SP:FF PPU: 94,160 CYC:18225
C653  AD 02 20  LDA $2002 = FF                  A:00 X:FF Y:00 P:26 SP:FF PPU:103,160 CYC:18228
C656  29 80     AND #$80                        A:10 X:FF Y:00 P:24 SP:FF PPU:115,160 CYC:18232
C658  F0 F9     BEQ $C653                       A:00 X:FF Y:00 P:26 SP:FF PPU:121,160 CYC:18234
C653  AD 02 20  LDA $2002 = FF                  A:00 X:FF Y:00 P:26 SP:FF PPU:130,160 CYC:18237
C656  29 80     AND #$80                        A:10 X:FF Y:00 P:24 SP:FF PPU:142,160 CYC:18241
C658  F0 F9     BEQ $C653                       A:00 X:FF Y:00 P:26 SP:FF PPU:148,160 CYC:18243
C653  AD 02 20  LDA $2002 = FF                  A:00 X:FF Y:00 P:26 SP:FF PPU:157,160 CYC:18246
C656  29 80     AND #$80                        A:10 X:FF Y:00 P:24 SP:FF PPU:169,160 CYC:18250
C658  F0 F9     BEQ $C653                       A:00 X:FF Y:00 P:26 SP:FF PPU:175,160 CYC:18252
C653  AD 02 20  LDA $2002 = FF                  A:00 X:FF Y:00 P:26 SP:FF PPU:184,160 CYC:18255
C656  29 80     AND #$80                        A:10 X:FF Y:00 P:24 SP:FF PPU:196,160 CYC:18259
C658  F0 F9     BEQ $C653                       A:00 X:FF Y:00 P:26 SP:FF PPU:202,160 CYC:18261
C653  AD 02 20  LDA $2002 = FF                  A:00 X:FF Y:00 P:26 SP:FF PPU:211,160 CYC:18264
C656  29 80     AND #$80                        A:10 X:FF Y:00 P:24 SP:FF PPU:223,160 CYC:18268
C658  F0 F9     BEQ $C653                       A:00 X:FF Y:00 P:26 SP:FF PPU:229,160 CYC:18270
C653  AD 02 20  LDA $2002 = FF                  A:00 X:FF Y:00 P:26 SP:FF PPU:238,160 CYC:18273
C656  29 80     AND #$80                        A:10 X:FF Y:00 P:24 SP:FF PPU:250,160 CYC:18277
C658  F0 F9     BEQ $C653                       A:00 X:FF Y:00 P:26 SP:FF PPU:256,160 CYC:18279
C653  AD 02 20  LDA $2002 = FF                  A:00 X:FF Y:00 P:26 SP:FF PPU:265,160 CYC:18282
C656  29 80     AND #$80                        A:10 X:FF Y:00 P:24 SP:FF PPU:277,160 CYC:18286
C658  F0 F9     BEQ $C653                       A:00 X:FF Y:00 P:26 SP:FF PPU:283,160 CYC:18288
C653  AD 02 20  LDA $2002 = FF                  A:00 X:FF Y:00 P:26 SP:FF PPU:292,160 CYC:18291
C656  29 80     AND #$80                        A:10 X:FF Y:00 P:24 SP:FF PPU:304,160 CYC:18295
C658  F0 F9     BEQ $C653                       A:00 X:FF Y:00 P:26 SP:FF PPU:310,160 CYC:18297
C653  AD 02 20  LDA $2002 = FF                  A:00 X:FF Y:00 P:26 SP:FF PPU:319,160 CYC:18300
C656  29 80     AND #$80                        A:10 X:FF Y:00 P:24 SP:FF PPU:331,160 CYC:18304
C658  F0 F9     BEQ $C653                       A:00 X:FF Y:00 P:26 SP:FF PPU:337,160 CYC:18306
C653  AD 02 20  LDA $2002 = FF                  A:00 X:FF Y:00 P:26 SP:FF PPU:  5,161 CYC:18309
C656  29 80     AND #$80                        A:10 X:FF Y:00 P:24 SP:FF PPU: 17,161 CYC:18313
C658  F0 F9     BEQ $C653                       A:00 X:FF Y:00 P:26 SP:FF PPU: 23,161 CYC:18315
C653  AD 02 20  LDA $2002 = FF                  A:00 X:FF Y:00 P:26 SP:FF PPU: 32,161 CYC:18318
C656  29 80     AND #$80                        A:10 X:FF Y:00 P:24 SP:FF PPU: 44,161 CYC:18322
C658  F0 F9     BEQ $C653                       A:00 X:FF Y:00 P:26 SP:FF PPU: 50,161 CYC:18324
C653  AD 02 20  LDA $2002 = FF                  A:00 X:FF Y:00 P:26 SP:FF PPU: 59,161 CYC:18327
C656  29 80     AND #$80                        A:10 X:FF Y:00 P:24 SP:FF PPU: 71,161 CYC:18331
C658  F0 F9     BEQ $C653                       A:00 X:FF Y:00 P:26 SP:FF PPU: 77,161 CYC:18333
C653  AD 02 20  LDA $2002 = FF                  A:00 X:FF Y:00 P:26 SP:FF PPU: 86,161 CYC:18336
C656  29 80     AND #$80                        A:10 X:FF Y:00 P:24 SP:FF PPU: 98,161 CYC:18340
C658  F0 F9     BEQ $C653                       A:00 X:FF Y:00 P:26 SP:FF PPU:104,161 CYC:18342
C653  AD 02 20  LDA $2002 = FF                  A:00 X:FF Y:00 P:26 SP:FF PPU:113,161 CYC:18345
C656  29 80     AND #$80                        A:10 X:FF Y:00 P:24 SP:FF PPU:125,161 CYC:18349
C658  F0 F9     BEQ $C653                       A:00 X:FF Y:00 P:26 SP:FF PPU:131,161 CYC:18351
C653  AD 02 20  LDA $2002 = FF                  A:00 X:FF Y:00 P:26 SP:FF PPU:140,161 CYC:18354
C656  29 80     AND #$80                        A:10 X:FF Y:00 P:24 SP:FF PPU:152,161 CYC:18358
C658  F0 F9     BEQ $C653                       A:00 X:FF Y:00 P:26 SP:FF PPU:158,161 CYC:18360
C653  AD 02 20  LDA $2002 = FF                  A:00 X:FF Y:00 P:26 SP:FF PPU:167,161 CYC:18363
C656  29 80     AND #$80                        A:10 X:FF Y:00 P:24 SP:FF PPU:179,161 CYC:18367
C658  F0 F9     BEQ $C653                       A:00 X:FF Y:00 P:26 SP:FF PPU:185,161 CYC:18369
C653  AD 02 20  LDA $2002 = FF                  A:00 X:FF Y:00 P:26 SP:FF PPU:194,161 CYC:18372
C656  29 80     AND #$80                        A:10 X:FF Y:00 P:24 SP:FF PPU:206,161 CYC:18376
C658  F0 F9     BEQ $C653                       A:00 X:FF Y:00 P:26 SP:FF PPU:212,161 CYC:18378
C653  AD 02 20  LDA $2002 = FF                  A:00 X:FF Y:00 P:26 SP:FF PPU:221,161 CYC:18381
C656  29 80     AND #$80                        A:10 X:FF Y:00 P:24 SP:FF PPU:233,161 CYC:18385
C658  F0 F9     BEQ $C653                       A:00 X:FF Y:00 P:26 SP:FF PPU:239,161 CYC:18387
C653  AD 02 20  LDA $2002 = FF                  A:00 X:FF Y:00 P:26 SP:FF PPU:248,161 CYC:18390
C656  29 80     AND #$80                        A:10 X:FF Y:00 P:24 SP:FF PPU:260,161 CYC:18394
C658  F0 F9     BEQ $C653                       A:00 X:FF Y:00 P:26 SP:FF PPU:266,161 CYC:18396
C653  AD 02 20  LDA $2002 = FF                  A:00 X:FF Y:00 P:26 SP:FF PPU:275,161 CYC:18399
C656  29 80     AND #$80                        A:10 X:FF Y:00 P:24 SP:FF PPU:287,161 CYC:18403
C658  F0 F9     BEQ $C653                       A:00 X:FF Y:00 P:26 SP:FF PPU:293,161 CYC:18405
C653  AD 02 20  LDA $2002 = FF                  A:00 X:FF Y:00 P:26 SP:FF PPU:302,161 CYC:18408
C656  29 80     AND #$80                        A:10 X:FF Y:00 P:24 SP:FF PPU:314,161 CYC:18412
C658  F0 F9     BEQ $C653                       A:00 X:FF Y:00 P:26 SP:FF PPU:320,161 CYC:18414
C653  AD 02 20  LDA $2002 = FF                  A:00 X:FF Y:00 P:26 SP:FF PPU:329,161 CYC:18417
C656  29 80     AND #$80                        A:10 X:FF Y:00 P:24 SP:FF PPU:  0,162 CYC:18421
C658  F0 F9     BEQ $C653                       A:00 X:FF Y:00 P:26 SP:FF PPU:  6,162 CYC:18423
C653  AD 02 20  LDA $2002 = FF                  A:00 X:FF Y:00 P:26 SP:FF PPU: 15,162 CYC:18426
C656  29 80     AND #$80                        A:10 X:FF Y:00 P:24 SP:FF PPU: 27,162 CYC:18430
C658  F0 F9     BEQ $C653                       A:00 X:FF Y:00 P:26 SP:FF PPU: 33,162 CYC:18432
C653  AD 02 20  LDA $2002 = FF                  A:00 X:FF Y:00 P:26 SP:FF PPU: 42,162 CYC:18435
C656  29 80     AND #$80                        A:10 X:FF Y:00 P:24 SP:FF PPU: 54,162 CYC:18439
C658  F0 F9     BEQ $C653                       A:00 X:FF Y:00 P:26 SP:FF PPU: 60,162 CYC:18441
C653  AD 02 20  LDA $2002 = FF                  A:00 X:FF Y:00 P:26 SP:FF PPU: 69,162 CYC:18444
C656  29 80     AND #$80                        A:10 X:FF Y:00 P:24 SP:FF PPU: 81,162 CYC:18448
C658  F0 F9     BEQ $C653                       A:00 X:FF Y:00 P:26 SP:FF PPU: 87,162 CYC:18450
C653  AD 02 20  LDA $2002 = FF                  A:00 X:FF Y:00 P:26 SP:FF PPU: 96,162 CYC:18453
C656  29 80     AND #$80                        A:10 X:FF Y:00 P:24 SP:FF PPU:108,162 CYC:18457
C658  F0 F9     BEQ $C653                       A:00 X:FF Y:00 P:26 SP:FF PPU:114,162 CYC:18459
C653  AD 02 20  LDA $2002 = FF                  A:00 X:FF Y:00 P:26 SP:FF PPU:123,162 CYC:18462
C656  29 80     AND #$80                        A:10 X:FF Y:00 P:24 SP:FF PPU:135,162 CYC:18466
C658  F0 F9     BEQ $C653                       A:00 X:FF Y:00 P:26 SP:FF PPU:141,162 CYC:18468
C653  AD 02 20  LDA $2002 = FF                  A:00 X:FF Y:00 P:26 SP:FF PPU:150,162 CYC:18471
C656  29 80     AND #$80                        A:10 X:FF Y:00 P:24 SP:FF PPU:162,162 CYC:18475
C658  F0 F9     BEQ $C653                       A:00 X:FF Y:00 P:26 SP:FF PPU:168,162 CYC:18477
C653  AD 02 20  LDA $2002 = FF                  A:00 X:FF Y:00 P:26 SP:FF PPU:177,162 CYC:18480
C656  29 80     AND #$80                        A:10 X:FF Y:00 P:24 SP:FF PPU:189,162 CYC:18484
C658  F0 F9     BEQ $C653                       A:00 X:FF Y:00 P:26 SP:FF PPU:195,162 CYC:18486
C653  AD 02 20  LDA $2002 = FF                  A:00 X:FF Y:00 P:26 SP:FF PPU:204,162 CYC:18489
C656  29 80     AND #$80                        A:10 X:FF Y:00 P:24 SP:FF PPU:216,162 CYC:18493
C658  F0 F9     BEQ $C653                       A:00 X:FF Y:00 P:26 SP:FF PPU:222,162 CYC:18495
C653  AD 02 20  LDA $2002 = FF                  A:00 X:FF Y:00 P:26 SP:FF PPU:231,162 CYC:18498
C656  29 80     AND #$80                        A:10 X:FF Y:00 P:24 SP:FF PPU:243,162 CYC:18502
C658  F0 F9     BEQ $C653                       A:00 X:FF Y:00 P:26 SP:FF PPU:249,162 CYC:18504
C653  AD 02 20  LDA $2002 = FF                  A:00 X:FF Y:00 P:26 SP:FF PPU:258,162 CYC:18507
C656  29 80     AND #$80                        A:10 X:FF Y:00 P:24 SP:FF PPU:270,162 CYC:18511
C658  F0 F9     BEQ $C653                       A:00 X:FF Y:00 P:26 SP:FF PPU:276,162 CYC:18513
C653  AD 02 20  LDA $2002 = FF                  A:00 X:FF Y:00 P:26 SP:FF PPU:285,162 CYC:18516
C656  29 80     AND #$80                        A:10 X:FF Y:00 P:24 SP:FF PPU:297,162 CYC:18520
C658  F0 F9     BEQ $C653                       A:00 X:FF Y:00 P:26 SP:FF PPU:303,162 CYC:18522
C653  AD 02 20  LDA $2002 = FF                  A:00 X:FF Y:00 P:26 SP:FF PPU:312,162 CYC:18525
C656  29 80     AND #$80                        A:10 X:FF Y:00 P:24 SP:FF PPU:324,162 CYC:18529
C658  F0 F9     BEQ $C653                       A:00 X:FF Y:00 P:26 SP:FF PPU:330,162 CYC:18531
C653  AD 02 20  LDA $2002 = FF                  A:00 X:FF Y:00 P:26 SP:FF PPU:339,162 CYC:18534
C656  29 80     AND #$80                        A:10 X:FF Y:00 P:24 SP:FF PPU: 10,163 CYC:18538
C658  F0 F9     BEQ $C653                       A:00 X:FF Y:00 P:26 SP:FF PPU: 16,163 CYC:18540
C653  AD 02 20  LDA $2002 = FF                  A:00 X:FF Y:00 P:26 SP:FF PPU: 25,163 CYC:18543
C656  29 80     AND #$80                        A:10 X:FF Y:00 P:24 SP:FF PPU: 37,163 CYC:18547
C658  F0 F9     BEQ $C653                       A:00 X:FF Y:00 P:26 SP:FF PPU: 43,163 CYC:18549
C653  AD 02 20  LDA $2002 = FF                  A:00 X:FF Y:00 P:26 SP:FF PPU: 52,163 CYC:18552
C656  29 80     AND #$80                        A:10 X:FF Y:00 P:24 SP:FF PPU: 64,163 CYC:18556
C658  F0 F9     BEQ $C653                       A:00 X:FF Y:00 P:26 SP:FF PPU: 70,163 CYC:18558
C653  AD 02 20  LDA $2002 = FF                  A:00 X:FF Y:00 P:26 SP:FF PPU: 79,163 CYC:18561
C656  29 80     AND #$80                        A:10 X:FF Y:00 P:24 SP:FF PPU: 91,163 CYC:18565
C658  F0 F9     BEQ $C653                       A:00 X:FF Y:00 P:26 SP:FF PPU: 97,163 CYC:18567
C653  AD 02 20  LDA $2002 = FF                  A:00 X:FF Y:00 P:26 SP:FF PPU:106,163 CYC:18570
C656  29 80     AND #$80                        A:10 X:FF Y:00 P:24 SP:FF PPU:118,163 CYC:18574
C658  F0 F9     BEQ $C653                       A:00 X:FF Y:00 P:26 SP:FF PPU:124,163 CYC:18576
C653  AD 02 20  LDA $2002 = FF                  A:00 X:FF Y:00 P:26 SP:FF PPU:133,163 CYC:18579
C656  29 80     AND #$80                        A:10 X:FF Y:00 P:24 SP:FF PPU:145,163 CYC:18583
C658  F0 F9     BEQ $C653                       A:00 X:FF Y:00 P:26 SP:FF PPU:151,163 CYC:18585
C653  AD 02 20  LDA $2002 = FF                  A:00 X:FF Y:00 P:26 SP:FF PPU:160,163 CYC:18588
C656  29 80     AND #$80                        A:10 X:FF Y:00 P:24 SP:FF PPU:172,163 CYC:18592
C658  F0 F9     BEQ $C653                       A:00 X:FF Y:00 P:26 SP:FF PPU:178,163 CYC:18594
C653  AD 02 20  LDA $2002 = FF                  A:00 X:FF Y:00 P:26 SP:FF PPU:187,163 CYC:18597
C656  29 80     AND #$80                        A:10 X:FF Y:00 P:24 SP:FF PPU:199,163 CYC:18601
C658  F0 F9     BEQ $C653                       A:00 X:FF Y:00 P:26 SP:FF PPU:205,163 CYC:18603
C653  AD 02 20  LDA $2002 = FF                  A:00 X:FF Y:00 P:26 SP:FF PPU:214,163 CYC:18606
C656  29 80     AND #$80                        A:10 X:FF Y:00 P:24 SP:FF PPU:226,163 CYC:18610
C658  F0 F9     BEQ $C653                       A:00 X:FF Y:00 P:26 SP:FF PPU:232,163 CYC:18612
C653  AD 02 20  LDA $2002 = FF                  A:00 X:FF Y:00 P:26 SP:FF PPU:241,163 CYC:18615
C656  29 80     AND #$80                        A:10 X:FF Y:00 P:24 SP:FF PPU:253,163 CYC:18619
C658  F0 F9     BEQ $C653                       A:00 X:FF Y:00 P:26 SP:FF PPU:259,163 CYC:18621
C653  AD 02 20  LDA $2002 = FF                  A:00 X:FF Y:00 P:26 SP:FF PPU:268,163 CYC:18624
C656  29 80     AND #$80                        A:10 X:FF Y:00 P:24 SP:FF PPU:280,163 CYC:18628
C658  F0 F9     BEQ $C653                       A:00 X:FF Y:00 P:26 SP:FF PPU:286,163 CYC:18630
C653  AD 02 20  LDA $2002 = FF                  A:00 X:FF Y:00 P:26 SP:FF PPU:295,163 CYC:18633
C656  29 80     AND #$80                        A:10 X:FF Y:00 P:24 SP:FF PPU:307,163 CYC:18637
C658  F0 F9     BEQ $C653                       A:00 X:FF Y:00 P:26 SP:FF PPU:313,163 CYC:18639
C653  AD 02 20  LDA $2002 = FF                  A:00 X:FF Y:00 P:26 SP:FF PPU:322,163 CYC:18642
C656  29 80     AND #$80                        A:10 X:FF Y:00 P:24 SP:FF PPU:334,163 CYC:18646
C658  F0 F9     BEQ $C653                       A:00 X:FF Y:00 P:26 SP:FF PPU:340,163 CYC:18648
C653  AD 02 20  LDA $2002 = FF                  A:00 X:FF Y:00 P:26 SP:FF PPU:  8,164 CYC:18651
C656  29 80     AND #$80                        A:10 X:FF Y:00 P:24 SP:FF PPU: 20,164 CYC:18655
C658  F0 F9     BEQ $C653                       A:00 X:FF Y:00 P:26 SP:FF PPU: 26,164 CYC:18657
C653  AD 02 20  LDA $2002 = FF                  A:00 X:FF Y:00 P:26 SP:FF PPU: 35,164 CYC:18660
C656  29 80     AND #$80                        A:10 X:FF Y:00 P:24 SP:FF PPU: 47,164 CYC:18664
C658  F0 F9     BEQ $C653                       A:00 X:FF Y:00 P:26 SP:FF PPU: 53,164 CYC:18666
C653  AD 02 20  LDA $2002 = FF                  A:00 X:FF Y:00 P:26 SP:FF PPU: 62,164 CYC:18669
C656  29 80     AND #$80                        A:10 X:FF Y:00 P:24 SP:FF PPU: 74,164 CYC:18673
C658  F0 F9     BEQ $C653                       A:00 X:FF Y:00 P:26 SP:FF PPU: 80,164 CYC:18675
C653  AD 02 20  LDA $2002 = FF                  A:00 X:FF Y:00 P:26 SP:FF PPU: 89,164 CYC:18678
C656  29 80     AND #$80                        A:10 X:FF Y:00 P:24 SP:FF PPU:101,164 CYC:18682
C658  F0 F9     BEQ $C653                       A:00 X:FF Y:00 P:26 SP:FF PPU:107,164 CYC:18684
C653  AD 02 20  LDA $2002 = FF                  A:00 X:FF Y:00 P:26 SP:FF PPU:116,164 CYC:18687
C656  29 80     AND #$80                        A:10 X:FF Y:00 P:24 SP:FF PPU:128,164 CYC:18691
C658  F0 F9     BEQ $C653                       A:00 X:FF Y:00 P:26 SP:FF PPU:134,164 CYC:18693
C653  AD 02 20  LDA $2002 = FF                  A:00 X:FF Y:00 P:26 SP:FF PPU:143,164 CYC:18696
C656  29 80     AND #$80                        A:10 X:FF Y:00 P:24 SP:FF PPU:155,164 CYC:18700
C658  F0 F9     BEQ $C653                       A:00 X:FF Y:00 P:26 SP:FF PPU:161,164 CYC:18702
C653  AD 02 20  LDA $2002 = FF                  A:00 X:FF Y:00 P:26 SP:FF PPU:170,164 CYC:18705
C656  29 80     AND #$80                        A:10 X:FF Y:00 P:24 SP:FF PPU:182,164 CYC:18709
C658  F0 F9     BEQ $C653                       A:00 X:FF Y:00 P:26 SP:FF PPU:188,164 CYC:18711
C653  AD 02 20  LDA $2002 = FF                  A:00 X:FF Y:00 P:26 SP:FF PPU:197,164 CYC:18714
C656  29 80     AND #$80                        A:10 X:FF Y:00 P:24 SP:FF PPU:209,164 CYC:18718
C658  F0 F9     BEQ $C653                       A:00 X:FF Y:00 P:26 SP:FF PPU:215,164 CYC:18720
C653  AD 02 20  LDA $2002 = FF                  A:00 X:FF Y:00 P:26 SP:FF PPU:224,164 CYC:18723
C656  29 80     AND #$80                        A:10 X:FF Y:00 P:24 SP:FF PPU:236,164 CYC:18727
C658  F0 F9     BEQ $C653                       A:00 X:FF Y:00 P:26 SP:FF PPU:242,164 CYC:18729
C653  AD 02 20  LDA $2002 = FF                  A:00 X:FF Y:00 P:26 SP:FF PPU:251,164 CYC:18732
C656  29 80     AND #$80                        A:10 X:FF Y:00 P:24 SP:FF PPU:263,164 CYC:18736
C658  F0 F9     BEQ $C653                       A:00 X:FF Y:00 P:26 SP:FF PPU:269,164 CYC:18738
C653  AD 02 20  LDA $2002 = FF                  A:00 X:FF Y:00 P:26 SP:FF PPU:278,164 CYC:18741
C656  29 80     AND #$80                        A:10 X:FF Y:00 P:24 SP:FF PPU:290,164 CYC:18745
C658  F0 F9     BEQ $C653                       A:00 X:FF Y:00 P:26 SP:FF PPU:296,164 CYC:18747
C653  AD 02 20  LDA $2002 = FF                  A:00 X:FF Y:00 P:26 SP:FF PPU:305,164 CYC:18750
C656  29 80     AND #$80                        A:10 X:FF Y:00 P:24 SP:FF PPU:317,164 CYC:18754
C658  F0 F9     BEQ $C653                       A:00 X:FF Y:00 P:26 SP:FF PPU:323,164 CYC:18756
C653  AD 02 20  LDA $2002 = FF                  A:00 X:FF Y:00 P:26 SP:FF PPU:332,164 CYC:18759
C656  29 80     AND #$80                        A:10 X:FF Y:00 P:24 SP:FF PPU:  3,165 CYC:18763
C658  F0 F9     BEQ $C653                       A:00 X:FF Y:00 P:26 SP:FF PPU:  9,165 CYC:18765
C653  AD 02 20  LDA $2002 = FF                  A:00 X:FF Y:00 P:26 SP:FF PPU: 18,165 CYC:18768
C656  29 80     AND #$80                        A:10 X:FF Y:00 P:24 SP:FF PPU: 30,165 CYC:18772
C658  F0 F9     BEQ $C653                       A:00 X:FF Y:00 P:26 SP:FF PPU: 36,165 CYC:18774
C653  AD 02 20  LDA $2002 = FF                  A:00 X:FF Y:00 P:26 SP:FF PPU: 45,165 CYC:18777
C656  29 80     AND #$80                        A:10 X:FF Y:00 P:24 SP:FF PPU: 57,165 CYC:18781
C658  F0 F9     BEQ $C653                       A:00 X:FF Y:00 P:26 SP:FF PPU: 63,165 CYC:18783
C653  AD 02 20  LDA $2002 = FF                  A:00 X:FF Y:00 P:26 SP:FF PPU: 72,165 CYC:18786
C656  29 80     AND #$80                        A:10 X:FF Y:00 P:24 SP:FF PPU: 84,165 CYC:18790
C658  F0 F9     BEQ $C653                       A:00 X:FF Y:00 P:26 SP:FF PPU: 90,165 CYC:18792
C653  AD 02 20  LDA $2002 = FF                  A:00 X:FF Y:00 P:26 SP:FF PPU: 99,165 CYC:18795
C656  29 80     AND #$80                        A:10 X:FF Y:00 P:24 SP:FF PPU:111,165 CYC:18799
C658  F0 F9     BEQ $C653                       A:00 X:FF Y:00 P:26 SP:FF PPU:117,165 CYC:18801
C653  AD 02 20  LDA $2002 = FF                  A:00 X:FF Y:00 P:26 SP:FF PPU:126,165 CYC:18804
C656  29 80     AND #$80                        A:10 X:FF Y:00 P:24 SP:FF PPU:138,165 CYC:18808
C658  F0 F9     BEQ $C653                       A:00 X:FF Y:00 P:26 SP:FF PPU:144,165 CYC:18810
C653  AD 02 20  LDA $2002 = FF                  A:00 X:FF Y:00 P:26 SP:FF PPU:153,165 CYC:18813
C656  29 80     AND #$80                        A:10 X:FF Y:00 P:24 SP:FF PPU:165,165 CYC:18817
C658  F0 F9     BEQ $C653                       A:00 X:FF Y:00 P:26 SP:FF PPU:171,165 CYC:18819
C653  AD 02 20  LDA $2002 = FF                  A:00 X:FF Y:00 P:26 SP:FF PPU:180,165 CYC:18822
C656  29 80     AND #$80                        A:10 X:FF Y:00 P:24 SP:FF PPU:192,165 CYC:18826
C658  F0 F9     BEQ $C653                       A:00 X:FF Y:00 P:26 SP:FF PPU:198,165 CYC:18828
C653  AD 02 20  LDA $2002 = FF                  A:00 X:FF Y:00 P:26 SP:FF PPU:207,165 CYC:18831
C656  29 80     AND #$80                        A:10 X:FF Y:00 P:24 SP:FF PPU:219,165 CYC:18835
C658  F0 F9     BEQ $C653                       A:00 X:FF Y:00 P:26 SP:FF PPU:225,165 CYC:18837
C653  AD 02 20  LDA $2002 = FF                  A:00 X:FF Y:00 P:26 SP:FF PPU:234,165 CYC:18840
C656  29 80     AND #$80                        A:10 X:FF Y:00 P:24 SP:FF PPU:246,165 CYC:18844
C658  F0 F9     BEQ $C653                       A:00 X:FF Y:00 P:26 SP:FF PPU:252,165 CYC:18846
C653  AD 02 20  LDA $2002 = FF                  A:00 X:FF Y:00 P:26 SP:FF PPU:261,165 CYC:18849
C656  29 80     AND #$80                        A:10 X:FF Y:00 P:24 SP:FF PPU:273,165 CYC:18853
C658  F0 F9     BEQ $C653                       A:00 X:FF Y:00 P:26 SP:FF PPU:279,165 CYC:18855
C653  AD 02 20  LDA $2002 = FF                  A:00 X:FF Y:00 P:26 SP:FF PPU:288,165 CYC:18858
C656  29 80     AND #$80                        A:10 X:FF Y:00 P:24 SP:FF PPU:300,165 CYC:18862
C658  F0 F9     BEQ $C653                       A:00 X:FF Y:00 P:26 SP:FF PPU:306,165 CYC:18864
C653  AD 02 20  LDA $2002 = FF                  A:00 X:FF Y:00 P:26 SP:FF PPU:315,165 CYC:18867
C656  29 80     AND #$80                        A:10 X:FF Y:00 P:24 SP:FF PPU:327,165 CYC:18871
C658  F0 F9     BEQ $C653                       A:00 X:FF Y:00 P:26 SP:FF PPU:333,165 CYC:18873
C653  AD 02 20  LDA $2002 = FF                  A:00 X:FF Y:00 P:26 SP:FF PPU:  1,166 CYC:18876
C656  29 80     AND #$80                        A:10 X:FF Y:00 P:24 SP:FF PPU: 13,166 CYC:18880
C658  F0 F9     BEQ $C653                       A:00 X:FF Y:00 P:26 SP:FF PPU: 19,166 CYC:18882
C653  AD 02 20  LDA $2002 = FF                  A:00 X:FF Y:00 P:26 SP:FF PPU: 28,166 CYC:18885
C656  29 80     AND #$80                        A:10 X:FF Y:00 P:24 SP:FF PPU: 40,166 CYC:18889
C658  F0 F9     BEQ $C653                       A:00 X:FF Y:00 P:26 SP:FF PPU: 46,166 CYC:18891
C653  AD 02 20  LDA $2002 = FF                  A:00 X:FF Y:00 P:26 SP:FF PPU: 55,166 CYC:18894
C656  29 80     AND #$80                        A:10 X:FF Y:00 P:24 SP:FF PPU: 67,166 CYC:18898
C658  F0 F9     BEQ $C653                       A:00 X:FF Y:00 P:26 SP:FF PPU: 73,166 CYC:18900
C653  AD 02 20  LDA $2002 = FF                  A:00 X:FF Y:00 P:26 SP:FF PPU: 82,166 CYC:18903
C656  29 80     AND #$80                        A:10 X:FF Y:00 P:24 SP:FF PPU: 94,166 CYC:18907
C658  F0 F9     BEQ $C653                       A:00 X:FF Y:00 P:26 SP:FF PPU:100,166 CYC:18909
C653  AD 02 20  LDA $2002 = FF                  A:00 X:FF Y:00 P:26 SP:FF PPU:109,166 CYC:18912
C656  29 80     AND #$80                        A:10 X:FF Y:00 P:24 SP:FF PPU:121,166 CYC:18916
C658  F0 F9     BEQ $C653                       A:00 X:FF Y:00 P:26 SP:FF PPU:127,166 CYC:18918
C653  AD 02 20  LDA $2002 = FF                  A:00 X:FF Y:00 P:26 SP:FF PPU:136,166 CYC:18921
C656  29 80     AND #$80                        A:10 X:FF Y:00 P:24 SP:FF PPU:148,166 CYC:18925
C658  F0 F9     BEQ $C653                       A:00 X:FF Y:00 P:26 SP:FF PPU:154,166 CYC:18927
C653  AD 02 20  LDA $2002 = FF                  A:00 X:FF Y:00 P:26 SP:FF PPU:163,166 CYC:18930
C656  29 80     AND #$80                        A:10 X:FF Y:00 P:24 SP:FF PPU:175,166 CYC:18934
C658  F0 F9     BEQ $C653                       A:00 X:FF Y:00 P:26 SP:FF PPU:181,166 CYC:18936
C653  AD 02 20  LDA $2002 = FF                  A:00 X:FF Y:00 P:26 SP:FF PPU:190,166 CYC:18939
C656  29 80     AND #$80                        A:10 X:FF Y:00 P:24 SP:FF PPU:202,166 CYC:18943
C658  F0 F9     BEQ $C653                       A:00 X:FF Y:00 P:26 SP:FF PPU:208,166 CYC:18945
C653  AD 02 20  LDA $2002 = FF                  A:00 X:FF Y:00 P:26 SP:FF PPU:217,166 CYC:18948
C656  29 80     AND #$80                        A:10 X:FF Y:00 P:24 SP:FF PPU:229,166 CYC:18952
C658  F0 F9     BEQ $C653                       A:00 X:FF Y:00 P:26 SP:FF PPU:235,166 CYC:18954
C653  AD 02 20  LDA $2002 = FF                  A:00 X:FF Y:00 P:26 SP:FF PPU:244,166 CYC:18957
C656  29 80     AND #$80                        A:10 X:FF Y:00 P:24 SP:FF PPU:256,166 CYC:18961
C658  F0 F9     BEQ $C653                       A:00 X:FF Y:00 P:26 SP:FF PPU:262,166 CYC:18963
C653  AD 02 20  LDA $2002 = FF                  A:00 X:FF Y:00 P:26 SP:FF PPU:271,166 CYC:18966
C656  29 80     AND #$80                        A:10 X:FF Y:00 P:24 SP:FF PPU:283,166 CYC:18970
C658  F0 F9     BEQ $C653                       A:00 X:FF Y:00 P:26 SP:FF PPU:289,166 CYC:18972
C653  AD 02 20  LDA $2002 = FF                  A:00 X:FF Y:00 P:26 SP:FF PPU:298,166 CYC:18975
C656  29 80     AND #$80                        A:10 X:FF Y:00 P:24 SP:FF PPU:310,166 CYC:18979
C658  F0 F9     BEQ $C653                       A:00 X:FF Y:00 P:26 SP:FF PPU:316,166 CYC:18981
C653  AD 02 20  LDA $2002 = FF                  A:00 X:FF Y:00 P:26 SP:FF PPU:325,166 CYC:18984
C656  29 80     AND #$80                        A:10 X:FF Y:00 P:24 SP:FF PPU:337,166 CYC:18988
C658  F0 F9     BEQ $C653                       A:00 X:FF Y:00 P:26 SP:FF PPU:  2,167 CYC:18990
C653  AD 02 20  LDA $2002 = FF                  A:00 X:FF Y:00 P:26 SP:FF PPU: 11,167 CYC:18993
C656  29 80     AND #$80                        A:10 X:FF Y:00 P:24 SP:FF PPU: 23,167 CYC:18997
C658  F0 F9     BEQ $C653                       A:00 X:FF Y:00 P:26 SP:FF PPU: 29,167 CYC:18999
C653  AD 02 20  LDA $2002 = FF                  A:00 X:FF Y:00 P:26 SP:FF PPU: 38,167 CYC:19002
C656  29 80     AND #$80                        A:10 X:FF Y:00 P:24 SP:FF PPU: 50,167 CYC:19006
C658  F0 F9     BEQ $C653                       A:00 X:FF Y:00 P:26 SP:FF PPU: 56,167 CYC:19008
C653  AD 02 20  LDA $2002 = FF                  A:00 X:FF Y:00 P:26 SP:FF PPU: 65,167 CYC:19011
C656  29 80     AND #$80                        A:10 X:FF Y:00 P:24 SP:FF PPU: 77,167 CYC:19015
C658  F0 F9     BEQ $C653                       A:00 X:FF Y:00 P:26 SP:FF PPU: 83,167 CYC:19017
C653  AD 02 20  LDA $2002 = FF                  A:00 X:FF Y:00 P:26 SP:FF PPU: 92,167 CYC:19020
C656  29 80     AND #$80                        A:10 X:FF Y:00 P:24 SP:FF PPU:104,167 CYC:19024
C658  F0 F9     BEQ $C653                       A:00 X:FF Y:00 P:26 SP:FF PPU:110,167 CYC:19026
C653  AD 02 20  LDA $2002 = FF                  A:00 X:FF Y:00 P:26 SP:FF PPU:119,167 CYC:19029
C656  29 80     AND #$80                        A:10 X:FF Y:00 P:24 SP:FF PPU:131,167 CYC:19033
C658  F0 F9     BEQ $C653                       A:00 X:FF Y:00 P:26 SP:FF PPU:137,167 CYC:19035
C653  AD 02 20  LDA $2002 = FF                  A:00 X:FF Y:00 P:26 SP:FF PPU:146,167 CYC:19038
C656  29 80     AND #$80                        A:10 X:FF Y:00 P:24 SP:FF PPU:158,167 CYC:19042
C658  F0 F9     BEQ $C653                       A:00 X:FF Y:00 P:26 SP:FF PPU:164,167 CYC:19044
C653  AD 02 20  LDA $2002 = FF                  A:00 X:FF Y:00 P:26 SP:FF PPU:173,167 CYC:19047
C656  29 80     AND #$80                        A:10 X:FF Y:00 P:24 SP:FF PPU:185,167 CYC:19051
C658  F0 F9     BEQ $C653                       A:00 X:FF Y:00 P:26 SP:FF PPU:191,167 CYC:19053
C653  AD 02 20  LDA $2002 = FF                  A:00 X:FF Y:00 P:26 SP:FF PPU:200,167 CYC:19056
C656  29 80     AND #$80                        A:10 X:FF Y:00 P:24 SP:FF PPU:212,167 CYC:19060
C658  F0 F9     BEQ $C653                       A:00 X:FF Y:00 P:26 SP:FF PPU:218,167 CYC:19062
C653  AD 02 20  LDA $2002 = FF                  A:00 X:FF Y:00 P:26 SP:FF PPU:227,167 CYC:19065
C656  29 80     AND #$80                        A:10 X:FF Y:00 P:24 SP:FF PPU:239,167 CYC:19069
C658  F0 F9     BEQ $C653                       A:00 X:FF Y:00 P:26 SP:FF PPU:245,167 CYC:19071
C653  AD 02 20  LDA $2002 = FF                  A:00 X:FF Y:00 P:26 SP:FF PPU:254,167 CYC:19074
C656  29 80     AND #$80                        A:10 X:FF Y:00 P:24 SP:FF PPU:266,167 CYC:19078
C658  F0 F9     BEQ $C653                       A:00 X:FF Y:00 P:26 SP:FF PPU:272,167 CYC:19080
C653  AD 02 20  LDA $2002 = FF                  A:00 X:FF Y:00 P:26 SP:FF PPU:281,167 CYC:19083
C656  29 80     AND #$80                        A:10 X:FF Y:00 P:24 SP:FF PPU:293,167 CYC:19087
C658  F0 F9     BEQ $C653                       A:00 X:FF Y:00 P:26 SP:FF PPU:299,167 CYC:19089
C653  AD 02 20  LDA $2002 = FF                  A:00 X:FF Y:00 P:26 SP:FF PPU:308,167 CYC:19092
C656  29 80     AND #$80                        A:10 X:FF Y:00 P:24 SP:FF PPU:320,167 CYC:19096
C658  F0 F9     BEQ $C653                       A:00 X:FF Y:00 P:26 SP:FF PPU:326,167 CYC:19098
C653  AD 02 20  LDA $2002 = FF                  A:00 X:FF Y:00 P:26 SP:FF PPU:335,167 CYC:19101
C656  29 80     AND #$80                        A:10 X:FF Y:00 P:24 SP:FF PPU:  6,168 CYC:19105
C658  F0 F9     BEQ $C653                       A:00 X:FF Y:00 P:26 SP:FF PPU: 12,168 CYC:19107
C653  AD 02 20  LDA $2002 = FF                  A:00 X:FF Y:00 P:26 SP:FF PPU: 21,168 CYC:19110
C656  29 80     AND #$80                        A:10 X:FF Y:00 P:24 SP:FF PPU: 33,168 CYC:19114
C658  F0 F9     BEQ $C653                       A:00 X:FF Y:00 P:26 SP:FF PPU: 39,168 CYC:19116
C653  AD 02 20  LDA $2002 = FF                  A:00 X:FF Y:00 P:26 SP:FF PPU: 48,168 CYC:19119
C656  29 80     AND #$80                        A:10 X:FF Y:00 P:24 SP:FF PPU: 60,168 CYC:19123
C658  F0 F9     BEQ $C653                       A:00 X:FF Y:00 P:26 SP:FF PPU: 66,168 CYC:19125
C653  AD 02 20  LDA $2002 = FF                  A:00 X:FF Y:00 P:26 SP:FF PPU: 75,168 CYC:19128
C656  29 80     AND #$80                        A:10 X:FF Y:00 P:24 SP:FF PPU: 87,168 CYC:19132
C658  F0 F9     BEQ $C653                       A:00 X:FF Y:00 P:26 SP:FF PPU: 93,168 CYC:19134
C653  AD 02 20  LDA $2002 = FF                  A:00 X:FF Y:00 P:26 SP:FF PPU:102,168 CYC:19137
C656  29 80     AND #$80                        A:10 X:FF Y:00 P:24 SP:FF PPU:114,168 CYC:19141
C658  F0 F9     BEQ $C653                       A:00 X:FF Y:00 P:26 SP:FF PPU:120,168 CYC:19143
C653  AD 02 20  LDA $2002 = FF                  A:00 X:FF Y:00 P:26 SP:FF PPU:129,168 CYC:19146
C656  29 80     AND #$80                        A:10 X:FF Y:00 P:24 SP:FF PPU:141,168 CYC:19150
C658  F0 F9     BEQ $C653                       A:00 X:FF Y:00 P:26 SP:FF PPU:147,168 CYC:19152
C653  AD 02 20  LDA $2002 = FF                  A:00 X:FF Y:00 P:26 SP:FF PPU:156,168 CYC:19155
C656  29 80     AND #$80                        A:10 X:FF Y:00 P:24 SP:FF PPU:168,168 CYC:19159
C658  F0 F9     BEQ $C653                       A:00 X:FF Y:00 P:26 SP:FF PPU:174,168 CYC:19161
C653  AD 02 20  LDA $2002 = FF                  A:00 X:FF Y:00 P:26 SP:FF PPU:183,168 CYC:19164
C656  29 80     AND #$80                        A:10 X:FF Y:00 P:24 SP:FF PPU:195,168 CYC:19168
C658  F0 F9     BEQ $C653                       A:00 X:FF Y:00 P:26 SP:FF PPU:201,168 CYC:19170
C653  AD 02 20  LDA $2002 = FF                  A:00 X:FF Y:00 P:26 SP:FF PPU:210,168 CYC:19173
C656  29 80     AND #$80                        A:10 X:FF Y:00 P:24 SP:FF PPU:222,168 CYC:19177
C658  F0 F9     BEQ $C653                       A:00 X:FF Y:00 P:26 SP:FF PPU:228,168 CYC:19179
C653  AD 02 20  LDA $2002 = FF                  A:00 X:FF Y:00 P:26 SP:FF PPU:237,168 CYC:19182
C656  29 80     AND #$80                        A:10 X:FF Y:00 P:24 SP:FF PPU:249,168 CYC:19186
C658  F0 F9     BEQ $C653                       A:00 X:FF Y:00 P:26 SP:FF PPU:255,168 CYC:19188
C653  AD 02 20  LDA $2002 = FF                  A:00 X:FF Y:00 P:26 SP:FF PPU:264,168 CYC:19191
C656  29 80     AND #$80                        A:10 X:FF Y:00 P:24 SP:FF PPU:276,168 CYC:19195
C658  F0 F9     BEQ $C653                       A:00 X:FF Y:00 P:26 SP:FF PPU:282,168 CYC:19197
C653  AD 02 20  LDA $2002 = FF                  A:00 X:FF Y:00 P:26 SP:FF PPU:291,168 CYC:19200
C656  29 80     AND #$80                        A:10 X:FF Y:00 P:24 SP:FF PPU:303,168 CYC:19204
C658  F0 F9     BEQ $C653                       A:00 X:FF Y:00 P:26 SP:FF PPU:309,168 CYC:19206
C653  AD 02 20  LDA $2002 = FF                  A:00 X:FF Y:00 P:26 SP:FF PPU:318,168 CYC:19209
C656  29 80     AND #$80                        A:10 X:FF Y:00 P:24 SP:FF PPU:330,168 CYC:19213
C658  F0 F9     BEQ $C653                       A:00 X:FF Y:00 P:26 SP:FF PPU:336,168 CYC:19215
C653  AD 02 20  LDA $2002 = FF                  A:00 X:FF Y:00 P:26 SP:FF PPU:  4,169 CYC:19218
C656  29 80     AND #$80                        A:10 X:FF Y:00 P:24 SP:FF PPU: 16,169 CYC:19222
C658  F0 F9     BEQ $C653                       A:00 X:FF Y:00 P:26 SP:FF PPU: 22,169 CYC:19224
C653  AD 02 20  LDA $2002 = FF                  A:00 X:FF Y:00 P:26 SP:FF PPU: 31,169 CYC:19227
C656  29 80     AND #$80                        A:10 X:FF Y:00 P:24 SP:FF PPU: 43,169 CYC:19231
C658  F0 F9     BEQ $C653                       A:00 X:FF Y:00 P:26 SP:FF PPU: 49,169 CYC:19233
C653  AD 02 20  LDA $2002 = FF                  A:00 X:FF Y:00 P:26 SP:FF PPU: 58,169 CYC:19236
C656  29 80     AND #$80                        A:10 X:FF Y:00 P:24 SP:FF PPU: 70,169 CYC:19240
C658  F0 F9     BEQ $C653                       A:00 X:FF Y:00 P:26 SP:FF PPU: 76,169 CYC:19242
C653  AD 02 20  LDA $2002 = FF                  A:00 X:FF Y:00 P:26 SP:FF PPU: 85,169 CYC:19245
C656  29 80     AND #$80                        A:10 X:FF Y:00 P:24 SP:FF PPU: 97,169 CYC:19249
C658  F0 F9     BEQ $C653                       A:00 X:FF Y:00 P:26 SP:FF PPU:103,169 CYC:19251
C653  AD 02 20  LDA $2002 = FF                  A:00 X:FF Y:00 P:26 SP:FF PPU:112,169 CYC:19254
C656  29 80     AND #$80                        A:10 X:FF Y:00 P:24 SP:FF PPU:124,169 CYC:19258
C658  F0 F9     BEQ $C653                       A:00 X:FF Y:00 P:26 SP:FF PPU:130,169 CYC:19260
C653  AD 02 20  LDA $2002 = FF                  A:00 X:FF Y:00 P:26 SP:FF PPU:139,169 CYC:19263
C656  29 80     AND #$80                        A:10 X:FF Y:00 P:24 SP:FF PPU:151,169 CYC:19267
C658  F0 F9     BEQ $C653                       A:00 X:FF Y:00 P:26 SP:FF PPU:157,169 CYC:19269
C653  AD 02 20  LDA $2002 = FF                  A:00 X:FF Y:00 P:26 SP:FF PPU:166,169 CYC:19272
C656  29 80     AND #$80                        A:10 X:FF Y:00 P:24 SP:FF PPU:178,169 CYC:19276
C658  F0 F9     BEQ $C653                       A:00 X:FF Y:00 P:26 SP:FF PPU:184,169 CYC:19278
C653  AD 02 20  LDA $2002 = FF                  A:00 X:FF Y:00 P:26 SP:FF PPU:193,169 CYC:19281
C656  29 80     AND #$80                        A:10 X:FF Y:00 P:24 SP:FF PPU:205,169 CYC:19285
C658  F0 F9     BEQ $C653                       A:00 X:FF Y:00 P:26 SP:FF PPU:211,169 CYC:19287
C653  AD 02 20  LDA $2002 = FF                  A:00 X:FF Y:00 P:26 SP:FF PPU:220,169 CYC:19290
C656  29 80     AND #$80                        A:10 X:FF Y:00 P:24 SP:FF PPU:232,169 CYC:19294
C658  F0 F9     BEQ $C653                       A:00 X:FF Y:00 P:26 SP:FF PPU:238,169 CYC:19296
C653  AD 02 20  LDA $2002 = FF                  A:00 X:FF Y:00 P:26 SP:FF PPU:247,169 CYC:19299
C656  29 80     AND #$80                        A:10 X:FF Y:00 P:24 SP:FF PPU:259,169 CYC:19303
C658  F0 F9     BEQ $C653                       A:00 X:FF Y:00 P:26 SP:FF PPU:265,169 CYC:19305
C653  AD 02 20  LDA $2002 = FF                  A:00 X:FF Y:00 P:26 SP:FF PPU:274,169 CYC:19308
C656  29 80     AND #$80                        A:10 X:FF Y:00 P:24 SP:FF PPU:286,169 CYC:19312
C658  F0 F9     BEQ $C653                       A:00 X:FF Y:00 P:26 SP:FF PPU:292,169 CYC:19314
C653  AD 02 20  LDA $2002 = FF                  A:00 X:FF Y:00 P:26 SP:FF PPU:301,169 CYC:19317
C656  29 80     AND #$80                        A:10 X:FF Y:00 P:24 SP:FF PPU:313,169 CYC:19321
C658  F0 F9     BEQ $C653                       A:00 X:FF Y:00 P:26 SP:FF PPU:319,169 CYC:19323
C653  AD 02 20  LDA $2002 = FF                  A:00 X:FF Y:00 P:26 SP:FF PPU:328,169 CYC:19326
C656  29 80     AND #$80                        A:10 X:FF Y:00 P:24 SP:FF PPU:340,169 CYC:19330
C658  F0 F9     BEQ $C653                       A:00 X:FF Y:00 P:26 SP:FF PPU:  5,170 CYC:19332
C653  AD 02 20  LDA $2002 = FF                  A:00 X:FF Y:00 P:26 SP:FF PPU: 14,170 CYC:19335
C656  29 80     AND #$80                        A:10 X:FF Y:00 P:24 SP:FF PPU: 26,170 CYC:19339
C658  F0 F9     BEQ $C653                       A:00 X:FF Y:00 P:26 SP:FF PPU: 32,170 CYC:19341
C653  AD 02 20  LDA $2002 = FF                  A:00 X:FF Y:00 P:26 SP:FF PPU: 41,170 CYC:19344
C656  29 80     AND #$80                        A:10 X:FF Y:00 P:24 SP:FF PPU: 53,170 CYC:19348
C658  F0 F9     BEQ $C653                       A:00 X:FF Y:00 P:26 SP:FF PPU: 59,170 CYC:19350
C653  AD 02 20  LDA $2002 = FF                  A:00 X:FF Y:00 P:26 SP:FF PPU: 68,170 CYC:19353
C656  29 80     AND #$80                        A:10 X:FF Y:00 P:24 SP:FF PPU: 80,170 CYC:19357
C658  F0 F9     BEQ $C653                       A:00 X:FF Y:00 P:26 SP:FF PPU: 86,170 CYC:19359
C653  AD 02 20  LDA $2002 = FF                  A:00 X:FF Y:00 P:26 SP:FF PPU: 95,170 CYC:19362
C656  29 80     AND #$80                        A:10 X:FF Y:00 P:24 SP:FF PPU:107,170 CYC:19366
C658  F0 F9     BEQ $C653                       A:00 X:FF Y:00 P:26 SP:FF PPU:113,170 CYC:19368
C653  AD 02 20  LDA $2002 = FF                  A:00 X:FF Y:00 P:26 SP:FF PPU:122,170 CYC:19371
C656  29 80     AND #$80                        A:10 X:FF Y:00 P:24 SP:FF PPU:134,170 CYC:19375
C658  F0 F9     BEQ $C653                       A:00 X:FF Y:00 P:26 SP:FF PPU:140,170 CYC:19377
C653  AD 02 20  LDA $2002 = FF                  A:00 X:FF Y:00 P:26 SP:FF PPU:149,170 CYC:19380
C656  29 80     AND #$80                        A:10 X:FF Y:00 P:24 SP:FF PPU:161,170 CYC:19384
C658  F0 F9     BEQ $C653                       A:00 X:FF Y:00 P:26 SP:FF PPU:167,170 CYC:19386
C653  AD 02 20  LDA $2002 = FF                  A:00 X:FF Y:00 P:26 SP:FF PPU:176,170 CYC:19389
C656  29 80     AND #$80                        A:10 X:FF Y:00 P:24 SP:FF PPU:188,170 CYC:19393
C658  F0 F9     BEQ $C653                       A:00 X:FF Y:00 P:26 SP:FF PPU:194,170 CYC:19395
C653  AD 02 20  LDA $2002 = FF                  A:00 X:FF Y:00 P:26 SP:FF PPU:203,170 CYC:19398
C656  29 80     AND #$80                        A:10 X:FF Y:00 P:24 SP:FF PPU:215,170 CYC:19402
C658  F0 F9     BEQ $C653                       A:00 X:FF Y:00 P:26 SP:FF PPU:221,170 CYC:19404
C653  AD 02 20  LDA $2002 = FF                  A:00 X:FF Y:00 P:26 SP:FF PPU:230,170 CYC:19407
C656  29 80     AND #$80                        A:10 X:FF Y:00 P:24 SP:FF PPU:242,170 CYC:19411
C658  F0 F9     BEQ $C653                       A:00 X:FF Y:00 P:26 SP:FF PPU:248,170 CYC:19413
C653  AD 02 20  LDA $2002 = FF                  A:00 X:FF Y:00 P:26 SP:FF PPU:257,170 CYC:19416
C656  29 80     AND #$80                        A:10 X:FF Y:00 P:24 SP:FF PPU:269,170 CYC:19420
C658  F0 F9     BEQ $C653                       A:00 X:FF Y:00 P:26 SP:FF PPU:275,170 CYC:19422
C653  AD 02 20  LDA $2002 = FF                  A:00 X:FF Y:00 P:26 SP:FF PPU:284,170 CYC:19425
C656  29 80     AND #$80                        A:10 X:FF Y:00 P:24 SP:FF PPU:296,170 CYC:19429
C658  F0 F9     BEQ $C653                       A:00 X:FF Y:00 P:26 SP:FF PPU:302,170 CYC:19431
C653  AD 02 20  LDA $2002 = FF                  A:00 X:FF Y:00 P:26 SP:FF PPU:311,170 CYC:19434
C656  29 80     AND #$80                        A:10 X:FF Y:00 P:24 SP:FF PPU:323,170 CYC:19438
C658  F0 F9     BEQ $C653                       A:00 X:FF Y:00 P:26 SP:FF PPU:329,170 CYC:19440
C653  AD 02 20  LDA $2002 = FF                  A:00 X:FF Y:00 P:26 SP:FF PPU:338,170 CYC:19443
C656  29 80     AND #$80                        A:10 X:FF Y:00 P:24 SP:FF PPU:  9,171 CYC:19447
C658  F0 F9     BEQ $C653                       A:00 X:FF Y:00 P:26 SP:FF PPU: 15,171 CYC:19449
C653  AD 02 20  LDA $2002 = FF                  A:00 X:FF Y:00 P:26 SP:FF PPU: 24,171 CYC:19452
C656  29 80     AND #$80                        A:10 X:FF Y:00 P:24 SP:FF PPU: 36,171 CYC:19456
C658  F0 F9     BEQ $C653                       A:00 X:FF Y:00 P:26 SP:FF PPU: 42,171 CYC:19458
C653  AD 02 20  LDA $2002 = FF                  A:00 X:FF Y:00 P:26 SP:FF PPU: 51,171 CYC:19461
C656  29 80     AND #$80                        A:10 X:FF Y:00 P:24 SP:FF PPU: 63,171 CYC:19465
C658  F0 F9     BEQ $C653                       A:00 X:FF Y:00 P:26 SP:FF PPU: 69,171 CYC:19467
C653  AD 02 20  LDA $2002 = FF                  A:00 X:FF Y:00 P:26 SP:FF PPU: 78,171 CYC:19470
C656  29 80     AND #$80                        A:10 X:FF Y:00 P:24 SP:FF PPU: 90,171 CYC:19474
C658  F0 F9     BEQ $C653                       A:00 X:FF Y:00 P:26 SP:FF PPU: 96,171 CYC:19476
C653  AD 02 20  LDA $2002 = FF                  A:00 X:FF Y:00 P:26 SP:FF PPU:105,171 CYC:19479
C656  29 80     AND #$80                        A:10 X:FF Y:00 P:24 SP:FF PPU:117,171 CYC:19483
C658  F0 F9     BEQ $C653                       A:00 X:FF Y:00 P:26 SP:FF PPU:123,171 CYC:19485
C653  AD 02 20  LDA $2002 = FF                  A:00 X:FF Y:00 P:26 SP:FF PPU:132,171 CYC:19488
C656  29 80     AND #$80                        A:10 X:FF Y:00 P:24 SP:FF PPU:144,171 CYC:19492
C658  F0 F9     BEQ $C653                       A:00 X:FF Y:00 P:26 SP:FF PPU:150,171 CYC:19494
C653  AD 02 20  LDA $2002 = FF                  A:00 X:FF Y:00 P:26 SP:FF PPU:159,171 CYC:19497
C656  29 80     AND #$80                        A:10 X:FF Y:00 P:24 SP:FF PPU:171,171 CYC:19501
C658  F0 F9     BEQ $C653                       A:00 X:FF Y:00 P:26 SP:FF PPU:177,171 CYC:19503
C653  AD 02 20  LDA $2002 = FF                  A:00 X:FF Y:00 P:26 SP:FF PPU:186,171 CYC:19506
C656  29 80     AND #$80                        A:10 X:FF Y:00 P:24 SP:FF PPU:198,171 CYC:19510
C658  F0 F9     BEQ $C653                       A:00 X:FF Y:00 P:26 SP:FF PPU:204,171 CYC:19512
C653  AD 02 20  LDA $2002 = FF                  A:00 X:FF Y:00 P:26 SP:FF PPU:213,171 CYC:19515
C656  29 80     AND #$80                        A:10 X:FF Y:00 P:24 SP:FF PPU:225,171 CYC:19519
C658  F0 F9     BEQ $C653                       A:00 X:FF Y:00 P:26 SP:FF PPU:231,171 CYC:19521
C653  AD 02 20  LDA $2002 = FF                  A:00 X:FF Y:00 P:26 SP:FF PPU:240,171 CYC:19524
C656  29 80     AND #$80                        A:10 X:FF Y:00 P:24 SP:FF PPU:252,171 CYC:19528
C658  F0 F9     BEQ $C653                       A:00 X:FF Y:00 P:26 SP:FF PPU:258,171 CYC:19530
C653  AD 02 20  LDA $2002 = FF                  A:00 X:FF Y:00 P:26 SP:FF PPU:267,171 CYC:19533
C656  29 80     AND #$80                        A:10 X:FF Y:00 P:24 SP:FF PPU:279,171 CYC:19537
C658  F0 F9     BEQ $C653                       A:00 X:FF Y:00 P:26 SP:FF PPU:285,171 CYC:19539
C653  AD 02 20  LDA $2002 = FF                  A:00 X:FF Y:00 P:26 SP:FF PPU:294,171 CYC:19542
C656  29 80     AND #$80                        A:10 X:FF Y:00 P:24 SP:FF PPU:306,171 CYC:19546
C658  F0 F9     BEQ $C653                       A:00 X:FF Y:00 P:26 SP:FF PPU:312,171 CYC:19548
C653  AD 02 20  LDA $2002 = FF                  A:00 X:FF Y:00 P:26 SP:FF PPU:321,171 CYC:19551
C656  29 80     AND #$80                        A:10 X:FF Y:00 P:24 SP:FF PPU:333,171 CYC:19555
C658  F0 F9     BEQ $C653                       A:00 X:FF Y:00 P:26 SP:FF PPU:339,171 CYC:19557
C653  AD 02 20  LDA $2002 = FF                  A:00 X:FF Y:00 P:26 SP:FF PPU:  7,172 CYC:19560
C656  29 80     AND #$80                        A:10 X:FF Y:00 P:24 SP:FF PPU: 19,172 CYC:19564
C658  F0 F9     BEQ $C653                       A:00 X:FF Y:00 P:26 SP:FF PPU: 25,172 CYC:19566
C653  AD 02 20  LDA $2002 = FF                  A:00 X:FF Y:00 P:26 SP:FF PPU: 34,172 CYC:19569
C656  29 80     AND #$80                        A:10 X:FF Y:00 P:24 SP:FF PPU: 46,172 CYC:19573
C658  F0 F9     BEQ $C653                       A:00 X:FF Y:00 P:26 SP:FF PPU: 52,172 CYC:19575
C653  AD 02 20  LDA $2002 = FF                  A:00 X:FF Y:00 P:26 SP:FF PPU: 61,172 CYC:19578
C656  29 80     AND #$80                        A:10 X:FF Y:00 P:24 SP:FF PPU: 73,172 CYC:19582
C658  F0 F9     BEQ $C653                       A:00 X:FF Y:00 P:26 SP:FF PPU: 79,172 CYC:19584
C653  AD 02 20  LDA $2002 = FF                  A:00 X:FF Y:00 P:26 SP:FF PPU: 88,172 CYC:19587
C656  29 80     AND #$80                        A:10 X:FF Y:00 P:24 SP:FF PPU:100,172 CYC:19591
C658  F0 F9     BEQ $C653                       A:00 X:FF Y:00 P:26 SP:FF PPU:106,172 CYC:19593
C653  AD 02 20  LDA $2002 = FF                  A:00 X:FF Y:00 P:26 SP:FF PPU:115,172 CYC:19596
C656  29 80     AND #$80                        A:10 X:FF Y:00 P:24 SP:FF PPU:127,172 CYC:19600
C658  F0 F9     BEQ $C653                       A:00 X:FF Y:00 P:26 SP:FF PPU:133,172 CYC:19602
C653  AD 02 20  LDA $2002 = FF                  A:00 X:FF Y:00 P:26 SP:FF PPU:142,172 CYC:19605
C656  29 80     AND #$80                        A:10 X:FF Y:00 P:24 SP:FF PPU:154,172 CYC:19609
C658  F0 F9     BEQ $C653                       A:00 X:FF Y:00 P:26 SP:FF PPU:160,172 CYC:19611
C653  AD 02 20  LDA $2002 = FF                  A:00 X:FF Y:00 P:26 SP:FF PPU:169,172 CYC:19614
C656  29 80     AND #$80                        A:10 X:FF Y:00 P:24 SP:FF PPU:181,172 CYC:19618
C658  F0 F9     BEQ $C653                       A:00 X:FF Y:00 P:26 SP:FF PPU:187,172 CYC:19620
C653  AD 02 20  LDA $2002 = FF                  A:00 X:FF Y:00 P:26 SP:FF PPU:196,172 CYC:19623
C656  29 80     AND #$80                        A:10 X:FF Y:00 P:24 SP:FF PPU:208,172 CYC:19627
C658  F0 F9     BEQ $C653                       A:00 X:FF Y:00 P:26 SP:FF PPU:214,172 CYC:19629
C653  AD 02 20  LDA $2002 = FF                  A:00 X:FF Y:00 P:26 SP:FF PPU:223,172 CYC:19632
C656  29 80     AND #$80                        A:10 X:FF Y:00 P:24 SP:FF PPU:235,172 CYC:19636
C658  F0 F9     BEQ $C653                       A:00 X:FF Y:00 P:26 SP:FF PPU:241,172 CYC:19638
C653  AD 02 20  LDA $2002 = FF                  A:00 X:FF Y:00 P:26 SP:FF PPU:250,172 CYC:19641
C656  29 80     AND #$80                        A:10 X:FF Y:00 P:24 SP:FF PPU:262,172 CYC:19645
C658  F0 F9     BEQ $C653                       A:00 X:FF Y:00 P:26 SP:FF PPU:268,172 CYC:19647
C653  AD 02 20  LDA $2002 = FF                  A:00 X:FF Y:00 P:26 SP:FF PPU:277,172 CYC:19650
C656  29 80     AND #$80                        A:10 X:FF Y:00 P:24 SP:FF PPU:289,172 CYC:19654
C658  F0 F9     BEQ $C653                       A:00 X:FF Y:00 P:26 SP:FF PPU:295,172 CYC:19656
C653  AD 02 20  LDA $2002 = FF                  A:00 X:FF Y:00 P:26 SP:FF PPU:304,172 CYC:19659
C656  29 80     AND #$80                        A:10 X:FF Y:00 P:24 SP:FF PPU:316,172 CYC:19663
C658  F0 F9     BEQ $C653                       A:00 X:FF Y:00 P:26 SP:FF PPU:322,172 CYC:19665
C653  AD 02 20  LDA $2002 = FF                  A:00 X:FF Y:00 P:26 SP:FF PPU:331,172 CYC:19668
C656  29 80     AND #$80                        A:10 X:FF Y:00 P:24 SP:FF PPU:  2,173 CYC:19672
C658  F0 F9     BEQ $C653                       A:00 X:FF Y:00 P:26 SP:FF PPU:  8,173 CYC:19674
C653  AD 02 20  LDA $2002 = FF                  A:00 X:FF Y:00 P:26 SP:FF PPU: 17,173 CYC:19677
C656  29 80     AND #$80                        A:10 X:FF Y:00 P:24 SP:FF PPU: 29,173 CYC:19681
C658  F0 F9     BEQ $C653                       A:00 X:FF Y:00 P:26 SP:FF PPU: 35,173 CYC:19683
C653  AD 02 20  LDA $2002 = FF                  A:00 X:FF Y:00 P:26 SP:FF PPU: 44,173 CYC:19686
C656  29 80     AND #$80                        A:10 X:FF Y:00 P:24 SP:FF PPU: 56,173 CYC:19690
C658  F0 F9     BEQ $C653                       A:00 X:FF Y:00 P:26 SP:FF PPU: 62,173 CYC:19692
C653  AD 02 20  LDA $2002 = FF                  A:00 X:FF Y:00 P:26 SP:FF PPU: 71,173 CYC:19695
C656  29 80     AND #$80                        A:10 X:FF Y:00 P:24 SP:FF PPU: 83,173 CYC:19699
C658  F0 F9     BEQ $C653                       A:00 X:FF Y:00 P:26 SP:FF PPU: 89,173 CYC:19701
C653  AD 02 20  LDA $2002 = FF                  A:00 X:FF Y:00 P:26 SP:FF PPU: 98,173 CYC:19704
C656  29 80     AND #$80                        A:10 X:FF Y:00 P:24 SP:FF PPU:110,173 CYC:19708
C658  F0 F9     BEQ $C653                       A:00 X:FF Y:00 P:26 SP:FF PPU:116,173 CYC:19710
C653  AD 02 20  LDA $2002 = FF                  A:00 X:FF Y:00 P:26 SP:FF PPU:125,173 CYC:19713
C656  29 80     AND #$80                        A:10 X:FF Y:00 P:24 SP:FF PPU:137,173 CYC:19717
C658  F0 F9     BEQ $C653                       A:00 X:FF Y:00 P:26 SP:FF PPU:143,173 CYC:19719
C653  AD 02 20  LDA $2002 = FF                  A:00 X:FF Y:00 P:26 SP:FF PPU:152,173 CYC:19722
C656  29 80     AND #$80                        A:10 X:FF Y:00 P:24 SP:FF PPU:164,173 CYC:19726
C658  F0 F9     BEQ $C653                       A:00 X:FF Y:00 P:26 SP:FF PPU:170,173 CYC:19728
C653  AD 02 20  LDA $2002 = FF                  A:00 X:FF Y:00 P:26 SP:FF PPU:179,173 CYC:19731
C656  29 80     AND #$80                        A:10 X:FF Y:00 P:24 SP:FF PPU:191,173 CYC:19735
C658  F0 F9     BEQ $C653                       A:00 X:FF Y:00 P:26 SP:FF PPU:197,173 CYC:19737
C653  AD 02 20  LDA $2002 = FF                  A:00 X:FF Y:00 P:26 SP:FF PPU:206,173 CYC:19740
C656  29 80     AND #$80                        A:10 X:FF Y:00 P:24 SP:FF PPU:218,173 CYC:19744
C658  F0 F9     BEQ $C653                       A:00 X:FF Y:00 P:26 SP:FF PPU:224,173 CYC:19746
C653  AD 02 20  LDA $2002 = FF                  A:00 X:FF Y:00 P:26 SP:FF PPU:233,173 CYC:19749
C656  29 80     AND #$80                        A:10 X:FF Y:00 P:24 SP:FF PPU:245,173 CYC:19753
C658  F0 F9     BEQ $C653                       A:00 X:FF Y:00 P:26 SP:FF PPU:251,173 CYC:19755
C653  AD 02 20  LDA $2002 = FF                  A:00 X:FF Y:00 P:26 SP:FF PPU:260,173 CYC:19758
C656  29 80     AND #$80                        A:10 X:FF Y:00 P:24 SP:FF PPU:272,173 CYC:19762
C658  F0 F9     BEQ $C653                       A:00 X:FF Y:00 P:26 SP:FF PPU:278,173 CYC:19764
C653  AD 02 20  LDA $2002 = FF                  A:00 X:FF Y:00 P:26 SP:FF PPU:287,173 CYC:19767
C656  29 80     AND #$80                        A:10 X:FF Y:00 P:24 SP:FF PPU:299,173 CYC:19771
C658  F0 F9     BEQ $C653                       A:00 X:FF Y:00 P:26 SP:FF PPU:305,173 CYC:19773
C653  AD 02 20  LDA $2002 = FF                  A:00 X:FF Y:00 P:26 SP:FF PPU:314,173 CYC:19776
C656  29 80     AND #$80                        A:10 X:FF Y:00 P:24 SP:FF PPU:326,173 CYC:19780
C658  F0 F9     BEQ $C653                       A:00 X:FF Y:00 P:26 SP:FF PPU:332,173 CYC:19782
C653  AD 02 20  LDA $2002 = FF                  A:00 X:FF Y:00 P:26 SP:FF PPU:  0,174 CYC:19785
C656  29 80     AND #$80                        A:10 X:FF Y:00 P:24 SP:FF PPU: 12,174 CYC:19789
C658  F0 F9     BEQ $C653                       A:00 X:FF Y:00 P:26 SP:FF PPU: 18,174 CYC:19791
C653  AD 02 20  LDA $2002 = FF                  A:00 X:FF Y:00 P:26 SP:FF PPU: 27,174 CYC:19794
C656  29 80     AND #$80                        A:10 X:FF Y:00 P:24 SP:FF PPU: 39,174 CYC:19798
C658  F0 F9     BEQ $C653                       A:00 X:FF Y:00 P:26 SP:FF PPU: 45,174 CYC:19800
C653  AD 02 20  LDA $2002 = FF                  A:00 X:FF Y:00 P:26 SP:FF PPU: 54,174 CYC:19803
C656  29 80     AND #$80                        A:10 X:FF Y:00 P:24 SP:FF PPU: 66,174 CYC:19807
C658  F0 F9     BEQ $C653                       A:00 X:FF Y:00 P:26 SP:FF PPU: 72,174 CYC:19809
C653  AD 02 20  LDA $2002 = FF                  A:00 X:FF Y:00 P:26 SP:FF PPU: 81,174 CYC:19812
C656  29 80     AND #$80                        A:10 X:FF Y:00 P:24 SP:FF PPU: 93,174 CYC:19816
C658  F0 F9     BEQ $C653                       A:00 X:FF Y:00 P:26 SP:FF PPU: 99,174 CYC:19818
C653  AD 02 20  LDA $2002 = FF                  A:00 X:FF Y:00 P:26 SP:FF PPU:108,174 CYC:19821
C656  29 80     AND #$80                        A:10 X:FF Y:00 P:24 SP:FF PPU:120,174 CYC:19825
C658  F0 F9     BEQ $C653                       A:00 X:FF Y:00 P:26 SP:FF PPU:126,174 CYC:19827
C653  AD 02 20  LDA $2002 = FF                  A:00 X:FF Y:00 P:26 SP:FF PPU:135,174 CYC:19830
C656  29 80     AND #$80                        A:10 X:FF Y:00 P:24 SP:FF PPU:147,174 CYC:19834
C658  F0 F9     BEQ $C653                       A:00 X:FF Y:00 P:26 SP:FF PPU:153,174 CYC:19836
C653  AD 02 20  LDA $2002 = FF                  A:00 X:FF Y:00 P:26 SP:FF PPU:162,174 CYC:19839
C656  29 80     AND #$80                        A:10 X:FF Y:00 P:24 SP:FF PPU:174,174 CYC:19843
C658  F0 F9     BEQ $C653                       A:00 X:FF Y:00 P:26 SP:FF PPU:180,174 CYC:19845
C653  AD 02 20  LDA $2002 = FF                  A:00 X:FF Y:00 P:26 SP:FF PPU:189,174 CYC:19848
C656  29 80     AND #$80                        A:10 X:FF Y:00 P:24 SP:FF PPU:201,174 CYC:19852
C658  F0 F9     BEQ $C653                       A:00 X:FF Y:00 P:26 SP:FF PPU:207,174 CYC:19854
C653  AD 02 20  LDA $2002 = FF                  A:00 X:FF Y:00 P:26 SP:FF PPU:216,174 CYC:19857
C656  29 80     AND #$80                        A:10 X:FF Y:00 P:24 SP:FF PPU:228,174 CYC:19861
C658  F0 F9     BEQ $C653                       A:00 X:FF Y:00 P:26 SP:FF PPU:234,174 CYC:19863
C653  AD 02 20  LDA $2002 = FF                  A:00 X:FF Y:00 P:26 SP:FF PPU:243,174 CYC:19866
C656  29 80     AND #$80                        A:10 X:FF Y:00 P:24 SP:FF PPU:255,174 CYC:19870
C658  F0 F9     BEQ $C653                       A:00 X:FF Y:00 P:26 SP:FF PPU:261,174 CYC:19872
C653  AD 02 20  LDA $2002 = FF                  A:00 X:FF Y:00 P:26 SP:FF PPU:270,174 CYC:19875
C656  29 80     AND #$80                        A:10 X:FF Y:00 P:24 SP:FF PPU:282,174 CYC:19879
C658  F0 F9     BEQ $C653                       A:00 X:FF Y:00 P:26 SP:FF PPU:288,174 CYC:19881
C653  AD 02 20  LDA $2002 = FF                  A:00 X:FF Y:00 P:26 SP:FF PPU:297,174 CYC:19884
C656  29 80     AND #$80                        A:10 X:FF Y:00 P:24 SP:FF PPU:309,174 CYC:19888
C658  F0 F9     BEQ $C653                       A:00 X:FF Y:00 P:26 SP:FF PPU:315,174 CYC:19890
C653  AD 02 20  LDA $2002 = FF                  A:00 X:FF Y:00 P:26 SP:FF PPU:324,174 CYC:19893
C656  29 80     AND #$80                        A:10 X:FF Y:00 P:24 SP:FF PPU:336,174 CYC:19897
C658  F0 F9     BEQ $C653                       A:00 X:FF Y:00 P:26 SP:FF PPU:  1,175 CYC:19899
C653  AD 02 20  LDA $2002 = FF                  A:00 X:FF Y:00 P:26 SP:FF PPU: 10,175 CYC:19902
C656  29 80     AND #$80                        A:10 X:FF Y:00 P:24 SP:FF PPU: 22,175 CYC:19906
C658  F0 F9     BEQ $C653                       A:00 X:FF Y:00 P:26 SP:FF PPU: 28,175 CYC:19908
C653  AD 02 20  LDA $2002 = FF                  A:00 X:FF Y:00 P:26 SP:FF PPU: 37,175 CYC:19911
C656  29 80     AND #$80                        A:10 X:FF Y:00 P:24 SP:FF PPU: 49,175 CYC:19915
C658  F0 F9     BEQ $C653                       A:00 X:FF Y:00 P:26 SP:FF PPU: 55,175 CYC:19917
C653  AD 02 20  LDA $2002 = FF                  A:00 X:FF Y:00 P:26 SP:FF PPU: 64,175 CYC:19920
C656  29 80     AND #$80                        A:10 X:FF Y:00 P:24 SP:FF PPU: 76,175 CYC:19924
C658  F0 F9     BEQ $C653                       A:00 X:FF Y:00 P:26 SP:FF PPU: 82,175 CYC:19926
C653  AD 02 20  LDA $2002 = FF                  A:00 X:FF Y:00 P:26 SP:FF PPU: 91,175 CYC:19929
C656  29 80     AND #$80                        A:10 X:FF Y:00 P:24 SP:FF PPU:103,175 CYC:19933
C658  F0 F9     BEQ $C653                       A:00 X:FF Y:00 P:26 SP:FF PPU:109,175 CYC:19935
C653  AD 02 20  LDA $2002 = FF                  A:00 X:FF Y:00 P:26 SP:FF PPU:118,175 CYC:19938
C656  29 80     AND #$80                        A:10 X:FF Y:00 P:24 SP:FF PPU:130,175 CYC:19942
C658  F0 F9     BEQ $C653                       A:00 X:FF Y:00 P:26 SP:FF PPU:136,175 CYC:19944
C653  AD 02 20  LDA $2002 = FF                  A:00 X:FF Y:00 P:26 SP:FF PPU:145,175 CYC:19947
C656  29 80     AND #$80                        A:10 X:FF Y:00 P:24 SP:FF PPU:157,175 CYC:19951
C658  F0 F9     BEQ $C653                       A:00 X:FF Y:00 P:26 SP:FF PPU:163,175 CYC:19953
C653  AD 02 20  LDA $2002 = FF                  A:00 X:FF Y:00 P:26 SP:FF PPU:172,175 CYC:19956
C656  29 80     AND #$80                        A:10 X:FF Y:00 P:24 SP:FF PPU:184,175 CYC:19960
C658  F0 F9     BEQ $C653                       A:00 X:FF Y:00 P:26 SP:FF PPU:190,175 CYC:19962
C653  AD 02 20  LDA $2002 = FF                  A:00 X:FF Y:00 P:26 SP:FF PPU:199,175 CYC:19965
C656  29 80     AND #$80                        A:10 X:FF Y:00 P:24 SP:FF PPU:211,175 CYC:19969
C658  F0 F9     BEQ $C653                       A:00 X:FF Y:00 P:26 SP:FF PPU:217,175 CYC:19971
C653  AD 02 20  LDA $2002 = FF                  A:00 X:FF Y:00 P:26 SP:FF PPU:226,175 CYC:19974
C656  29 80     AND #$80                        A:10 X:FF Y:00 P:24 SP:FF PPU:238,175 CYC:19978
C658  F0 F9     BEQ $C653                       A:00 X:FF Y:00 P:26 SP:FF PPU:244,175 CYC:19980
C653  AD 02 20  LDA $2002 = FF                  A:00 X:FF Y:00 P:26 SP:FF PPU:253,175 CYC:19983
C656  29 80     AND #$80                        A:10 X:FF Y:00 P:24 SP:FF PPU:265,175 CYC:19987
C658  F0 F9     BEQ $C653                       A:00 X:FF Y:00 P:26 SP:FF PPU:271,175 CYC:19989
C653  AD 02 20  LDA $2002 = FF                  A:00 X:FF Y:00 P:26 SP:FF PPU:280,175 CYC:19992
C656  29 80     AND #$80                        A:10 X:FF Y:00 P:24 SP:FF PPU:292,175 CYC:19996
C658  F0 F9     BEQ $C653                       A:00 X:FF Y:00 P:26 SP:FF PPU:298,175 CYC:19998
C653  AD 02 20  LDA $2002 = FF                  A:00 X:FF Y:00 P:26 SP:FF PPU:307,175 CYC:20001
C656  29 80     AND #$80                        A:10 X:FF Y:00 P:24 SP:FF PPU:319,175 CYC:20005
C658  F0 F9     BEQ $C653                       A:00 X:FF Y:00 P:26 SP:FF PPU:325,175 CYC:20007
C653  AD 02 20  LDA $2002 = FF                  A:00 X:FF Y:00 P:26 SP:FF PPU:334,175 CYC:20010
C656  29 80     AND #$80                        A:10 X:FF Y:00 P:24 SP:FF PPU:  5,176 CYC:20014
C658  F0 F9     BEQ $C653                       A:00 X:FF Y:00 P:26 SP:FF PPU: 11,176 CYC:20016
C653  AD 02 20  LDA $2002 = FF                  A:00 X:FF Y:00 P:26 SP:FF PPU: 20,176 CYC:20019
C656  29 80     AND #$80                        A:10 X:FF Y:00 P:24 SP:FF PPU: 32,176 CYC:20023
C658  F0 F9     BEQ $C653                       A:00 X:FF Y:00 P:26 SP:FF PPU: 38,176 CYC:20025
C653  AD 02 20  LDA $2002 = FF                  A:00 X:FF Y:00 P:26 SP:FF PPU: 47,176 CYC:20028
C656  29 80     AND #$80                        A:10 X:FF Y:00 P:24 SP:FF PPU: 59,176 CYC:20032
C658  F0 F9     BEQ $C653                       A:00 X:FF Y:00 P:26 SP:FF PPU: 65,176 CYC:20034
C653  AD 02 20  LDA $2002 = FF                  A:00 X:FF Y:00 P:26 SP:FF PPU: 74,176 CYC:20037
C656  29 80     AND #$80                        A:10 X:FF Y:00 P:24 SP:FF PPU: 86,176 CYC:20041
C658  F0 F9     BEQ $C653                       A:00 X:FF Y:00 P:26 SP:FF PPU: 92,176 CYC:20043
C653  AD 02 20  LDA $2002 = FF                  A:00 X:FF Y:00 P:26 SP:FF PPU:101,176 CYC:20046
C656  29 80     AND #$80                        A:10 X:FF Y:00 P:24 SP:FF PPU:113,176 CYC:20050
C658  F0 F9     BEQ $C653                       A:00 X:FF Y:00 P:26 SP:FF PPU:119,176 CYC:20052
C653  AD 02 20  LDA $2002 = FF                  A:00 X:FF Y:00 P:26 SP:FF PPU:128,176 CYC:20055
C656  29 80     AND #$80                        A:10 X:FF Y:00 P:24 SP:FF PPU:140,176 CYC:20059
C658  F0 F9     BEQ $C653                       A:00 X:FF Y:00 P:26 SP:FF PPU:146,176 CYC:20061
C653  AD 02 20  LDA $2002 = FF                  A:00 X:FF Y:00 P:26 SP:FF PPU:155,176 CYC:20064
C656  29 80     AND #$80                        A:10 X:FF Y:00 P:24 SP:FF PPU:167,176 CYC:20068
C658  F0 F9     BEQ $C653                       A:00 X:FF Y:00 P:26 SP:FF PPU:173,176 CYC:20070
C653  AD 02 20  LDA $2002 = FF                  A:00 X:FF Y:00 P:26 SP:FF PPU:182,176 CYC:20073
C656  29 80     AND #$80                        A:10 X:FF Y:00 P:24 SP:FF PPU:194,176 CYC:20077
C658  F0 F9     BEQ $C653                       A:00 X:FF Y:00 P:26 SP:FF PPU:200,176 CYC:20079
C653  AD 02 20  LDA $2002 = FF                  A:00 X:FF Y:00 P:26 SP:FF PPU:209,176 CYC:20082
C656  29 80     AND #$80                        A:10 X:FF Y:00 P:24 SP:FF PPU:221,176 CYC:20086
C658  F0 F9     BEQ $C653                       A:00 X:FF Y:00 P:26 SP:FF PPU:227,176 CYC:20088
C653  AD 02 20  LDA $2002 = FF                  A:00 X:FF Y:00 P:26 SP:FF PPU:236,176 CYC:20091
C656  29 80     AND #$80                        A:10 X:FF Y:00 P:24 SP:FF PPU:248,176 CYC:20095
C658  F0 F9     BEQ $C653                       A:00 X:FF Y:00 P:26 SP:FF PPU:254,176 CYC:20097
C653  AD 02 20  LDA $2002 = FF                  A:00 X:FF Y:00 P:26 SP:FF PPU:263,176 CYC:20100
C656  29 80     AND #$80                        A:10 X:FF Y:00 P:24 SP:FF PPU:275,176 CYC:20104
C658  F0 F9     BEQ $C653                       A:00 X:FF Y:00 P:26 SP:FF PPU:281,176 CYC:20106
C653  AD 02 20  LDA $2002 = FF                  A:00 X:FF Y:00 P:26 SP:FF PPU:290,176 CYC:20109
C656  29 80     AND #$80                        A:10 X:FF Y:00 P:24 SP:FF PPU:302,176 CYC:20113
C658  F0 F9     BEQ $C653                       A:00 X:FF Y:00 P:26 SP:FF PPU:308,176 CYC:20115
C653  AD 02 20  LDA $2002 = FF                  A:00 X:FF Y:00 P:26 SP:FF PPU:317,176 CYC:20118
C656  29 80     AND #$80                        A:10 X:FF Y:00 P:24 SP:FF PPU:329,176 CYC:20122
C658  F0 F9     BEQ $C653                       A:00 X:FF Y:00 P:26 SP:FF PPU:335,176 CYC:20124
C653  AD 02 20  LDA $2002 = FF                  A:00 X:FF Y:00 P:26 SP:FF PPU:  3,177 CYC:20127
C656  29 80     AND #$80                        A:10 X:FF Y:00 P:24 SP:FF PPU: 15,177 CYC:20131
C658  F0 F9     BEQ $C653                       A:00 X:FF Y:00 P:26 SP:FF PPU: 21,177 CYC:20133
C653  AD 02 20  LDA $2002 = FF                  A:00 X:FF Y:00 P:26 SP:FF PPU: 30,177 CYC:20136
C656  29 80     AND #$80                        A:10 X:FF Y:00 P:24 SP:FF PPU: 42,177 CYC:20140
C658  F0 F9     BEQ $C653                       A:00 X:FF Y:00 P:26 SP:FF PPU: 48,177 CYC:20142
C653  AD 02 20  LDA $2002 = FF                  A:00 X:FF Y:00 P:26 SP:FF PPU: 57,177 CYC:20145
C656  29 80     AND #$80                        A:10 X:FF Y:00 P:24 SP:FF PPU: 69,177 CYC:20149
C658  F0 F9     BEQ $C653                       A:00 X:FF Y:00 P:26 SP:FF PPU: 75,177 CYC:20151
C653  AD 02 20  LDA $2002 = FF                  A:00 X:FF Y:00 P:26 SP:FF PPU: 84,177 CYC:20154
C656  29 80     AND #$80                        A:10 X:FF Y:00 P:24 SP:FF PPU: 96,177 CYC:20158
C658  F0 F9     BEQ $C653                       A:00 X:FF Y:00 P:26 SP:FF PPU:102,177 CYC:20160
C653  AD 02 20  LDA $2002 = FF                  A:00 X:FF Y:00 P:26 SP:FF PPU:111,177 CYC:20163
C656  29 80     AND #$80                        A:10 X:FF Y:00 P:24 SP:FF PPU:123,177 CYC:20167
C658  F0 F9     BEQ $C653                       A:00 X:FF Y:00 P:26 SP:FF PPU:129,177 CYC:20169
C653  AD 02 20  LDA $2002 = FF                  A:00 X:FF Y:00 P:26 SP:FF PPU:138,177 CYC:20172
C656  29 80     AND #$80                        A:10 X:FF Y:00 P:24 SP:FF PPU:150,177 CYC:20176
C658  F0 F9     BEQ $C653                       A:00 X:FF Y:00 P:26 SP:FF PPU:156,177 CYC:20178
C653  AD 02 20  LDA $2002 = FF                  A:00 X:FF Y:00 P:26 SP:FF PPU:165,177 CYC:20181
C656  29 80     AND #$80                        A:10 X:FF Y:00 P:24 SP:FF PPU:177,177 CYC:20185
C658  F0 F9     BEQ $C653                       A:00 X:FF Y:00 P:26 SP:FF PPU:183,177 CYC:20187
C653  AD 02 20  LDA $2002 = FF                  A:00 X:FF Y:00 P:26 SP:FF PPU:192,177 CYC:20190
C656  29 80     AND #$80                        A:10 X:FF Y:00 P:24 SP:FF PPU:204,177 CYC:20194
C658  F0 F9     BEQ $C653                       A:00 X:FF Y:00 P:26 SP:FF PPU:210,177 CYC:20196
C653  AD 02 20  LDA $2002 = FF                  A:00 X:FF Y:00 P:26 SP:FF PPU:219,177 CYC:20199
C656  29 80     AND #$80                        A:10 X:FF Y:00 P:24 SP:FF PPU:231,177 CYC:20203
C658  F0 F9     BEQ $C653                       A:00 X:FF Y:00 P:26 SP:FF PPU:237,177 CYC:20205
C653  AD 02 20  LDA $2002 = FF                  A:00 X:FF Y:00 P:26 SP:FF PPU:246,177 CYC:20208
C656  29 80     AND #$80                        A:10 X:FF Y:00 P:24 SP:FF PPU:258,177 CYC:20212
C658  F0 F9     BEQ $C653                       A:00 X:FF Y:00 P:26 SP:FF PPU:264,177 CYC:20214
C653  AD 02 20  LDA $2002 = FF                  A:00 X:FF Y:00 P:26 SP:FF PPU:273,177 CYC:20217
C656  29 80     AND #$80                        A:10 X:FF Y:00 P:24 SP:FF PPU:285,177 CYC:20221
C658  F0 F9     BEQ $C653                       A:00 X:FF Y:00 P:26 SP:FF PPU:291,177 CYC:20223
C653  AD 02 20  LDA $2002 = FF                  A:00 X:FF Y:00 P:26 SP:FF PPU:300,177 CYC:20226
C656  29 80     AND #$80                        A:10 X:FF Y:00 P:24 SP:FF PPU:312,177 CYC:20230
C658  F0 F9     BEQ $C653                       A:00 X:FF Y:00 P:26 SP:FF PPU:318,177 CYC:20232
C653  AD 02 20  LDA $2002 = FF                  A:00 X:FF Y:00 P:26 SP:FF PPU:327,177 CYC:20235
C656  29 80     AND #$80                        A:10 X:FF Y:00 P:24 SP:FF PPU:339,177 CYC:20239
C658  F0 F9     BEQ $C653                       A:00 X:FF Y:00 P:26 SP:FF PPU:  4,178 CYC:20241
C653  AD 02 20  LDA $2002 = FF                  A:00 X:FF Y:00 P:26 SP:FF PPU: 13,178 CYC:20244
C656  29 80     AND #$80                        A:10 X:FF Y:00 P:24 SP:FF PPU: 25,178 CYC:20248
C658  F0 F9     BEQ $C653                       A:00 X:FF Y:00 P:26 SP:FF PPU: 31,178 CYC:20250
C653  AD 02 20  LDA $2002 = FF                  A:00 X:FF Y:00 P:26 SP:FF PPU: 40,178 CYC:20253
C656  29 80     AND #$80                        A:10 X:FF Y:00 P:24 SP:FF PPU: 52,178 CYC:20257
C658  F0 F9     BEQ $C653                       A:00 X:FF Y:00 P:26 SP:FF PPU: 58,178 CYC:20259
C653  AD 02 20  LDA $2002 = FF                  A:00 X:FF Y:00 P:26 SP:FF PPU: 67,178 CYC:20262
C656  29 80     AND #$80                        A:10 X:FF Y:00 P:24 SP:FF PPU: 79,178 CYC:20266
C658  F0 F9     BEQ $C653                       A:00 X:FF Y:00 P:26 SP:FF PPU: 85,178 CYC:20268
C653  AD 02 20  LDA $2002 = FF                  A:00 X:FF Y:00 P:26 SP:FF PPU: 94,178 CYC:20271
C656  29 80     AND #$80                        A:10 X:FF Y:00 P:24 SP:FF PPU:106,178 CYC:20275
C658  F0 F9     BEQ $C653                       A:00 X:FF Y:00 P:26 SP:FF PPU:112,178 CYC:20277
C653  AD 02 20  LDA $2002 = FF                  A:00 X:FF Y:00 P:26 SP:FF PPU:121,178 CYC:20280
C656  29 80     AND #$80                        A:10 X:FF Y:00 P:24 SP:FF PPU:133,178 CYC:20284
C658  F0 F9     BEQ $C653                       A:00 X:FF Y:00 P:26 SP:FF PPU:139,178 CYC:20286
C653  AD 02 20  LDA $2002 = FF                  A:00 X:FF Y:00 P:26 SP:FF PPU:148,178 CYC:20289
C656  29 80     AND #$80                        A:10 X:FF Y:00 P:24 SP:FF PPU:160,178 CYC:20293
C658  F0 F9     BEQ $C653                       A:00 X:FF Y:00 P:26 SP:FF PPU:166,178 CYC:20295
C653  AD 02 20  LDA $2002 = FF                  A:00 X:FF Y:00 P:26 SP:FF PPU:175,178 CYC:20298
C656  29 80     AND #$80                        A:10 X:FF Y:00 P:24 SP:FF PPU:187,178 CYC:20302
C658  F0 F9     BEQ $C653                       A:00 X:FF Y:00 P:26 SP:FF PPU:193,178 CYC:20304
C653  AD 02 20  LDA $2002 = FF                  A:00 X:FF Y:00 P:26 SP:FF PPU:202,178 CYC:20307
C656  29 80     AND #$80                        A:10 X:FF Y:00 P:24 SP:FF PPU:214,178 CYC:20311
C658  F0 F9     BEQ $C653                       A:00 X:FF Y:00 P:26 SP:FF PPU:220,178 CYC:20313
C653  AD 02 20  LDA $2002 = FF                  A:00 X:FF Y:00 P:26 SP:FF PPU:229,178 CYC:20316
C656  29 80     AND #$80                        A:10 X:FF Y:00 P:24 SP:FF PPU:241,178 CYC:20320
C658  F0 F9     BEQ $C653                       A:00 X:FF Y:00 P:26 SP:FF PPU:247,178 CYC:20322
C653  AD 02 20  LDA $2002 = FF                  A:00 X:FF Y:00 P:26 SP:FF PPU:256,178 CYC:20325
C656  29 80     AND #$80                        A:10 X:FF Y:00 P:24 SP:FF PPU:268,178 CYC:20329
C658  F0 F9     BEQ $C653                       A:00 X:FF Y:00 P:26 SP:FF PPU:274,178 CYC:20331
C653  AD 02 20  LDA $2002 = FF                  A:00 X:FF Y:00 P:26 SP:FF PPU:283,178 CYC:20334
C656  29 80     AND #$80                        A:10 X:FF Y:00 P:24 SP:FF PPU:295,178 CYC:20338
C658  F0 F9     BEQ $C653                       A:00 X:FF Y:00 P:26 SP:FF PPU:301,178 CYC:20340
C653  AD 02 20  LDA $2002 = FF                  A:00 X:FF Y:00 P:26 SP:FF PPU:310,178 CYC:20343
C656  29 80     AND #$80                        A:10 X:FF Y:00 P:24 SP:FF PPU:322,178 CYC:20347
C658  F0 F9     BEQ $C653                       A:00 X:FF Y:00 P:26 SP:FF PPU:328,178 CYC:20349
C653  AD 02 20  LDA $2002 = FF                  A:00 X:FF Y:00 P:26 SP:FF PPU:337,178 CYC:20352
C656  29 80     AND #$80                        A:10 X:FF Y:00 P:24 SP:FF PPU:  8,179 CYC:20356
C658  F0 F9     BEQ $C653                       A:00 X:FF Y:00 P:26 SP:FF PPU: 14,179 CYC:20358
C653  AD 02 20  LDA $2002 = FF                  A:00 X:FF Y:00 P:26 SP:FF PPU: 23,179 CYC:20361
C656  29 80     AND #$80                        A:10 X:FF Y:00 P:24 SP:FF PPU: 35,179 CYC:20365
C658  F0 F9     BEQ $C653                       A:00 X:FF Y:00 P:26 SP:FF PPU: 41,179 CYC:20367
C653  AD 02 20  LDA $2002 = FF                  A:00 X:FF Y:00 P:26 SP:FF PPU: 50,179 CYC:20370
C656  29 80     AND #$80                        A:10 X:FF Y:00 P:24 SP:FF PPU: 62,179 CYC:20374
C658  F0 F9     BEQ $C653                       A:00 X:FF Y:00 P:26 SP:FF PPU: 68,179 CYC:20376
C653  AD 02 20  LDA $2002 = FF                  A:00 X:FF Y:00 P:26 SP:FF PPU: 77,179 CYC:20379
C656  29 80     AND #$80                        A:10 X:FF Y:00 P:24 SP:FF PPU: 89,179 CYC:20383
C658  F0 F9     BEQ $C653                       A:00 X:FF Y:00 P:26 SP:FF PPU: 95,179 CYC:20385
C653  AD 02 20  LDA $2002 = FF                  A:00 X:FF Y:00 P:26 SP:FF PPU:104,179 CYC:20388
C656  29 80     AND #$80                        A:10 X:FF Y:00 P:24 SP:FF PPU:116,179 CYC:20392
C658  F0 F9     BEQ $C653                       A:00 X:FF Y:00 P:26 SP:FF PPU:122,179 CYC:20394
C653  AD 02 20  LDA $2002 = FF                  A:00 X:FF Y:00 P:26 SP:FF PPU:131,179 CYC:20397
C656  29 80     AND #$80                        A:10 X:FF Y:00 P:24 SP:FF PPU:143,179 CYC:20401
C658  F0 F9     BEQ $C653                       A:00 X:FF Y:00 P:26 SP:FF PPU:149,179 CYC:20403
C653  AD 02 20  LDA $2002 = FF                  A:00 X:FF Y:00 P:26 SP:FF PPU:158,179 CYC:20406
C656  29 80     AND #$80                        A:10 X:FF Y:00 P:24 SP:FF PPU:170,179 CYC:20410
C658  F0 F9     BEQ $C653                       A:00 X:FF Y:00 P:26 SP:FF PPU:176,179 CYC:20412
C653  AD 02 20  LDA $2002 = FF                  A:00 X:FF Y:00 P:26 SP:FF PPU:185,179 CYC:20415
C656  29 80     AND #$80                        A:10 X:FF Y:00 P:24 SP:FF PPU:197,179 CYC:20419
C658  F0 F9     BEQ $C653                       A:00 X:FF Y:00 P:26 SP:FF PPU:203,179 CYC:20421
C653  AD 02 20  LDA $2002 = FF                  A:00 X:FF Y:00 P:26 SP:FF PPU:212,179 CYC:20424
C656  29 80     AND #$80                        A:10 X:FF Y:00 P:24 SP:FF PPU:224,179 CYC:20428
C658  F0 F9     BEQ $C653                       A:00 X:FF Y:00 P:26 SP:FF PPU:230,179 CYC:20430
C653  AD 02 20  LDA $2002 = FF                  A:00 X:FF Y:00 P:26 SP:FF PPU:239,179 CYC:20433
C656  29 80     AND #$80                        A:10 X:FF Y:00 P:24 SP:FF PPU:251,179 CYC:20437
C658  F0 F9     BEQ $C653                       A:00 X:FF Y:00 P:26 SP:FF PPU:257,179 CYC:20439
C653  AD 02 20  LDA $2002 = FF                  A:00 X:FF Y:00 P:26 SP:FF PPU:266,179 CYC:20442
C656  29 80     AND #$80                        A:10 X:FF Y:00 P:24 SP:FF PPU:278,179 CYC:20446
C658  F0 F9     BEQ $C653                       A:00 X:FF Y:00 P:26 SP:FF PPU:284,179 CYC:20448
C653  AD 02 20  LDA $2002 = FF                  A:00 X:FF Y:00 P:26 SP:FF PPU:293,179 CYC:20451
C656  29 80     AND #$80                        A:10 X:FF Y:00 P:24 SP:FF PPU:305,179 CYC:20455
C658  F0 F9     BEQ $C653                       A:00 X:FF Y:00 P:26 SP:FF PPU:311,179 CYC:20457
C653  AD 02 20  LDA $2002 = FF                  A:00 X:FF Y:00 P:26 SP:FF PPU:320,179 CYC:20460
C656  29 80     AND #$80                        A:10 X:FF Y:00 P:24 SP:FF PPU:332,179 CYC:20464
C658  F0 F9     BEQ $C653                       A:00 X:FF Y:00 P:26 SP:FF PPU:338,179 CYC:20466
C653  AD 02 20  LDA $2002 = FF                  A:00 X:FF Y:00 P:26 SP:FF PPU:  6,180 CYC:20469
C656  29 80     AND #$80                        A:10 X:FF Y:00 P:24 SP:FF PPU: 18,180 CYC:20473
C658  F0 F9     BEQ $C653                       A:00 X:FF Y:00 P:26 SP:FF PPU: 24,180 CYC:20475
C653  AD 02 20  LDA $2002 = FF                  A:00 X:FF Y:00 P:26 SP:FF PPU: 33,180 CYC:20478
C656  29 80     AND #$80                        A:10 X:FF Y:00 P:24 SP:FF PPU: 45,180 CYC:20482
C658  F0 F9     BEQ $C653                       A:00 X:FF Y:00 P:26 SP:FF PPU: 51,180 CYC:20484
C653  AD 02 20  LDA $2002 = FF                  A:00 X:FF Y:00 P:26 SP:FF PPU: 60,180 CYC:20487
C656  29 80     AND #$80                        A:10 X:FF Y:00 P:24 SP:FF PPU: 72,180 CYC:20491
C658  F0 F9     BEQ $C653                       A:00 X:FF Y:00 P:26 SP:FF PPU: 78,180 CYC:20493
C653  AD 02 20  LDA $2002 = FF                  A:00 X:FF Y:00 P:26 SP:FF PPU: 87,180 CYC:20496
C656  29 80     AND #$80                        A:10 X:FF Y:00 P:24 SP:FF PPU: 99,180 CYC:20500
C658  F0 F9     BEQ $C653                       A:00 X:FF Y:00 P:26 SP:FF PPU:105,180 CYC:20502
C653  AD 02 20  LDA $2002 = FF                  A:00 X:FF Y:00 P:26 SP:FF PPU:114,180 CYC:20505
C656  29 80     AND #$80                        A:10 X:FF Y:00 P:24 SP:FF PPU:126,180 CYC:20509
C658  F0 F9     BEQ $C653                       A:00 X:FF Y:00 P:26 SP:FF PPU:132,180 CYC:20511
C653  AD 02 20  LDA $2002 = FF                  A:00 X:FF Y:00 P:26 SP:FF PPU:141,180 CYC:20514
C656  29 80     AND #$80                        A:10 X:FF Y:00 P:24 SP:FF PPU:153,180 CYC:20518
C658  F0 F9     BEQ $C653                       A:00 X:FF Y:00 P:26 SP:FF PPU:159,180 CYC:20520
C653  AD 02 20  LDA $2002 = FF                  A:00 X:FF Y:00 P:26 SP:FF PPU:168,180 CYC:20523
C656  29 80     AND #$80                        A:10 X:FF Y:00 P:24 SP:FF PPU:180,180 CYC:20527
C658  F0 F9     BEQ $C653                       A:00 X:FF Y:00 P:26 SP:FF PPU:186,180 CYC:20529
C653  AD 02 20  LDA $2002 = FF                  A:00 X:FF Y:00 P:26 SP:FF PPU:195,180 CYC:20532
C656  29 80     AND #$80                        A:10 X:FF Y:00 P:24 SP:FF PPU:207,180 CYC:20536
C658  F0 F9     BEQ $C653                       A:00 X:FF Y:00 P:26 SP:FF PPU:213,180 CYC:20538
C653  AD 02 20  LDA $2002 = FF                  A:00 X:FF Y:00 P:26 SP:FF PPU:222,180 CYC:20541
C656  29 80     AND #$80                        A:10 X:FF Y:00 P:24 SP:FF PPU:234,180 CYC:20545
C658  F0 F9     BEQ $C653                       A:00 X:FF Y:00 P:26 SP:FF PPU:240,180 CYC:20547
C653  AD 02 20  LDA $2002 = FF                  A:00 X:FF Y:00 P:26 SP:FF PPU:249,180 CYC:20550
C656  29 80     AND #$80                        A:10 X:FF Y:00 P:24 SP:FF PPU:261,180 CYC:20554
C658  F0 F9     BEQ $C653                       A:00 X:FF Y:00 P:26 SP:FF PPU:267,180 CYC:20556
C653  AD 02 20  LDA $2002 = FF                  A:00 X:FF Y:00 P:26 SP:FF PPU:276,180 CYC:20559
C656  29 80     AND #$80                        A:10 X:FF Y:00 P:24 SP:FF PPU:288,180 CYC:20563
C658  F0 F9     BEQ $C653                       A:00 X:FF Y:00 P:26 SP:FF PPU:294,180 CYC:20565
C653  AD 02 20  LDA $2002 = FF                  A:00 X:FF Y:00 P:26 SP:FF PPU:303,180 CYC:20568
C656  29 80     AND #$80                        A:10 X:FF Y:00 P:24 SP:FF PPU:315,180 CYC:20572
C658  F0 F9     BEQ $C653                       A:00 X:FF Y:00 P:26 SP:FF PPU:321,180 CYC:20574
C653  AD 02 20  LDA $2002 = FF                  A:00 X:FF Y:00 P:26 SP:FF PPU:330,180 CYC:20577
C656  29 80     AND #$80                        A:10 X:FF Y:00 P:24 SP:FF PPU:  1,181 CYC:20581
C658  F0 F9     BEQ $C653                       A:00 X:FF Y:00 P:26 SP:FF PPU:  7,181 CYC:20583
C653  AD 02 20  LDA $2002 = FF                  A:00 X:FF Y:00 P:26 SP:FF PPU: 16,181 CYC:20586
C656  29 80     AND #$80                        A:10 X:FF Y:00 P:24 SP:FF PPU: 28,181 CYC:20590
C658  F0 F9     BEQ $C653                       A:00 X:FF Y:00 P:26 SP:FF PPU: 34,181 CYC:20592
C653  AD 02 20  LDA $2002 = FF                  A:00 X:FF Y:00 P:26 SP:FF PPU: 43,181 CYC:20595
C656  29 80     AND #$80                        A:10 X:FF Y:00 P:24 SP:FF PPU: 55,181 CYC:20599
C658  F0 F9     BEQ $C653                       A:00 X:FF Y:00 P:26 SP:FF PPU: 61,181 CYC:20601
C653  AD 02 20  LDA $2002 = FF                  A:00 X:FF Y:00 P:26 SP:FF PPU: 70,181 CYC:20604
C656  29 80     AND #$80                        A:10 X:FF Y:00 P:24 SP:FF PPU: 82,181 CYC:20608
C658  F0 F9     BEQ $C653                       A:00 X:FF Y:00 P:26 SP:FF PPU: 88,181 CYC:20610
C653  AD 02 20  LDA $2002 = FF                  A:00 X:FF Y:00 P:26 SP:FF PPU: 97,181 CYC:20613
C656  29 80     AND #$80                        A:10 X:FF Y:00 P:24 SP:FF PPU:109,181 CYC:20617
C658  F0 F9     BEQ $C653                       A:00 X:FF Y:00 P:26 SP:FF PPU:115,181 CYC:20619
C653  AD 02 20  LDA $2002 = FF                  A:00 X:FF Y:00 P:26 SP:FF PPU:124,181 CYC:20622
C656  29 80     AND #$80                        A:10 X:FF Y:00 P:24 SP:FF PPU:136,181 CYC:20626
C658  F0 F9     BEQ $C653                       A:00 X:FF Y:00 P:26 SP:FF PPU:142,181 CYC:20628
C653  AD 02 20  LDA $2002 = FF                  A:00 X:FF Y:00 P:26 SP:FF PPU:151,181 CYC:20631
C656  29 80     AND #$80                        A:10 X:FF Y:00 P:24 SP:FF PPU:163,181 CYC:20635
C658  F0 F9     BEQ $C653                       A:00 X:FF Y:00 P:26 SP:FF PPU:169,181 CYC:20637
C653  AD 02 20  LDA $2002 = FF                  A:00 X:FF Y:00 P:26 SP:FF PPU:178,181 CYC:20640
C656  29 80     AND #$80                        A:10 X:FF Y:00 P:24 SP:FF PPU:190,181 CYC:20644
C658  F0 F9     BEQ $C653                       A:00 X:FF Y:00 P:26 SP:FF PPU:196,181 CYC:20646
C653  AD 02 20  LDA $2002 = FF                  A:00 X:FF Y:00 P:26 SP:FF PPU:205,181 CYC:20649
C656  29 80     AND #$80                        A:10 X:FF Y:00 P:24 SP:FF PPU:217,181 CYC:20653
C658  F0 F9     BEQ $C653                       A:00 X:FF Y:00 P:26 SP:FF PPU:223,181 CYC:20655
C653  AD 02 20  LDA $2002 = FF                  A:00 X:FF Y:00 P:26 SP:FF PPU:232,181 CYC:20658
C656  29 80     AND #$80                        A:10 X:FF Y:00 P:24 SP:FF PPU:244,181 CYC:20662
C658  F0 F9     BEQ $C653                       A:00 X:FF Y:00 P:26 SP:FF PPU:250,181 CYC:20664
C653  AD 02 20  LDA $2002 = FF                  A:00 X:FF Y:00 P:26 SP:FF PPU:259,181 CYC:20667
C656  29 80     AND #$80                        A:10 X:FF Y:00 P:24 SP:FF PPU:271,181 CYC:20671
C658  F0 F9     BEQ $C653                       A:00 X:FF Y:00 P:26 SP:FF PPU:277,181 CYC:20673
C653  AD 02 20  LDA $2002 = FF                  A:00 X:FF Y:00 P:26 SP:FF PPU:286,181 CYC:20676
C656  29 80     AND #$80                        A:10 X:FF Y:00 P:24 SP:FF PPU:298,181 CYC:20680
C658  F0 F9     BEQ $C653                       A:00 X:FF Y:00 P:26 SP:FF PPU:304,181 CYC:20682
C653  AD 02 20  LDA $2002 = FF                  A:00 X:FF Y:00 P:26 SP:FF PPU:313,181 CYC:20685
C656  29 80     AND #$80                        A:10 X:FF Y:00 P:24 SP:FF PPU:325,181 CYC:20689
C658  F0 F9     BEQ $C653                       A:00 X:FF Y:00 P:26 SP:FF PPU:331,181 CYC:20691
C653  AD 02 20  LDA $2002 = FF                  A:00 X:FF Y:00 P:26 SP:FF PPU:340,181 CYC:20694
C656  29 80     AND #$80                        A:10 X:FF Y:00 P:24 SP:FF PPU: 11,182 CYC:20698
C658  F0 F9     BEQ $C653                       A:00 X:FF Y:00 P:26 SP:FF PPU: 17,182 CYC:20700
C653  AD 02 20  LDA $2002 = FF                  A:00 X:FF Y:00 P:26 SP:FF PPU: 26,182 CYC:20703
C656  29 80     AND #$80                        A:10 X:FF Y:00 P:24 SP:FF PPU: 38,182 CYC:20707
C658  F0 F9     BEQ $C653                       A:00 X:FF Y:00 P:26 SP:FF PPU: 44,182 CYC:20709
C653  AD 02 20  LDA $2002 = FF                  A:00 X:FF Y:00 P:26 SP:FF PPU: 53,182 CYC:20712
C656  29 80     AND #$80                        A:10 X:FF Y:00 P:24 SP:FF PPU: 65,182 CYC:20716
C658  F0 F9     BEQ $C653                       A:00 X:FF Y:00 P:26 SP:FF PPU: 71,182 CYC:20718
C653  AD 02 20  LDA $2002 = FF                  A:00 X:FF Y:00 P:26 SP:FF PPU: 80,182 CYC:20721
C656  29 80     AND #$80                        A:10 X:FF Y:00 P:24 SP:FF PPU: 92,182 CYC:20725
C658  F0 F9     BEQ $C653                       A:00 X:FF Y:00 P:26 SP:FF PPU: 98,182 CYC:20727
C653  AD 02 20  LDA $2002 = FF                  A:00 X:FF Y:00 P:26 SP:FF PPU:107,182 CYC:20730
C656  29 80     AND #$80                        A:10 X:FF Y:00 P:24 SP:FF PPU:119,182 CYC:20734
C658  F0 F9     BEQ $C653                       A:00 X:FF Y:00 P:26 SP:FF PPU:125,182 CYC:20736
C653  AD 02 20  LDA $2002 = FF                  A:00 X:FF Y:00 P:26 SP:FF PPU:134,182 CYC:20739
C656  29 80     AND #$80                        A:10 X:FF Y:00 P:24 SP:FF PPU:146,182 CYC:20743
C658  F0 F9     BEQ $C653                       A:00 X:FF Y:00 P:26 SP:FF PPU:152,182 CYC:20745
C653  AD 02 20  LDA $2002 = FF                  A:00 X:FF Y:00 P:26 SP:FF PPU:161,182 CYC:20748
C656  29 80     AND #$80                        A:10 X:FF Y:00 P:24 SP:FF PPU:173,182 CYC:20752
C658  F0 F9     BEQ $C653                       A:00 X:FF Y:00 P:26 SP:FF PPU:179,182 CYC:20754
C653  AD 02 20  LDA $2002 = FF                  A:00 X:FF Y:00 P:26 SP:FF PPU:188,182 CYC:20757
C656  29 80     AND #$80                        A:10 X:FF Y:00 P:24 SP:FF PPU:200,182 CYC:20761
C658  F0 F9     BEQ $C653                       A:00 X:FF Y:00 P:26 SP:FF PPU:206,182 CYC:20763
C653  AD 02 20  LDA $2002 = FF                  A:00 X:FF Y:00 P:26 SP:FF PPU:215,182 CYC:20766
C656  29 80     AND #$80                        A:10 X:FF Y:00 P:24 SP:FF PPU:227,182 CYC:20770
C658  F0 F9     BEQ $C653                       A:00 X:FF Y:00 P:26 SP:FF PPU:233,182 CYC:20772
C653  AD 02 20  LDA $2002 = FF                  A:00 X:FF Y:00 P:26 SP:FF PPU:242,182 CYC:20775
C656  29 80     AND #$80                        A:10 X:FF Y:00 P:24 SP:FF PPU:254,182 CYC:20779
C658  F0 F9     BEQ $C653                       A:00 X:FF Y:00 P:26 SP:FF PPU:260,182 CYC:20781
C653  AD 02 20  LDA $2002 = FF                  A:00 X:FF Y:00 P:26 SP:FF PPU:269,182 CYC:20784
C656  29 80     AND #$80                        A:10 X:FF Y:00 P:24 SP:FF PPU:281,182 CYC:20788
C658  F0 F9     BEQ $C653                       A:00 X:FF Y:00 P:26 SP:FF PPU:287,182 CYC:20790
C653  AD 02 20  LDA $2002 = FF                  A:00 X:FF Y:00 P:26 SP:FF PPU:296,182 CYC:20793
C656  29 80     AND #$80                        A:10 X:FF Y:00 P:24 SP:FF PPU:308,182 CYC:20797
C658  F0 F9     BEQ $C653                       A:00 X:FF Y:00 P:26 SP:FF PPU:314,182 CYC:20799
C653  AD 02 20  LDA $2002 = FF                  A:00 X:FF Y:00 P:26 SP:FF PPU:323,182 CYC:20802
C656  29 80     AND #$80                        A:10 X:FF Y:00 P:24 SP:FF PPU:335,182 CYC:20806
C658  F0 F9     BEQ $C653                       A:00 X:FF Y:00 P:26 SP:FF PPU:  0,183 CYC:20808
C653  AD 02 20  LDA $2002 = FF                  A:00 X:FF Y:00 P:26 SP:FF PPU:  9,183 CYC:20811
C656  29 80     AND #$80                        A:10 X:FF Y:00 P:24 SP:FF PPU: 21,183 CYC:20815
C658  F0 F9     BEQ $C653                       A:00 X:FF Y:00 P:26 SP:FF PPU: 27,183 CYC:20817
C653  AD 02 20  LDA $2002 = FF                  A:00 X:FF Y:00 P:26 SP:FF PPU: 36,183 CYC:20820
C656  29 80     AND #$80                        A:10 X:FF Y:00 P:24 SP:FF PPU: 48,183 CYC:20824
C658  F0 F9     BEQ $C653                       A:00 X:FF Y:00 P:26 SP:FF PPU: 54,183 CYC:20826
C653  AD 02 20  LDA $2002 = FF                  A:00 X:FF Y:00 P:26 SP:FF PPU: 63,183 CYC:20829
C656  29 80     AND #$80                        A:10 X:FF Y:00 P:24 SP:FF PPU: 75,183 CYC:20833
C658  F0 F9     BEQ $C653                       A:00 X:FF Y:00 P:26 SP:FF PPU: 81,183 CYC:20835
C653  AD 02 20  LDA $2002 = FF                  A:00 X:FF Y:00 P:26 SP:FF PPU: 90,183 CYC:20838
C656  29 80     AND #$80                        A:10 X:FF Y:00 P:24 SP:FF PPU:102,183 CYC:20842
C658  F0 F9     BEQ $C653                       A:00 X:FF Y:00 P:26 SP:FF PPU:108,183 CYC:20844
C653  AD 02 20  LDA $2002 = FF                  A:00 X:FF Y:00 P:26 SP:FF PPU:117,183 CYC:20847
C656  29 80     AND #$80                        A:10 X:FF Y:00 P:24 SP:FF PPU:129,183 CYC:20851
C658  F0 F9     BEQ $C653                       A:00 X:FF Y:00 P:26 SP:FF PPU:135,183 CYC:20853
C653  AD 02 20  LDA $2002 = FF                  A:00 X:FF Y:00 P:26 SP:FF PPU:144,183 CYC:20856
C656  29 80     AND #$80                        A:10 X:FF Y:00 P:24 SP:FF PPU:156,183 CYC:20860
C658  F0 F9     BEQ $C653                       A:00 X:FF Y:00 P:26 SP:FF PPU:162,183 CYC:20862
C653  AD 02 20  LDA $2002 = FF                  A:00 X:FF Y:00 P:26 SP:FF PPU:171,183 CYC:20865
C656  29 80     AND #$80                        A:10 X:FF Y:00 P:24 SP:FF PPU:183,183 CYC:20869
C658  F0 F9     BEQ $C653                       A:00 X:FF Y:00 P:26 SP:FF PPU:189,183 CYC:20871
C653  AD 02 20  LDA $2002 = FF                  A:00 X:FF Y:00 P:26 SP:FF PPU:198,183 CYC:20874
C656  29 80     AND #$80                        A:10 X:FF Y:00 P:24 SP:FF PPU:210,183 CYC:20878
C658  F0 F9     BEQ $C653                       A:00 X:FF Y:00 P:26 SP:FF PPU:216,183 CYC:20880
C653  AD 02 20  LDA $2002 = FF                  A:00 X:FF Y:00 P:26 SP:FF PPU:225,183 CYC:20883
C656  29 80     AND #$80                        A:10 X:FF Y:00 P:24 SP:FF PPU:237,183 CYC:20887
C658  F0 F9     BEQ $C653                       A:00 X:FF Y:00 P:26 SP:FF PPU:243,183 CYC:20889
C653  AD 02 20  LDA $2002 = FF                  A:00 X:FF Y:00 P:26 SP:FF PPU:252,183 CYC:20892
C656  29 80     AND #$80                        A:10 X:FF Y:00 P:24 SP:FF PPU:264,183 CYC:20896
C658  F0 F9     BEQ $C653                       A:00 X:FF Y:00 P:26 SP:FF PPU:270,183 CYC:20898
C653  AD 02 20  LDA $2002 = FF                  A:00 X:FF Y:00 P:26 SP:FF PPU:279,183 CYC:20901
C656  29 80     AND #$80                        A:10 X:FF Y:00 P:24 SP:FF PPU:291,183 CYC:20905
C658  F0 F9     BEQ $C653                       A:00 X:FF Y:00 P:26 SP:FF PPU:297,183 CYC:20907
C653  AD 02 20  LDA $2002 = FF                  A:00 X:FF Y:00 P:26 SP:FF PPU:306,183 CYC:20910
C656  29 80     AND #$80                        A:10 X:FF Y:00 P:24 SP:FF PPU:318,183 CYC:20914
C658  F0 F9     BEQ $C653                       A:00 X:FF Y:00 P:26 SP:FF PPU:324,183 CYC:20916
C653  AD 02 20  LDA $2002 = FF                  A:00 X:FF Y:00 P:26 SP:FF PPU:333,183 CYC:20919
C656  29 80     AND #$80                        A:10 X:FF Y:00 P:24 SP:FF PPU:  4,184 CYC:20923
C658  F0 F9     BEQ $C653                       A:00 X:FF Y:00 P:26 SP:FF PPU: 10,184 CYC:20925
C653  AD 02 20  LDA $2002 = FF                  A:00 X:FF Y:00 P:26 SP:FF PPU: 19,184 CYC:20928
C656  29 80     AND #$80                        A:10 X:FF Y:00 P:24 SP:FF PPU: 31,184 CYC:20932
C658  F0 F9     BEQ $C653                       A:00 X:FF Y:00 P:26 SP:FF PPU: 37,184 CYC:20934
C653  AD 02 20  LDA $2002 = FF                  A:00 X:FF Y:00 P:26 SP:FF PPU: 46,184 CYC:20937
C656  29 80     AND #$80                        A:10 X:FF Y:00 P:24 SP:FF PPU: 58,184 CYC:20941
C658  F0 F9     BEQ $C653                       A:00 X:FF Y:00 P:26 SP:FF PPU: 64,184 CYC:20943
C653  AD 02 20  LDA $2002 = FF                  A:00 X:FF Y:00 P:26 SP:FF PPU: 73,184 CYC:20946
C656  29 80     AND #$80                        A:10 X:FF Y:00 P:24 SP:FF PPU: 85,184 CYC:20950
C658  F0 F9     BEQ $C653                       A:00 X:FF Y:00 P:26 SP:FF PPU: 91,184 CYC:20952
C653  AD 02 20  LDA $2002 = FF                  A:00 X:FF Y:00 P:26 SP:FF PPU:100,184 CYC:20955
C656  29 80     AND #$80                        A:10 X:FF Y:00 P:24 SP:FF PPU:112,184 CYC:20959
C658  F0 F9     BEQ $C653                       A:00 X:FF Y:00 P:26 SP:FF PPU:118,184 CYC:20961
C653  AD 02 20  LDA $2002 = FF                  A:00 X:FF Y:00 P:26 SP:FF PPU:127,184 CYC:20964
C656  29 80     AND #$80                        A:10 X:FF Y:00 P:24 SP:FF PPU:139,184 CYC:20968
C658  F0 F9     BEQ $C653                       A:00 X:FF Y:00 P:26 SP:FF PPU:145,184 CYC:20970
C653  AD 02 20  LDA $2002 = FF                  A:00 X:FF Y:00 P:26 SP:FF PPU:154,184 CYC:20973
C656  29 80     AND #$80                        A:10 X:FF Y:00 P:24 SP:FF PPU:166,184 CYC:20977
C658  F0 F9     BEQ $C653                       A:00 X:FF Y:00 P:26 SP:FF PPU:172,184 CYC:20979
C653  AD 02 20  LDA $2002 = FF                  A:00 X:FF Y:00 P:26 SP:FF PPU:181,184 CYC:20982
C656  29 80     AND #$80                        A:10 X:FF Y:00 P:24 SP:FF PPU:193,184 CYC:20986
C658  F0 F9     BEQ $C653                       A:00 X:FF Y:00 P:26 SP:FF PPU:199,184 CYC:20988
C653  AD 02 20  LDA $2002 = FF                  A:00 X:FF Y:00 P:26 SP:FF PPU:208,184 CYC:20991
C656  29 80     AND #$80                        A:10 X:FF Y:00 P:24 SP:FF PPU:220,184 CYC:20995
C658  F0 F9     BEQ $C653                       A:00 X:FF Y:00 P:26 SP:FF PPU:226,184 CYC:20997
C653  AD 02 20  LDA $2002 = FF                  A:00 X:FF Y:00 P:26 SP:FF PPU:235,184 CYC:21000
C656  29 80     AND #$80                        A:10 X:FF Y:00 P:24 SP:FF PPU:247,184 CYC:21004
C658  F0 F9     BEQ $C653                       A:00 X:FF Y:00 P:26 SP:FF PPU:253,184 CYC:21006
C653  AD 02 20  LDA $2002 = FF                  A:00 X:FF Y:00 P:26 SP:FF PPU:262,184 CYC:21009
C656  29 80     AND #$80                        A:10 X:FF Y:00 P:24 SP:FF PPU:274,184 CYC:21013
C658  F0 F9     BEQ $C653                       A:00 X:FF Y:00 P:26 SP:FF PPU:280,184 CYC:21015
C653  AD 02 20  LDA $2002 = FF                  A:00 X:FF Y:00 P:26 SP:FF PPU:289,184 CYC:21018
C656  29 80     AND #$80                        A:10 X:FF Y:00 P:24 SP:FF PPU:301,184 CYC:21022
C658  F0 F9     BEQ $C653                       A:00 X:FF Y:00 P:26 SP:FF PPU:307,184 CYC:21024
C653  AD 02 20  LDA $2002 = FF                  A:00 X:FF Y:00 P:26 SP:FF PPU:316,184 CYC:21027
C656  29 80     AND #$80                        A:10 X:FF Y:00 P:24 SP:FF PPU:328,184 CYC:21031
C658  F0 F9     BEQ $C653                       A:00 X:FF Y:00 P:26 SP:FF PPU:334,184 CYC:21033
C653  AD 02 20  LDA $2002 = FF                  A:00 X:FF Y:00 P:26 SP:FF PPU:  2,185 CYC:21036
C656  29 80     AND #$80                        A:10 X:FF Y:00 P:24 SP:FF PPU: 14,185 CYC:21040
C658  F0 F9     BEQ $C653                       A:00 X:FF Y:00 P:26 SP:FF PPU: 20,185 CYC:21042
C653  AD 02 20  LDA $2002 = FF                  A:00 X:FF Y:00 P:26 SP:FF PPU: 29,185 CYC:21045
C656  29 80     AND #$80                        A:10 X:FF Y:00 P:24 SP:FF PPU: 41,185 CYC:21049
C658  F0 F9     BEQ $C653                       A:00 X:FF Y:00 P:26 SP:FF PPU: 47,185 CYC:21051
C653  AD 02 20  LDA $2002 = FF                  A:00 X:FF Y:00 P:26 SP:FF PPU: 56,185 CYC:21054
C656  29 80     AND #$80                        A:10 X:FF Y:00 P:24 SP:FF PPU: 68,185 CYC:21058
C658  F0 F9     BEQ $C653                       A:00 X:FF Y:00 P:26 SP:FF PPU: 74,185 CYC:21060
C653  AD 02 20  LDA $2002 = FF                  A:00 X:FF Y:00 P:26 SP:FF PPU: 83,185 CYC:21063
C656  29 80     AND #$80                        A:10 X:FF Y:00 P:24 SP:FF PPU: 95,185 CYC:21067
C658  F0 F9     BEQ $C653                       A:00 X:FF Y:00 P:26 SP:FF PPU:101,185 CYC:21069
C653  AD 02 20  LDA $2002 = FF                  A:00 X:FF Y:00 P:26 SP:FF PPU:110,185 CYC:21072
C656  29 80     AND #$80                        A:10 X:FF Y:00 P:24 SP:FF PPU:122,185 CYC:21076
C658  F0 F9     BEQ $C653                       A:00 X:FF Y:00 P:26 SP:FF PPU:128,185 CYC:21078
C653  AD 02 20  LDA $2002 = FF                  A:00 X:FF Y:00 P:26 SP:FF PPU:137,185 CYC:21081
C656  29 80     AND #$80                        A:10 X:FF Y:00 P:24 SP:FF PPU:149,185 CYC:21085
C658  F0 F9     BEQ $C653                       A:00 X:FF Y:00 P:26 SP:FF PPU:155,185 CYC:21087
C653  AD 02 20  LDA $2002 = FF                  A:00 X:FF Y:00 P:26 SP:FF PPU:164,185 CYC:21090
C656  29 80     AND #$80                        A:10 X:FF Y:00 P:24 SP:FF PPU:176,185 CYC:21094
C658  F0 F9     BEQ $C653                       A:00 X:FF Y:00 P:26 SP:FF PPU:182,185 CYC:21096
C653  AD 02 20  LDA $2002 = FF                  A:00 X:FF Y:00 P:26 SP:FF PPU:191,185 CYC:21099
C656  29 80     AND #$80                        A:10 X:FF Y:00 P:24 SP:FF PPU:203,185 CYC:21103
C658  F0 F9     BEQ $C653                       A:00 X:FF Y:00 P:26 SP:FF PPU:209,185 CYC:21105
C653  AD 02 20  LDA $2002 = FF                  A:00 X:FF Y:00 P:26 SP:FF PPU:218,185 CYC:21108
C656  29 80     AND #$80                        A:10 X:FF Y:00 P:24 SP:FF PPU:230,185 CYC:21112
C658  F0 F9     BEQ $C653                       A:00 X:FF Y:00 P:26 SP:FF PPU:236,185 CYC:21114
C653  AD 02 20  LDA $2002 = FF                  A:00 X:FF Y:00 P:26 SP:FF PPU:245,185 CYC:21117
C656  29 80     AND #$80                        A:10 X:FF Y:00 P:24 SP:FF PPU:257,185 CYC:21121
C658  F0 F9     BEQ $C653                       A:00 X:FF Y:00 P:26 SP:FF PPU:263,185 CYC:21123
C653  AD 02 20  LDA $2002 = FF                  A:00 X:FF Y:00 P:26 SP:FF PPU:272,185 CYC:21126
C656  29 80     AND #$80                        A:10 X:FF Y:00 P:24 SP:FF PPU:284,185 CYC:21130
C658  F0 F9     BEQ $C653                       A:00 X:FF Y:00 P:26 SP:FF PPU:290,185 CYC:21132
C653  AD 02 20  LDA $2002 = FF                  A:00 X:FF Y:00 P:26 SP:FF PPU:299,185 CYC:21135
C656  29 80     AND #$80                        A:10 X:FF Y:00 P:24 SP:FF PPU:311,185 CYC:21139
C658  F0 F9     BEQ $C653                       A:00 X:FF Y:00 P:26 SP:FF PPU:317,185 CYC:21141
C653  AD 02 20  LDA $2002 = FF                  A:00 X:FF Y:00 P:26 SP:FF PPU:326,185 CYC:21144
C656  29 80     AND #$80                        A:10 X:FF Y:00 P:24 SP:FF PPU:338,185 CYC:21148
C658  F0 F9     BEQ $C653                       A:00 X:FF Y:00 P:26 SP:FF PPU:  3,186 CYC:21150
C653  AD 02 20  LDA $2002 = FF                  A:00 X:FF Y:00 P:26 SP:FF PPU: 12,186 CYC:21153
C656  29 80     AND #$80                        A:10 X:FF Y:00 P:24 SP:FF PPU: 24,186 CYC:21157
C658  F0 F9     BEQ $C653                       A:00 X:FF Y:00 P:26 SP:FF PPU: 30,186 CYC:21159
C653  AD 02 20  LDA $2002 = FF                  A:00 X:FF Y:00 P:26 SP:FF PPU: 39,186 CYC:21162
C656  29 80     AND #$80                        A:10 X:FF Y:00 P:24 SP:FF PPU: 51,186 CYC:21166
C658  F0 F9     BEQ $C653                       A:00 X:FF Y:00 P:26 SP:FF PPU: 57,186 CYC:21168
C653  AD 02 20  LDA $2002 = FF                  A:00 X:FF Y:00 P:26 SP:FF PPU: 66,186 CYC:21171
C656  29 80     AND #$80                        A:10 X:FF Y:00 P:24 SP:FF PPU: 78,186 CYC:21175
C658  F0 F9     BEQ $C653                       A:00 X:FF Y:00 P:26 SP:FF PPU: 84,186 CYC:21177
C653  AD 02 20  LDA $2002 = FF                  A:00 X:FF Y:00 P:26 SP:FF PPU: 93,186 CYC:21180
C656  29 80     AND #$80                        A:10 X:FF Y:00 P:24 SP:FF PPU:105,186 CYC:21184
C658  F0 F9     BEQ $C653                       A:00 X:FF Y:00 P:26 SP:FF PPU:111,186 CYC:21186
C653  AD 02 20  LDA $2002 = FF                  A:00 X:FF Y:00 P:26 SP:FF PPU:120,186 CYC:21189
C656  29 80     AND #$80                        A:10 X:FF Y:00 P:24 SP:FF PPU:132,186 CYC:21193
C658  F0 F9     BEQ $C653                       A:00 X:FF Y:00 P:26 SP:FF PPU:138,186 CYC:21195
C653  AD 02 20  LDA $2002 = FF                  A:00 X:FF Y:00 P:26 SP:FF PPU:147,186 CYC:21198
C656  29 80     AND #$80                        A:10 X:FF Y:00 P:24 SP:FF PPU:159,186 CYC:21202
C658  F0 F9     BEQ $C653                       A:00 X:FF Y:00 P:26 SP:FF PPU:165,186 CYC:21204
C653  AD 02 20  LDA $2002 = FF                  A:00 X:FF Y:00 P:26 SP:FF PPU:174,186 CYC:21207
C656  29 80     AND #$80                        A:10 X:FF Y:00 P:24 SP:FF PPU:186,186 CYC:21211
C658  F0 F9     BEQ $C653                       A:00 X:FF Y:00 P:26 SP:FF PPU:192,186 CYC:21213
C653  AD 02 20  LDA $2002 = FF                  A:00 X:FF Y:00 P:26 SP:FF PPU:201,186 CYC:21216
C656  29 80     AND #$80                        A:10 X:FF Y:00 P:24 SP:FF PPU:213,186 CYC:21220
C658  F0 F9     BEQ $C653                       A:00 X:FF Y:00 P:26 SP:FF PPU:219,186 CYC:21222
C653  AD 02 20  LDA $2002 = FF                  A:00 X:FF Y:00 P:26 SP:FF PPU:228,186 CYC:21225
C656  29 80     AND #$80                        A:10 X:FF Y:00 P:24 SP:FF PPU:240,186 CYC:21229
C658  F0 F9     BEQ $C653                       A:00 X:FF Y:00 P:26 SP:FF PPU:246,186 CYC:21231
C653  AD 02 20  LDA $2002 = FF                  A:00 X:FF Y:00 P:26 SP:FF PPU:255,186 CYC:21234
C656  29 80     AND #$80                        A:10 X:FF Y:00 P:24 SP:FF PPU:267,186 CYC:21238
C658  F0 F9     BEQ $C653                       A:00 X:FF Y:00 P:26 SP:FF PPU:273,186 CYC:21240
C653  AD 02 20  LDA $2002 = FF                  A:00 X:FF Y:00 P:26 SP:FF PPU:282,186 CYC:21243
C656  29 80     AND #$80                        A:10 X:FF Y:00 P:24 SP:FF PPU:294,186 CYC:21247
C658  F0 F9     BEQ $C653                       A:00 X:FF Y:00 P:26 SP:FF PPU:300,186 CYC:21249
C653  AD 02 20  LDA $2002 = FF                  A:00 X:FF Y:00 P:26 SP:FF PPU:309,186 CYC:21252
C656  29 80     AND #$80                        A:10 X:FF Y:00 P:24 SP:FF PPU:321,186 CYC:21256
C658  F0 F9     BEQ $C653                       A:00 X:FF Y:00 P:26 SP:FF PPU:327,186 CYC:21258
C653  AD 02 20  LDA $2002 = FF                  A:00 X:FF Y:00 P:26 SP:FF PPU:336,186 CYC:21261
C656  29 80     AND #$80                        A:10 X:FF Y:00 P:24 SP:FF PPU:  7,187 CYC:21265
C658  F0 F9     BEQ $C653                       A:00 X:FF Y:00 P:26 SP:FF PPU: 13,187 CYC:21267
C653  AD 02 20  LDA $2002 = FF                  A:00 X:FF Y:00 P:26 SP:FF PPU: 22,187 CYC:21270
C656  29 80     AND #$80                        A:10 X:FF Y:00 P:24 SP:FF PPU: 34,187 CYC:21274
C658  F0 F9     BEQ $C653                       A:00 X:FF Y:00 P:26 SP:FF PPU: 40,187 CYC:21276
C653  AD 02 20  LDA $2002 = FF                  A:00 X:FF Y:00 P:26 SP:FF PPU: 49,187 CYC:21279
C656  29 80     AND #$80                        A:10 X:FF Y:00 P:24 SP:FF PPU: 61,187 CYC:21283
C658  F0 F9     BEQ $C653                       A:00 X:FF Y:00 P:26 SP:FF PPU: 67,187 CYC:21285
C653  AD 02 20  LDA $2002 = FF                  A:00 X:FF Y:00 P:26 SP:FF PPU: 76,187 CYC:21288
C656  29 80     AND #$80                        A:10 X:FF Y:00 P:24 SP:FF PPU: 88,187 CYC:21292
C658  F0 F9     BEQ $C653                       A:00 X:FF Y:00 P:26 SP:FF PPU: 94,187 CYC:21294
C653  AD 02 20  LDA $2002 = FF                  A:00 X:FF Y:00 P:26 SP:FF PPU:103,187 CYC:21297
C656  29 80     AND #$80                        A:10 X:FF Y:00 P:24 SP:FF PPU:115,187 CYC:21301
C658  F0 F9     BEQ $C653                       A:00 X:FF Y:00 P:26 SP:FF PPU:121,187 CYC:21303
C653  AD 02 20  LDA $2002 = FF                  A:00 X:FF Y:00 P:26 SP:FF PPU:130,187 CYC:21306
C656  29 80     AND #$80                        A:10 X:FF Y:00 P:24 SP:FF PPU:142,187 CYC:21310
C658  F0 F9     BEQ $C653                       A:00 X:FF Y:00 P:26 SP:FF PPU:148,187 CYC:21312
C653  AD 02 20  LDA $2002 = FF                  A:00 X:FF Y:00 P:26 SP:FF PPU:157,187 CYC:21315
C656  29 80     AND #$80                        A:10 X:FF Y:00 P:24 SP:FF PPU:169,187 CYC:21319
C658  F0 F9     BEQ $C653                       A:00 X:FF Y:00 P:26 SP:FF PPU:175,187 CYC:21321
C653  AD 02 20  LDA $2002 = FF                  A:00 X:FF Y:00 P:26 SP:FF PPU:184,187 CYC:21324
C656  29 80     AND #$80                        A:10 X:FF Y:00 P:24 SP:FF PPU:196,187 CYC:21328
C658  F0 F9     BEQ $C653                       A:00 X:FF Y:00 P:26 SP:FF PPU:202,187 CYC:21330
C653  AD 02 20  LDA $2002 = FF                  A:00 X:FF Y:00 P:26 SP:FF PPU:211,187 CYC:21333
C656  29 80     AND #$80                        A:10 X:FF Y:00 P:24 SP:FF PPU:223,187 CYC:21337
C658  F0 F9     BEQ $C653                       A:00 X:FF Y:00 P:26 SP:FF PPU:229,187 CYC:21339
C653  AD 02 20  LDA $2002 = FF                  A:00 X:FF Y:00 P:26 SP:FF PPU:238,187 CYC:21342
C656  29 80     AND #$80                        A:10 X:FF Y:00 P:24 SP:FF PPU:250,187 CYC:21346
C658  F0 F9     BEQ $C653                       A:00 X:FF Y:00 P:26 SP:FF PPU:256,187 CYC:21348
C653  AD 02 20  LDA $2002 = FF                  A:00 X:FF Y:00 P:26 SP:FF PPU:265,187 CYC:21351
C656  29 80     AND #$80                        A:10 X:FF Y:00 P:24 SP:FF PPU:277,187 CYC:21355
C658  F0 F9     BEQ $C653                       A:00 X:FF Y:00 P:26 SP:FF PPU:283,187 CYC:21357
C653  AD 02 20  LDA $2002 = FF                  A:00 X:FF Y:00 P:26 SP:FF PPU:292,187 CYC:21360
C656  29 80     AND #$80                        A:10 X:FF Y:00 P:24 SP:FF PPU:304,187 CYC:21364
C658  F0 F9     BEQ $C653                       A:00 X:FF Y:00 P:26 SP:FF PPU:310,187 CYC:21366
C653  AD 02 20  LDA $2002 = FF                  A:00 X:FF Y:00 P:26 SP:FF PPU:319,187 CYC:21369
C656  29 80     AND #$80                        A:10 X:FF Y:00 P:24 SP:FF PPU:331,187 CYC:21373
C658  F0 F9     BEQ $C653                       A:00 X:FF Y:00 P:26 SP:FF PPU:337,187 CYC:21375
C653  AD 02 20  LDA $2002 = FF                  A:00 X:FF Y:00 P:26 SP:FF PPU:  5,188 CYC:21378
C656  29 80     AND #$80                        A:10 X:FF Y:00 P:24 SP:FF PPU: 17,188 CYC:21382
C658  F0 F9     BEQ $C653                       A:00 X:FF Y:00 P:26 SP:FF PPU: 23,188 CYC:21384
C653  AD 02 20  LDA $2002 = FF                  A:00 X:FF Y:00 P:26 SP:FF PPU: 32,188 CYC:21387
C656  29 80     AND #$80                        A:10 X:FF Y:00 P:24 SP:FF PPU: 44,188 CYC:21391
C658  F0 F9     BEQ $C653                       A:00 X:FF Y:00 P:26 SP:FF PPU: 50,188 CYC:21393
C653  AD 02 20  LDA $2002 = FF                  A:00 X:FF Y:00 P:26 SP:FF PPU: 59,188 CYC:21396
C656  29 80     AND #$80                        A:10 X:FF Y:00 P:24 SP:FF PPU: 71,188 CYC:21400
C658  F0 F9     BEQ $C653                       A:00 X:FF Y:00 P:26 SP:FF PPU: 77,188 CYC:21402
C653  AD 02 20  LDA $2002 = FF                  A:00 X:FF Y:00 P:26 SP:FF PPU: 86,188 CYC:21405
C656  29 80     AND #$80                        A:10 X:FF Y:00 P:24 SP:FF PPU: 98,188 CYC:21409
C658  F0 F9     BEQ $C653                       A:00 X:FF Y:00 P:26 SP:FF PPU:104,188 CYC:21411
C653  AD 02 20  LDA $2002 = FF                  A:00 X:FF Y:00 P:26 SP:FF PPU:113,188 CYC:21414
C656  29 80     AND #$80                        A:10 X:FF Y:00 P:24 SP:FF PPU:125,188 CYC:21418
C658  F0 F9     BEQ $C653                       A:00 X:FF Y:00 P:26 SP:FF PPU:131,188 CYC:21420
C653  AD 02 20  LDA $2002 = FF                  A:00 X:FF Y:00 P:26 SP:FF PPU:140,188 CYC:21423
C656  29 80     AND #$80                        A:10 X:FF Y:00 P:24 SP:FF PPU:152,188 CYC:21427
C658  F0 F9     BEQ $C653                       A:00 X:FF Y:00 P:26 SP:FF PPU:158,188 CYC:21429
C653  AD 02 20  LDA $2002 = FF                  A:00 X:FF Y:00 P:26 SP:FF PPU:167,188 CYC:21432
C656  29 80     AND #$80                        A:10 X:FF Y:00 P:24 SP:FF PPU:179,188 CYC:21436
C658  F0 F9     BEQ $C653                       A:00 X:FF Y:00 P:26 SP:FF PPU:185,188 CYC:21438
C653  AD 02 20  LDA $2002 = FF                  A:00 X:FF Y:00 P:26 SP:FF PPU:194,188 CYC:21441
C656  29 80     AND #$80                        A:10 X:FF Y:00 P:24 SP:FF PPU:206,188 CYC:21445
C658  F0 F9     BEQ $C653                       A:00 X:FF Y:00 P:26 SP:FF PPU:212,188 CYC:21447
C653  AD 02 20  LDA $2002 = FF                  A:00 X:FF Y:00 P:26 SP:FF PPU:221,188 CYC:21450
C656  29 80     AND #$80                        A:10 X:FF Y:00 P:24 SP:FF PPU:233,188 CYC:21454
C658  F0 F9     BEQ $C653                       A:00 X:FF Y:00 P:26 SP:FF PPU:239,188 CYC:21456
C653  AD 02 20  LDA $2002 = FF                  A:00 X:FF Y:00 P:26 SP:FF PPU:248,188 CYC:21459
C656  29 80     AND #$80                        A:10 X:FF Y:00 P:24 SP:FF PPU:260,188 CYC:21463
C658  F0 F9     BEQ $C653                       A:00 X:FF Y:00 P:26 SP:FF PPU:266,188 CYC:21465
C653  AD 02 20  LDA $2002 = FF                  A:00 X:FF Y:00 P:26 SP:FF PPU:275,188 CYC:21468
C656  29 80     AND #$80                        A:10 X:FF Y:00 P:24 SP:FF PPU:287,188 CYC:21472
C658  F0 F9     BEQ $C653                       A:00 X:FF Y:00 P:26 SP:FF PPU:293,188 CYC:21474
C653  AD 02 20  LDA $2002 = FF                  A:00 X:FF Y:00 P:26 SP:FF PPU:302,188 CYC:21477
C656  29 80     AND #$80                        A:10 X:FF Y:00 P:24 SP:FF PPU:314,188 CYC:21481
C658  F0 F9     BEQ $C653                       A:00 X:FF Y:00 P:26 SP:FF PPU:320,188 CYC:21483
C653  AD 02 20  LDA $2002 = FF                  A:00 X:FF Y:00 P:26 SP:FF PPU:329,188 CYC:21486
C656  29 80     AND #$80                        A:10 X:FF Y:00 P:24 SP:FF PPU:  0,189 CYC:21490
C658  F0 F9     BEQ $C653                       A:00 X:FF Y:00 P:26 SP:FF PPU:  6,189 CYC:21492
C653  AD 02 20  LDA $2002 = FF                  A:00 X:FF Y:00 P:26 SP:FF PPU: 15,189 CYC:21495
C656  29 80     AND #$80                        A:10 X:FF Y:00 P:24 SP:FF PPU: 27,189 CYC:21499
C658  F0 F9     BEQ $C653                       A:00 X:FF Y:00 P:26 SP:FF PPU: 33,189 CYC:21501
C653  AD 02 20  LDA $2002 = FF                  A:00 X:FF Y:00 P:26 SP:FF PPU: 42,189 CYC:21504
C656  29 80     AND #$80                        A:10 X:FF Y:00 P:24 SP:FF PPU: 54,189 CYC:21508
C658  F0 F9     BEQ $C653                       A:00 X:FF Y:00 P:26 SP:FF PPU: 60,189 CYC:21510
C653  AD 02 20  LDA $2002 = FF                  A:00 X:FF Y:00 P:26 SP:FF PPU: 69,189 CYC:21513
C656  29 80     AND #$80                        A:10 X:FF Y:00 P:24 SP:FF PPU: 81,189 CYC:21517
C658  F0 F9     BEQ $C653                       A:00 X:FF Y:00 P:26 SP:FF PPU: 87,189 CYC:21519
C653  AD 02 20  LDA $2002 = FF                  A:00 X:FF Y:00 P:26 SP:FF PPU: 96,189 CYC:21522
C656  29 80     AND #$80                        A:10 X:FF Y:00 P:24 SP:FF PPU:108,189 CYC:21526
C658  F0 F9     BEQ $C653                       A:00 X:FF Y:00 P:26 SP:FF PPU:114,189 CYC:21528
C653  AD 02 20  LDA $2002 = FF                  A:00 X:FF Y:00 P:26 SP:FF PPU:123,189 CYC:21531
C656  29 80     AND #$80                        A:10 X:FF Y:00 P:24 SP:FF PPU:135,189 CYC:21535
C658  F0 F9     BEQ $C653                       A:00 X:FF Y:00 P:26 SP:FF PPU:141,189 CYC:21537
C653  AD 02 20  LDA $2002 = FF                  A:00 X:FF Y:00 P:26 SP:FF PPU:150,189 CYC:21540
C656  29 80     AND #$80                        A:10 X:FF Y:00 P:24 SP:FF PPU:162,189 CYC:21544
C658  F0 F9     BEQ $C653                       A:00 X:FF Y:00 P:26 SP:FF PPU:168,189 CYC:21546
C653  AD 02 20  LDA $2002 = FF                  A:00 X:FF Y:00 P:26 SP:FF PPU:177,189 CYC:21549
C656  29 80     AND #$80                        A:10 X:FF Y:00 P:24 SP:FF PPU:189,189 CYC:21553
C658  F0 F9     BEQ $C653                       A:00 X:FF Y:00 P:26 SP:FF PPU:195,189 CYC:21555
C653  AD 02 20  LDA $2002 = FF                  A:00 X:FF Y:00 P:26 SP:FF PPU:204,189 CYC:21558
C656  29 80     AND #$80                        A:10 X:FF Y:00 P:24 SP:FF PPU:216,189 CYC:21562
C658  F0 F9     BEQ $C653                       A:00 X:FF Y:00 P:26 SP:FF PPU:222,189 CYC:21564
C653  AD 02 20  LDA $2002 = FF                  A:00 X:FF Y:00 P:26 SP:FF PPU:231,189 CYC:21567
C656  29 80     AND #$80                        A:10 X:FF Y:00 P:24 SP:FF PPU:243,189 CYC:21571
C658  F0 F9     BEQ $C653                       A:00 X:FF Y:00 P:26 SP:FF PPU:249,189 CYC:21573
C653  AD 02 20  LDA $2002 = FF                  A:00 X:FF Y:00 P:26 SP:FF PPU:258,189 CYC:21576
C656  29 80     AND #$80                        A:10 X:FF Y:00 P:24 SP:FF PPU:270,189 CYC:21580
C658  F0 F9     BEQ $C653                       A:00 X:FF Y:00 P:26 SP:FF PPU:276,189 CYC:21582
C653  AD 02 20  LDA $2002 = FF                  A:00 X:FF Y:00 P:26 SP:FF PPU:285,189 CYC:21585
C656  29 80     AND #$80                        A:10 X:FF Y:00 P:24 SP:FF PPU:297,189 CYC:21589
C658  F0 F9     BEQ $C653                       A:00 X:FF Y:00 P:26 SP:FF PPU:303,189 CYC:21591
C653  AD 02 20  LDA $2002 = FF                  A:00 X:FF Y:00 P:26 SP:FF PPU:312,189 CYC:21594
C656  29 80     AND #$80                        A:10 X:FF Y:00 P:24 SP:FF PPU:324,189 CYC:21598
C658  F0 F9     BEQ $C653                       A:00 X:FF Y:00 P:26 SP:FF PPU:330,189 CYC:21600
C653  AD 02 20  LDA $2002 = FF                  A:00 X:FF Y:00 P:26 SP:FF PPU:339,189 CYC:21603
C656  29 80     AND #$80                        A:10 X:FF Y:00 P:24 SP:FF PPU: 10,190 CYC:21607
C658  F0 F9     BEQ $C653                       A:00 X:FF Y:00 P:26 SP:FF PPU: 16,190 CYC:21609
C653  AD 02 20  LDA $2002 = FF                  A:00 X:FF Y:00 P:26 SP:FF PPU: 25,190 CYC:21612
C656  29 80     AND #$80                        A:10 X:FF Y:00 P:24 SP:FF PPU: 37,190 CYC:21616
C658  F0 F9     BEQ $C653                       A:00 X:FF Y:00 P:26 SP:FF PPU: 43,190 CYC:21618
C653  AD 02 20  LDA $2002 = FF                  A:00 X:FF Y:00 P:26 SP:FF PPU: 52,190 CYC:21621
C656  29 80     AND #$80                        A:10 X:FF Y:00 P:24 SP:FF PPU: 64,190 CYC:21625
C658  F0 F9     BEQ $C653                       A:00 X:FF Y:00 P:26 SP:FF PPU: 70,190 CYC:21627
C653  AD 02 20  LDA $2002 = FF                  A:00 X:FF Y:00 P:26 SP:FF PPU: 79,190 CYC:21630
C656  29 80     AND #$80                        A:10 X:FF Y:00 P:24 SP:FF PPU: 91,190 CYC:21634
C658  F0 F9     BEQ $C653                       A:00 X:FF Y:00 P:26 SP:FF PPU: 97,190 CYC:21636
C653  AD 02 20  LDA $2002 = FF                  A:00 X:FF Y:00 P:26 SP:FF PPU:106,190 CYC:21639
C656  29 80     AND #$80                        A:10 X:FF Y:00 P:24 SP:FF PPU:118,190 CYC:21643
C658  F0 F9     BEQ $C653                       A:00 X:FF Y:00 P:26 SP:FF PPU:124,190 CYC:21645
C653  AD 02 20  LDA $2002 = FF                  A:00 X:FF Y:00 P:26 SP:FF PPU:133,190 CYC:21648
C656  29 80     AND #$80                        A:10 X:FF Y:00 P:24 SP:FF PPU:145,190 CYC:21652
C658  F0 F9     BEQ $C653                       A:00 X:FF Y:00 P:26 SP:FF PPU:151,190 CYC:21654
C653  AD 02 20  LDA $2002 = FF                  A:00 X:FF Y:00 P:26 SP:FF PPU:160,190 CYC:21657
C656  29 80     AND #$80                        A:10 X:FF Y:00 P:24 SP:FF PPU:172,190 CYC:21661
C658  F0 F9     BEQ $C653                       A:00 X:FF Y:00 P:26 SP:FF PPU:178,190 CYC:21663
C653  AD 02 20  LDA $2002 = FF                  A:00 X:FF Y:00 P:26 SP:FF PPU:187,190 CYC:21666
C656  29 80     AND #$80                        A:10 X:FF Y:00 P:24 SP:FF PPU:199,190 CYC:21670
C658  F0 F9     BEQ $C653                       A:00 X:FF Y:00 P:26 SP:FF PPU:205,190 CYC:21672
C653  AD 02 20  LDA $2002 = FF                  A:00 X:FF Y:00 P:26 SP:FF PPU:214,190 CYC:21675
C656  29 80     AND #$80                        A:10 X:FF Y:00 P:24 SP:FF PPU:226,190 CYC:21679
C658  F0 F9     BEQ $C653                       A:00 X:FF Y:00 P:26 SP:FF PPU:232,190 CYC:21681
C653  AD 02 20  LDA $2002 = FF                  A:00 X:FF Y:00 P:26 SP:FF PPU:241,190 CYC:21684
C656  29 80     AND #$80                        A:10 X:FF Y:00 P:24 SP:FF PPU:253,190 CYC:21688
C658  F0 F9     BEQ $C653                       A:00 X:FF Y:00 P:26 SP:FF PPU:259,190 CYC:21690
C653  AD 02 20  LDA $2002 = FF                  A:00 X:FF Y:00 P:26 SP:FF PPU:268,190 CYC:21693
C656  29 80     AND #$80                        A:10 X:FF Y:00 P:24 SP:FF PPU:280,190 CYC:21697
C658  F0 F9     BEQ $C653                       A:00 X:FF Y:00 P:26 SP:FF PPU:286,190 CYC:21699
C653  AD 02 20  LDA $2002 = FF                  A:00 X:FF Y:00 P:26 SP:FF PPU:295,190 CYC:21702
C656  29 80     AND #$80                        A:10 X:FF Y:00 P:24 SP:FF PPU:307,190 CYC:21706
C658  F0 F9     BEQ $C653                       A:00 X:FF Y:00 P:26 SP:FF PPU:313,190 CYC:21708
C653  AD 02 20  LDA $2002 = FF                  A:00 X:FF Y:00 P:26 SP:FF PPU:322,190 CYC:21711
C656  29 80     AND #$80                        A:10 X:FF Y:00 P:24 SP:FF PPU:334,190 CYC:21715
C658  F0 F9     BEQ $C653                       A:00 X:FF Y:00 P:26 SP:FF PPU:340,190 CYC:21717
C653  AD 02 20  LDA $2002 = FF                  A:00 X:FF Y:00 P:26 SP:FF PPU:  8,191 CYC:21720
C656  29 80     AND #$80                        A:10 X:FF Y:00 P:24 SP:FF PPU: 20,191 CYC:21724
C658  F0 F9     BEQ $C653                       A:00 X:FF Y:00 P:26 SP:FF PPU: 26,191 CYC:21726
C653  AD 02 20  LDA $2002 = FF                  A:00 X:FF Y:00 P:26 SP:FF PPU: 35,191 CYC:21729
C656  29 80     AND #$80                        A:10 X:FF Y:00 P:24 SP:FF PPU: 47,191 CYC:21733
C658  F0 F9     BEQ $C653                       A:00 X:FF Y:00 P:26 SP:FF PPU: 53,191 CYC:21735
C653  AD 02 20  LDA $2002 = FF                  A:00 X:FF Y:00 P:26 SP:FF PPU: 62,191 CYC:21738
C656  29 80     AND #$80                        A:10 X:FF Y:00 P:24 SP:FF PPU: 74,191 CYC:21742
C658  F0 F9     BEQ $C653                       A:00 X:FF Y:00 P:26 SP:FF PPU: 80,191 CYC:21744
C653  AD 02 20  LDA $2002 = FF                  A:00 X:FF Y:00 P:26 SP:FF PPU: 89,191 CYC:21747
C656  29 80     AND #$80                        A:10 X:FF Y:00 P:24 SP:FF PPU:101,191 CYC:21751
C658  F0 F9     BEQ $C653                       A:00 X:FF Y:00 P:26 SP:FF PPU:107,191 CYC:21753
C653  AD 02 20  LDA $2002 = FF                  A:00 X:FF Y:00 P:26 SP:FF PPU:116,191 CYC:21756
C656  29 80     AND #$80                        A:10 X:FF Y:00 P:24 SP:FF PPU:128,191 CYC:21760
C658  F0 F9     BEQ $C653                       A:00 X:FF Y:00 P:26 SP:FF PPU:134,191 CYC:21762
C653  AD 02 20  LDA $2002 = FF                  A:00 X:FF Y:00 P:26 SP:FF PPU:143,191 CYC:21765
C656  29 80     AND #$80                        A:10 X:FF Y:00 P:24 SP:FF PPU:155,191 CYC:21769
C658  F0 F9     BEQ $C653                       A:00 X:FF Y:00 P:26 SP:FF PPU:161,191 CYC:21771
C653  AD 02 20  LDA $2002 = FF                  A:00 X:FF Y:00 P:26 SP:FF PPU:170,191 CYC:21774
C656  29 80     AND #$80                        A:10 X:FF Y:00 P:24 SP:FF PPU:182,191 CYC:21778
C658  F0 F9     BEQ $C653                       A:00 X:FF Y:00 P:26 SP:FF PPU:188,191 CYC:21780
C653  AD 02 20  LDA $2002 = FF                  A:00 X:FF Y:00 P:26 SP:FF PPU:197,191 CYC:21783
C656  29 80     AND #$80                        A:10 X:FF Y:00 P:24 SP:FF PPU:209,191 CYC:21787
C658  F0 F9     BEQ $C653                       A:00 X:FF Y:00 P:26 SP:FF PPU:215,191 CYC:21789
C653  AD 02 20  LDA $2002 = FF                  A:00 X:FF Y:00 P:26 SP:FF PPU:224,191 CYC:21792
C656  29 80     AND #$80                        A:10 X:FF Y:00 P:24 SP:FF PPU:236,191 CYC:21796
C658  F0 F9     BEQ $C653                       A:00 X:FF Y:00 P:26 SP:FF PPU:242,191 CYC:21798
C653  AD 02 20  LDA $2002 = FF                  A:00 X:FF Y:00 P:26 SP:FF PPU:251,191 CYC:21801
C656  29 80     AND #$80                        A:10 X:FF Y:00 P:24 SP:FF PPU:263,191 CYC:21805
C658  F0 F9     BEQ $C653                       A:00 X:FF Y:00 P:26 SP:FF PPU:269,191 CYC:21807
C653  AD 02 20  LDA $2002 = FF                  A:00 X:FF Y:00 P:26 SP:FF PPU:278,191 CYC:21810
C656  29 80     AND #$80                        A:10 X:FF Y:00 P:24 SP:FF PPU:290,191 CYC:21814
C658  F0 F9     BEQ $C653                       A:00 X:FF Y:00 P:26 SP:FF PPU:296,191 CYC:21816
C653  AD 02 20  LDA $2002 = FF                  A:00 X:FF Y:00 P:26 SP:FF PPU:305,191 CYC:21819
C656  29 80     AND #$80                        A:10 X:FF Y:00 P:24 SP:FF PPU:317,191 CYC:21823
C658  F0 F9     BEQ $C653                       A:00 X:FF Y:00 P:26 SP:FF PPU:323,191 CYC:21825
C653  AD 02 20  LDA $2002 = FF                  A:00 X:FF Y:00 P:26 SP:FF PPU:332,191 CYC:21828
C656  29 80     AND #$80                        A:10 X:FF Y:00 P:24 SP:FF PPU:  3,192 CYC:21832
C658  F0 F9     BEQ $C653                       A:00 X:FF Y:00 P:26 SP:FF PPU:  9,192 CYC:21834
C653  AD 02 20  LDA $2002 = FF                  A:00 X:FF Y:00 P:26 SP:FF PPU: 18,192 CYC:21837
C656  29 80     AND #$80                        A:10 X:FF Y:00 P:24 SP:FF PPU: 30,192 CYC:21841
C658  F0 F9     BEQ $C653                       A:00 X:FF Y:00 P:26 SP:FF PPU: 36,192 CYC:21843
C653  AD 02 20  LDA $2002 = FF                  A:00 X:FF Y:00 P:26 SP:FF PPU: 45,192 CYC:21846
C656  29 80     AND #$80                        A:10 X:FF Y:00 P:24 SP:FF PPU: 57,192 CYC:21850
C658  F0 F9     BEQ $C653                       A:00 X:FF Y:00 P:26 SP:FF PPU: 63,192 CYC:21852
C653  AD 02 20  LDA $2002 = FF                  A:00 X:FF Y:00 P:26 SP:FF PPU: 72,192 CYC:21855
C656  29 80     AND #$80                        A:10 X:FF Y:00 P:24 SP:FF PPU: 84,192 CYC:21859
C658  F0 F9     BEQ $C653                       A:00 X:FF Y:00 P:26 SP:FF PPU: 90,192 CYC:21861
C653  AD 02 20  LDA $2002 = FF                  A:00 X:FF Y:00 P:26 SP:FF PPU: 99,192 CYC:21864
C656  29 80     AND #$80                        A:10 X:FF Y:00 P:24 SP:FF PPU:111,192 CYC:21868
C658  F0 F9     BEQ $C653                       A:00 X:FF Y:00 P:26 SP:FF PPU:117,192 CYC:21870
C653  AD 02 20  LDA $2002 = FF                  A:00 X:FF Y:00 P:26 SP:FF PPU:126,192 CYC:21873
C656  29 80     AND #$80                        A:10 X:FF Y:00 P:24 SP:FF PPU:138,192 CYC:21877
C658  F0 F9     BEQ $C653                       A:00 X:FF Y:00 P:26 SP:FF PPU:144,192 CYC:21879
C653  AD 02 20  LDA $2002 = FF                  A:00 X:FF Y:00 P:26 SP:FF PPU:153,192 CYC:21882
C656  29 80     AND #$80                        A:10 X:FF Y:00 P:24 SP:FF PPU:165,192 CYC:21886
C658  F0 F9     BEQ $C653                       A:00 X:FF Y:00 P:26 SP:FF PPU:171,192 CYC:21888
C653  AD 02 20  LDA $2002 = FF                  A:00 X:FF Y:00 P:26 SP:FF PPU:180,192 CYC:21891
C656  29 80     AND #$80                        A:10 X:FF Y:00 P:24 SP:FF PPU:192,192 CYC:21895
C658  F0 F9     BEQ $C653                       A:00 X:FF Y:00 P:26 SP:FF PPU:198,192 CYC:21897
C653  AD 02 20  LDA $2002 = FF                  A:00 X:FF Y:00 P:26 SP:FF PPU:207,192 CYC:21900
C656  29 80     AND #$80                        A:10 X:FF Y:00 P:24 SP:FF PPU:219,192 CYC:21904
C658  F0 F9     BEQ $C653                       A:00 X:FF Y:00 P:26 SP:FF PPU:225,192 CYC:21906
C653  AD 02 20  LDA $2002 = FF                  A:00 X:FF Y:00 P:26 SP:FF PPU:234,192 CYC:21909
C656  29 80     AND #$80                        A:10 X:FF Y:00 P:24 SP:FF PPU:246,192 CYC:21913
C658  F0 F9     BEQ $C653                       A:00 X:FF Y:00 P:26 SP:FF PPU:252,192 CYC:21915
C653  AD 02 20  LDA $2002 = FF                  A:00 X:FF Y:00 P:26 SP:FF PPU:261,192 CYC:21918
C656  29 80     AND #$80                        A:10 X:FF Y:00 P:24 SP:FF PPU:273,192 CYC:21922
C658  F0 F9     BEQ $C653                       A:00 X:FF Y:00 P:26 SP:FF PPU:279,192 CYC:21924
C653  AD 02 20  LDA $2002 = FF                  A:00 X:FF Y:00 P:26 SP:FF PPU:288,192 CYC:21927
C656  29 80     AND #$80                        A:10 X:FF Y:00 P:24 SP:FF PPU:300,192 CYC:21931
C658  F0 F9     BEQ $C653                       A:00 X:FF Y:00 P:26 SP:FF PPU:306,192 CYC:21933
C653  AD 02 20  LDA $2002 = FF                  A:00 X:FF Y:00 P:26 SP:FF PPU:315,192 CYC:21936
C656  29 80     AND #$80                        A:10 X:FF Y:00 P:24 SP:FF PPU:327,192 CYC:21940
C658  F0 F9     BEQ $C653                       A:00 X:FF Y:00 P:26 SP:FF PPU:333,192 CYC:21942
C653  AD 02 20  LDA $2002 = FF                  A:00 X:FF Y:00 P:26 SP:FF PPU:  1,193 CYC:21945
C656  29 80     AND #$80                        A:10 X:FF Y:00 P:24 SP:FF PPU: 13,193 CYC:21949
C658  F0 F9     BEQ $C653                       A:00 X:FF Y:00 P:26 SP:FF PPU: 19,193 CYC:21951
C653  AD 02 20  LDA $2002 = FF                  A:00 X:FF Y:00 P:26 SP:FF PPU: 28,193 CYC:21954
C656  29 80     AND #$80                        A:10 X:FF Y:00 P:24 SP:FF PPU: 40,193 CYC:21958
C658  F0 F9     BEQ $C653                       A:00 X:FF Y:00 P:26 SP:FF PPU: 46,193 CYC:21960
C653  AD 02 20  LDA $2002 = FF                  A:00 X:FF Y:00 P:26 SP:FF PPU: 55,193 CYC:21963
C656  29 80     AND #$80                        A:10 X:FF Y:00 P:24 SP:FF PPU: 67,193 CYC:21967
C658  F0 F9     BEQ $C653                       A:00 X:FF Y:00 P:26 SP:FF PPU: 73,193 CYC:21969
C653  AD 02 20  LDA $2002 = FF                  A:00 X:FF Y:00 P:26 SP:FF PPU: 82,193 CYC:21972
C656  29 80     AND #$80                        A:10 X:FF Y:00 P:24 SP:FF PPU: 94,193 CYC:21976
C658  F0 F9     BEQ $C653                       A:00 X:FF Y:00 P:26 SP:FF PPU:100,193 CYC:21978
C653  AD 02 20  LDA $2002 = FF                  A:00 X:FF Y:00 P:26 SP:FF PPU:109,193 CYC:21981
C656  29 80     AND #$80                        A:10 X:FF Y:00 P:24 SP:FF PPU:121,193 CYC:21985
C658  F0 F9     BEQ $C653                       A:00 X:FF Y:00 P:26 SP:FF PPU:127,193 CYC:21987
C653  AD 02 20  LDA $2002 = FF                  A:00 X:FF Y:00 P:26 SP:FF PPU:136,193 CYC:21990
C656  29 80     AND #$80                        A:10 X:FF Y:00 P:24 SP:FF PPU:148,193 CYC:21994
C658  F0 F9     BEQ $C653                       A:00 X:FF Y:00 P:26 SP:FF PPU:154,193 CYC:21996
C653  AD 02 20  LDA $2002 = FF                  A:00 X:FF Y:00 P:26 SP:FF PPU:163,193 CYC:21999
C656  29 80     AND #$80                        A:10 X:FF Y:00 P:24 SP:FF PPU:175,193 CYC:22003
C658  F0 F9     BEQ $C653                       A:00 X:FF Y:00 P:26 SP:FF PPU:181,193 CYC:22005
C653  AD 02 20  LDA $2002 = FF                  A:00 X:FF Y:00 P:26 SP:FF PPU:190,193 CYC:22008
C656  29 80     AND #$80                        A:10 X:FF Y:00 P:24 SP:FF PPU:202,193 CYC:22012
C658  F0 F9     BEQ $C653                       A:00 X:FF Y:00 P:26 SP:FF PPU:208,193 CYC:22014
C653  AD 02 20  LDA $2002 = FF                  A:00 X:FF Y:00 P:26 SP:FF PPU:217,193 CYC:22017
C656  29 80     AND #$80                        A:10 X:FF Y:00 P:24 SP:FF PPU:229,193 CYC:22021
C658  F0 F9     BEQ $C653                       A:00 X:FF Y:00 P:26 SP:FF PPU:235,193 CYC:22023
C653  AD 02 20  LDA $2002 = FF                  A:00 X:FF Y:00 P:26 SP:FF PPU:244,193 CYC:22026
C656  29 80     AND #$80                        A:10 X:FF Y:00 P:24 SP:FF PPU:256,193 CYC:22030
C658  F0 F9     BEQ $C653                       A:00 X:FF Y:00 P:26 SP:FF PPU:262,193 CYC:22032
C653  AD 02 20  LDA $2002 = FF                  A:00 X:FF Y:00 P:26 SP:FF PPU:271,193 CYC:22035
C656  29 80     AND #$80                        A:10 X:FF Y:00 P:24 SP:FF PPU:283,193 CYC:22039
C658  F0 F9     BEQ $C653                       A:00 X:FF Y:00 P:26 SP:FF PPU:289,193 CYC:22041
C653  AD 02 20  LDA $2002 = FF                  A:00 X:FF Y:00 P:26 SP:FF PPU:298,193 CYC:22044
C656  29 80     AND #$80                        A:10 X:FF Y:00 P:24 SP:FF PPU:310,193 CYC:22048
C658  F0 F9     BEQ $C653                       A:00 X:FF Y:00 P:26 SP:FF PPU:316,193 CYC:22050
C653  AD 02 20  LDA $2002 = FF                  A:00 X:FF Y:00 P:26 SP:FF PPU:325,193 CYC:22053
C656  29 80     AND #$80                        A:10 X:FF Y:00 P:24 SP:FF PPU:337,193 CYC:22057
C658  F0 F9     BEQ $C653                       A:00 X:FF Y:00 P:26 SP:FF PPU:  2,194 CYC:22059
C653  AD 02 20  LDA $2002 = FF                  A:00 X:FF Y:00 P:26 SP:FF PPU: 11,194 CYC:22062
C656  29 80     AND #$80                        A:10 X:FF Y:00 P:24 SP:FF PPU: 23,194 CYC:22066
C658  F0 F9     BEQ $C653                       A:00 X:FF Y:00 P:26 SP:FF PPU: 29,194 CYC:22068
C653  AD 02 20  LDA $2002 = FF                  A:00 X:FF Y:00 P:26 SP:FF PPU: 38,194 CYC:22071
C656  29 80     AND #$80                        A:10 X:FF Y:00 P:24 SP:FF PPU: 50,194 CYC:22075
C658  F0 F9     BEQ $C653                       A:00 X:FF Y:00 P:26 SP:FF PPU: 56,194 CYC:22077
C653  AD 02 20  LDA $2002 = FF                  A:00 X:FF Y:00 P:26 SP:FF PPU: 65,194 CYC:22080
C656  29 80     AND #$80                        A:10 X:FF Y:00 P:24 SP:FF PPU: 77,194 CYC:22084
C658  F0 F9     BEQ $C653                       A:00 X:FF Y:00 P:26 SP:FF PPU: 83,194 CYC:22086
C653  AD 02 20  LDA $2002 = FF                  A:00 X:FF Y:00 P:26 SP:FF PPU: 92,194 CYC:22089
C656  29 80     AND #$80                        A:10 X:FF Y:00 P:24 SP:FF PPU:104,194 CYC:22093
C658  F0 F9     BEQ $C653                       A:00 X:FF Y:00 P:26 SP:FF PPU:110,194 CYC:22095
C653  AD 02 20  LDA $2002 = FF                  A:00 X:FF Y:00 P:26 SP:FF PPU:119,194 CYC:22098
C656  29 80     AND #$80                        A:10 X:FF Y:00 P:24 SP:FF PPU:131,194 CYC:22102
C658  F0 F9     BEQ $C653                       A:00 X:FF Y:00 P:26 SP:FF PPU:137,194 CYC:22104
C653  AD 02 20  LDA $2002 = FF                  A:00 X:FF Y:00 P:26 SP:FF PPU:146,194 CYC:22107
C656  29 80     AND #$80                        A:10 X:FF Y:00 P:24 SP:FF PPU:158,194 CYC:22111
C658  F0 F9     BEQ $C653                       A:00 X:FF Y:00 P:26 SP:FF PPU:164,194 CYC:22113
C653  AD 02 20  LDA $2002 = FF                  A:00 X:FF Y:00 P:26 SP:FF PPU:173,194 CYC:22116
C656  29 80     AND #$80                        A:10 X:FF Y:00 P:24 SP:FF PPU:185,194 CYC:22120
C658  F0 F9     BEQ $C653                       A:00 X:FF Y:00 P:26 SP:FF PPU:191,194 CYC:22122
C653  AD 02 20  LDA $2002 = FF                  A:00 X:FF Y:00 P:26 SP:FF PPU:200,194 CYC:22125
C656  29 80     AND #$80                        A:10 X:FF Y:00 P:24 SP:FF PPU:212,194 CYC:22129
C658  F0 F9     BEQ $C653                       A:00 X:FF Y:00 P:26 SP:FF PPU:218,194 CYC:22131
C653  AD 02 20  LDA $2002 = FF                  A:00 X:FF Y:00 P:26 SP:FF PPU:227,194 CYC:22134
C656  29 80     AND #$80                        A:10 X:FF Y:00 P:24 SP:FF PPU:239,194 CYC:22138
C658  F0 F9     BEQ $C653                       A:00 X:FF Y:00 P:26 SP:FF PPU:245,194 CYC:22140
C653  AD 02 20  LDA $2002 = FF                  A:00 X:FF Y:00 P:26 SP:FF PPU:254,194 CYC:22143
C656  29 80     AND #$80                        A:10 X:FF Y:00 P:24 SP:FF PPU:266,194 CYC:22147
C658  F0 F9     BEQ $C653                       A:00 X:FF Y:00 P:26 SP:FF PPU:272,194 CYC:22149
C653  AD 02 20  LDA $2002 = FF                  A:00 X:FF Y:00 P:26 SP:FF PPU:281,194 CYC:22152
C656  29 80     AND #$80                        A:10 X:FF Y:00 P:24 SP:FF PPU:293,194 CYC:22156
C658  F0 F9     BEQ $C653                       A:00 X:FF Y:00 P:26 SP:FF PPU:299,194 CYC:22158
C653  AD 02 20  LDA $2002 = FF                  A:00 X:FF Y:00 P:26 SP:FF PPU:308,194 CYC:22161
C656  29 80     AND #$80                        A:10 X:FF Y:00 P:24 SP:FF PPU:320,194 CYC:22165
C658  F0 F9     BEQ $C653                       A:00 X:FF Y:00 P:26 SP:FF PPU:326,194 CYC:22167
C653  AD 02 20  LDA $2002 = FF                  A:00 X:FF Y:00 P:26 SP:FF PPU:335,194 CYC:22170
C656  29 80     AND #$80                        A:10 X:FF Y:00 P:24 SP:FF PPU:  6,195 CYC:22174
C658  F0 F9     BEQ $C653                       A:00 X:FF Y:00 P:26 SP:FF PPU: 12,195 CYC:22176
C653  AD 02 20  LDA $2002 = FF                  A:00 X:FF Y:00 P:26 SP:FF PPU: 21,195 CYC:22179
C656  29 80     AND #$80                        A:10 X:FF Y:00 P:24 SP:FF PPU: 33,195 CYC:22183
C658  F0 F9     BEQ $C653                       A:00 X:FF Y:00 P:26 SP:FF PPU: 39,195 CYC:22185
C653  AD 02 20  LDA $2002 = FF                  A:00 X:FF Y:00 P:26 SP:FF PPU: 48,195 CYC:22188
C656  29 80     AND #$80                        A:10 X:FF Y:00 P:24 SP:FF PPU: 60,195 CYC:22192
C658  F0 F9     BEQ $C653                       A:00 X:FF Y:00 P:26 SP:FF PPU: 66,195 CYC:22194
C653  AD 02 20  LDA $2002 = FF                  A:00 X:FF Y:00 P:26 SP:FF PPU: 75,195 CYC:22197
C656  29 80     AND #$80                        A:10 X:FF Y:00 P:24 SP:FF PPU: 87,195 CYC:22201
C658  F0 F9     BEQ $C653                       A:00 X:FF Y:00 P:26 SP:FF PPU: 93,195 CYC:22203
C653  AD 02 20  LDA $2002 = FF                  A:00 X:FF Y:00 P:26 SP:FF PPU:102,195 CYC:22206
C656  29 80     AND #$80                        A:10 X:FF Y:00 P:24 SP:FF PPU:114,195 CYC:22210
C658  F0 F9     BEQ $C653                       A:00 X:FF Y:00 P:26 SP:FF PPU:120,195 CYC:22212
C653  AD 02 20  LDA $2002 = FF                  A:00 X:FF Y:00 P:26 SP:FF PPU:129,195 CYC:22215
C656  29 80     AND #$80                        A:10 X:FF Y:00 P:24 SP:FF PPU:141,195 CYC:22219
C658  F0 F9     BEQ $C653                       A:00 X:FF Y:00 P:26 SP:FF PPU:147,195 CYC:22221
C653  AD 02 20  LDA $2002 = FF                  A:00 X:FF Y:00 P:26 SP:FF PPU:156,195 CYC:22224
C656  29 80     AND #$80                        A:10 X:FF Y:00 P:24 SP:FF PPU:168,195 CYC:22228
C658  F0 F9     BEQ $C653                       A:00 X:FF Y:00 P:26 SP:FF PPU:174,195 CYC:22230
C653  AD 02 20  LDA $2002 = FF                  A:00 X:FF Y:00 P:26 SP:FF PPU:183,195 CYC:22233
C656  29 80     AND #$80                        A:10 X:FF Y:00 P:24 SP:FF PPU:195,195 CYC:22237
C658  F0 F9     BEQ $C653                       A:00 X:FF Y:00 P:26 SP:FF PPU:201,195 CYC:22239
C653  AD 02 20  LDA $2002 = FF                  A:00 X:FF Y:00 P:26 SP:FF PPU:210,195 CYC:22242
C656  29 80     AND #$80                        A:10 X:FF Y:00 P:24 SP:FF PPU:222,195 CYC:22246
C658  F0 F9     BEQ $C653                       A:00 X:FF Y:00 P:26 SP:FF PPU:228,195 CYC:22248
C653  AD 02 20  LDA $2002 = FF                  A:00 X:FF Y:00 P:26 SP:FF PPU:237,195 CYC:22251
C656  29 80     AND #$80                        A:10 X:FF Y:00 P:24 SP:FF PPU:249,195 CYC:22255
C658  F0 F9     BEQ $C653                       A:00 X:FF Y:00 P:26 SP:FF PPU:255,195 CYC:22257
C653  AD 02 20  LDA $2002 = FF                  A:00 X:FF Y:00 P:26 SP:FF PPU:264,195 CYC:22260
C656  29 80     AND #$80                        A:10 X:FF Y:00 P:24 SP:FF PPU:276,195 CYC:22264
C658  F0 F9     BEQ $C653                       A:00 X:FF Y:00 P:26 SP:FF PPU:282,195 CYC:22266
C653  AD 02 20  LDA $2002 = FF                  A:00 X:FF Y:00 P:26 SP:FF PPU:291,195 CYC:22269
C656  29 80     AND #$80                        A:10 X:FF Y:00 P:24 SP:FF PPU:303,195 CYC:22273
C658  F0 F9     BEQ $C653                       A:00 X:FF Y:00 P:26 SP:FF PPU:309,195 CYC:22275
C653  AD 02 20  LDA $2002 = FF                  A:00 X:FF Y:00 P:26 SP:FF PPU:318,195 CYC:22278
C656  29 80     AND #$80                        A:10 X:FF Y:00 P:24 SP:FF PPU:330,195 CYC:22282
C658  F0 F9     BEQ $C653                       A:00 X:FF Y:00 P:26 SP:FF PPU:336,195 CYC:22284
C653  AD 02 20  LDA $2002 = FF                  A:00 X:FF Y:00 P:26 SP:FF PPU:  4,196 CYC:22287
C656  29 80     AND #$80                        A:10 X:FF Y:00 P:24 SP:FF PPU: 16,196 CYC:22291
C658  F0 F9     BEQ $C653                       A:00 X:FF Y:00 P:26 SP:FF PPU: 22,196 CYC:22293
C653  AD 02 20  LDA $2002 = FF                  A:00 X:FF Y:00 P:26 SP:FF PPU: 31,196 CYC:22296
C656  29 80     AND #$80                        A:10 X:FF Y:00 P:24 SP:FF PPU: 43,196 CYC:22300
C658  F0 F9     BEQ $C653                       A:00 X:FF Y:00 P:26 SP:FF PPU: 49,196 CYC:22302
C653  AD 02 20  LDA $2002 = FF                  A:00 X:FF Y:00 P:26 SP:FF PPU: 58,196 CYC:22305
C656  29 80     AND #$80                        A:10 X:FF Y:00 P:24 SP:FF PPU: 70,196 CYC:22309
C658  F0 F9     BEQ $C653                       A:00 X:FF Y:00 P:26 SP:FF PPU: 76,196 CYC:22311
C653  AD 02 20  LDA $2002 = FF                  A:00 X:FF Y:00 P:26 SP:FF PPU: 85,196 CYC:22314
C656  29 80     AND #$80                        A:10 X:FF Y:00 P:24 SP:FF PPU: 97,196 CYC:22318
C658  F0 F9     BEQ $C653                       A:00 X:FF Y:00 P:26 SP:FF PPU:103,196 CYC:22320
C653  AD 02 20  LDA $2002 = FF                  A:00 X:FF Y:00 P:26 SP:FF PPU:112,196 CYC:22323
C656  29 80     AND #$80                        A:10 X:FF Y:00 P:24 SP:FF PPU:124,196 CYC:22327
C658  F0 F9     BEQ $C653                       A:00 X:FF Y:00 P:26 SP:FF PPU:130,196 CYC:22329
C653  AD 02 20  LDA $2002 = FF                  A:00 X:FF Y:00 P:26 SP:FF PPU:139,196 CYC:22332
C656  29 80     AND #$80                        A:10 X:FF Y:00 P:24 SP:FF PPU:151,196 CYC:22336
C658  F0 F9     BEQ $C653                       A:00 X:FF Y:00 P:26 SP:FF PPU:157,196 CYC:22338
C653  AD 02 20  LDA $2002 = FF                  A:00 X:FF Y:00 P:26 SP:FF PPU:166,196 CYC:22341
C656  29 80     AND #$80                        A:10 X:FF Y:00 P:24 SP:FF PPU:178,196 CYC:22345
C658  F0 F9     BEQ $C653                       A:00 X:FF Y:00 P:26 SP:FF PPU:184,196 CYC:22347
C653  AD 02 20  LDA $2002 = FF                  A:00 X:FF Y:00 P:26 SP:FF PPU:193,196 CYC:22350
C656  29 80     AND #$80                        A:10 X:FF Y:00 P:24 SP:FF PPU:205,196 CYC:22354
C658  F0 F9     BEQ $C653                       A:00 X:FF Y:00 P:26 SP:FF PPU:211,196 CYC:22356
C653  AD 02 20  LDA $2002 = FF                  A:00 X:FF Y:00 P:26 SP:FF PPU:220,196 CYC:22359
C656  29 80     AND #$80                        A:10 X:FF Y:00 P:24 SP:FF PPU:232,196 CYC:22363
C658  F0 F9     BEQ $C653                       A:00 X:FF Y:00 P:26 SP:FF PPU:238,196 CYC:22365
C653  AD 02 20  LDA $2002 = FF                  A:00 X:FF Y:00 P:26 SP:FF PPU:247,196 CYC:22368
C656  29 80     AND #$80                        A:10 X:FF Y:00 P:24 SP:FF PPU:259,196 CYC:22372
C658  F0 F9     BEQ $C653                       A:00 X:FF Y:00 P:26 SP:FF PPU:265,196 CYC:22374
C653  AD 02 20  LDA $2002 = FF                  A:00 X:FF Y:00 P:26 SP:FF PPU:274,196 CYC:22377
C656  29 80     AND #$80                        A:10 X:FF Y:00 P:24 SP:FF PPU:286,196 CYC:22381
C658  F0 F9     BEQ $C653                       A:00 X:FF Y:00 P:26 SP:FF PPU:292,196 CYC:22383
C653  AD 02 20  LDA $2002 = FF                  A:00 X:FF Y:00 P:26 SP:FF PPU:301,196 CYC:22386
C656  29 80     AND #$80                        A:10 X:FF Y:00 P:24 SP:FF PPU:313,196 CYC:22390
C658  F0 F9     BEQ $C653                       A:00 X:FF Y:00 P:26 SP:FF PPU:319,196 CYC:22392
C653  AD 02 20  LDA $2002 = FF                  A:00 X:FF Y:00 P:26 SP:FF PPU:328,196 CYC:22395
C656  29 80     AND #$80                        A:10 X:FF Y:00 P:24 SP:FF PPU:340,196 CYC:22399
C658  F0 F9     BEQ $C653                       A:00 X:FF Y:00 P:26 SP:FF PPU:  5,197 CYC:22401
C653  AD 02 20  LDA $2002 = FF                  A:00 X:FF Y:00 P:26 SP:FF PPU: 14,197 CYC:22404
C656  29 80     AND #$80                        A:10 X:FF Y:00 P:24 SP:FF PPU: 26,197 CYC:22408
C658  F0 F9     BEQ $C653                       A:00 X:FF Y:00 P:26 SP:FF PPU: 32,197 CYC:22410
C653  AD 02 20  LDA $2002 = FF                  A:00 X:FF Y:00 P:26 SP:FF PPU: 41,197 CYC:22413
C656  29 80     AND #$80                        A:10 X:FF Y:00 P:24 SP:FF PPU: 53,197 CYC:22417
C658  F0 F9     BEQ $C653                       A:00 X:FF Y:00 P:26 SP:FF PPU: 59,197 CYC:22419
C653  AD 02 20  LDA $2002 = FF                  A:00 X:FF Y:00 P:26 SP:FF PPU: 68,197 CYC:22422
C656  29 80     AND #$80                        A:10 X:FF Y:00 P:24 SP:FF PPU: 80,197 CYC:22426
C658  F0 F9     BEQ $C653                       A:00 X:FF Y:00 P:26 SP:FF PPU: 86,197 CYC:22428
C653  AD 02 20  LDA $2002 = FF                  A:00 X:FF Y:00 P:26 SP:FF PPU: 95,197 CYC:22431
C656  29 80     AND #$80                        A:10 X:FF Y:00 P:24 SP:FF PPU:107,197 CYC:22435
C658  F0 F9     BEQ $C653                       A:00 X:FF Y:00 P:26 SP:FF PPU:113,197 CYC:22437
C653  AD 02 20  LDA $2002 = FF                  A:00 X:FF Y:00 P:26 SP:FF PPU:122,197 CYC:22440
C656  29 80     AND #$80                        A:10 X:FF Y:00 P:24 SP:FF PPU:134,197 CYC:22444
C658  F0 F9     BEQ $C653                       A:00 X:FF Y:00 P:26 SP:FF PPU:140,197 CYC:22446
C653  AD 02 20  LDA $2002 = FF                  A:00 X:FF Y:00 P:26 SP:FF PPU:149,197 CYC:22449
C656  29 80     AND #$80                        A:10 X:FF Y:00 P:24 SP:FF PPU:161,197 CYC:22453
C658  F0 F9     BEQ $C653                       A:00 X:FF Y:00 P:26 SP:FF PPU:167,197 CYC:22455
C653  AD 02 20  LDA $2002 = FF                  A:00 X:FF Y:00 P:26 SP:FF PPU:176,197 CYC:22458
C656  29 80     AND #$80                        A:10 X:FF Y:00 P:24 SP:FF PPU:188,197 CYC:22462
C658  F0 F9     BEQ $C653                       A:00 X:FF Y:00 P:26 SP:FF PPU:194,197 CYC:22464
C653  AD 02 20  LDA $2002 = FF                  A:00 X:FF Y:00 P:26 SP:FF PPU:203,197 CYC:22467
C656  29 80     AND #$80                        A:10 X:FF Y:00 P:24 SP:FF PPU:215,197 CYC:22471
C658  F0 F9     BEQ $C653                       A:00 X:FF Y:00 P:26 SP:FF PPU:221,197 CYC:22473
C653  AD 02 20  LDA $2002 = FF                  A:00 X:FF Y:00 P:26 SP:FF PPU:230,197 CYC:22476
C656  29 80     AND #$80                        A:10 X:FF Y:00 P:24 SP:FF PPU:242,197 CYC:22480
C658  F0 F9     BEQ $C653                       A:00 X:FF Y:00 P:26 SP:FF PPU:248,197 CYC:22482
C653  AD 02 20  LDA $2002 = FF                  A:00 X:FF Y:00 P:26 SP:FF PPU:257,197 CYC:22485
C656  29 80     AND #$80                        A:10 X:FF Y:00 P:24 SP:FF PPU:269,197 CYC:22489
C658  F0 F9     BEQ $C653                       A:00 X:FF Y:00 P:26 SP:FF PPU:275,197 CYC:22491
C653  AD 02 20  LDA $2002 = FF                  A:00 X:FF Y:00 P:26 SP:FF PPU:284,197 CYC:22494
C656  29 80     AND #$80                        A:10 X:FF Y:00 P:24 SP:FF PPU:296,197 CYC:22498
C658  F0 F9     BEQ $C653                       A:00 X:FF Y:00 P:26 SP:FF PPU:302,197 CYC:22500
C653  AD 02 20  LDA $2002 = FF                  A:00 X:FF Y:00 P:26 SP:FF PPU:311,197 CYC:22503
C656  29 80     AND #$80                        A:10 X:FF Y:00 P:24 SP:FF PPU:323,197 CYC:22507
C658  F0 F9     BEQ $C653                       A:00 X:FF Y:00 P:26 SP:FF PPU:329,197 CYC:22509
C653  AD 02 20  LDA $2002 = FF                  A:00 X:FF Y:00 P:26 SP:FF PPU:338,197 CYC:22512
C656  29 80     AND #$80                        A:10 X:FF Y:00 P:24 SP:FF PPU:  9,198 CYC:22516
C658  F0 F9     BEQ $C653                       A:00 X:FF Y:00 P:26 SP:FF PPU: 15,198 CYC:22518
C653  AD 02 20  LDA $2002 = FF                  A:00 X:FF Y:00 P:26 SP:FF PPU: 24,198 CYC:22521
C656  29 80     AND #$80                        A:10 X:FF Y:00 P:24 SP:FF PPU: 36,198 CYC:22525
C658  F0 F9     BEQ $C653                       A:00 X:FF Y:00 P:26 SP:FF PPU: 42,198 CYC:22527
C653  AD 02 20  LDA $2002 = FF                  A:00 X:FF Y:00 P:26 SP:FF PPU: 51,198 CYC:22530
C656  29 80     AND #$80                        A:10 X:FF Y:00 P:24 SP:FF PPU: 63,198 CYC:22534
C658  F0 F9     BEQ $C653                       A:00 X:FF Y:00 P:26 SP:FF PPU: 69,198 CYC:22536
C653  AD 02 20  LDA $2002 = FF                  A:00 X:FF Y:00 P:26 SP:FF PPU: 78,198 CYC:22539
C656  29 80     AND #$80                        A:10 X:FF Y:00 P:24 SP:FF PPU: 90,198 CYC:22543
C658  F0 F9     BEQ $C653                       A:00 X:FF Y:00 P:26 SP:FF PPU: 96,198 CYC:22545
C653  AD 02 20  LDA $2002 = FF                  A:00 X:FF Y:00 P:26 SP:FF PPU:105,198 CYC:22548
C656  29 80     AND #$80                        A:10 X:FF Y:00 P:24 SP:FF PPU:117,198 CYC:22552
C658  F0 F9     BEQ $C653                       A:00 X:FF Y:00 P:26 SP:FF PPU:123,198 CYC:22554
C653  AD 02 20  LDA $2002 = FF                  A:00 X:FF Y:00 P:26 SP:FF PPU:132,198 CYC:22557
C656  29 80     AND #$80                        A:10 X:FF Y:00 P:24 SP:FF PPU:144,198 CYC:22561
C658  F0 F9     BEQ $C653                       A:00 X:FF Y:00 P:26 SP:FF PPU:150,198 CYC:22563
C653  AD 02 20  LDA $2002 = FF                  A:00 X:FF Y:00 P:26 SP:FF PPU:159,198 CYC:22566
C656  29 80     AND #$80                        A:10 X:FF Y:00 P:24 SP:FF PPU:171,198 CYC:22570
C658  F0 F9     BEQ $C653                       A:00 X:FF Y:00 P:26 SP:FF PPU:177,198 CYC:22572
C653  AD 02 20  LDA $2002 = FF                  A:00 X:FF Y:00 P:26 SP:FF PPU:186,198 CYC:22575
C656  29 80     AND #$80                        A:10 X:FF Y:00 P:24 SP:FF PPU:198,198 CYC:22579
C658  F0 F9     BEQ $C653                       A:00 X:FF Y:00 P:26 SP:FF PPU:204,198 CYC:22581
C653  AD 02 20  LDA $2002 = FF                  A:00 X:FF Y:00 P:26 SP:FF PPU:213,198 CYC:22584
C656  29 80     AND #$80                        A:10 X:FF Y:00 P:24 SP:FF PPU:225,198 CYC:22588
C658  F0 F9     BEQ $C653                       A:00 X:FF Y:00 P:26 SP:FF PPU:231,198 CYC:22590
C653  AD 02 20  LDA $2002 = FF                  A:00 X:FF Y:00 P:26 SP:FF PPU:240,198 CYC:22593
C656  29 80     AND #$80                        A:10 X:FF Y:00 P:24 SP:FF PPU:252,198 CYC:22597
C658  F0 F9     BEQ $C653                       A:00 X:FF Y:00 P:26 SP:FF PPU:258,198 CYC:22599
C653  AD 02 20  LDA $2002 = FF                  A:00 X:FF Y:00 P:26 SP:FF PPU:267,198 CYC:22602
C656  29 80     AND #$80                        A:10 X:FF Y:00 P:24 SP:FF PPU:279,198 CYC:22606
C658  F0 F9     BEQ $C653                       A:00 X:FF Y:00 P:26 SP:FF PPU:285,198 CYC:22608
C653  AD 02 20  LDA $2002 = FF                  A:00 X:FF Y:00 P:26 SP:FF PPU:294,198 CYC:22611
C656  29 80     AND #$80                        A:10 X:FF Y:00 P:24 SP:FF PPU:306,198 CYC:22615
C658  F0 F9     BEQ $C653                       A:00 X:FF Y:00 P:26 SP:FF PPU:312,198 CYC:22617
C653  AD 02 20  LDA $2002 = FF                  A:00 X:FF Y:00 P:26 SP:FF PPU:321,198 CYC:22620
C656  29 80     AND #$80                        A:10 X:FF Y:00 P:24 SP:FF PPU:333,198 CYC:22624
C658  F0 F9     BEQ $C653                       A:00 X:FF Y:00 P:26 SP:FF PPU:339,198 CYC:22626
C653  AD 02 20  LDA $2002 = FF                  A:00 X:FF Y:00 P:26 SP:FF PPU:  7,199 CYC:22629
C656  29 80     AND #$80                        A:10 X:FF Y:00 P:24 SP:FF PPU: 19,199 CYC:22633
C658  F0 F9     BEQ $C653                       A:00 X:FF Y:00 P:26 SP:FF PPU: 25,199 CYC:22635
C653  AD 02 20  LDA $2002 = FF                  A:00 X:FF Y:00 P:26 SP:FF PPU: 34,199 CYC:22638
C656  29 80     AND #$80                        A:10 X:FF Y:00 P:24 SP:FF PPU: 46,199 CYC:22642
C658  F0 F9     BEQ $C653                       A:00 X:FF Y:00 P:26 SP:FF PPU: 52,199 CYC:22644
C653  AD 02 20  LDA $2002 = FF                  A:00 X:FF Y:00 P:26 SP:FF PPU: 61,199 CYC:22647
C656  29 80     AND #$80                        A:10 X:FF Y:00 P:24 SP:FF PPU: 73,199 CYC:22651
C658  F0 F9     BEQ $C653                       A:00 X:FF Y:00 P:26 SP:FF PPU: 79,199 CYC:22653
C653  AD 02 20  LDA $2002 = FF                  A:00 X:FF Y:00 P:26 SP:FF PPU: 88,199 CYC:22656
C656  29 80     AND #$80                        A:10 X:FF Y:00 P:24 SP:FF PPU:100,199 CYC:22660
C658  F0 F9     BEQ $C653                       A:00 X:FF Y:00 P:26 SP:FF PPU:106,199 CYC:22662
C653  AD 02 20  LDA $2002 = FF                  A:00 X:FF Y:00 P:26 SP:FF PPU:115,199 CYC:22665
C656  29 80     AND #$80                        A:10 X:FF Y:00 P:24 SP:FF PPU:127,199 CYC:22669
C658  F0 F9     BEQ $C653                       A:00 X:FF Y:00 P:26 SP:FF PPU:133,199 CYC:22671
C653  AD 02 20  LDA $2002 = FF                  A:00 X:FF Y:00 P:26 SP:FF PPU:142,199 CYC:22674
C656  29 80     AND #$80                        A:10 X:FF Y:00 P:24 SP:FF PPU:154,199 CYC:22678
C658  F0 F9     BEQ $C653                       A:00 X:FF Y:00 P:26 SP:FF PPU:160,199 CYC:22680
C653  AD 02 20  LDA $2002 = FF                  A:00 X:FF Y:00 P:26 SP:FF PPU:169,199 CYC:22683
C656  29 80     AND #$80                        A:10 X:FF Y:00 P:24 SP:FF PPU:181,199 CYC:22687
C658  F0 F9     BEQ $C653                       A:00 X:FF Y:00 P:26 SP:FF PPU:187,199 CYC:22689
C653  AD 02 20  LDA $2002 = FF                  A:00 X:FF Y:00 P:26 SP:FF PPU:196,199 CYC:22692
C656  29 80     AND #$80                        A:10 X:FF Y:00 P:24 SP:FF PPU:208,199 CYC:22696
C658  F0 F9     BEQ $C653                       A:00 X:FF Y:00 P:26 SP:FF PPU:214,199 CYC:22698
C653  AD 02 20  LDA $2002 = FF                  A:00 X:FF Y:00 P:26 SP:FF PPU:223,199 CYC:22701
C656  29 80     AND #$80                        A:10 X:FF Y:00 P:24 SP:FF PPU:235,199 CYC:22705
C658  F0 F9     BEQ $C653                       A:00 X:FF Y:00 P:26 SP:FF PPU:241,199 CYC:22707
C653  AD 02 20  LDA $2002 = FF                  A:00 X:FF Y:00 P:26 SP:FF PPU:250,199 CYC:22710
C656  29 80     AND #$80                        A:10 X:FF Y:00 P:24 SP:FF PPU:262,199 CYC:22714
C658  F0 F9     BEQ $C653                       A:00 X:FF Y:00 P:26 SP:FF PPU:268,199 CYC:22716
C653  AD 02 20  LDA $2002 = FF                  A:00 X:FF Y:00 P:26 SP:FF PPU:277,199 CYC:22719
C656  29 80     AND #$80                        A:10 X:FF Y:00 P:24 SP:FF PPU:289,199 CYC:22723
C658  F0 F9     BEQ $C653                       A:00 X:FF Y:00 P:26 SP:FF PPU:295,199 CYC:22725
C653  AD 02 20  LDA $2002 = FF                  A:00 X:FF Y:00 P:26 SP:FF PPU:304,199 CYC:22728
C656  29 80     AND #$80                        A:10 X:FF Y:00 P:24 SP:FF PPU:316,199 CYC:22732
C658  F0 F9     BEQ $C653                       A:00 X:FF Y:00 P:26 SP:FF PPU:322,199 CYC:22734
C653  AD 02 20  LDA $2002 = FF                  A:00 X:FF Y:00 P:26 SP:FF PPU:331,199 CYC:22737
C656  29 80     AND #$80                        A:10 X:FF Y:00 P:24 SP:FF PPU:  2,200 CYC:22741
C658  F0 F9     BEQ $C653                       A:00 X:FF Y:00 P:26 SP:FF PPU:  8,200 CYC:22743
C653  AD 02 20  LDA $2002 = FF                  A:00 X:FF Y:00 P:26 SP:FF PPU: 17,200 CYC:22746
C656  29 80     AND #$80                        A:10 X:FF Y:00 P:24 SP:FF PPU: 29,200 CYC:22750
C658  F0 F9     BEQ $C653                       A:00 X:FF Y:00 P:26 SP:FF PPU: 35,200 CYC:22752
C653  AD 02 20  LDA $2002 = FF                  A:00 X:FF Y:00 P:26 SP:FF PPU: 44,200 CYC:22755
C656  29 80     AND #$80                        A:10 X:FF Y:00 P:24 SP:FF PPU: 56,200 CYC:22759
C658  F0 F9     BEQ $C653                       A:00 X:FF Y:00 P:26 SP:FF PPU: 62,200 CYC:22761
C653  AD 02 20  LDA $2002 = FF                  A:00 X:FF Y:00 P:26 SP:FF PPU: 71,200 CYC:22764
C656  29 80     AND #$80                        A:10 X:FF Y:00 P:24 SP:FF PPU: 83,200 CYC:22768
C658  F0 F9     BEQ $C653                       A:00 X:FF Y:00 P:26 SP:FF PPU: 89,200 CYC:22770
C653  AD 02 20  LDA $2002 = FF                  A:00 X:FF Y:00 P:26 SP:FF PPU: 98,200 CYC:22773
C656  29 80     AND #$80                        A:10 X:FF Y:00 P:24 SP:FF PPU:110,200 CYC:22777
C658  F0 F9     BEQ $C653                       A:00 X:FF Y:00 P:26 SP:FF PPU:116,200 CYC:22779
C653  AD 02 20  LDA $2002 = FF                  A:00 X:FF Y:00 P:26 SP:FF PPU:125,200 CYC:22782
C656  29 80     AND #$80                        A:10 X:FF Y:00 P:24 SP:FF PPU:137,200 CYC:22786
C658  F0 F9     BEQ $C653                       A:00 X:FF Y:00 P:26 SP:FF PPU:143,200 CYC:22788
C653  AD 02 20  LDA $2002 = FF                  A:00 X:FF Y:00 P:26 SP:FF PPU:152,200 CYC:22791
C656  29 80     AND #$80                        A:10 X:FF Y:00 P:24 SP:FF PPU:164,200 CYC:22795
C658  F0 F9     BEQ $C653                       A:00 X:FF Y:00 P:26 SP:FF PPU:170,200 CYC:22797
C653  AD 02 20  LDA $2002 = FF                  A:00 X:FF Y:00 P:26 SP:FF PPU:179,200 CYC:22800
C656  29 80     AND #$80                        A:10 X:FF Y:00 P:24 SP:FF PPU:191,200 CYC:22804
C658  F0 F9     BEQ $C653                       A:00 X:FF Y:00 P:26 SP:FF PPU:197,200 CYC:22806
C653  AD 02 20  LDA $2002 = FF                  A:00 X:FF Y:00 P:26 SP:FF PPU:206,200 CYC:22809
C656  29 80     AND #$80                        A:10 X:FF Y:00 P:24 SP:FF PPU:218,200 CYC:22813
C658  F0 F9     BEQ $C653                       A:00 X:FF Y:00 P:26 SP:FF PPU:224,200 CYC:22815
C653  AD 02 20  LDA $2002 = FF                  A:00 X:FF Y:00 P:26 SP:FF PPU:233,200 CYC:22818
C656  29 80     AND #$80                        A:10 X:FF Y:00 P:24 SP:FF PPU:245,200 CYC:22822
C658  F0 F9     BEQ $C653                       A:00 X:FF Y:00 P:26 SP:FF PPU:251,200 CYC:22824
C653  AD 02 20  LDA $2002 = FF                  A:00 X:FF Y:00 P:26 SP:FF PPU:260,200 CYC:22827
C656  29 80     AND #$80                        A:10 X:FF Y:00 P:24 SP:FF PPU:272,200 CYC:22831
C658  F0 F9     BEQ $C653                       A:00 X:FF Y:00 P:26 SP:FF PPU:278,200 CYC:22833
C653  AD 02 20  LDA $2002 = FF                  A:00 X:FF Y:00 P:26 SP:FF PPU:287,200 CYC:22836
C656  29 80     AND #$80                        A:10 X:FF Y:00 P:24 SP:FF PPU:299,200 CYC:22840
C658  F0 F9     BEQ $C653                       A:00 X:FF Y:00 P:26 SP:FF PPU:305,200 CYC:22842
C653  AD 02 20  LDA $2002 = FF                  A:00 X:FF Y:00 P:26 SP:FF PPU:314,200 CYC:22845
C656  29 80     AND #$80                        A:10 X:FF Y:00 P:24 SP:FF PPU:326,200 CYC:22849
C658  F0 F9     BEQ $C653                       A:00 X:FF Y:00 P:26 SP:FF PPU:332,200 CYC:22851
C653  AD 02 20  LDA $2002 = FF                  A:00 X:FF Y:00 P:26 SP:FF PPU:  0,201 CYC:22854
C656  29 80     AND #$80                        A:10 X:FF Y:00 P:24 SP:FF PPU: 12,201 CYC:22858
C658  F0 F9     BEQ $C653                       A:00 X:FF Y:00 P:26 SP:FF PPU: 18,201 CYC:22860
C653  AD 02 20  LDA $2002 = FF                  A:00 X:FF Y:00 P:26 SP:FF PPU: 27,201 CYC:22863
C656  29 80     AND #$80                        A:10 X:FF Y:00 P:24 SP:FF PPU: 39,201 CYC:22867
C658  F0 F9     BEQ $C653                       A:00 X:FF Y:00 P:26 SP:FF PPU: 45,201 CYC:22869
C653  AD 02 20  LDA $2002 = FF                  A:00 X:FF Y:00 P:26 SP:FF PPU: 54,201 CYC:22872
C656  29 80     AND #$80                        A:10 X:FF Y:00 P:24 SP:FF PPU: 66,201 CYC:22876
C658  F0 F9     BEQ $C653                       A:00 X:FF Y:00 P:26 SP:FF PPU: 72,201 CYC:22878
C653  AD 02 20  LDA $2002 = FF                  A:00 X:FF Y:00 P:26 SP:FF PPU: 81,201 CYC:22881
C656  29 80     AND #$80                        A:10 X:FF Y:00 P:24 SP:FF PPU: 93,201 CYC:22885
C658  F0 F9     BEQ $C653                       A:00 X:FF Y:00 P:26 SP:FF PPU: 99,201 CYC:22887
C653  AD 02 20  LDA $2002 = FF                  A:00 X:FF Y:00 P:26 SP:FF PPU:108,201 CYC:22890
C656  29 80     AND #$80                        A:10 X:FF Y:00 P:24 SP:FF PPU:120,201 CYC:22894
C658  F0 F9     BEQ $C653                       A:00 X:FF Y:00 P:26 SP:FF PPU:126,201 CYC:22896
C653  AD 02 20  LDA $2002 = FF                  A:00 X:FF Y:00 P:26 SP:FF PPU:135,201 CYC:22899
C656  29 80     AND #$80                        A:10 X:FF Y:00 P:24 SP:FF PPU:147,201 CYC:22903
C658  F0 F9     BEQ $C653                       A:00 X:FF Y:00 P:26 SP:FF PPU:153,201 CYC:22905
C653  AD 02 20  LDA $2002 = FF                  A:00 X:FF Y:00 P:26 SP:FF PPU:162,201 CYC:22908
C656  29 80     AND #$80                        A:10 X:FF Y:00 P:24 SP:FF PPU:174,201 CYC:22912
C658  F0 F9     BEQ $C653                       A:00 X:FF Y:00 P:26 SP:FF PPU:180,201 CYC:22914
C653  AD 02 20  LDA $2002 = FF                  A:00 X:FF Y:00 P:26 SP:FF PPU:189,201 CYC:22917
C656  29 80     AND #$80                        A:10 X:FF Y:00 P:24 SP:FF PPU:201,201 CYC:22921
C658  F0 F9     BEQ $C653                       A:00 X:FF Y:00 P:26 SP:FF PPU:207,201 CYC:22923
C653  AD 02 20  LDA $2002 = FF                  A:00 X:FF Y:00 P:26 SP:FF PPU:216,201 CYC:22926
C656  29 80     AND #$80                        A:10 X:FF Y:00 P:24 SP:FF PPU:228,201 CYC:22930
C658  F0 F9     BEQ $C653                       A:00 X:FF Y:00 P:26 SP:FF PPU:234,201 CYC:22932
C653  AD 02 20  LDA $2002 = FF                  A:00 X:FF Y:00 P:26 SP:FF PPU:243,201 CYC:22935
C656  29 80     AND #$80                        A:10 X:FF Y:00 P:24 SP:FF PPU:255,201 CYC:22939
C658  F0 F9     BEQ $C653                       A:00 X:FF Y:00 P:26 SP:FF PPU:261,201 CYC:22941
C653  AD 02 20  LDA $2002 = FF                  A:00 X:FF Y:00 P:26 SP:FF PPU:270,201 CYC:22944
C656  29 80     AND #$80                        A:10 X:FF Y:00 P:24 SP:FF PPU:282,201 CYC:22948
C658  F0 F9     BEQ $C653                       A:00 X:FF Y:00 P:26 SP:FF PPU:288,201 CYC:22950
C653  AD 02 20  LDA $2002 = FF                  A:00 X:FF Y:00 P:26 SP:FF PPU:297,201 CYC:22953
C656  29 80     AND #$80                        A:10 X:FF Y:00 P:24 SP:FF PPU:309,201 CYC:22957
C658  F0 F9     BEQ $C653                       A:00 X:FF Y:00 P:26 SP:FF PPU:315,201 CYC:22959
C653  AD 02 20  LDA $2002 = FF                  A:00 X:FF Y:00 P:26 SP:FF PPU:324,201 CYC:22962
C656  29 80     AND #$80                        A:10 X:FF Y:00 P:24 SP:FF PPU:336,201 CYC:22966
C658  F0 F9     BEQ $C653                       A:00 X:FF Y:00 P:26 SP:FF PPU:  1,202 CYC:22968
C653  AD 02 20  LDA $2002 = FF                  A:00 X:FF Y:00 P:26 SP:FF PPU: 10,202 CYC:22971
C656  29 80     AND #$80                        A:10 X:FF Y:00 P:24 SP:FF PPU: 22,202 CYC:22975
C658  F0 F9     BEQ $C653                       A:00 X:FF Y:00 P:26 SP:FF PPU: 28,202 CYC:22977
C653  AD 02 20  LDA $2002 = FF                  A:00 X:FF Y:00 P:26 SP:FF PPU: 37,202 CYC:22980
C656  29 80     AND #$80                        A:10 X:FF Y:00 P:24 SP:FF PPU: 49,202 CYC:22984
C658  F0 F9     BEQ $C653                       A:00 X:FF Y:00 P:26 SP:FF PPU: 55,202 CYC:22986
C653  AD 02 20  LDA $2002 = FF                  A:00 X:FF Y:00 P:26 SP:FF PPU: 64,202 CYC:22989
C656  29 80     AND #$80                        A:10 X:FF Y:00 P:24 SP:FF PPU: 76,202 CYC:22993
C658  F0 F9     BEQ $C653                       A:00 X:FF Y:00 P:26 SP:FF PPU: 82,202 CYC:22995
C653  AD 02 20  LDA $2002 = FF                  A:00 X:FF Y:00 P:26 SP:FF PPU: 91,202 CYC:22998
C656  29 80     AND #$80                        A:10 X:FF Y:00 P:24 SP:FF PPU:103,202 CYC:23002
C658  F0 F9     BEQ $C653                       A:00 X:FF Y:00 P:26 SP:FF PPU:109,202 CYC:23004
C653  AD 02 20  LDA $2002 = FF                  A:00 X:FF Y:00 P:26 SP:FF PPU:118,202 CYC:23007
C656  29 80     AND #$80                        A:10 X:FF Y:00 P:24 SP:FF PPU:130,202 CYC:23011
C658  F0 F9     BEQ $C653                       A:00 X:FF Y:00 P:26 SP:FF PPU:136,202 CYC:23013
C653  AD 02 20  LDA $2002 = FF                  A:00 X:FF Y:00 P:26 SP:FF PPU:145,202 CYC:23016
C656  29 80     AND #$80                        A:10 X:FF Y:00 P:24 SP:FF PPU:157,202 CYC:23020
C658  F0 F9     BEQ $C653                       A:00 X:FF Y:00 P:26 SP:FF PPU:163,202 CYC:23022
C653  AD 02 20  LDA $2002 = FF                  A:00 X:FF Y:00 P:26 SP:FF PPU:172,202 CYC:23025
C656  29 80     AND #$80                        A:10 X:FF Y:00 P:24 SP:FF PPU:184,202 CYC:23029
C658  F0 F9     BEQ $C653                       A:00 X:FF Y:00 P:26 SP:FF PPU:190,202 CYC:23031
C653  AD 02 20  LDA $2002 = FF                  A:00 X:FF Y:00 P:26 SP:FF PPU:199,202 CYC:23034
C656  29 80     AND #$80                        A:10 X:FF Y:00 P:24 SP:FF PPU:211,202 CYC:23038
C658  F0 F9     BEQ $C653                       A:00 X:FF Y:00 P:26 SP:FF PPU:217,202 CYC:23040
C653  AD 02 20  LDA $2002 = FF                  A:00 X:FF Y:00 P:26 SP:FF PPU:226,202 CYC:23043
C656  29 80     AND #$80                        A:10 X:FF Y:00 P:24 SP:FF PPU:238,202 CYC:23047
C658  F0 F9     BEQ $C653                       A:00 X:FF Y:00 P:26 SP:FF PPU:244,202 CYC:23049
C653  AD 02 20  LDA $2002 = FF                  A:00 X:FF Y:00 P:26 SP:FF PPU:253,202 CYC:23052
C656  29 80     AND #$80                        A:10 X:FF Y:00 P:24 SP:FF PPU:265,202 CYC:23056
C658  F0 F9     BEQ $C653                       A:00 X:FF Y:00 P:26 SP:FF PPU:271,202 CYC:23058
C653  AD 02 20  LDA $2002 = FF                  A:00 X:FF Y:00 P:26 SP:FF PPU:280,202 CYC:23061
C656  29 80     AND #$80                        A:10 X:FF Y:00 P:24 SP:FF PPU:292,202 CYC:23065
C658  F0 F9     BEQ $C653                       A:00 X:FF Y:00 P:26 SP:FF PPU:298,202 CYC:23067
C653  AD 02 20  LDA $2002 = FF                  A:00 X:FF Y:00 P:26 SP:FF PPU:307,202 CYC:23070
C656  29 80     AND #$80                        A:10 X:FF Y:00 P:24 SP:FF PPU:319,202 CYC:23074
C658  F0 F9     BEQ $C653                       A:00 X:FF Y:00 P:26 SP:FF PPU:325,202 CYC:23076
C653  AD 02 20  LDA $2002 = FF                  A:00 X:FF Y:00 P:26 SP:FF PPU:334,202 CYC:23079
C656  29 80     AND #$80                        A:10 X:FF Y:00 P:24 SP:FF PPU:  5,203 CYC:23083
C658  F0 F9     BEQ $C653                       A:00 X:FF Y:00 P:26 SP:FF PPU: 11,203 CYC:23085
C653  AD 02 20  LDA $2002 = FF                  A:00 X:FF Y:00 P:26 SP:FF PPU: 20,203 CYC:23088
C656  29 80     AND #$80                        A:10 X:FF Y:00 P:24 SP:FF PPU: 32,203 CYC:23092
C658  F0 F9     BEQ $C653                       A:00 X:FF Y:00 P:26 SP:FF PPU: 38,203 CYC:23094
C653  AD 02 20  LDA $2002 = FF                  A:00 X:FF Y:00 P:26 SP:FF PPU: 47,203 CYC:23097
C656  29 80     AND #$80                        A:10 X:FF Y:00 P:24 SP:FF PPU: 59,203 CYC:23101
C658  F0 F9     BEQ $C653                       A:00 X:FF Y:00 P:26 SP:FF PPU: 65,203 CYC:23103
C653  AD 02 20  LDA $2002 = FF                  A:00 X:FF Y:00 P:26 SP:FF PPU: 74,203 CYC:23106
C656  29 80     AND #$80                        A:10 X:FF Y:00 P:24 SP:FF PPU: 86,203 CYC:23110
C658  F0 F9     BEQ $C653                       A:00 X:FF Y:00 P:26 SP:FF PPU: 92,203 CYC:23112
C653  AD 02 20  LDA $2002 = FF                  A:00 X:FF Y:00 P:26 SP:FF PPU:101,203 CYC:23115
C656  29 80     AND #$80                        A:10 X:FF Y:00 P:24 SP:FF PPU:113,203 CYC:23119
C658  F0 F9     BEQ $C653                       A:00 X:FF Y:00 P:26 SP:FF PPU:119,203 CYC:23121
C653  AD 02 20  LDA $2002 = FF                  A:00 X:FF Y:00 P:26 SP:FF PPU:128,203 CYC:23124
C656  29 80     AND #$80                        A:10 X:FF Y:00 P:24 SP:FF PPU:140,203 CYC:23128
C658  F0 F9     BEQ $C653                       A:00 X:FF Y:00 P:26 SP:FF PPU:146,203 CYC:23130
C653  AD 02 20  LDA $2002 = FF                  A:00 X:FF Y:00 P:26 SP:FF PPU:155,203 CYC:23133
C656  29 80     AND #$80                        A:10 X:FF Y:00 P:24 SP:FF PPU:167,203 CYC:23137
C658  F0 F9     BEQ $C653                       A:00 X:FF Y:00 P:26 SP:FF PPU:173,203 CYC:23139
C653  AD 02 20  LDA $2002 = FF                  A:00 X:FF Y:00 P:26 SP:FF PPU:182,203 CYC:23142
C656  29 80     AND #$80                        A:10 X:FF Y:00 P:24 SP:FF PPU:194,203 CYC:23146
C658  F0 F9     BEQ $C653                       A:00 X:FF Y:00 P:26 SP:FF PPU:200,203 CYC:23148
C653  AD 02 20  LDA $2002 = FF                  A:00 X:FF Y:00 P:26 SP:FF PPU:209,203 CYC:23151
C656  29 80     AND #$80                        A:10 X:FF Y:00 P:24 SP:FF PPU:221,203 CYC:23155
C658  F0 F9     BEQ $C653                       A:00 X:FF Y:00 P:26 SP:FF PPU:227,203 CYC:23157
C653  AD 02 20  LDA $2002 = FF                  A:00 X:FF Y:00 P:26 SP:FF PPU:236,203 CYC:23160
C656  29 80     AND #$80                        A:10 X:FF Y:00 P:24 SP:FF PPU:248,203 CYC:23164
C658  F0 F9     BEQ $C653                       A:00 X:FF Y:00 P:26 SP:FF PPU:254,203 CYC:23166
C653  AD 02 20  LDA $2002 = FF                  A:00 X:FF Y:00 P:26 SP:FF PPU:263,203 CYC:23169
C656  29 80     AND #$80                        A:10 X:FF Y:00 P:24 SP:FF PPU:275,203 CYC:23173
C658  F0 F9     BEQ $C653                       A:00 X:FF Y:00 P:26 SP:FF PPU:281,203 CYC:23175
C653  AD 02 20  LDA $2002 = FF                  A:00 X:FF Y:00 P:26 SP:FF PPU:290,203 CYC:23178
C656  29 80     AND #$80                        A:10 X:FF Y:00 P:24 SP:FF PPU:302,203 CYC:23182
C658  F0 F9     BEQ $C653                       A:00 X:FF Y:00 P:26 SP:FF PPU:308,203 CYC:23184
C653  AD 02 20  LDA $2002 = FF                  A:00 X:FF Y:00 P:26 SP:FF PPU:317,203 CYC:23187
C656  29 80     AND #$80                        A:10 X:FF Y:00 P:24 SP:FF PPU:329,203 CYC:23191
C658  F0 F9     BEQ $C653                       A:00 X:FF Y:00 P:26 SP:FF PPU:335,203 CYC:23193
C653  AD 02 20  LDA $2002 = FF                  A:00 X:FF Y:00 P:26 SP:FF PPU:  3,204 CYC:23196
C656  29 80     AND #$80                        A:10 X:FF Y:00 P:24 SP:FF PPU: 15,204 CYC:23200
C658  F0 F9     BEQ $C653                       A:00 X:FF Y:00 P:26 SP:FF PPU: 21,204 CYC:23202
C653  AD 02 20  LDA $2002 = FF                  A:00 X:FF Y:00 P:26 SP:FF PPU: 30,204 CYC:23205
C656  29 80     AND #$80                        A:10 X:FF Y:00 P:24 SP:FF PPU: 42,204 CYC:23209
C658  F0 F9     BEQ $C653                       A:00 X:FF Y:00 P:26 SP:FF PPU: 48,204 CYC:23211
C653  AD 02 20  LDA $2002 = FF                  A:00 X:FF Y:00 P:26 SP:FF PPU: 57,204 CYC:23214
C656  29 80     AND #$80                        A:10 X:FF Y:00 P:24 SP:FF PPU: 69,204 CYC:23218
C658  F0 F9     BEQ $C653                       A:00 X:FF Y:00 P:26 SP:FF PPU: 75,204 CYC:23220
C653  AD 02 20  LDA $2002 = FF                  A:00 X:FF Y:00 P:26 SP:FF PPU: 84,204 CYC:23223
C656  29 80     AND #$80                        A:10 X:FF Y:00 P:24 SP:FF PPU: 96,204 CYC:23227
C658  F0 F9     BEQ $C653                       A:00 X:FF Y:00 P:26 SP:FF PPU:102,204 CYC:23229
C653  AD 02 20  LDA $2002 = FF                  A:00 X:FF Y:00 P:26 SP:FF PPU:111,204 CYC:23232
C656  29 80     AND #$80                        A:10 X:FF Y:00 P:24 SP:FF PPU:123,204 CYC:23236
C658  F0 F9     BEQ $C653                       A:00 X:FF Y:00 P:26 SP:FF PPU:129,204 CYC:23238
C653  AD 02 20  LDA $2002 = FF                  A:00 X:FF Y:00 P:26 SP:FF PPU:138,204 CYC:23241
C656  29 80     AND #$80                        A:10 X:FF Y:00 P:24 SP:FF PPU:150,204 CYC:23245
C658  F0 F9     BEQ $C653                       A:00 X:FF Y:00 P:26 SP:FF PPU:156,204 CYC:23247
C653  AD 02 20  LDA $2002 = FF                  A:00 X:FF Y:00 P:26 SP:FF PPU:165,204 CYC:23250
C656  29 80     AND #$80                        A:10 X:FF Y:00 P:24 SP:FF PPU:177,204 CYC:23254
C658  F0 F9     BEQ $C653                       A:00 X:FF Y:00 P:26 SP:FF PPU:183,204 CYC:23256
C653  AD 02 20  LDA $2002 = FF                  A:00 X:FF Y:00 P:26 SP:FF PPU:192,204 CYC:23259
C656  29 80     AND #$80                        A:10 X:FF Y:00 P:24 SP:FF PPU:204,204 CYC:23263
C658  F0 F9     BEQ $C653                       A:00 X:FF Y:00 P:26 SP:FF PPU:210,204 CYC:23265
C653  AD 02 20  LDA $2002 = FF                  A:00 X:FF Y:00 P:26 SP:FF PPU:219,204 CYC:23268
C656  29 80     AND #$80                        A:10 X:FF Y:00 P:24 SP:FF PPU:231,204 CYC:23272
C658  F0 F9     BEQ $C653                       A:00 X:FF Y:00 P:26 SP:FF PPU:237,204 CYC:23274
C653  AD 02 20  LDA $2002 = FF                  A:00 X:FF Y:00 P:26 SP:FF PPU:246,204 CYC:23277
C656  29 80     AND #$80                        A:10 X:FF Y:00 P:24 SP:FF PPU:258,204 CYC:23281
C658  F0 F9     BEQ $C653                       A:00 X:FF Y:00 P:26 SP:FF PPU:264,204 CYC:23283
C653  AD 02 20  LDA $2002 = FF                  A:00 X:FF Y:00 P:26 SP:FF PPU:273,204 CYC:23286
C656  29 80     AND #$80                        A:10 X:FF Y:00 P:24 SP:FF PPU:285,204 CYC:23290
C658  F0 F9     BEQ $C653                       A:00 X:FF Y:00 P:26 SP:FF PPU:291,204 CYC:23292
C653  AD 02 20  LDA $2002 = FF                  A:00 X:FF Y:00 P:26 SP:FF PPU:300,204 CYC:23295
C656  29 80     AND #$80                        A:10 X:FF Y:00 P:24 SP:FF PPU:312,204 CYC:23299
C658  F0 F9     BEQ $C653                       A:00 X:FF Y:00 P:26 SP:FF PPU:318,204 CYC:23301
C653  AD 02 20  LDA $2002 = FF                  A:00 X:FF Y:00 P:26 SP:FF PPU:327,204 CYC:23304
C656  29 80     AND #$80                        A:10 X:FF Y:00 P:24 SP:FF PPU:339,204 CYC:23308
C658  F0 F9     BEQ $C653                       A:00 X:FF Y:00 P:26 SP:FF PPU:  4,205 CYC:23310
C653  AD 02 20  LDA $2002 = FF                  A:00 X:FF Y:00 P:26 SP:FF PPU: 13,205 CYC:23313
C656  29 80     AND #$80                        A:10 X:FF Y:00 P:24 SP:FF PPU: 25,205 CYC:23317
C658  F0 F9     BEQ $C653                       A:00 X:FF Y:00 P:26 SP:FF PPU: 31,205 CYC:23319
C653  AD 02 20  LDA $2002 = FF                  A:00 X:FF Y:00 P:26 SP:FF PPU: 40,205 CYC:23322
C656  29 80     AND #$80                        A:10 X:FF Y:00 P:24 SP:FF PPU: 52,205 CYC:23326
C658  F0 F9     BEQ $C653                       A:00 X:FF Y:00 P:26 SP:FF PPU: 58,205 CYC:23328
C653  AD 02 20  LDA $2002 = FF                  A:00 X:FF Y:00 P:26 SP:FF PPU: 67,205 CYC:23331
C656  29 80     AND #$80                        A:10 X:FF Y:00 P:24 SP:FF PPU: 79,205 CYC:23335
C658  F0 F9     BEQ $C653                       A:00 X:FF Y:00 P:26 SP:FF PPU: 85,205 CYC:23337
C653  AD 02 20  LDA $2002 = FF                  A:00 X:FF Y:00 P:26 SP:FF PPU: 94,205 CYC:23340
C656  29 80     AND #$80                        A:10 X:FF Y:00 P:24 SP:FF PPU:106,205 CYC:23344
C658  F0 F9     BEQ $C653                       A:00 X:FF Y:00 P:26 SP:FF PPU:112,205 CYC:23346
C653  AD 02 20  LDA $2002 = FF                  A:00 X:FF Y:00 P:26 SP:FF PPU:121,205 CYC:23349
C656  29 80     AND #$80                        A:10 X:FF Y:00 P:24 SP:FF PPU:133,205 CYC:23353
C658  F0 F9     BEQ $C653                       A:00 X:FF Y:00 P:26 SP:FF PPU:139,205 CYC:23355
C653  AD 02 20  LDA $2002 = FF                  A:00 X:FF Y:00 P:26 SP:FF PPU:148,205 CYC:23358
C656  29 80     AND #$80                        A:10 X:FF Y:00 P:24 SP:FF PPU:160,205 CYC:23362
C658  F0 F9     BEQ $C653                       A:00 X:FF Y:00 P:26 SP:FF PPU:166,205 CYC:23364
C653  AD 02 20  LDA $2002 = FF                  A:00 X:FF Y:00 P:26 SP:FF PPU:175,205 CYC:23367
C656  29 80     AND #$80                        A:10 X:FF Y:00 P:24 SP:FF PPU:187,205 CYC:23371
C658  F0 F9     BEQ $C653                       A:00 X:FF Y:00 P:26 SP:FF PPU:193,205 CYC:23373
C653  AD 02 20  LDA $2002 = FF                  A:00 X:FF Y:00 P:26 SP:FF PPU:202,205 CYC:23376
C656  29 80     AND #$80                        A:10 X:FF Y:00 P:24 SP:FF PPU:214,205 CYC:23380
C658  F0 F9     BEQ $C653                       A:00 X:FF Y:00 P:26 SP:FF PPU:220,205 CYC:23382
C653  AD 02 20  LDA $2002 = FF                  A:00 X:FF Y:00 P:26 SP:FF PPU:229,205 CYC:23385
C656  29 80     AND #$80                        A:10 X:FF Y:00 P:24 SP:FF PPU:241,205 CYC:23389
C658  F0 F9     BEQ $C653                       A:00 X:FF Y:00 P:26 SP:FF PPU:247,205 CYC:23391
C653  AD 02 20  LDA $2002 = FF                  A:00 X:FF Y:00 P:26 SP:FF PPU:256,205 CYC:23394
C656  29 80     AND #$80                        A:10 X:FF Y:00 P:24 SP:FF PPU:268,205 CYC:23398
C658  F0 F9     BEQ $C653                       A:00 X:FF Y:00 P:26 SP:FF PPU:274,205 CYC:23400
C653  AD 02 20  LDA $2002 = FF                  A:00 X:FF Y:00 P:26 SP:FF PPU:283,205 CYC:23403
C656  29 80     AND #$80                        A:10 X:FF Y:00 P:24 SP:FF PPU:295,205 CYC:23407
C658  F0 F9     BEQ $C653                       A:00 X:FF Y:00 P:26 SP:FF PPU:301,205 CYC:23409
C653  AD 02 20  LDA $2002 = FF                  A:00 X:FF Y:00 P:26 SP:FF PPU:310,205 CYC:23412
C656  29 80     AND #$80                        A:10 X:FF Y:00 P:24 SP:FF PPU:322,205 CYC:23416
C658  F0 F9     BEQ $C653                       A:00 X:FF Y:00 P:26 SP:FF PPU:328,205 CYC:23418
C653  AD 02 20  LDA $2002 = FF                  A:00 X:FF Y:00 P:26 SP:FF PPU:337,205 CYC:23421
C656  29 80     AND #$80                        A:10 X:FF Y:00 P:24 SP:FF PPU:  8,206 CYC:23425
C658  F0 F9     BEQ $C653                       A:00 X:FF Y:00 P:26 SP:FF PPU: 14,206 CYC:23427
C653  AD 02 20  LDA $2002 = FF                  A:00 X:FF Y:00 P:26 SP:FF PPU: 23,206 CYC:23430
C656  29 80     AND #$80                        A:10 X:FF Y:00 P:24 SP:FF PPU: 35,206 CYC:23434
C658  F0 F9     BEQ $C653                       A:00 X:FF Y:00 P:26 SP:FF PPU: 41,206 CYC:23436
C653  AD 02 20  LDA $2002 = FF                  A:00 X:FF Y:00 P:26 SP:FF PPU: 50,206 CYC:23439
C656  29 80     AND #$80                        A:10 X:FF Y:00 P:24 SP:FF PPU: 62,206 CYC:23443
C658  F0 F9     BEQ $C653                       A:00 X:FF Y:00 P:26 SP:FF PPU: 68,206 CYC:23445
C653  AD 02 20  LDA $2002 = FF                  A:00 X:FF Y:00 P:26 SP:FF PPU: 77,206 CYC:23448
C656  29 80     AND #$80                        A:10 X:FF Y:00 P:24 SP:FF PPU: 89,206 CYC:23452
C658  F0 F9     BEQ $C653                       A:00 X:FF Y:00 P:26 SP:FF PPU: 95,206 CYC:23454
C653  AD 02 20  LDA $2002 = FF                  A:00 X:FF Y:00 P:26 SP:FF PPU:104,206 CYC:23457
C656  29 80     AND #$80                        A:10 X:FF Y:00 P:24 SP:FF PPU:116,206 CYC:23461
C658  F0 F9     BEQ $C653                       A:00 X:FF Y:00 P:26 SP:FF PPU:122,206 CYC:23463
C653  AD 02 20  LDA $2002 = FF                  A:00 X:FF Y:00 P:26 SP:FF PPU:131,206 CYC:23466
C656  29 80     AND #$80                        A:10 X:FF Y:00 P:24 SP:FF PPU:143,206 CYC:23470
C658  F0 F9     BEQ $C653                       A:00 X:FF Y:00 P:26 SP:FF PPU:149,206 CYC:23472
C653  AD 02 20  LDA $2002 = FF                  A:00 X:FF Y:00 P:26 SP:FF PPU:158,206 CYC:23475
C656  29 80     AND #$80                        A:10 X:FF Y:00 P:24 SP:FF PPU:170,206 CYC:23479
C658  F0 F9     BEQ $C653                       A:00 X:FF Y:00 P:26 SP:FF PPU:176,206 CYC:23481
C653  AD 02 20  LDA $2002 = FF                  A:00 X:FF Y:00 P:26 SP:FF PPU:185,206 CYC:23484
C656  29 80     AND #$80                        A:10 X:FF Y:00 P:24 SP:FF PPU:197,206 CYC:23488
C658  F0 F9     BEQ $C653                       A:00 X:FF Y:00 P:26 SP:FF PPU:203,206 CYC:23490
C653  AD 02 20  LDA $2002 = FF                  A:00 X:FF Y:00 P:26 SP:FF PPU:212,206 CYC:23493
C656  29 80     AND #$80                        A:10 X:FF Y:00 P:24 SP:FF PPU:224,206 CYC:23497
C658  F0 F9     BEQ $C653                       A:00 X:FF Y:00 P:26 SP:FF PPU:230,206 CYC:23499
C653  AD 02 20  LDA $2002 = FF                  A:00 X:FF Y:00 P:26 SP:FF PPU:239,206 CYC:23502
C656  29 80     AND #$80                        A:10 X:FF Y:00 P:24 SP:FF PPU:251,206 CYC:23506
C658  F0 F9     BEQ $C653                       A:00 X:FF Y:00 P:26 SP:FF PPU:257,206 CYC:23508
C653  AD 02 20  LDA $2002 = FF                  A:00 X:FF Y:00 P:26 SP:FF PPU:266,206 CYC:23511
C656  29 80     AND #$80                        A:10 X:FF Y:00 P:24 SP:FF PPU:278,206 CYC:23515
C658  F0 F9     BEQ $C653                       A:00 X:FF Y:00 P:26 SP:FF PPU:284,206 CYC:23517
C653  AD 02 20  LDA $2002 = FF                  A:00 X:FF Y:00 P:26 SP:FF PPU:293,206 CYC:23520
C656  29 80     AND #$80                        A:10 X:FF Y:00 P:24 SP:FF PPU:305,206 CYC:23524
C658  F0 F9     BEQ $C653                       A:00 X:FF Y:00 P:26 SP:FF PPU:311,206 CYC:23526
C653  AD 02 20  LDA $2002 = FF                  A:00 X:FF Y:00 P:26 SP:FF PPU:320,206 CYC:23529
C656  29 80     AND #$80                        A:10 X:FF Y:00 P:24 SP:FF PPU:332,206 CYC:23533
C658  F0 F9     BEQ $C653                       A:00 X:FF Y:00 P:26 SP:FF PPU:338,206 CYC:23535
C653  AD 02 20  LDA $2002 = FF                  A:00 X:FF Y:00 P:26 SP:FF PPU:  6,207 CYC:23538
C656  29 80     AND #$80                        A:10 X:FF Y:00 P:24 SP:FF PPU: 18,207 CYC:23542
C658  F0 F9     BEQ $C653                       A:00 X:FF Y:00 P:26 SP:FF PPU: 24,207 CYC:23544
C653  AD 02 20  LDA $2002 = FF                  A:00 X:FF Y:00 P:26 SP:FF PPU: 33,207 CYC:23547
C656  29 80     AND #$80                        A:10 X:FF Y:00 P:24 SP:FF PPU: 45,207 CYC:23551
C658  F0 F9     BEQ $C653                       A:00 X:FF Y:00 P:26 SP:FF PPU: 51,207 CYC:23553
C653  AD 02 20  LDA $2002 = FF                  A:00 X:FF Y:00 P:26 SP:FF PPU: 60,207 CYC:23556
C656  29 80     AND #$80                        A:10 X:FF Y:00 P:24 SP:FF PPU: 72,207 CYC:23560
C658  F0 F9     BEQ $C653                       A:00 X:FF Y:00 P:26 SP:FF PPU: 78,207 CYC:23562
C653  AD 02 20  LDA $2002 = FF                  A:00 X:FF Y:00 P:26 SP:FF PPU: 87,207 CYC:23565
C656  29 80     AND #$80                        A:10 X:FF Y:00 P:24 SP:FF PPU: 99,207 CYC:23569
C658  F0 F9     BEQ $C653                       A:00 X:FF Y:00 P:26 SP:FF PPU:105,207 CYC:23571
C653  AD 02 20  LDA $2002 = FF                  A:00 X:FF Y:00 P:26 SP:FF PPU:114,207 CYC:23574
C656  29 80     AND #$80                        A:10 X:FF Y:00 P:24 SP:FF PPU:126,207 CYC:23578
C658  F0 F9     BEQ $C653                       A:00 X:FF Y:00 P:26 SP:FF PPU:132,207 CYC:23580
C653  AD 02 20  LDA $2002 = FF                  A:00 X:FF Y:00 P:26 SP:FF PPU:141,207 CYC:23583
C656  29 80     AND #$80                        A:10 X:FF Y:00 P:24 SP:FF PPU:153,207 CYC:23587
C658  F0 F9     BEQ $C653                       A:00 X:FF Y:00 P:26 SP:FF PPU:159,207 CYC:23589
C653  AD 02 20  LDA $2002 = FF                  A:00 X:FF Y:00 P:26 SP:FF PPU:168,207 CYC:23592
C656  29 80     AND #$80                        A:10 X:FF Y:00 P:24 SP:FF PPU:180,207 CYC:23596
C658  F0 F9     BEQ $C653                       A:00 X:FF Y:00 P:26 SP:FF PPU:186,207 CYC:23598
C653  AD 02 20  LDA $2002 = FF                  A:00 X:FF Y:00 P:26 SP:FF PPU:195,207 CYC:23601
C656  29 80     AND #$80                        A:10 X:FF Y:00 P:24 SP:FF PPU:207,207 CYC:23605
C658  F0 F9     BEQ $C653                       A:00 X:FF Y:00 P:26 SP:FF PPU:213,207 CYC:23607
C653  AD 02 20  LDA $2002 = FF                  A:00 X:FF Y:00 P:26 SP:FF PPU:222,207 CYC:23610
C656  29 80     AND #$80                        A:10 X:FF Y:00 P:24 SP:FF PPU:234,207 CYC:23614
C658  F0 F9     BEQ $C653                       A:00 X:FF Y:00 P:26 SP:FF PPU:240,207 CYC:23616
C653  AD 02 20  LDA $2002 = FF                  A:00 X:FF Y:00 P:26 SP:FF PPU:249,207 CYC:23619
C656  29 80     AND #$80                        A:10 X:FF Y:00 P:24 SP:FF PPU:261,207 CYC:23623
C658  F0 F9     BEQ $C653                       A:00 X:FF Y:00 P:26 SP:FF PPU:267,207 CYC:23625
C653  AD 02 20  LDA $2002 = FF                  A:00 X:FF Y:00 P:26 SP:FF PPU:276,207 CYC:23628
C656  29 80     AND #$80                        A:10 X:FF Y:00 P:24 SP:FF PPU:288,207 CYC:23632
C658  F0 F9     BEQ $C653                       A:00 X:FF Y:00 P:26 SP:FF PPU:294,207 CYC:23634
C653  AD 02 20  LDA $2002 = FF                  A:00 X:FF Y:00 P:26 SP:FF PPU:303,207 CYC:23637
C656  29 80     AND #$80                        A:10 X:FF Y:00 P:24 SP:FF PPU:315,207 CYC:23641
C658  F0 F9     BEQ $C653                       A:00 X:FF Y:00 P:26 SP:FF PPU:321,207 CYC:23643
C653  AD 02 20  LDA $2002 = FF                  A:00 X:FF Y:00 P:26 SP:FF PPU:330,207 CYC:23646
C656  29 80     AND #$80                        A:10 X:FF Y:00 P:24 SP:FF PPU:  1,208 CYC:23650
C658  F0 F9     BEQ $C653                       A:00 X:FF Y:00 P:26 SP:FF PPU:  7,208 CYC:23652
C653  AD 02 20  LDA $2002 = FF                  A:00 X:FF Y:00 P:26 SP:FF PPU: 16,208 CYC:23655
C656  29 80     AND #$80                        A:10 X:FF Y:00 P:24 SP:FF PPU: 28,208 CYC:23659
C658  F0 F9     BEQ $C653                       A:00 X:FF Y:00 P:26 SP:FF PPU: 34,208 CYC:23661
C653  AD 02 20  LDA $2002 = FF                  A:00 X:FF Y:00 P:26 SP:FF PPU: 43,208 CYC:23664
C656  29 80     AND #$80                        A:10 X:FF Y:00 P:24 SP:FF PPU: 55,208 CYC:23668
C658  F0 F9     BEQ $C653                       A:00 X:FF Y:00 P:26 SP:FF PPU: 61,208 CYC:23670
C653  AD 02 20  LDA $2002 = FF                  A:00 X:FF Y:00 P:26 SP:FF PPU: 70,208 CYC:23673
C656  29 80     AND #$80                        A:10 X:FF Y:00 P:24 SP:FF PPU: 82,208 CYC:23677
C658  F0 F9     BEQ $C653                       A:00 X:FF Y:00 P:26 SP:FF PPU: 88,208 CYC:23679
C653  AD 02 20  LDA $2002 = FF                  A:00 X:FF Y:00 P:26 SP:FF PPU: 97,208 CYC:23682
C656  29 80     AND #$80                        A:10 X:FF Y:00 P:24 SP:FF PPU:109,208 CYC:23686
C658  F0 F9     BEQ $C653                       A:00 X:FF Y:00 P:26 SP:FF PPU:115,208 CYC:23688
C653  AD 02 20  LDA $2002 = FF                  A:00 X:FF Y:00 P:26 SP:FF PPU:124,208 CYC:23691
C656  29 80     AND #$80                        A:10 X:FF Y:00 P:24 SP:FF PPU:136,208 CYC:23695
C658  F0 F9     BEQ $C653                       A:00 X:FF Y:00 P:26 SP:FF PPU:142,208 CYC:23697
C653  AD 02 20  LDA $2002 = FF                  A:00 X:FF Y:00 P:26 SP:FF PPU:151,208 CYC:23700
C656  29 80     AND #$80                        A:10 X:FF Y:00 P:24 SP:FF PPU:163,208 CYC:23704
C658  F0 F9     BEQ $C653                       A:00 X:FF Y:00 P:26 SP:FF PPU:169,208 CYC:23706
C653  AD 02 20  LDA $2002 = FF                  A:00 X:FF Y:00 P:26 SP:FF PPU:178,208 CYC:23709
C656  29 80     AND #$80                        A:10 X:FF Y:00 P:24 SP:FF PPU:190,208 CYC:23713
C658  F0 F9     BEQ $C653                       A:00 X:FF Y:00 P:26 SP:FF PPU:196,208 CYC:23715
C653  AD 02 20  LDA $2002 = FF                  A:00 X:FF Y:00 P:26 SP:FF PPU:205,208 CYC:23718
C656  29 80     AND #$80                        A:10 X:FF Y:00 P:24 SP:FF PPU:217,208 CYC:23722
C658  F0 F9     BEQ $C653                       A:00 X:FF Y:00 P:26 SP:FF PPU:223,208 CYC:23724
C653  AD 02 20  LDA $2002 = FF                  A:00 X:FF Y:00 P:26 SP:FF PPU:232,208 CYC:23727
C656  29 80     AND #$80                        A:10 X:FF Y:00 P:24 SP:FF PPU:244,208 CYC:23731
C658  F0 F9     BEQ $C653                       A:00 X:FF Y:00 P:26 SP:FF PPU:250,208 CYC:23733
C653  AD 02 20  LDA $2002 = FF                  A:00 X:FF Y:00 P:26 SP:FF PPU:259,208 CYC:23736
C656  29 80     AND #$80                        A:10 X:FF Y:00 P:24 SP:FF PPU:271,208 CYC:23740
C658  F0 F9     BEQ $C653                       A:00 X:FF Y:00 P:26 SP:FF PPU:277,208 CYC:23742
C653  AD 02 20  LDA $2002 = FF                  A:00 X:FF Y:00 P:26 SP:FF PPU:286,208 CYC:23745
C656  29 80     AND #$80                        A:10 X:FF Y:00 P:24 SP:FF PPU:298,208 CYC:23749
C658  F0 F9     BEQ $C653                       A:00 X:FF Y:00 P:26 SP:FF PPU:304,208 CYC:23751
C653  AD 02 20  LDA $2002 = FF                  A:00 X:FF Y:00 P:26 SP:FF PPU:313,208 CYC:23754
C656  29 80     AND #$80                        A:10 X:FF Y:00 P:24 SP:FF PPU:325,208 CYC:23758
C658  F0 F9     BEQ $C653                       A:00 X:FF Y:00 P:26 SP:FF PPU:331,208 CYC:23760
C653  AD 02 20  LDA $2002 = FF                  A:00 X:FF Y:00 P:26 SP:FF PPU:340,208 CYC:23763
C656  29 80     AND #$80                        A:10 X:FF Y:00 P:24 SP:FF PPU: 11,209 CYC:23767
C658  F0 F9     BEQ $C653                       A:00 X:FF Y:00 P:26 SP:FF PPU: 17,209 CYC:23769
C653  AD 02 20  LDA $2002 = FF                  A:00 X:FF Y:00 P:26 SP:FF PPU: 26,209 CYC:23772
C656  29 80     AND #$80                        A:10 X:FF Y:00 P:24 SP:FF PPU: 38,209 CYC:23776
C658  F0 F9     BEQ $C653                       A:00 X:FF Y:00 P:26 SP:FF PPU: 44,209 CYC:23778
C653  AD 02 20  LDA $2002 = FF                  A:00 X:FF Y:00 P:26 SP:FF PPU: 53,209 CYC:23781
C656  29 80     AND #$80                        A:10 X:FF Y:00 P:24 SP:FF PPU: 65,209 CYC:23785
C658  F0 F9     BEQ $C653                       A:00 X:FF Y:00 P:26 SP:FF PPU: 71,209 CYC:23787
C653  AD 02 20  LDA $2002 = FF                  A:00 X:FF Y:00 P:26 SP:FF PPU: 80,209 CYC:23790
C656  29 80     AND #$80                        A:10 X:FF Y:00 P:24 SP:FF PPU: 92,209 CYC:23794
C658  F0 F9     BEQ $C653                       A:00 X:FF Y:00 P:26 SP:FF PPU: 98,209 CYC:23796
C653  AD 02 20  LDA $2002 = FF                  A:00 X:FF Y:00 P:26 SP:FF PPU:107,209 CYC:23799
C656  29 80     AND #$80                        A:10 X:FF Y:00 P:24 SP:FF PPU:119,209 CYC:23803
C658  F0 F9     BEQ $C653                       A:00 X:FF Y:00 P:26 SP:FF PPU:125,209 CYC:23805
C653  AD 02 20  LDA $2002 = FF                  A:00 X:FF Y:00 P:26 SP:FF PPU:134,209 CYC:23808
C656  29 80     AND #$80                        A:10 X:FF Y:00 P:24 SP:FF PPU:146,209 CYC:23812
C658  F0 F9     BEQ $C653                       A:00 X:FF Y:00 P:26 SP:FF PPU:152,209 CYC:23814
C653  AD 02 20  LDA $2002 = FF                  A:00 X:FF Y:00 P:26 SP:FF PPU:161,209 CYC:23817
C656  29 80     AND #$80                        A:10 X:FF Y:00 P:24 SP:FF PPU:173,209 CYC:23821
C658  F0 F9     BEQ $C653                       A:00 X:FF Y:00 P:26 SP:FF PPU:179,209 CYC:23823
C653  AD 02 20  LDA $2002 = FF                  A:00 X:FF Y:00 P:26 SP:FF PPU:188,209 CYC:23826
C656  29 80     AND #$80                        A:10 X:FF Y:00 P:24 SP:FF PPU:200,209 CYC:23830
C658  F0 F9     BEQ $C653                       A:00 X:FF Y:00 P:26 SP:FF PPU:206,209 CYC:23832
C653  AD 02 20  LDA $2002 = FF                  A:00 X:FF Y:00 P:26 SP:FF PPU:215,209 CYC:23835
C656  29 80     AND #$80                        A:10 X:FF Y:00 P:24 SP:FF PPU:227,209 CYC:23839
C658  F0 F9     BEQ $C653                       A:00 X:FF Y:00 P:26 SP:FF PPU:233,209 CYC:23841
C653  AD 02 20  LDA $2002 = FF                  A:00 X:FF Y:00 P:26 SP:FF PPU:242,209 CYC:23844
C656  29 80     AND #$80                        A:10 X:FF Y:00 P:24 SP:FF PPU:254,209 CYC:23848
C658  F0 F9     BEQ $C653                       A:00 X:FF Y:00 P:26 SP:FF PPU:260,209 CYC:23850
C653  AD 02 20  LDA $2002 = FF                  A:00 X:FF Y:00 P:26 SP:FF PPU:269,209 CYC:23853
C656  29 80     AND #$80                        A:10 X:FF Y:00 P:24 SP:FF PPU:281,209 CYC:23857
C658  F0 F9     BEQ $C653                       A:00 X:FF Y:00 P:26 SP:FF PPU:287,209 CYC:23859
C653  AD 02 20  LDA $2002 = FF                  A:00 X:FF Y:00 P:26 SP:FF PPU:296,209 CYC:23862
C656  29 80     AND #$80                        A:10 X:FF Y:00 P:24 SP:FF PPU:308,209 CYC:23866
C658  F0 F9     BEQ $C653                       A:00 X:FF Y:00 P:26 SP:FF PPU:314,209 CYC:23868
C653  AD 02 20  LDA $2002 = FF                  A:00 X:FF Y:00 P:26 SP:FF PPU:323,209 CYC:23871
C656  29 80     AND #$80                        A:10 X:FF Y:00 P:24 SP:FF PPU:335,209 CYC:23875
C658  F0 F9     BEQ $C653                       A:00 X:FF Y:00 P:26 SP:FF PPU:  0,210 CYC:23877
C653  AD 02 20  LDA $2002 = FF                  A:00 X:FF Y:00 P:26 SP:FF PPU:  9,210 CYC:23880
C656  29 80     AND #$80                        A:10 X:FF Y:00 P:24 SP:FF PPU: 21,210 CYC:23884
C658  F0 F9     BEQ $C653                       A:00 X:FF Y:00 P:26 SP:FF PPU: 27,210 CYC:23886
C653  AD 02 20  LDA $2002 = FF                  A:00 X:FF Y:00 P:26 SP:FF PPU: 36,210 CYC:23889
C656  29 80     AND #$80                        A:10 X:FF Y:00 P:24 SP:FF PPU: 48,210 CYC:23893
C658  F0 F9     BEQ $C653                       A:00 X:FF Y:00 P:26 SP:FF PPU: 54,210 CYC:23895
C653  AD 02 20  LDA $2002 = FF                  A:00 X:FF Y:00 P:26 SP:FF PPU: 63,210 CYC:23898
C656  29 80     AND #$80                        A:10 X:FF Y:00 P:24 SP:FF PPU: 75,210 CYC:23902
C658  F0 F9     BEQ $C653                       A:00 X:FF Y:00 P:26 SP:FF PPU: 81,210 CYC:23904
C653  AD 02 20  LDA $2002 = FF                  A:00 X:FF Y:00 P:26 SP:FF PPU: 90,210 CYC:23907
C656  29 80     AND #$80                        A:10 X:FF Y:00 P:24 SP:FF PPU:102,210 CYC:23911
C658  F0 F9     BEQ $C653                       A:00 X:FF Y:00 P:26 SP:FF PPU:108,210 CYC:23913
C653  AD 02 20  LDA $2002 = FF                  A:00 X:FF Y:00 P:26 SP:FF PPU:117,210 CYC:23916
C656  29 80     AND #$80                        A:10 X:FF Y:00 P:24 SP:FF PPU:129,210 CYC:23920
C658  F0 F9     BEQ $C653                       A:00 X:FF Y:00 P:26 SP:FF PPU:135,210 CYC:23922
C653  AD 02 20  LDA $2002 = FF                  A:00 X:FF Y:00 P:26 SP:FF PPU:144,210 CYC:23925
C656  29 80     AND #$80                        A:10 X:FF Y:00 P:24 SP:FF PPU:156,210 CYC:23929
C658  F0 F9     BEQ $C653                       A:00 X:FF Y:00 P:26 SP:FF PPU:162,210 CYC:23931
C653  AD 02 20  LDA $2002 = FF                  A:00 X:FF Y:00 P:26 SP:FF PPU:171,210 CYC:23934
C656  29 80     AND #$80                        A:10 X:FF Y:00 P:24 SP:FF PPU:183,210 CYC:23938
C658  F0 F9     BEQ $C653                       A:00 X:FF Y:00 P:26 SP:FF PPU:189,210 CYC:23940
C653  AD 02 20  LDA $2002 = FF                  A:00 X:FF Y:00 P:26 SP:FF PPU:198,210 CYC:23943
C656  29 80     AND #$80                        A:10 X:FF Y:00 P:24 SP:FF PPU:210,210 CYC:23947
C658  F0 F9     BEQ $C653                       A:00 X:FF Y:00 P:26 SP:FF PPU:216,210 CYC:23949
C653  AD 02 20  LDA $2002 = FF                  A:00 X:FF Y:00 P:26 SP:FF PPU:225,210 CYC:23952
C656  29 80     AND #$80                        A:10 X:FF Y:00 P:24 SP:FF PPU:237,210 CYC:23956
C658  F0 F9     BEQ $C653                       A:00 X:FF Y:00 P:26 SP:FF PPU:243,210 CYC:23958
C653  AD 02 20  LDA $2002 = FF                  A:00 X:FF Y:00 P:26 SP:FF PPU:252,210 CYC:23961
C656  29 80     AND #$80                        A:10 X:FF Y:00 P:24 SP:FF PPU:264,210 CYC:23965
C658  F0 F9     BEQ $C653                       A:00 X:FF Y:00 P:26 SP:FF PPU:270,210 CYC:23967
C653  AD 02 20  LDA $2002 = FF                  A:00 X:FF Y:00 P:26 SP:FF PPU:279,210 CYC:23970
C656  29 80     AND #$80                        A:10 X:FF Y:00 P:24 SP:FF PPU:291,210 CYC:23974
C658  F0 F9     BEQ $C653                       A:00 X:FF Y:00 P:26 SP:FF PPU:297,210 CYC:23976
C653  AD 02 20  LDA $2002 = FF                  A:00 X:FF Y:00 P:26 SP:FF PPU:306,210 CYC:23979
C656  29 80     AND #$80                        A:10 X:FF Y:00 P:24 SP:FF PPU:318,210 CYC:23983
C658  F0 F9     BEQ $C653                       A:00 X:FF Y:00 P:26 SP:FF PPU:324,210 CYC:23985
C653  AD 02 20  LDA $2002 = FF                  A:00 X:FF Y:00 P:26 SP:FF PPU:333,210 CYC:23988
C656  29 80     AND #$80                        A:10 X:FF Y:00 P:24 SP:FF PPU:  4,211 CYC:23992
C658  F0 F9     BEQ $C653                       A:00 X:FF Y:00 P:26 SP:FF PPU: 10,211 CYC:23994
C653  AD 02 20  LDA $2002 = FF                  A:00 X:FF Y:00 P:26 SP:FF PPU: 19,211 CYC:23997
C656  29 80     AND #$80                        A:10 X:FF Y:00 P:24 SP:FF PPU: 31,211 CYC:24001
C658  F0 F9     BEQ $C653                       A:00 X:FF Y:00 P:26 SP:FF PPU: 37,211 CYC:24003
C653  AD 02 20  LDA $2002 = FF                  A:00 X:FF Y:00 P:26 SP:FF PPU: 46,211 CYC:24006
C656  29 80     AND #$80                        A:10 X:FF Y:00 P:24 SP:FF PPU: 58,211 CYC:24010
C658  F0 F9     BEQ $C653                       A:00 X:FF Y:00 P:26 SP:FF PPU: 64,211 CYC:24012
C653  AD 02 20  LDA $2002 = FF                  A:00 X:FF Y:00 P:26 SP:FF PPU: 73,211 CYC:24015
C656  29 80     AND #$80                        A:10 X:FF Y:00 P:24 SP:FF PPU: 85,211 CYC:24019
C658  F0 F9     BEQ $C653                       A:00 X:FF Y:00 P:26 SP:FF PPU: 91,211 CYC:24021
C653  AD 02 20  LDA $2002 = FF                  A:00 X:FF Y:00 P:26 SP:FF PPU:100,211 CYC:24024
C656  29 80     AND #$80                        A:10 X:FF Y:00 P:24 SP:FF PPU:112,211 CYC:24028
C658  F0 F9     BEQ $C653                       A:00 X:FF Y:00 P:26 SP:FF PPU:118,211 CYC:24030
C653  AD 02 20  LDA $2002 = FF                  A:00 X:FF Y:00 P:26 SP:FF PPU:127,211 CYC:24033
C656  29 80     AND #$80                        A:10 X:FF Y:00 P:24 SP:FF PPU:139,211 CYC:24037
C658  F0 F9     BEQ $C653                       A:00 X:FF Y:00 P:26 SP:FF PPU:145,211 CYC:24039
C653  AD 02 20  LDA $2002 = FF                  A:00 X:FF Y:00 P:26 SP:FF PPU:154,211 CYC:24042
C656  29 80     AND #$80                        A:10 X:FF Y:00 P:24 SP:FF PPU:166,211 CYC:24046
C658  F0 F9     BEQ $C653                       A:00 X:FF Y:00 P:26 SP:FF PPU:172,211 CYC:24048
C653  AD 02 20  LDA $2002 = FF                  A:00 X:FF Y:00 P:26 SP:FF PPU:181,211 CYC:24051
C656  29 80     AND #$80                        A:10 X:FF Y:00 P:24 SP:FF PPU:193,211 CYC:24055
C658  F0 F9     BEQ $C653                       A:00 X:FF Y:00 P:26 SP:FF PPU:199,211 CYC:24057
C653  AD 02 20  LDA $2002 = FF                  A:00 X:FF Y:00 P:26 SP:FF PPU:208,211 CYC:24060
C656  29 80     AND #$80                        A:10 X:FF Y:00 P:24 SP:FF PPU:220,211 CYC:24064
C658  F0 F9     BEQ $C653                       A:00 X:FF Y:00 P:26 SP:FF PPU:226,211 CYC:24066
C653  AD 02 20  LDA $2002 = FF                  A:00 X:FF Y:00 P:26 SP:FF PPU:235,211 CYC:24069
C656  29 80     AND #$80                        A:10 X:FF Y:00 P:24 SP:FF PPU:247,211 CYC:24073
C658  F0 F9     BEQ $C653                       A:00 X:FF Y:00 P:26 SP:FF PPU:253,211 CYC:24075
C653  AD 02 20  LDA $2002 = FF                  A:00 X:FF Y:00 P:26 SP:FF PPU:262,211 CYC:24078
C656  29 80     AND #$80                        A:10 X:FF Y:00 P:24 SP:FF PPU:274,211 CYC:24082
C658  F0 F9     BEQ $C653                       A:00 X:FF Y:00 P:26 SP:FF PPU:280,211 CYC:24084
C653  AD 02 20  LDA $2002 = FF                  A:00 X:FF Y:00 P:26 SP:FF PPU:289,211 CYC:24087
C656  29 80     AND #$80                        A:10 X:FF Y:00 P:24 SP:FF PPU:301,211 CYC:24091
C658  F0 F9     BEQ $C653                       A:00 X:FF Y:00 P:26 SP:FF PPU:307,211 CYC:24093
C653  AD 02 20  LDA $2002 = FF                  A:00 X:FF Y:00 P:26 SP:FF PPU:316,211 CYC:24096
C656  29 80     AND #$80                        A:10 X:FF Y:00 P:24 SP:FF PPU:328,211 CYC:24100
C658  F0 F9     BEQ $C653                       A:00 X:FF Y:00 P:26 SP:FF PPU:334,211 CYC:24102
C653  AD 02 20  LDA $2002 = FF                  A:00 X:FF Y:00 P:26 SP:FF PPU:  2,212 CYC:24105
C656  29 80     AND #$80                        A:10 X:FF Y:00 P:24 SP:FF PPU: 14,212 CYC:24109
C658  F0 F9     BEQ $C653                       A:00 X:FF Y:00 P:26 SP:FF PPU: 20,212 CYC:24111
C653  AD 02 20  LDA $2002 = FF                  A:00 X:FF Y:00 P:26 SP:FF PPU: 29,212 CYC:24114
C656  29 80     AND #$80                        A:10 X:FF Y:00 P:24 SP:FF PPU: 41,212 CYC:24118
C658  F0 F9     BEQ $C653                       A:00 X:FF Y:00 P:26 SP:FF PPU: 47,212 CYC:24120
C653  AD 02 20  LDA $2002 = FF                  A:00 X:FF Y:00 P:26 SP:FF PPU: 56,212 CYC:24123
C656  29 80     AND #$80                        A:10 X:FF Y:00 P:24 SP:FF PPU: 68,212 CYC:24127
C658  F0 F9     BEQ $C653                       A:00 X:FF Y:00 P:26 SP:FF PPU: 74,212 CYC:24129
C653  AD 02 20  LDA $2002 = FF                  A:00 X:FF Y:00 P:26 SP:FF PPU: 83,212 CYC:24132
C656  29 80     AND #$80                        A:10 X:FF Y:00 P:24 SP:FF PPU: 95,212 CYC:24136
C658  F0 F9     BEQ $C653                       A:00 X:FF Y:00 P:26 SP:FF PPU:101,212 CYC:24138
C653  AD 02 20  LDA $2002 = FF                  A:00 X:FF Y:00 P:26 SP:FF PPU:110,212 CYC:24141
C656  29 80     AND #$80                        A:10 X:FF Y:00 P:24 SP:FF PPU:122,212 CYC:24145
C658  F0 F9     BEQ $C653                       A:00 X:FF Y:00 P:26 SP:FF PPU:128,212 CYC:24147
C653  AD 02 20  LDA $2002 = FF                  A:00 X:FF Y:00 P:26 SP:FF PPU:137,212 CYC:24150
C656  29 80     AND #$80                        A:10 X:FF Y:00 P:24 SP:FF PPU:149,212 CYC:24154
C658  F0 F9     BEQ $C653                       A:00 X:FF Y:00 P:26 SP:FF PPU:155,212 CYC:24156
C653  AD 02 20  LDA $2002 = FF                  A:00 X:FF Y:00 P:26 SP:FF PPU:164,212 CYC:24159
C656  29 80     AND #$80                        A:10 X:FF Y:00 P:24 SP:FF PPU:176,212 CYC:24163
C658  F0 F9     BEQ $C653                       A:00 X:FF Y:00 P:26 SP:FF PPU:182,212 CYC:24165
C653  AD 02 20  LDA $2002 = FF                  A:00 X:FF Y:00 P:26 SP:FF PPU:191,212 CYC:24168
C656  29 80     AND #$80                        A:10 X:FF Y:00 P:24 SP:FF PPU:203,212 CYC:24172
C658  F0 F9     BEQ $C653                       A:00 X:FF Y:00 P:26 SP:FF PPU:209,212 CYC:24174
C653  AD 02 20  LDA $2002 = FF                  A:00 X:FF Y:00 P:26 SP:FF PPU:218,212 CYC:24177
C656  29 80     AND #$80                        A:10 X:FF Y:00 P:24 SP:FF PPU:230,212 CYC:24181
C658  F0 F9     BEQ $C653                       A:00 X:FF Y:00 P:26 SP:FF PPU:236,212 CYC:24183
C653  AD 02 20  LDA $2002 = FF                  A:00 X:FF Y:00 P:26 SP:FF PPU:245,212 CYC:24186
C656  29 80     AND #$80                        A:10 X:FF Y:00 P:24 SP:FF PPU:257,212 CYC:24190
C658  F0 F9     BEQ $C653                       A:00 X:FF Y:00 P:26 SP:FF PPU:263,212 CYC:24192
C653  AD 02 20  LDA $2002 = FF                  A:00 X:FF Y:00 P:26 SP:FF PPU:272,212 CYC:24195
C656  29 80     AND #$80                        A:10 X:FF Y:00 P:24 SP:FF PPU:284,212 CYC:24199
C658  F0 F9     BEQ $C653                       A:00 X:FF Y:00 P:26 SP:FF PPU:290,212 CYC:24201
C653  AD 02 20  LDA $2002 = FF                  A:00 X:FF Y:00 P:26 SP:FF PPU:299,212 CYC:24204
C656  29 80     AND #$80                        A:10 X:FF Y:00 P:24 SP:FF PPU:311,212 CYC:24208
C658  F0 F9     BEQ $C653                       A:00 X:FF Y:00 P:26 SP:FF PPU:317,212 CYC:24210
C653  AD 02 20  LDA $2002 = FF                  A:00 X:FF Y:00 P:26 SP:FF PPU:326,212 CYC:24213
C656  29 80     AND #$80                        A:10 X:FF Y:00 P:24 SP:FF PPU:338,212 CYC:24217
C658  F0 F9     BEQ $C653                       A:00 X:FF Y:00 P:26 SP:FF PPU:  3,213 CYC:24219
C653  AD 02 20  LDA $2002 = FF                  A:00 X:FF Y:00 P:26 SP:FF PPU: 12,213 CYC:24222
C656  29 80     AND #$80                        A:10 X:FF Y:00 P:24 SP:FF PPU: 24,213 CYC:24226
C658  F0 F9     BEQ $C653                       A:00 X:FF Y:00 P:26 SP:FF PPU: 30,213 CYC:24228
C653  AD 02 20  LDA $2002 = FF                  A:00 X:FF Y:00 P:26 SP:FF PPU: 39,213 CYC:24231
C656  29 80     AND #$80                        A:10 X:FF Y:00 P:24 SP:FF PPU: 51,213 CYC:24235
C658  F0 F9     BEQ $C653                       A:00 X:FF Y:00 P:26 SP:FF PPU: 57,213 CYC:24237
C653  AD 02 20  LDA $2002 = FF                  A:00 X:FF Y:00 P:26 SP:FF PPU: 66,213 CYC:24240
C656  29 80     AND #$80                        A:10 X:FF Y:00 P:24 SP:FF PPU: 78,213 CYC:24244
C658  F0 F9     BEQ $C653                       A:00 X:FF Y:00 P:26 SP:FF PPU: 84,213 CYC:24246
C653  AD 02 20  LDA $2002 = FF                  A:00 X:FF Y:00 P:26 SP:FF PPU: 93,213 CYC:24249
C656  29 80     AND #$80                        A:10 X:FF Y:00 P:24 SP:FF PPU:105,213 CYC:24253
C658  F0 F9     BEQ $C653                       A:00 X:FF Y:00 P:26 SP:FF PPU:111,213 CYC:24255
C653  AD 02 20  LDA $2002 = FF                  A:00 X:FF Y:00 P:26 SP:FF PPU:120,213 CYC:24258
C656  29 80     AND #$80                        A:10 X:FF Y:00 P:24 SP:FF PPU:132,213 CYC:24262
C658  F0 F9     BEQ $C653                       A:00 X:FF Y:00 P:26 SP:FF PPU:138,213 CYC:24264
C653  AD 02 20  LDA $2002 = FF                  A:00 X:FF Y:00 P:26 SP:FF PPU:147,213 CYC:24267
C656  29 80     AND #$80                        A:10 X:FF Y:00 P:24 SP:FF PPU:159,213 CYC:24271
C658  F0 F9     BEQ $C653                       A:00 X:FF Y:00 P:26 SP:FF PPU:165,213 CYC:24273
C653  AD 02 20  LDA $2002 = FF                  A:00 X:FF Y:00 P:26 SP:FF PPU:174,213 CYC:24276
C656  29 80     AND #$80                        A:10 X:FF Y:00 P:24 SP:FF PPU:186,213 CYC:24280
C658  F0 F9     BEQ $C653                       A:00 X:FF Y:00 P:26 SP:FF PPU:192,213 CYC:24282
C653  AD 02 20  LDA $2002 = FF                  A:00 X:FF Y:00 P:26 SP:FF PPU:201,213 CYC:24285
C656  29 80     AND #$80                        A:10 X:FF Y:00 P:24 SP:FF PPU:213,213 CYC:24289
C658  F0 F9     BEQ $C653                       A:00 X:FF Y:00 P:26 SP:FF PPU:219,213 CYC:24291
C653  AD 02 20  LDA $2002 = FF                  A:00 X:FF Y:00 P:26 SP:FF PPU:228,213 CYC:24294
C656  29 80     AND #$80                        A:10 X:FF Y:00 P:24 SP:FF PPU:240,213 CYC:24298
C658  F0 F9     BEQ $C653                       A:00 X:FF Y:00 P:26 SP:FF PPU:246,213 CYC:24300
C653  AD 02 20  LDA $2002 = FF                  A:00 X:FF Y:00 P:26 SP:FF PPU:255,213 CYC:24303
C656  29 80     AND #$80                        A:10 X:FF Y:00 P:24 SP:FF PPU:267,213 CYC:24307
C658  F0 F9     BEQ $C653                       A:00 X:FF Y:00 P:26 SP:FF PPU:273,213 CYC:24309
C653  AD 02 20  LDA $2002 = FF                  A:00 X:FF Y:00 P:26 SP:FF PPU:282,213 CYC:24312
C656  29 80     AND #$80                        A:10 X:FF Y:00 P:24 SP:FF PPU:294,213 CYC:24316
C658  F0 F9     BEQ $C653                       A:00 X:FF Y:00 P:26 SP:FF PPU:300,213 CYC:24318
C653  AD 02 20  LDA $2002 = FF                  A:00 X:FF Y:00 P:26 SP:FF PPU:309,213 CYC:24321
C656  29 80     AND #$80                        A:10 X:FF Y:00 P:24 SP:FF PPU:321,213 CYC:24325
C658  F0 F9     BEQ $C653                       A:00 X:FF Y:00 P:26 SP:FF PPU:327,213 CYC:24327
C653  AD 02 20  LDA $2002 = FF                  A:00 X:FF Y:00 P:26 SP:FF PPU:336,213 CYC:24330
C656  29 80     AND #$80                        A:10 X:FF Y:00 P:24 SP:FF PPU:  7,214 CYC:24334
C658  F0 F9     BEQ $C653                       A:00 X:FF Y:00 P:26 SP:FF PPU: 13,214 CYC:24336
C653  AD 02 20  LDA $2002 = FF                  A:00 X:FF Y:00 P:26 SP:FF PPU: 22,214 CYC:24339
C656  29 80     AND #$80                        A:10 X:FF Y:00 P:24 SP:FF PPU: 34,214 CYC:24343
C658  F0 F9     BEQ $C653                       A:00 X:FF Y:00 P:26 SP:FF PPU: 40,214 CYC:24345
C653  AD 02 20  LDA $2002 = FF                  A:00 X:FF Y:00 P:26 SP:FF PPU: 49,214 CYC:24348
C656  29 80     AND #$80                        A:10 X:FF Y:00 P:24 SP:FF PPU: 61,214 CYC:24352
C658  F0 F9     BEQ $C653                       A:00 X:FF Y:00 P:26 SP:FF PPU: 67,214 CYC:24354
C653  AD 02 20  LDA $2002 = FF                  A:00 X:FF Y:00 P:26 SP:FF PPU: 76,214 CYC:24357
C656  29 80     AND #$80                        A:10 X:FF Y:00 P:24 SP:FF PPU: 88,214 CYC:24361
C658  F0 F9     BEQ $C653                       A:00 X:FF Y:00 P:26 SP:FF PPU: 94,214 CYC:24363
C653  AD 02 20  LDA $2002 = FF                  A:00 X:FF Y:00 P:26 SP:FF PPU:103,214 CYC:24366
C656  29 80     AND #$80                        A:10 X:FF Y:00 P:24 SP:FF PPU:115,214 CYC:24370
C658  F0 F9     BEQ $C653                       A:00 X:FF Y:00 P:26 SP:FF PPU:121,214 CYC:24372
C653  AD 02 20  LDA $2002 = FF                  A:00 X:FF Y:00 P:26 SP:FF PPU:130,214 CYC:24375
C656  29 80     AND #$80                        A:10 X:FF Y:00 P:24 SP:FF PPU:142,214 CYC:24379
C658  F0 F9     BEQ $C653                       A:00 X:FF Y:00 P:26 SP:FF PPU:148,214 CYC:24381
C653  AD 02 20  LDA $2002 = FF                  A:00 X:FF Y:00 P:26 SP:FF PPU:157,214 CYC:24384
C656  29 80     AND #$80                        A:10 X:FF Y:00 P:24 SP:FF PPU:169,214 CYC:24388
C658  F0 F9     BEQ $C653                       A:00 X:FF Y:00 P:26 SP:FF PPU:175,214 CYC:24390
C653  AD 02 20  LDA $2002 = FF                  A:00 X:FF Y:00 P:26 SP:FF PPU:184,214 CYC:24393
C656  29 80     AND #$80                        A:10 X:FF Y:00 P:24 SP:FF PPU:196,214 CYC:24397
C658  F0 F9     BEQ $C653                       A:00 X:FF Y:00 P:26 SP:FF PPU:202,214 CYC:24399
C653  AD 02 20  LDA $2002 = FF                  A:00 X:FF Y:00 P:26 SP:FF PPU:211,214 CYC:24402
C656  29 80     AND #$80                        A:10 X:FF Y:00 P:24 SP:FF PPU:223,214 CYC:24406
C658  F0 F9     BEQ $C653                       A:00 X:FF Y:00 P:26 SP:FF PPU:229,214 CYC:24408
C653  AD 02 20  LDA $2002 = FF                  A:00 X:FF Y:00 P:26 SP:FF PPU:238,214 CYC:24411
C656  29 80     AND #$80                        A:10 X:FF Y:00 P:24 SP:FF PPU:250,214 CYC:24415
C658  F0 F9     BEQ $C653                       A:00 X:FF Y:00 P:26 SP:FF PPU:256,214 CYC:24417
C653  AD 02 20  LDA $2002 = FF                  A:00 X:FF Y:00 P:26 SP:FF PPU:265,214 CYC:24420
C656  29 80     AND #$80                        A:10 X:FF Y:00 P:24 SP:FF PPU:277,214 CYC:24424
C658  F0 F9     BEQ $C653                       A:00 X:FF Y:00 P:26 SP:FF PPU:283,214 CYC:24426
C653  AD 02 20  LDA $2002 = FF                  A:00 X:FF Y:00 P:26 SP:FF PPU:292,214 CYC:24429
C656  29 80     AND #$80                        A:10 X:FF Y:00 P:24 SP:FF PPU:304,214 CYC:24433
C658  F0 F9     BEQ $C653                       A:00 X:FF Y:00 P:26 SP:FF PPU:310,214 CYC:24435
C653  AD 02 20  LDA $2002 = FF                  A:00 X:FF Y:00 P:26 SP:FF PPU:319,214 CYC:24438
C656  29 80     AND #$80                        A:10 X:FF Y:00 P:24 SP:FF PPU:331,214 CYC:24442
C658  F0 F9     BEQ $C653                       A:00 X:FF Y:00 P:26 SP:FF PPU:337,214 CYC:24444
C653  AD 02 20  LDA $2002 = FF                  A:00 X:FF Y:00 P:26 SP:FF PPU:  5,215 CYC:24447
C656  29 80     AND #$80                        A:10 X:FF Y:00 P:24 SP:FF PPU: 17,215 CYC:24451
C658  F0 F9     BEQ $C653                       A:00 X:FF Y:00 P:26 SP:FF PPU: 23,215 CYC:24453
C653  AD 02 20  LDA $2002 = FF                  A:00 X:FF Y:00 P:26 SP:FF PPU: 32,215 CYC:24456
C656  29 80     AND #$80                        A:10 X:FF Y:00 P:24 SP:FF PPU: 44,215 CYC:24460
C658  F0 F9     BEQ $C653                       A:00 X:FF Y:00 P:26 SP:FF PPU: 50,215 CYC:24462
C653  AD 02 20  LDA $2002 = FF                  A:00 X:FF Y:00 P:26 SP:FF PPU: 59,215 CYC:24465
C656  29 80     AND #$80                        A:10 X:FF Y:00 P:24 SP:FF PPU: 71,215 CYC:24469
C658  F0 F9     BEQ $C653                       A:00 X:FF Y:00 P:26 SP:FF PPU: 77,215 CYC:24471
C653  AD 02 20  LDA $2002 = FF                  A:00 X:FF Y:00 P:26 SP:FF PPU: 86,215 CYC:24474
C656  29 80     AND #$80                        A:10 X:FF Y:00 P:24 SP:FF PPU: 98,215 CYC:24478
C658  F0 F9     BEQ $C653                       A:00 X:FF Y:00 P:26 SP:FF PPU:104,215 CYC:24480
C653  AD 02 20  LDA $2002 = FF                  A:00 X:FF Y:00 P:26 SP:FF PPU:113,215 CYC:24483
C656  29 80     AND #$80                        A:10 X:FF Y:00 P:24 SP:FF PPU:125,215 CYC:24487
C658  F0 F9     BEQ $C653                       A:00 X:FF Y:00 P:26 SP:FF PPU:131,215 CYC:24489
C653  AD 02 20  LDA $2002 = FF                  A:00 X:FF Y:00 P:26 SP:FF PPU:140,215 CYC:24492
C656  29 80     AND #$80                        A:10 X:FF Y:00 P:24 SP:FF PPU:152,215 CYC:24496
C658  F0 F9     BEQ $C653                       A:00 X:FF Y:00 P:26 SP:FF PPU:158,215 CYC:24498
C653  AD 02 20  LDA $2002 = FF                  A:00 X:FF Y:00 P:26 SP:FF PPU:167,215 CYC:24501
C656  29 80     AND #$80                        A:10 X:FF Y:00 P:24 SP:FF PPU:179,215 CYC:24505
C658  F0 F9     BEQ $C653                       A:00 X:FF Y:00 P:26 SP:FF PPU:185,215 CYC:24507
C653  AD 02 20  LDA $2002 = FF                  A:00 X:FF Y:00 P:26 SP:FF PPU:194,215 CYC:24510
C656  29 80     AND #$80                        A:10 X:FF Y:00 P:24 SP:FF PPU:206,215 CYC:24514
C658  F0 F9     BEQ $C653                       A:00 X:FF Y:00 P:26 SP:FF PPU:212,215 CYC:24516
C653  AD 02 20  LDA $2002 = FF                  A:00 X:FF Y:00 P:26 SP:FF PPU:221,215 CYC:24519
C656  29 80     AND #$80                        A:10 X:FF Y:00 P:24 SP:FF PPU:233,215 CYC:24523
C658  F0 F9     BEQ $C653                       A:00 X:FF Y:00 P:26 SP:FF PPU:239,215 CYC:24525
C653  AD 02 20  LDA $2002 = FF                  A:00 X:FF Y:00 P:26 SP:FF PPU:248,215 CYC:24528
C656  29 80     AND #$80                        A:10 X:FF Y:00 P:24 SP:FF PPU:260,215 CYC:24532
C658  F0 F9     BEQ $C653                       A:00 X:FF Y:00 P:26 SP:FF PPU:266,215 CYC:24534
C653  AD 02 20  LDA $2002 = FF                  A:00 X:FF Y:00 P:26 SP:FF PPU:275,215 CYC:24537
C656  29 80     AND #$80                        A:10 X:FF Y:00 P:24 SP:FF PPU:287,215 CYC:24541
C658  F0 F9     BEQ $C653                       A:00 X:FF Y:00 P:26 SP:FF PPU:293,215 CYC:24543
C653  AD 02 20  LDA $2002 = FF                  A:00 X:FF Y:00 P:26 SP:FF PPU:302,215 CYC:24546
C656  29 80     AND #$80                        A:10 X:FF Y:00 P:24 SP:FF PPU:314,215 CYC:24550
C658  F0 F9     BEQ $C653                       A:00 X:FF Y:00 P:26 SP:FF PPU:320,215 CYC:24552
C653  AD 02 20  LDA $2002 = FF                  A:00 X:FF Y:00 P:26 SP:FF PPU:329,215 CYC:24555
C656  29 80     AND #$80                        A:10 X:FF Y:00 P:24 SP:FF PPU:  0,216 CYC:24559
C658  F0 F9     BEQ $C653                       A:00 X:FF Y:00 P:26 SP:FF PPU:  6,216 CYC:24561
C653  AD 02 20  LDA $2002 = FF                  A:00 X:FF Y:00 P:26 SP:FF PPU: 15,216 CYC:24564
C656  29 80     AND #$80                        A:10 X:FF Y:00 P:24 SP:FF PPU: 27,216 CYC:24568
C658  F0 F9     BEQ $C653                       A:00 X:FF Y:00 P:26 SP:FF PPU: 33,216 CYC:24570
C653  AD 02 20  LDA $2002 = FF                  A:00 X:FF Y:00 P:26 SP:FF PPU: 42,216 CYC:24573
C656  29 80     AND #$80                        A:10 X:FF Y:00 P:24 SP:FF PPU: 54,216 CYC:24577
C658  F0 F9     BEQ $C653                       A:00 X:FF Y:00 P:26 SP:FF PPU: 60,216 CYC:24579
C653  AD 02 20  LDA $2002 = FF                  A:00 X:FF Y:00 P:26 SP:FF PPU: 69,216 CYC:24582
C656  29 80     AND #$80                        A:10 X:FF Y:00 P:24 SP:FF PPU: 81,216 CYC:24586
C658  F0 F9     BEQ $C653                       A:00 X:FF Y:00 P:26 SP:FF PPU: 87,216 CYC:24588
C653  AD 02 20  LDA $2002 = FF                  A:00 X:FF Y:00 P:26 SP:FF PPU: 96,216 CYC:24591
C656  29 80     AND #$80                        A:10 X:FF Y:00 P:24 SP:FF PPU:108,216 CYC:24595
C658  F0 F9     BEQ $C653                       A:00 X:FF Y:00 P:26 SP:FF PPU:114,216 CYC:24597
C653  AD 02 20  LDA $2002 = FF                  A:00 X:FF Y:00 P:26 SP:FF PPU:123,216 CYC:24600
C656  29 80     AND #$80                        A:10 X:FF Y:00 P:24 SP:FF PPU:135,216 CYC:24604
C658  F0 F9     BEQ $C653                       A:00 X:FF Y:00 P:26 SP:FF PPU:141,216 CYC:24606
C653  AD 02 20  LDA $2002 = FF                  A:00 X:FF Y:00 P:26 SP:FF PPU:150,216 CYC:24609
C656  29 80     AND #$80                        A:10 X:FF Y:00 P:24 SP:FF PPU:162,216 CYC:24613
C658  F0 F9     BEQ $C653                       A:00 X:FF Y:00 P:26 SP:FF PPU:168,216 CYC:24615
C653  AD 02 20  LDA $2002 = FF                  A:00 X:FF Y:00 P:26 SP:FF PPU:177,216 CYC:24618
C656  29 80     AND #$80                        A:10 X:FF Y:00 P:24 SP:FF PPU:189,216 CYC:24622
C658  F0 F9     BEQ $C653                       A:00 X:FF Y:00 P:26 SP:FF PPU:195,216 CYC:24624
C653  AD 02 20  LDA $2002 = FF                  A:00 X:FF Y:00 P:26 SP:FF PPU:204,216 CYC:24627
C656  29 80     AND #$80                        A:10 X:FF Y:00 P:24 SP:FF PPU:216,216 CYC:24631
C658  F0 F9     BEQ $C653                       A:00 X:FF Y:00 P:26 SP:FF PPU:222,216 CYC:24633
C653  AD 02 20  LDA $2002 = FF                  A:00 X:FF Y:00 P:26 SP:FF PPU:231,216 CYC:24636
C656  29 80     AND #$80                        A:10 X:FF Y:00 P:24 SP:FF PPU:243,216 CYC:24640
C658  F0 F9     BEQ $C653                       A:00 X:FF Y:00 P:26 SP:FF PPU:249,216 CYC:24642
C653  AD 02 20  LDA $2002 = FF                  A:00 X:FF Y:00 P:26 SP:FF PPU:258,216 CYC:24645
C656  29 80     AND #$80                        A:10 X:FF Y:00 P:24 SP:FF PPU:270,216 CYC:24649
C658  F0 F9     BEQ $C653                       A:00 X:FF Y:00 P:26 SP:FF PPU:276,216 CYC:24651
C653  AD 02 20  LDA $2002 = FF                  A:00 X:FF Y:00 P:26 SP:FF PPU:285,216 CYC:24654
C656  29 80     AND #$80                        A:10 X:FF Y:00 P:24 SP:FF PPU:297,216 CYC:24658
C658  F0 F9     BEQ $C653                       A:00 X:FF Y:00 P:26 SP:FF PPU:303,216 CYC:24660
C653  AD 02 20  LDA $2002 = FF                  A:00 X:FF Y:00 P:26 SP:FF PPU:312,216 CYC:24663
C656  29 80     AND #$80                        A:10 X:FF Y:00 P:24 SP:FF PPU:324,216 CYC:24667
C658  F0 F9     BEQ $C653                       A:00 X:FF Y:00 P:26 SP:FF PPU:330,216 CYC:24669
C653  AD 02 20  LDA $2002 = FF                  A:00 X:FF Y:00 P:26 SP:FF PPU:339,216 CYC:24672
C656  29 80     AND #$80                        A:10 X:FF Y:00 P:24 SP:FF PPU: 10,217 CYC:24676
C658  F0 F9     BEQ $C653                       A:00 X:FF Y:00 P:26 SP:FF PPU: 16,217 CYC:24678
C653  AD 02 20  LDA $2002 = FF                  A:00 X:FF Y:00 P:26 SP:FF PPU: 25,217 CYC:24681
C656  29 80     AND #$80                        A:10 X:FF Y:00 P:24 SP:FF PPU: 37,217 CYC:24685
C658  F0 F9     BEQ $C653                       A:00 X:FF Y:00 P:26 SP:FF PPU: 43,217 CYC:24687
C653  AD 02 20  LDA $2002 = FF                  A:00 X:FF Y:00 P:26 SP:FF PPU: 52,217 CYC:24690
C656  29 80     AND #$80                        A:10 X:FF Y:00 P:24 SP:FF PPU: 64,217 CYC:24694
C658  F0 F9     BEQ $C653                       A:00 X:FF Y:00 P:26 SP:FF PPU: 70,217 CYC:24696
C653  AD 02 20  LDA $2002 = FF                  A:00 X:FF Y:00 P:26 SP:FF PPU: 79,217 CYC:24699
C656  29 80     AND #$80                        A:10 X:FF Y:00 P:24 SP:FF PPU: 91,217 CYC:24703
C658  F0 F9     BEQ $C653                       A:00 X:FF Y:00 P:26 SP:FF PPU: 97,217 CYC:24705
C653  AD 02 20  LDA $2002 = FF                  A:00 X:FF Y:00 P:26 SP:FF PPU:106,217 CYC:24708
C656  29 80     AND #$80                        A:10 X:FF Y:00 P:24 SP:FF PPU:118,217 CYC:24712
C658  F0 F9     BEQ $C653                       A:00 X:FF Y:00 P:26 SP:FF PPU:124,217 CYC:24714
C653  AD 02 20  LDA $2002 = FF                  A:00 X:FF Y:00 P:26 SP:FF PPU:133,217 CYC:24717
C656  29 80     AND #$80                        A:10 X:FF Y:00 P:24 SP:FF PPU:145,217 CYC:24721
C658  F0 F9     BEQ $C653                       A:00 X:FF Y:00 P:26 SP:FF PPU:151,217 CYC:24723
C653  AD 02 20  LDA $2002 = FF                  A:00 X:FF Y:00 P:26 SP:FF PPU:160,217 CYC:24726
C656  29 80     AND #$80                        A:10 X:FF Y:00 P:24 SP:FF PPU:172,217 CYC:24730
C658  F0 F9     BEQ $C653                       A:00 X:FF Y:00 P:26 SP:FF PPU:178,217 CYC:24732
C653  AD 02 20  LDA $2002 = FF                  A:00 X:FF Y:00 P:26 SP:FF PPU:187,217 CYC:24735
C656  29 80     AND #$80                        A:10 X:FF Y:00 P:24 SP:FF PPU:199,217 CYC:24739
C658  F0 F9     BEQ $C653                       A:00 X:FF Y:00 P:26 SP:FF PPU:205,217 CYC:24741
C653  AD 02 20  LDA $2002 = FF                  A:00 X:FF Y:00 P:26 SP:FF PPU:214,217 CYC:24744
C656  29 80     AND #$80                        A:10 X:FF Y:00 P:24 SP:FF PPU:226,217 CYC:24748
C658  F0 F9     BEQ $C653                       A:00 X:FF Y:00 P:26 SP:FF PPU:232,217 CYC:24750
C653  AD 02 20  LDA $2002 = FF                  A:00 X:FF Y:00 P:26 SP:FF PPU:241,217 CYC:24753
C656  29 80     AND #$80                        A:10 X:FF Y:00 P:24 SP:FF PPU:253,217 CYC:24757
C658  F0 F9     BEQ $C653                       A:00 X:FF Y:00 P:26 SP:FF PPU:259,217 CYC:24759
C653  AD 02 20  LDA $2002 = FF                  A:00 X:FF Y:00 P:26 SP:FF PPU:268,217 CYC:24762
C656  29 80     AND #$80                        A:10 X:FF Y:00 P:24 SP:FF PPU:280,217 CYC:24766
C658  F0 F9     BEQ $C653                       A:00 X:FF Y:00 P:26 SP:FF PPU:286,217 CYC:24768
C653  AD 02 20  LDA $2002 = FF                  A:00 X:FF Y:00 P:26 SP:FF PPU:295,217 CYC:24771
C656  29 80     AND #$80                        A:10 X:FF Y:00 P:24 SP:FF PPU:307,217 CYC:24775
C658  F0 F9     BEQ $C653                       A:00 X:FF Y:00 P:26 SP:FF PPU:313,217 CYC:24777
C653  AD 02 20  LDA $2002 = FF                  A:00 X:FF Y:00 P:26 SP:FF PPU:322,217 CYC:24780
C656  29 80     AND #$80                        A:10 X:FF Y:00 P:24 SP:FF PPU:334,217 CYC:24784
C658  F0 F9     BEQ $C653                       A:00 X:FF Y:00 P:26 SP:FF PPU:340,217 CYC:24786
C653  AD 02 20  LDA $2002 = FF                  A:00 X:FF Y:00 P:26 SP:FF PPU:  8,218 CYC:24789
C656  29 80     AND #$80                        A:10 X:FF Y:00 P:24 SP:FF PPU: 20,218 CYC:24793
C658  F0 F9     BEQ $C653                       A:00 X:FF Y:00 P:26 SP:FF PPU: 26,218 CYC:24795
C653  AD 02 20  LDA $2002 = FF                  A:00 X:FF Y:00 P:26 SP:FF PPU: 35,218 CYC:24798
C656  29 80     AND #$80                        A:10 X:FF Y:00 P:24 SP:FF PPU: 47,218 CYC:24802
C658  F0 F9     BEQ $C653                       A:00 X:FF Y:00 P:26 SP:FF PPU: 53,218 CYC:24804
C653  AD 02 20  LDA $2002 = FF                  A:00 X:FF Y:00 P:26 SP:FF PPU: 62,218 CYC:24807
C656  29 80     AND #$80                        A:10 X:FF Y:00 P:24 SP:FF PPU: 74,218 CYC:24811
C658  F0 F9     BEQ $C653                       A:00 X:FF Y:00 P:26 SP:FF PPU: 80,218 CYC:24813
C653  AD 02 20  LDA $2002 = FF                  A:00 X:FF Y:00 P:26 SP:FF PPU: 89,218 CYC:24816
C656  29 80     AND #$80                        A:10 X:FF Y:00 P:24 SP:FF PPU:101,218 CYC:24820
C658  F0 F9     BEQ $C653                       A:00 X:FF Y:00 P:26 SP:FF PPU:107,218 CYC:24822
C653  AD 02 20  LDA $2002 = FF                  A:00 X:FF Y:00 P:26 SP:FF PPU:116,218 CYC:24825
C656  29 80     AND #$80                        A:10 X:FF Y:00 P:24 SP:FF PPU:128,218 CYC:24829
C658  F0 F9     BEQ $C653                       A:00 X:FF Y:00 P:26 SP:FF PPU:134,218 CYC:24831
C653  AD 02 20  LDA $2002 = FF                  A:00 X:FF Y:00 P:26 SP:FF PPU:143,218 CYC:24834
C656  29 80     AND #$80                        A:10 X:FF Y:00 P:24 SP:FF PPU:155,218 CYC:24838
C658  F0 F9     BEQ $C653                       A:00 X:FF Y:00 P:26 SP:FF PPU:161,218 CYC:24840
C653  AD 02 20  LDA $2002 = FF                  A:00 X:FF Y:00 P:26 SP:FF PPU:170,218 CYC:24843
C656  29 80     AND #$80                        A:10 X:FF Y:00 P:24 SP:FF PPU:182,218 CYC:24847
C658  F0 F9     BEQ $C653                       A:00 X:FF Y:00 P:26 SP:FF PPU:188,218 CYC:24849
C653  AD 02 20  LDA $2002 = FF                  A:00 X:FF Y:00 P:26 SP:FF PPU:197,218 CYC:24852
C656  29 80     AND #$80                        A:10 X:FF Y:00 P:24 SP:FF PPU:209,218 CYC:24856
C658  F0 F9     BEQ $C653                       A:00 X:FF Y:00 P:26 SP:FF PPU:215,218 CYC:24858
C653  AD 02 20  LDA $2002 = FF                  A:00 X:FF Y:00 P:26 SP:FF PPU:224,218 CYC:24861
C656  29 80     AND #$80                        A:10 X:FF Y:00 P:24 SP:FF PPU:236,218 CYC:24865
C658  F0 F9     BEQ $C653                       A:00 X:FF Y:00 P:26 SP:FF PPU:242,218 CYC:24867
C653  AD 02 20  LDA $2002 = FF                  A:00 X:FF Y:00 P:26 SP:FF PPU:251,218 CYC:24870
C656  29 80     AND #$80                        A:10 X:FF Y:00 P:24 SP:FF PPU:263,218 CYC:24874
C658  F0 F9     BEQ $C653                       A:00 X:FF Y:00 P:26 SP:FF PPU:269,218 CYC:24876
C653  AD 02 20  LDA $2002 = FF                  A:00 X:FF Y:00 P:26 SP:FF PPU:278,218 CYC:24879
C656  29 80     AND #$80                        A:10 X:FF Y:00 P:24 SP:FF PPU:290,218 CYC:24883
C658  F0 F9     BEQ $C653                       A:00 X:FF Y:00 P:26 SP:FF PPU:296,218 CYC:24885
C653  AD 02 20  LDA $2002 = FF                  A:00 X:FF Y:00 P:26 SP:FF PPU:305,218 CYC:24888
C656  29 80     AND #$80                        A:10 X:FF Y:00 P:24 SP:FF PPU:317,218 CYC:24892
C658  F0 F9     BEQ $C653                       A:00 X:FF Y:00 P:26 SP:FF PPU:323,218 CYC:24894
C653  AD 02 20  LDA $2002 = FF                  A:00 X:FF Y:00 P:26 SP:FF PPU:332,218 CYC:24897
C656  29 80     AND #$80                        A:10 X:FF Y:00 P:24 SP:FF PPU:  3,219 CYC:24901
C658  F0 F9     BEQ $C653                       A:00 X:FF Y:00 P:26 SP:FF PPU:  9,219 CYC:24903
C653  AD 02 20  LDA $2002 = FF                  A:00 X:FF Y:00 P:26 SP:FF PPU: 18,219 CYC:24906
C656  29 80     AND #$80                        A:10 X:FF Y:00 P:24 SP:FF PPU: 30,219 CYC:24910
C658  F0 F9     BEQ $C653                       A:00 X:FF Y:00 P:26 SP:FF PPU: 36,219 CYC:24912
C653  AD 02 20  LDA $2002 = FF                  A:00 X:FF Y:00 P:26 SP:FF PPU: 45,219 CYC:24915
C656  29 80     AND #$80                        A:10 X:FF Y:00 P:24 SP:FF PPU: 57,219 CYC:24919
C658  F0 F9     BEQ $C653                       A:00 X:FF Y:00 P:26 SP:FF PPU: 63,219 CYC:24921
C653  AD 02 20  LDA $2002 = FF                  A:00 X:FF Y:00 P:26 SP:FF PPU: 72,219 CYC:24924
C656  29 80     AND #$80                        A:10 X:FF Y:00 P:24 SP:FF PPU: 84,219 CYC:24928
C658  F0 F9     BEQ $C653                       A:00 X:FF Y:00 P:26 SP:FF PPU: 90,219 CYC:24930
C653  AD 02 20  LDA $2002 = FF                  A:00 X:FF Y:00 P:26 SP:FF PPU: 99,219 CYC:24933
C656  29 80     AND #$80                        A:10 X:FF Y:00 P:24 SP:FF PPU:111,219 CYC:24937
C658  F0 F9     BEQ $C653                       A:00 X:FF Y:00 P:26 SP:FF PPU:117,219 CYC:24939
C653  AD 02 20  LDA $2002 = FF                  A:00 X:FF Y:00 P:26 SP:FF PPU:126,219 CYC:24942
C656  29 80     AND #$80                        A:10 X:FF Y:00 P:24 SP:FF PPU:138,219 CYC:24946
C658  F0 F9     BEQ $C653                       A:00 X:FF Y:00 P:26 SP:FF PPU:144,219 CYC:24948
C653  AD 02 20  LDA $2002 = FF                  A:00 X:FF Y:00 P:26 SP:FF PPU:153,219 CYC:24951
C656  29 80     AND #$80                        A:10 X:FF Y:00 P:24 SP:FF PPU:165,219 CYC:24955
C658  F0 F9     BEQ $C653                       A:00 X:FF Y:00 P:26 SP:FF PPU:171,219 CYC:24957
C653  AD 02 20  LDA $2002 = FF                  A:00 X:FF Y:00 P:26 SP:FF PPU:180,219 CYC:24960
C656  29 80     AND #$80                        A:10 X:FF Y:00 P:24 SP:FF PPU:192,219 CYC:24964
C658  F0 F9     BEQ $C653                       A:00 X:FF Y:00 P:26 SP:FF PPU:198,219 CYC:24966
C653  AD 02 20  LDA $2002 = FF                  A:00 X:FF Y:00 P:26 SP:FF PPU:207,219 CYC:24969
C656  29 80     AND #$80                        A:10 X:FF Y:00 P:24 SP:FF PPU:219,219 CYC:24973
C658  F0 F9     BEQ $C653                       A:00 X:FF Y:00 P:26 SP:FF PPU:225,219 CYC:24975
C653  AD 02 20  LDA $2002 = FF                  A:00 X:FF Y:00 P:26 SP:FF PPU:234,219 CYC:24978
C656  29 80     AND #$80                        A:10 X:FF Y:00 P:24 SP:FF PPU:246,219 CYC:24982
C658  F0 F9     BEQ $C653                       A:00 X:FF Y:00 P:26 SP:FF PPU:252,219 CYC:24984
C653  AD 02 20  LDA $2002 = FF                  A:00 X:FF Y:00 P:26 SP:FF PPU:261,219 CYC:24987
C656  29 80     AND #$80                        A:10 X:FF Y:00 P:24 SP:FF PPU:273,219 CYC:24991
C658  F0 F9     BEQ $C653                       A:00 X:FF Y:00 P:26 SP:FF PPU:279,219 CYC:24993
C653  AD 02 20  LDA $2002 = FF                  A:00 X:FF Y:00 P:26 SP:FF PPU:288,219 CYC:24996
C656  29 80     AND #$80                        A:10 X:FF Y:00 P:24 SP:FF PPU:300,219 CYC:25000
C658  F0 F9     BEQ $C653                       A:00 X:FF Y:00 P:26 SP:FF PPU:306,219 CYC:25002
C653  AD 02 20  LDA $2002 = FF                  A:00 X:FF Y:00 P:26 SP:FF PPU:315,219 CYC:25005
C656  29 80     AND #$80                        A:10 X:FF Y:00 P:24 SP:FF PPU:327,219 CYC:25009
C658  F0 F9     BEQ $C653                       A:00 X:FF Y:00 P:26 SP:FF PPU:333,219 CYC:25011
C653  AD 02 20  LDA $2002 = FF                  A:00 X:FF Y:00 P:26 SP:FF PPU:  1,220 CYC:25014
C656  29 80     AND #$80                        A:10 X:FF Y:00 P:24 SP:FF PPU: 13,220 CYC:25018
C658  F0 F9     BEQ $C653                       A:00 X:FF Y:00 P:26 SP:FF PPU: 19,220 CYC:25020
C653  AD 02 20  LDA $2002 = FF                  A:00 X:FF Y:00 P:26 SP:FF PPU: 28,220 CYC:25023
C656  29 80     AND #$80                        A:10 X:FF Y:00 P:24 SP:FF PPU: 40,220 CYC:25027
C658  F0 F9     BEQ $C653                       A:00 X:FF Y:00 P:26 SP:FF PPU: 46,220 CYC:25029
C653  AD 02 20  LDA $2002 = FF                  A:00 X:FF Y:00 P:26 SP:FF PPU: 55,220 CYC:25032
C656  29 80     AND #$80                        A:10 X:FF Y:00 P:24 SP:FF PPU: 67,220 CYC:25036
C658  F0 F9     BEQ $C653                       A:00 X:FF Y:00 P:26 SP:FF PPU: 73,220 CYC:25038
C653  AD 02 20  LDA $2002 = FF                  A:00 X:FF Y:00 P:26 SP:FF PPU: 82,220 CYC:25041
C656  29 80     AND #$80                        A:10 X:FF Y:00 P:24 SP:FF PPU: 94,220 CYC:25045
C658  F0 F9     BEQ $C653                       A:00 X:FF Y:00 P:26 SP:FF PPU:100,220 CYC:25047
C653  AD 02 20  LDA $2002 = FF                  A:00 X:FF Y:00 P:26 SP:FF PPU:109,220 CYC:25050
C656  29 80     AND #$80                        A:10 X:FF Y:00 P:24 SP:FF PPU:121,220 CYC:25054
C658  F0 F9     BEQ $C653                       A:00 X:FF Y:00 P:26 SP:FF PPU:127,220 CYC:25056
C653  AD 02 20  LDA $2002 = FF                  A:00 X:FF Y:00 P:26 SP:FF PPU:136,220 CYC:25059
C656  29 80     AND #$80                        A:10 X:FF Y:00 P:24 SP:FF PPU:148,220 CYC:25063
C658  F0 F9     BEQ $C653                       A:00 X:FF Y:00 P:26 SP:FF PPU:154,220 CYC:25065
C653  AD 02 20  LDA $2002 = FF                  A:00 X:FF Y:00 P:26 SP:FF PPU:163,220 CYC:25068
C656  29 80     AND #$80                        A:10 X:FF Y:00 P:24 SP:FF PPU:175,220 CYC:25072
C658  F0 F9     BEQ $C653                       A:00 X:FF Y:00 P:26 SP:FF PPU:181,220 CYC:25074
C653  AD 02 20  LDA $2002 = FF                  A:00 X:FF Y:00 P:26 SP:FF PPU:190,220 CYC:25077
C656  29 80     AND #$80                        A:10 X:FF Y:00 P:24 SP:FF PPU:202,220 CYC:25081
C658  F0 F9     BEQ $C653                       A:00 X:FF Y:00 P:26 SP:FF PPU:208,220 CYC:25083
C653  AD 02 20  LDA $2002 = FF                  A:00 X:FF Y:00 P:26 SP:FF PPU:217,220 CYC:25086
C656  29 80     AND #$80                        A:10 X:FF Y:00 P:24 SP:FF PPU:229,220 CYC:25090
C658  F0 F9     BEQ $C653                       A:00 X:FF Y:00 P:26 SP:FF PPU:235,220 CYC:25092
C653  AD 02 20  LDA $2002 = FF                  A:00 X:FF Y:00 P:26 SP:FF PPU:244,220 CYC:25095
C656  29 80     AND #$80                        A:10 X:FF Y:00 P:24 SP:FF PPU:256,220 CYC:25099
C658  F0 F9     BEQ $C653                       A:00 X:FF Y:00 P:26 SP:FF PPU:262,220 CYC:25101
C653  AD 02 20  LDA $2002 = FF                  A:00 X:FF Y:00 P:26 SP:FF PPU:271,220 CYC:25104
C656  29 80     AND #$80                        A:10 X:FF Y:00 P:24 SP:FF PPU:283,220 CYC:25108
C658  F0 F9     BEQ $C653                       A:00 X:FF Y:00 P:26 SP:FF PPU:289,220 CYC:25110
C653  AD 02 20  LDA $2002 = FF                  A:00 X:FF Y:00 P:26 SP:FF PPU:298,220 CYC:25113
C656  29 80     AND #$80                        A:10 X:FF Y:00 P:24 SP:FF PPU:310,220 CYC:25117
C658  F0 F9     BEQ $C653                       A:00 X:FF Y:00 P:26 SP:FF PPU:316,220 CYC:25119
C653  AD 02 20  LDA $2002 = FF                  A:00 X:FF Y:00 P:26 SP:FF PPU:325,220 CYC:25122
C656  29 80     AND #$80                        A:10 X:FF Y:00 P:24 SP:FF PPU:337,220 CYC:25126
C658  F0 F9     BEQ $C653                       A:00 X:FF Y:00 P:26 SP:FF PPU:  2,221 CYC:25128
C653  AD 02 20  LDA $2002 = FF                  A:00 X:FF Y:00 P:26 SP:FF PPU: 11,221 CYC:25131
C656  29 80     AND #$80                        A:10 X:FF Y:00 P:24 SP:FF PPU: 23,221 CYC:25135
C658  F0 F9     BEQ $C653                       A:00 X:FF Y:00 P:26 SP:FF PPU: 29,221 CYC:25137
C653  AD 02 20  LDA $2002 = FF                  A:00 X:FF Y:00 P:26 SP:FF PPU: 38,221 CYC:25140
C656  29 80     AND #$80                        A:10 X:FF Y:00 P:24 SP:FF PPU: 50,221 CYC:25144
C658  F0 F9     BEQ $C653                       A:00 X:FF Y:00 P:26 SP:FF PPU: 56,221 CYC:25146
C653  AD 02 20  LDA $2002 = FF                  A:00 X:FF Y:00 P:26 SP:FF PPU: 65,221 CYC:25149
C656  29 80     AND #$80                        A:10 X:FF Y:00 P:24 SP:FF PPU: 77,221 CYC:25153
C658  F0 F9     BEQ $C653                       A:00 X:FF Y:00 P:26 SP:FF PPU: 83,221 CYC:25155
C653  AD 02 20  LDA $2002 = FF                  A:00 X:FF Y:00 P:26 SP:FF PPU: 92,221 CYC:25158
C656  29 80     AND #$80                        A:10 X:FF Y:00 P:24 SP:FF PPU:104,221 CYC:25162
C658  F0 F9     BEQ $C653                       A:00 X:FF Y:00 P:26 SP:FF PPU:110,221 CYC:25164
C653  AD 02 20  LDA $2002 = FF                  A:00 X:FF Y:00 P:26 SP:FF PPU:119,221 CYC:25167
C656  29 80     AND #$80                        A:10 X:FF Y:00 P:24 SP:FF PPU:131,221 CYC:25171
C658  F0 F9     BEQ $C653                       A:00 X:FF Y:00 P:26 SP:FF PPU:137,221 CYC:25173
C653  AD 02 20  LDA $2002 = FF                  A:00 X:FF Y:00 P:26 SP:FF PPU:146,221 CYC:25176
C656  29 80     AND #$80                        A:10 X:FF Y:00 P:24 SP:FF PPU:158,221 CYC:25180
C658  F0 F9     BEQ $C653                       A:00 X:FF Y:00 P:26 SP:FF PPU:164,221 CYC:25182
C653  AD 02 20  LDA $2002 = FF                  A:00 X:FF Y:00 P:26 SP:FF PPU:173,221 CYC:25185
C656  29 80     AND #$80                        A:10 X:FF Y:00 P:24 SP:FF PPU:185,221 CYC:25189
C658  F0 F9     BEQ $C653                       A:00 X:FF Y:00 P:26 SP:FF PPU:191,221 CYC:25191
C653  AD 02 20  LDA $2002 = FF                  A:00 X:FF Y:00 P:26 SP:FF PPU:200,221 CYC:25194
C656  29 80     AND #$80                        A:10 X:FF Y:00 P:24 SP:FF PPU:212,221 CYC:25198
C658  F0 F9     BEQ $C653                       A:00 X:FF Y:00 P:26 SP:FF PPU:218,221 CYC:25200
C653  AD 02 20  LDA $2002 = FF                  A:00 X:FF Y:00 P:26 SP:FF PPU:227,221 CYC:25203
C656  29 80     AND #$80                        A:10 X:FF Y:00 P:24 SP:FF PPU:239,221 CYC:25207
C658  F0 F9     BEQ $C653                       A:00 X:FF Y:00 P:26 SP:FF PPU:245,221 CYC:25209
C653  AD 02 20  LDA $2002 = FF                  A:00 X:FF Y:00 P:26 SP:FF PPU:254,221 CYC:25212
C656  29 80     AND #$80                        A:10 X:FF Y:00 P:24 SP:FF PPU:266,221 CYC:25216
C658  F0 F9     BEQ $C653                       A:00 X:FF Y:00 P:26 SP:FF PPU:272,221 CYC:25218
C653  AD 02 20  LDA $2002 = FF                  A:00 X:FF Y:00 P:26 SP:FF PPU:281,221 CYC:25221
C656  29 80     AND #$80                        A:10 X:FF Y:00 P:24 SP:FF PPU:293,221 CYC:25225
C658  F0 F9     BEQ $C653                       A:00 X:FF Y:00 P:26 SP:FF PPU:299,221 CYC:25227
C653  AD 02 20  LDA $2002 = FF                  A:00 X:FF Y:00 P:26 SP:FF PPU:308,221 CYC:25230
C656  29 80     AND #$80                        A:10 X:FF Y:00 P:24 SP:FF PPU:320,221 CYC:25234
C658  F0 F9     BEQ $C653                       A:00 X:FF Y:00 P:26 SP:FF PPU:326,221 CYC:25236
C653  AD 02 20  LDA $2002 = FF                  A:00 X:FF Y:00 P:26 SP:FF PPU:335,221 CYC:25239
C656  29 80     AND #$80                        A:10 X:FF Y:00 P:24 SP:FF PPU:  6,222 CYC:25243
C658  F0 F9     BEQ $C653                       A:00 X:FF Y:00 P:26 SP:FF PPU: 12,222 CYC:25245
C653  AD 02 20  LDA $2002 = FF                  A:00 X:FF Y:00 P:26 SP:FF PPU: 21,222 CYC:25248
C656  29 80     AND #$80                        A:10 X:FF Y:00 P:24 SP:FF PPU: 33,222 CYC:25252
C658  F0 F9     BEQ $C653                       A:00 X:FF Y:00 P:26 SP:FF PPU: 39,222 CYC:25254
C653  AD 02 20  LDA $2002 = FF                  A:00 X:FF Y:00 P:26 SP:FF PPU: 48,222 CYC:25257
C656  29 80     AND #$80                        A:10 X:FF Y:00 P:24 SP:FF PPU: 60,222 CYC:25261
C658  F0 F9     BEQ $C653                       A:00 X:FF Y:00 P:26 SP:FF PPU: 66,222 CYC:25263
C653  AD 02 20  LDA $2002 = FF                  A:00 X:FF Y:00 P:26 SP:FF PPU: 75,222 CYC:25266
C656  29 80     AND #$80                        A:10 X:FF Y:00 P:24 SP:FF PPU: 87,222 CYC:25270
C658  F0 F9     BEQ $C653                       A:00 X:FF Y:00 P:26 SP:FF PPU: 93,222 CYC:25272
C653  AD 02 20  LDA $2002 = FF                  A:00 X:FF Y:00 P:26 SP:FF PPU:102,222 CYC:25275
C656  29 80     AND #$80                        A:10 X:FF Y:00 P:24 SP:FF PPU:114,222 CYC:25279
C658  F0 F9     BEQ $C653                       A:00 X:FF Y:00 P:26 SP:FF PPU:120,222 CYC:25281
C653  AD 02 20  LDA $2002 = FF                  A:00 X:FF Y:00 P:26 SP:FF PPU:129,222 CYC:25284
C656  29 80     AND #$80                        A:10 X:FF Y:00 P:24 SP:FF PPU:141,222 CYC:25288
C658  F0 F9     BEQ $C653                       A:00 X:FF Y:00 P:26 SP:FF PPU:147,222 CYC:25290
C653  AD 02 20  LDA $2002 = FF                  A:00 X:FF Y:00 P:26 SP:FF PPU:156,222 CYC:25293
C656  29 80     AND #$80                        A:10 X:FF Y:00 P:24 SP:FF PPU:168,222 CYC:25297
C658  F0 F9     BEQ $C653                       A:00 X:FF Y:00 P:26 SP:FF PPU:174,222 CYC:25299
C653  AD 02 20  LDA $2002 = FF                  A:00 X:FF Y:00 P:26 SP:FF PPU:183,222 CYC:25302
C656  29 80     AND #$80                        A:10 X:FF Y:00 P:24 SP:FF PPU:195,222 CYC:25306
C658  F0 F9     BEQ $C653                       A:00 X:FF Y:00 P:26 SP:FF PPU:201,222 CYC:25308
C653  AD 02 20  LDA $2002 = FF                  A:00 X:FF Y:00 P:26 SP:FF PPU:210,222 CYC:25311
C656  29 80     AND #$80                        A:10 X:FF Y:00 P:24 SP:FF PPU:222,222 CYC:25315
C658  F0 F9     BEQ $C653                       A:00 X:FF Y:00 P:26 SP:FF PPU:228,222 CYC:25317
C653  AD 02 20  LDA $2002 = FF                  A:00 X:FF Y:00 P:26 SP:FF PPU:237,222 CYC:25320
C656  29 80     AND #$80                        A:10 X:FF Y:00 P:24 SP:FF PPU:249,222 CYC:25324
C658  F0 F9     BEQ $C653                       A:00 X:FF Y:00 P:26 SP:FF PPU:255,222 CYC:25326
C653  AD 02 20  LDA $2002 = FF                  A:00 X:FF Y:00 P:26 SP:FF PPU:264,222 CYC:25329
C656  29 80     AND #$80                        A:10 X:FF Y:00 P:24 SP:FF PPU:276,222 CYC:25333
C658  F0 F9     BEQ $C653                       A:00 X:FF Y:00 P:26 SP:FF PPU:282,222 CYC:25335
C653  AD 02 20  LDA $2002 = FF                  A:00 X:FF Y:00 P:26 SP:FF PPU:291,222 CYC:25338
C656  29 80     AND #$80                        A:10 X:FF Y:00 P:24 SP:FF PPU:303,222 CYC:25342
C658  F0 F9     BEQ $C653                       A:00 X:FF Y:00 P:26 SP:FF PPU:309,222 CYC:25344
C653  AD 02 20  LDA $2002 = FF                  A:00 X:FF Y:00 P:26 SP:FF PPU:318,222 CYC:25347
C656  29 80     AND #$80                        A:10 X:FF Y:00 P:24 SP:FF PPU:330,222 CYC:25351
C658  F0 F9     BEQ $C653                       A:00 X:FF Y:00 P:26 SP:FF PPU:336,222 CYC:25353
C653  AD 02 20  LDA $2002 = FF                  A:00 X:FF Y:00 P:26 SP:FF PPU:  4,223 CYC:25356
C656  29 80     AND #$80                        A:10 X:FF Y:00 P:24 SP:FF PPU: 16,223 CYC:25360
C658  F0 F9     BEQ $C653                       A:00 X:FF Y:00 P:26 SP:FF PPU: 22,223 CYC:25362
C653  AD 02 20  LDA $2002 = FF                  A:00 X:FF Y:00 P:26 SP:FF PPU: 31,223 CYC:25365
C656  29 80     AND #$80                        A:10 X:FF Y:00 P:24 SP:FF PPU: 43,223 CYC:25369
C658  F0 F9     BEQ $C653                       A:00 X:FF Y:00 P:26 SP:FF PPU: 49,223 CYC:25371
C653  AD 02 20  LDA $2002 = FF                  A:00 X:FF Y:00 P:26 SP:FF PPU: 58,223 CYC:25374
C656  29 80     AND #$80                        A:10 X:FF Y:00 P:24 SP:FF PPU: 70,223 CYC:25378
C658  F0 F9     BEQ $C653                       A:00 X:FF Y:00 P:26 SP:FF PPU: 76,223 CYC:25380
C653  AD 02 20  LDA $2002 = FF                  A:00 X:FF Y:00 P:26 SP:FF PPU: 85,223 CYC:25383
C656  29 80     AND #$80                        A:10 X:FF Y:00 P:24 SP:FF PPU: 97,223 CYC:25387
C658  F0 F9     BEQ $C653                       A:00 X:FF Y:00 P:26 SP:FF PPU:103,223 CYC:25389
C653  AD 02 20  LDA $2002 = FF                  A:00 X:FF Y:00 P:26 SP:FF PPU:112,223 CYC:25392
C656  29 80     AND #$80                        A:10 X:FF Y:00 P:24 SP:FF PPU:124,223 CYC:25396
C658  F0 F9     BEQ $C653                       A:00 X:FF Y:00 P:26 SP:FF PPU:130,223 CYC:25398
C653  AD 02 20  LDA $2002 = FF                  A:00 X:FF Y:00 P:26 SP:FF PPU:139,223 CYC:25401
C656  29 80     AND #$80                        A:10 X:FF Y:00 P:24 SP:FF PPU:151,223 CYC:25405
C658  F0 F9     BEQ $C653                       A:00 X:FF Y:00 P:26 SP:FF PPU:157,223 CYC:25407
C653  AD 02 20  LDA $2002 = FF                  A:00 X:FF Y:00 P:26 SP:FF PPU:166,223 CYC:25410
C656  29 80     AND #$80                        A:10 X:FF Y:00 P:24 SP:FF PPU:178,223 CYC:25414
C658  F0 F9     BEQ $C653                       A:00 X:FF Y:00 P:26 SP:FF PPU:184,223 CYC:25416
C653  AD 02 20  LDA $2002 = FF                  A:00 X:FF Y:00 P:26 SP:FF PPU:193,223 CYC:25419
C656  29 80     AND #$80                        A:10 X:FF Y:00 P:24 SP:FF PPU:205,223 CYC:25423
C658  F0 F9     BEQ $C653                       A:00 X:FF Y:00 P:26 SP:FF PPU:211,223 CYC:25425
C653  AD 02 20  LDA $2002 = FF                  A:00 X:FF Y:00 P:26 SP:FF PPU:220,223 CYC:25428
C656  29 80     AND #$80                        A:10 X:FF Y:00 P:24 SP:FF PPU:232,223 CYC:25432
C658  F0 F9     BEQ $C653                       A:00 X:FF Y:00 P:26 SP:FF PPU:238,223 CYC:25434
C653  AD 02 20  LDA $2002 = FF                  A:00 X:FF Y:00 P:26 SP:FF PPU:247,223 CYC:25437
C656  29 80     AND #$80                        A:10 X:FF Y:00 P:24 SP:FF PPU:259,223 CYC:25441
C658  F0 F9     BEQ $C653                       A:00 X:FF Y:00 P:26 SP:FF PPU:265,223 CYC:25443
C653  AD 02 20  LDA $2002 = FF                  A:00 X:FF Y:00 P:26 SP:FF PPU:274,223 CYC:25446
C656  29 80     AND #$80                        A:10 X:FF Y:00 P:24 SP:FF PPU:286,223 CYC:25450
C658  F0 F9     BEQ $C653                       A:00 X:FF Y:00 P:26 SP:FF PPU:292,223 CYC:25452
C653  AD 02 20  LDA $2002 = FF                  A:00 X:FF Y:00 P:26 SP:FF PPU:301,223 CYC:25455
C656  29 80     AND #$80                        A:10 X:FF Y:00 P:24 SP:FF PPU:313,223 CYC:25459
C658  F0 F9     BEQ $C653                       A:00 X:FF Y:00 P:26 SP:FF PPU:319,223 CYC:25461
C653  AD 02 20  LDA $2002 = FF                  A:00 X:FF Y:00 P:26 SP:FF PPU:328,223 CYC:25464
C656  29 80     AND #$80                        A:10 X:FF Y:00 P:24 SP:FF PPU:340,223 CYC:25468
C658  F0 F9     BEQ $C653                       A:00 X:FF Y:00 P:26 SP:FF PPU:  5,224 CYC:25470
C653  AD 02 20  LDA $2002 = FF                  A:00 X:FF Y:00 P:26 SP:FF PPU: 14,224 CYC:25473
C656  29 80     AND #$80                        A:10 X:FF Y:00 P:24 SP:FF PPU: 26,224 CYC:25477
C658  F0 F9     BEQ $C653                       A:00 X:FF Y:00 P:26 SP:FF PPU: 32,224 CYC:25479
C653  AD 02 20  LDA $2002 = FF                  A:00 X:FF Y:00 P:26 SP:FF PPU: 41,224 CYC:25482
C656  29 80     AND #$80                        A:10 X:FF Y:00 P:24 SP:FF PPU: 53,224 CYC:25486
C658  F0 F9     BEQ $C653                       A:00 X:FF Y:00 P:26 SP:FF PPU: 59,224 CYC:25488
C653  AD 02 20  LDA $2002 = FF                  A:00 X:FF Y:00 P:26 SP:FF PPU: 68,224 CYC:25491
C656  29 80     AND #$80                        A:10 X:FF Y:00 P:24 SP:FF PPU: 80,224 CYC:25495
C658  F0 F9     BEQ $C653                       A:00 X:FF Y:00 P:26 SP:FF PPU: 86,224 CYC:25497
C653  AD 02 20  LDA $2002 = FF                  A:00 X:FF Y:00 P:26 SP:FF PPU: 95,224 CYC:25500
C656  29 80     AND #$80                        A:10 X:FF Y:00 P:24 SP:FF PPU:107,224 CYC:25504
C658  F0 F9     BEQ $C653                       A:00 X:FF Y:00 P:26 SP:FF PPU:113,224 CYC:25506
C653  AD 02 20  LDA $2002 = FF                  A:00 X:FF Y:00 P:26 SP:FF PPU:122,224 CYC:25509
C656  29 80     AND #$80                        A:10 X:FF Y:00 P:24 SP:FF PPU:134,224 CYC:25513
C658  F0 F9     BEQ $C653                       A:00 X:FF Y:00 P:26 SP:FF PPU:140,224 CYC:25515
C653  AD 02 20  LDA $2002 = FF                  A:00 X:FF Y:00 P:26 SP:FF PPU:149,224 CYC:25518
C656  29 80     AND #$80                        A:10 X:FF Y:00 P:24 SP:FF PPU:161,224 CYC:25522
C658  F0 F9     BEQ $C653                       A:00 X:FF Y:00 P:26 SP:FF PPU:167,224 CYC:25524
C653  AD 02 20  LDA $2002 = FF                  A:00 X:FF Y:00 P:26 SP:FF PPU:176,224 CYC:25527
C656  29 80     AND #$80                        A:10 X:FF Y:00 P:24 SP:FF PPU:188,224 CYC:25531
C658  F0 F9     BEQ $C653                       A:00 X:FF Y:00 P:26 SP:FF PPU:194,224 CYC:25533
C653  AD 02 20  LDA $2002 = FF                  A:00 X:FF Y:00 P:26 SP:FF PPU:203,224 CYC:25536
C656  29 80     AND #$80                        A:10 X:FF Y:00 P:24 SP:FF PPU:215,224 CYC:25540
C658  F0 F9     BEQ $C653                       A:00 X:FF Y:00 P:26 SP:FF PPU:221,224 CYC:25542
C653  AD 02 20  LDA $2002 = FF                  A:00 X:FF Y:00 P:26 SP:FF PPU:230,224 CYC:25545
C656  29 80     AND #$80                        A:10 X:FF Y:00 P:24 SP:FF PPU:242,224 CYC:25549
C658  F0 F9     BEQ $C653                       A:00 X:FF Y:00 P:26 SP:FF PPU:248,224 CYC:25551
C653  AD 02 20  LDA $2002 = FF                  A:00 X:FF Y:00 P:26 SP:FF PPU:257,224 CYC:25554
C656  29 80     AND #$80                        A:10 X:FF Y:00 P:24 SP:FF PPU:269,224 CYC:25558
C658  F0 F9     BEQ $C653                       A:00 X:FF Y:00 P:26 SP:FF PPU:275,224 CYC:25560
C653  AD 02 20  LDA $2002 = FF                  A:00 X:FF Y:00 P:26 SP:FF PPU:284,224 CYC:25563
C656  29 80     AND #$80                        A:10 X:FF Y:00 P:24 SP:FF PPU:296,224 CYC:25567
C658  F0 F9     BEQ $C653                       A:00 X:FF Y:00 P:26 SP:FF PPU:302,224 CYC:25569
C653  AD 02 20  LDA $2002 = FF                  A:00 X:FF Y:00 P:26 SP:FF PPU:311,224 CYC:25572
C656  29 80     AND #$80                        A:10 X:FF Y:00 P:24 SP:FF PPU:323,224 CYC:25576
C658  F0 F9     BEQ $C653                       A:00 X:FF Y:00 P:26 SP:FF PPU:329,224 CYC:25578
C653  AD 02 20  LDA $2002 = FF                  A:00 X:FF Y:00 P:26 SP:FF PPU:338,224 CYC:25581
C656  29 80     AND #$80                        A:10 X:FF Y:00 P:24 SP:FF PPU:  9,225 CYC:25585
C658  F0 F9     BEQ $C653                       A:00 X:FF Y:00 P:26 SP:FF PPU: 15,225 CYC:25587
C653  AD 02 20  LDA $2002 = FF                  A:00 X:FF Y:00 P:26 SP:FF PPU: 24,225 CYC:25590
C656  29 80     AND #$80                        A:10 X:FF Y:00 P:24 SP:FF PPU: 36,225 CYC:25594
C658  F0 F9     BEQ $C653                       A:00 X:FF Y:00 P:26 SP:FF PPU: 42,225 CYC:25596
C653  AD 02 20  LDA $2002 = FF                  A:00 X:FF Y:00 P:26 SP:FF PPU: 51,225 CYC:25599
C656  29 80     AND #$80                        A:10 X:FF Y:00 P:24 SP:FF PPU: 63,225 CYC:25603
C658  F0 F9     BEQ $C653                       A:00 X:FF Y:00 P:26 SP:FF PPU: 69,225 CYC:25605
C653  AD 02 20  LDA $2002 = FF                  A:00 X:FF Y:00 P:26 SP:FF PPU: 78,225 CYC:25608
C656  29 80     AND #$80                        A:10 X:FF Y:00 P:24 SP:FF PPU: 90,225 CYC:25612
C658  F0 F9     BEQ $C653                       A:00 X:FF Y:00 P:26 SP:FF PPU: 96,225 CYC:25614
C653  AD 02 20  LDA $2002 = FF                  A:00 X:FF Y:00 P:26 SP:FF PPU:105,225 CYC:25617
C656  29 80     AND #$80                        A:10 X:FF Y:00 P:24 SP:FF PPU:117,225 CYC:25621
C658  F0 F9     BEQ $C653                       A:00 X:FF Y:00 P:26 SP:FF PPU:123,225 CYC:25623
C653  AD 02 20  LDA $2002 = FF                  A:00 X:FF Y:00 P:26 SP:FF PPU:132,225 CYC:25626
C656  29 80     AND #$80                        A:10 X:FF Y:00 P:24 SP:FF PPU:144,225 CYC:25630
C658  F0 F9     BEQ $C653                       A:00 X:FF Y:00 P:26 SP:FF PPU:150,225 CYC:25632
C653  AD 02 20  LDA $2002 = FF                  A:00 X:FF Y:00 P:26 SP:FF PPU:159,225 CYC:25635
C656  29 80     AND #$80                        A:10 X:FF Y:00 P:24 SP:FF PPU:171,225 CYC:25639
C658  F0 F9     BEQ $C653                       A:00 X:FF Y:00 P:26 SP:FF PPU:177,225 CYC:25641
C653  AD 02 20  LDA $2002 = FF                  A:00 X:FF Y:00 P:26 SP:FF PPU:186,225 CYC:25644
C656  29 80     AND #$80                        A:10 X:FF Y:00 P:24 SP:FF PPU:198,225 CYC:25648
C658  F0 F9     BEQ $C653                       A:00 X:FF Y:00 P:26 SP:FF PPU:204,225 CYC:25650
C653  AD 02 20  LDA $2002 = FF                  A:00 X:FF Y:00 P:26 SP:FF PPU:213,225 CYC:25653
C656  29 80     AND #$80                        A:10 X:FF Y:00 P:24 SP:FF PPU:225,225 CYC:25657
C658  F0 F9     BEQ $C653                       A:00 X:FF Y:00 P:26 SP:FF PPU:231,225 CYC:25659
C653  AD 02 20  LDA $2002 = FF                  A:00 X:FF Y:00 P:26 SP:FF PPU:240,225 CYC:25662
C656  29 80     AND #$80                        A:10 X:FF Y:00 P:24 SP:FF PPU:252,225 CYC:25666
C658  F0 F9     BEQ $C653                       A:00 X:FF Y:00 P:26 SP:FF PPU:258,225 CYC:25668
C653  AD 02 20  LDA $2002 = FF                  A:00 X:FF Y:00 P:26 SP:FF PPU:267,225 CYC:25671
C656  29 80     AND #$80                        A:10 X:FF Y:00 P:24 SP:FF PPU:279,225 CYC:25675
C658  F0 F9     BEQ $C653                       A:00 X:FF Y:00 P:26 SP:FF PPU:285,225 CYC:25677
C653  AD 02 20  LDA $2002 = FF                  A:00 X:FF Y:00 P:26 SP:FF PPU:294,225 CYC:25680
C656  29 80     AND #$80                        A:10 X:FF Y:00 P:24 SP:FF PPU:306,225 CYC:25684
C658  F0 F9     BEQ $C653                       A:00 X:FF Y:00 P:26 SP:FF PPU:312,225 CYC:25686
C653  AD 02 20  LDA $2002 = FF                  A:00 X:FF Y:00 P:26 SP:FF PPU:321,225 CYC:25689
C656  29 80     AND #$80                        A:10 X:FF Y:00 P:24 SP:FF PPU:333,225 CYC:25693
C658  F0 F9     BEQ $C653                       A:00 X:FF Y:00 P:26 SP:FF PPU:339,225 CYC:25695
C653  AD 02 20  LDA $2002 = FF                  A:00 X:FF Y:00 P:26 SP:FF PPU:  7,226 CYC:25698
C656  29 80     AND #$80                        A:10 X:FF Y:00 P:24 SP:FF PPU: 19,226 CYC:25702
C658  F0 F9     BEQ $C653                       A:00 X:FF Y:00 P:26 SP:FF PPU: 25,226 CYC:25704
C653  AD 02 20  LDA $2002 = FF                  A:00 X:FF Y:00 P:26 SP:FF PPU: 34,226 CYC:25707
C656  29 80     AND #$80                        A:10 X:FF Y:00 P:24 SP:FF PPU: 46,226 CYC:25711
C658  F0 F9     BEQ $C653                       A:00 X:FF Y:00 P:26 SP:FF PPU: 52,226 CYC:25713
C653  AD 02 20  LDA $2002 = FF                  A:00 X:FF Y:00 P:26 SP:FF PPU: 61,226 CYC:25716
C656  29 80     AND #$80                        A:10 X:FF Y:00 P:24 SP:FF PPU: 73,226 CYC:25720
C658  F0 F9     BEQ $C653                       A:00 X:FF Y:00 P:26 SP:FF PPU: 79,226 CYC:25722
C653  AD 02 20  LDA $2002 = FF                  A:00 X:FF Y:00 P:26 SP:FF PPU: 88,226 CYC:25725
C656  29 80     AND #$80                        A:10 X:FF Y:00 P:24 SP:FF PPU:100,226 CYC:25729
C658  F0 F9     BEQ $C653                       A:00 X:FF Y:00 P:26 SP:FF PPU:106,226 CYC:25731
C653  AD 02 20  LDA $2002 = FF                  A:00 X:FF Y:00 P:26 SP:FF PPU:115,226 CYC:25734
C656  29 80     AND #$80                        A:10 X:FF Y:00 P:24 SP:FF PPU:127,226 CYC:25738
C658  F0 F9     BEQ $C653                       A:00 X:FF Y:00 P:26 SP:FF PPU:133,226 CYC:25740
C653  AD 02 20  LDA $2002 = FF                  A:00 X:FF Y:00 P:26 SP:FF PPU:142,226 CYC:25743
C656  29 80     AND #$80                        A:10 X:FF Y:00 P:24 SP:FF PPU:154,226 CYC:25747
C658  F0 F9     BEQ $C653                       A:00 X:FF Y:00 P:26 SP:FF PPU:160,226 CYC:25749
C653  AD 02 20  LDA $2002 = FF                  A:00 X:FF Y:00 P:26 SP:FF PPU:169,226 CYC:25752
C656  29 80     AND #$80                        A:10 X:FF Y:00 P:24 SP:FF PPU:181,226 CYC:25756
C658  F0 F9     BEQ $C653                       A:00 X:FF Y:00 P:26 SP:FF PPU:187,226 CYC:25758
C653  AD 02 20  LDA $2002 = FF                  A:00 X:FF Y:00 P:26 SP:FF PPU:196,226 CYC:25761
C656  29 80     AND #$80                        A:10 X:FF Y:00 P:24 SP:FF PPU:208,226 CYC:25765
C658  F0 F9     BEQ $C653                       A:00 X:FF Y:00 P:26 SP:FF PPU:214,226 CYC:25767
C653  AD 02 20  LDA $2002 = FF                  A:00 X:FF Y:00 P:26 SP:FF PPU:223,226 CYC:25770
C656  29 80     AND #$80                        A:10 X:FF Y:00 P:24 SP:FF PPU:235,226 CYC:25774
C658  F0 F9     BEQ $C653                       A:00 X:FF Y:00 P:26 SP:FF PPU:241,226 CYC:25776
C653  AD 02 20  LDA $2002 = FF                  A:00 X:FF Y:00 P:26 SP:FF PPU:250,226 CYC:25779
C656  29 80     AND #$80                        A:10 X:FF Y:00 P:24 SP:FF PPU:262,226 CYC:25783
C658  F0 F9     BEQ $C653                       A:00 X:FF Y:00 P:26 SP:FF PPU:268,226 CYC:25785
C653  AD 02 20  LDA $2002 = FF                  A:00 X:FF Y:00 P:26 SP:FF PPU:277,226 CYC:25788
C656  29 80     AND #$80                        A:10 X:FF Y:00 P:24 SP:FF PPU:289,226 CYC:25792
C658  F0 F9     BEQ $C653                       A:00 X:FF Y:00 P:26 SP:FF PPU:295,226 CYC:25794
C653  AD 02 20  LDA $2002 = FF                  A:00 X:FF Y:00 P:26 SP:FF PPU:304,226 CYC:25797
C656  29 80     AND #$80                        A:10 X:FF Y:00 P:24 SP:FF PPU:316,226 CYC:25801
C658  F0 F9     BEQ $C653                       A:00 X:FF Y:00 P:26 SP:FF PPU:322,226 CYC:25803
C653  AD 02 20  LDA $2002 = FF                  A:00 X:FF Y:00 P:26 SP:FF PPU:331,226 CYC:25806
C656  29 80     AND #$80                        A:10 X:FF Y:00 P:24 SP:FF PPU:  2,227 CYC:25810
C658  F0 F9     BEQ $C653                       A:00 X:FF Y:00 P:26 SP:FF PPU:  8,227 CYC:25812
C653  AD 02 20  LDA $2002 = FF                  A:00 X:FF Y:00 P:26 SP:FF PPU: 17,227 CYC:25815
C656  29 80     AND #$80                        A:10 X:FF Y:00 P:24 SP:FF PPU: 29,227 CYC:25819
C658  F0 F9     BEQ $C653                       A:00 X:FF Y:00 P:26 SP:FF PPU: 35,227 CYC:25821
C653  AD 02 20  LDA $2002 = FF                  A:00 X:FF Y:00 P:26 SP:FF PPU: 44,227 CYC:25824
C656  29 80     AND #$80                        A:10 X:FF Y:00 P:24 SP:FF PPU: 56,227 CYC:25828
C658  F0 F9     BEQ $C653                       A:00 X:FF Y:00 P:26 SP:FF PPU: 62,227 CYC:25830
C653  AD 02 20  LDA $2002 = FF                  A:00 X:FF Y:00 P:26 SP:FF PPU: 71,227 CYC:25833
C656  29 80     AND #$80                        A:10 X:FF Y:00 P:24 SP:FF PPU: 83,227 CYC:25837
C658  F0 F9     BEQ $C653                       A:00 X:FF Y:00 P:26 SP:FF PPU: 89,227 CYC:25839
C653  AD 02 20  LDA $2002 = FF                  A:00 X:FF Y:00 P:26 SP:FF PPU: 98,227 CYC:25842
C656  29 80     AND #$80                        A:10 X:FF Y:00 P:24 SP:FF PPU:110,227 CYC:25846
C658  F0 F9     BEQ $C653                       A:00 X:FF Y:00 P:26 SP:FF PPU:116,227 CYC:25848
C653  AD 02 20  LDA $2002 = FF                  A:00 X:FF Y:00 P:26 SP:FF PPU:125,227 CYC:25851
C656  29 80     AND #$80                        A:10 X:FF Y:00 P:24 SP:FF PPU:137,227 CYC:25855
C658  F0 F9     BEQ $C653                       A:00 X:FF Y:00 P:26 SP:FF PPU:143,227 CYC:25857
C653  AD 02 20  LDA $2002 = FF                  A:00 X:FF Y:00 P:26 SP:FF PPU:152,227 CYC:25860
C656  29 80     AND #$80                        A:10 X:FF Y:00 P:24 SP:FF PPU:164,227 CYC:25864
C658  F0 F9     BEQ $C653                       A:00 X:FF Y:00 P:26 SP:FF PPU:170,227 CYC:25866
C653  AD 02 20  LDA $2002 = FF                  A:00 X:FF Y:00 P:26 SP:FF PPU:179,227 CYC:25869
C656  29 80     AND #$80                        A:10 X:FF Y:00 P:24 SP:FF PPU:191,227 CYC:25873
C658  F0 F9     BEQ $C653                       A:00 X:FF Y:00 P:26 SP:FF PPU:197,227 CYC:25875
C653  AD 02 20  LDA $2002 = FF                  A:00 X:FF Y:00 P:26 SP:FF PPU:206,227 CYC:25878
C656  29 80     AND #$80                        A:10 X:FF Y:00 P:24 SP:FF PPU:218,227 CYC:25882
C658  F0 F9     BEQ $C653                       A:00 X:FF Y:00 P:26 SP:FF PPU:224,227 CYC:25884
C653  AD 02 20  LDA $2002 = FF                  A:00 X:FF Y:00 P:26 SP:FF PPU:233,227 CYC:25887
C656  29 80     AND #$80                        A:10 X:FF Y:00 P:24 SP:FF PPU:245,227 CYC:25891
C658  F0 F9     BEQ $C653                       A:00 X:FF Y:00 P:26 SP:FF PPU:251,227 CYC:25893
C653  AD 02 20  LDA $2002 = FF                  A:00 X:FF Y:00 P:26 SP:FF PPU:260,227 CYC:25896
C656  29 80     AND #$80                        A:10 X:FF Y:00 P:24 SP:FF PPU:272,227 CYC:25900
C658  F0 F9     BEQ $C653                       A:00 X:FF Y:00 P:26 SP:FF PPU:278,227 CYC:25902
C653  AD 02 20  LDA $2002 = FF                  A:00 X:FF Y:00 P:26 SP:FF PPU:287,227 CYC:25905
C656  29 80     AND #$80                        A:10 X:FF Y:00 P:24 SP:FF PPU:299,227 CYC:25909
C658  F0 F9     BEQ $C653                       A:00 X:FF Y:00 P:26 SP:FF PPU:305,227 CYC:25911
C653  AD 02 20  LDA $2002 = FF                  A:00 X:FF Y:00 P:26 SP:FF PPU:314,227 CYC:25914
C656  29 80     AND #$80                        A:10 X:FF Y:00 P:24 SP:FF PPU:326,227 CYC:25918
C658  F0 F9     BEQ $C653                       A:00 X:FF Y:00 P:26 SP:FF PPU:332,227 CYC:25920
C653  AD 02 20  LDA $2002 = FF                  A:00 X:FF Y:00 P:26 SP:FF PPU:  0,228 CYC:25923
C656  29 80     AND #$80                        A:10 X:FF Y:00 P:24 SP:FF PPU: 12,228 CYC:25927
C658  F0 F9     BEQ $C653                       A:00 X:FF Y:00 P:26 SP:FF PPU: 18,228 CYC:25929
C653  AD 02 20  LDA $2002 = FF                  A:00 X:FF Y:00 P:26 SP:FF PPU: 27,228 CYC:25932
C656  29 80     AND #$80                        A:10 X:FF Y:00 P:24 SP:FF PPU: 39,228 CYC:25936
C658  F0 F9     BEQ $C653                       A:00 X:FF Y:00 P:26 SP:FF PPU: 45,228 CYC:25938
C653  AD 02 20  LDA $2002 = FF                  A:00 X:FF Y:00 P:26 SP:FF PPU: 54,228 CYC:25941
C656  29 80     AND #$80                        A:10 X:FF Y:00 P:24 SP:FF PPU: 66,228 CYC:25945
C658  F0 F9     BEQ $C653                       A:00 X:FF Y:00 P:26 SP:FF PPU: 72,228 CYC:25947
C653  AD 02 20  LDA $2002 = FF                  A:00 X:FF Y:00 P:26 SP:FF PPU: 81,228 CYC:25950
C656  29 80     AND #$80                        A:10 X:FF Y:00 P:24 SP:FF PPU: 93,228 CYC:25954
C658  F0 F9     BEQ $C653                       A:00 X:FF Y:00 P:26 SP:FF PPU: 99,228 CYC:25956
C653  AD 02 20  LDA $2002 = FF                  A:00 X:FF Y:00 P:26 SP:FF PPU:108,228 CYC:25959
C656  29 80     AND #$80                        A:10 X:FF Y:00 P:24 SP:FF PPU:120,228 CYC:25963
C658  F0 F9     BEQ $C653                       A:00 X:FF Y:00 P:26 SP:FF PPU:126,228 CYC:25965
C653  AD 02 20  LDA $2002 = FF                  A:00 X:FF Y:00 P:26 SP:FF PPU:135,228 CYC:25968
C656  29 80     AND #$80                        A:10 X:FF Y:00 P:24 SP:FF PPU:147,228 CYC:25972
C658  F0 F9     BEQ $C653                       A:00 X:FF Y:00 P:26 SP:FF PPU:153,228 CYC:25974
C653  AD 02 20  LDA $2002 = FF                  A:00 X:FF Y:00 P:26 SP:FF PPU:162,228 CYC:25977
C656  29 80     AND #$80                        A:10 X:FF Y:00 P:24 SP:FF PPU:174,228 CYC:25981
C658  F0 F9     BEQ $C653                       A:00 X:FF Y:00 P:26 SP:FF PPU:180,228 CYC:25983
C653  AD 02 20  LDA $2002 = FF                  A:00 X:FF Y:00 P:26 SP:FF PPU:189,228 CYC:25986
C656  29 80     AND #$80                        A:10 X:FF Y:00 P:24 SP:FF PPU:201,228 CYC:25990
C658  F0 F9     BEQ $C653                       A:00 X:FF Y:00 P:26 SP:FF PPU:207,228 CYC:25992
C653  AD 02 20  LDA $2002 = FF                  A:00 X:FF Y:00 P:26 SP:FF PPU:216,228 CYC:25995
C656  29 80     AND #$80                        A:10 X:FF Y:00 P:24 SP:FF PPU:228,228 CYC:25999
C658  F0 F9     BEQ $C653                       A:00 X:FF Y:00 P:26 SP:FF PPU:234,228 CYC:26001
C653  AD 02 20  LDA $2002 = FF                  A:00 X:FF Y:00 P:26 SP:FF PPU:243,228 CYC:26004
C656  29 80     AND #$80                        A:10 X:FF Y:00 P:24 SP:FF PPU:255,228 CYC:26008
C658  F0 F9     BEQ $C653                       A:00 X:FF Y:00 P:26 SP:FF PPU:261,228 CYC:26010
C653  AD 02 20  LDA $2002 = FF                  A:00 X:FF Y:00 P:26 SP:FF PPU:270,228 CYC:26013
C656  29 80     AND #$80                        A:10 X:FF Y:00 P:24 SP:FF PPU:282,228 CYC:26017
C658  F0 F9     BEQ $C653                       A:00 X:FF Y:00 P:26 SP:FF PPU:288,228 CYC:26019
C653  AD 02 20  LDA $2002 = FF                  A:00 X:FF Y:00 P:26 SP:FF PPU:297,228 CYC:26022
C656  29 80     AND #$80                        A:10 X:FF Y:00 P:24 SP:FF PPU:309,228 CYC:26026
C658  F0 F9     BEQ $C653                       A:00 X:FF Y:00 P:26 SP:FF PPU:315,228 CYC:26028
C653  AD 02 20  LDA $2002 = FF                  A:00 X:FF Y:00 P:26 SP:FF PPU:324,228 CYC:26031
C656  29 80     AND #$80                        A:10 X:FF Y:00 P:24 SP:FF PPU:336,228 CYC:26035
C658  F0 F9     BEQ $C653                       A:00 X:FF Y:00 P:26 SP:FF PPU:  1,229 CYC:26037
C653  AD 02 20  LDA $2002 = FF                  A:00 X:FF Y:00 P:26 SP:FF PPU: 10,229 CYC:26040
C656  29 80     AND #$80                        A:10 X:FF Y:00 P:24 SP:FF PPU: 22,229 CYC:26044
C658  F0 F9     BEQ $C653                       A:00 X:FF Y:00 P:26 SP:FF PPU: 28,229 CYC:26046
C653  AD 02 20  LDA $2002 = FF                  A:00 X:FF Y:00 P:26 SP:FF PPU: 37,229 CYC:26049
C656  29 80     AND #$80                        A:10 X:FF Y:00 P:24 SP:FF PPU: 49,229 CYC:26053
C658  F0 F9     BEQ $C653                       A:00 X:FF Y:00 P:26 SP:FF PPU: 55,229 CYC:26055
C653  AD 02 20  LDA $2002 = FF                  A:00 X:FF Y:00 P:26 SP:FF PPU: 64,229 CYC:26058
C656  29 80     AND #$80                        A:10 X:FF Y:00 P:24 SP:FF PPU: 76,229 CYC:26062
C658  F0 F9     BEQ $C653                       A:00 X:FF Y:00 P:26 SP:FF PPU: 82,229 CYC:26064
C653  AD 02 20  LDA $2002 = FF                  A:00 X:FF Y:00 P:26 SP:FF PPU: 91,229 CYC:26067
C656  29 80     AND #$80                        A:10 X:FF Y:00 P:24 SP:FF PPU:103,229 CYC:26071
C658  F0 F9     BEQ $C653                       A:00 X:FF Y:00 P:26 SP:FF PPU:109,229 CYC:26073
C653  AD 02 20  LDA $2002 = FF                  A:00 X:FF Y:00 P:26 SP:FF PPU:118,229 CYC:26076
C656  29 80     AND #$80                        A:10 X:FF Y:00 P:24 SP:FF PPU:130,229 CYC:26080
C658  F0 F9     BEQ $C653                       A:00 X:FF Y:00 P:26 SP:FF PPU:136,229 CYC:26082
C653  AD 02 20  LDA $2002 = FF                  A:00 X:FF Y:00 P:26 SP:FF PPU:145,229 CYC:26085
C656  29 80     AND #$80                        A:10 X:FF Y:00 P:24 SP:FF PPU:157,229 CYC:26089
C658  F0 F9     BEQ $C653                       A:00 X:FF Y:00 P:26 SP:FF PPU:163,229 CYC:26091
C653  AD 02 20  LDA $2002 = FF                  A:00 X:FF Y:00 P:26 SP:FF PPU:172,229 CYC:26094
C656  29 80     AND #$80                        A:10 X:FF Y:00 P:24 SP:FF PPU:184,229 CYC:26098
C658  F0 F9     BEQ $C653                       A:00 X:FF Y:00 P:26 SP:FF PPU:190,229 CYC:26100
C653  AD 02 20  LDA $2002 = FF                  A:00 X:FF Y:00 P:26 SP:FF PPU:199,229 CYC:26103
C656  29 80     AND #$80                        A:10 X:FF Y:00 P:24 SP:FF PPU:211,229 CYC:26107
C658  F0 F9     BEQ $C653                       A:00 X:FF Y:00 P:26 SP:FF PPU:217,229 CYC:26109
C653  AD 02 20  LDA $2002 = FF                  A:00 X:FF Y:00 P:26 SP:FF PPU:226,229 CYC:26112
C656  29 80     AND #$80                        A:10 X:FF Y:00 P:24 SP:FF PPU:238,229 CYC:26116
C658  F0 F9     BEQ $C653                       A:00 X:FF Y:00 P:26 SP:FF PPU:244,229 CYC:26118
C653  AD 02 20  LDA $2002 = FF                  A:00 X:FF Y:00 P:26 SP:FF PPU:253,229 CYC:26121
C656  29 80     AND #$80                        A:10 X:FF Y:00 P:24 SP:FF PPU:265,229 CYC:26125
C658  F0 F9     BEQ $C653                       A:00 X:FF Y:00 P:26 SP:FF PPU:271,229 CYC:26127
C653  AD 02 20  LDA $2002 = FF                  A:00 X:FF Y:00 P:26 SP:FF PPU:280,229 CYC:26130
C656  29 80     AND #$80                        A:10 X:FF Y:00 P:24 SP:FF PPU:292,229 CYC:26134
C658  F0 F9     BEQ $C653                       A:00 X:FF Y:00 P:26 SP:FF PPU:298,229 CYC:26136
C653  AD 02 20  LDA $2002 = FF                  A:00 X:FF Y:00 P:26 SP:FF PPU:307,229 CYC:26139
C656  29 80     AND #$80                        A:10 X:FF Y:00 P:24 SP:FF PPU:319,229 CYC:26143
C658  F0 F9     BEQ $C653                       A:00 X:FF Y:00 P:26 SP:FF PPU:325,229 CYC:26145
C653  AD 02 20  LDA $2002 = FF                  A:00 X:FF Y:00 P:26 SP:FF PPU:334,229 CYC:26148
C656  29 80     AND #$80                        A:10 X:FF Y:00 P:24 SP:FF PPU:  5,230 CYC:26152
C658  F0 F9     BEQ $C653                       A:00 X:FF Y:00 P:26 SP:FF PPU: 11,230 CYC:26154
C653  AD 02 20  LDA $2002 = FF                  A:00 X:FF Y:00 P:26 SP:FF PPU: 20,230 CYC:26157
C656  29 80     AND #$80                        A:10 X:FF Y:00 P:24 SP:FF PPU: 32,230 CYC:26161
C658  F0 F9     BEQ $C653                       A:00 X:FF Y:00 P:26 SP:FF PPU: 38,230 CYC:26163
C653  AD 02 20  LDA $2002 = FF                  A:00 X:FF Y:00 P:26 SP:FF PPU: 47,230 CYC:26166
C656  29 80     AND #$80                        A:10 X:FF Y:00 P:24 SP:FF PPU: 59,230 CYC:26170
C658  F0 F9     BEQ $C653                       A:00 X:FF Y:00 P:26 SP:FF PPU: 65,230 CYC:26172
C653  AD 02 20  LDA $2002 = FF                  A:00 X:FF Y:00 P:26 SP:FF PPU: 74,230 CYC:26175
C656  29 80     AND #$80                        A:10 X:FF Y:00 P:24 SP:FF PPU: 86,230 CYC:26179
C658  F0 F9     BEQ $C653                       A:00 X:FF Y:00 P:26 SP:FF PPU: 92,230 CYC:26181
C653  AD 02 20  LDA $2002 = FF                  A:00 X:FF Y:00 P:26 SP:FF PPU:101,230 CYC:26184
C656  29 80     AND #$80                        A:10 X:FF Y:00 P:24 SP:FF PPU:113,230 CYC:26188
C658  F0 F9     BEQ $C653                       A:00 X:FF Y:00 P:26 SP:FF PPU:119,230 CYC:26190
C653  AD 02 20  LDA $2002 = FF                  A:00 X:FF Y:00 P:26 SP:FF PPU:128,230 CYC:26193
C656  29 80     AND #$80                        A:10 X:FF Y:00 P:24 SP:FF PPU:140,230 CYC:26197
C658  F0 F9     BEQ $C653                       A:00 X:FF Y:00 P:26 SP:FF PPU:146,230 CYC:26199
C653  AD 02 20  LDA $2002 = FF                  A:00 X:FF Y:00 P:26 SP:FF PPU:155,230 CYC:26202
C656  29 80     AND #$80                        A:10 X:FF Y:00 P:24 SP:FF PPU:167,230 CYC:26206
C658  F0 F9     BEQ $C653                       A:00 X:FF Y:00 P:26 SP:FF PPU:173,230 CYC:26208
C653  AD 02 20  LDA $2002 = FF                  A:00 X:FF Y:00 P:26 SP:FF PPU:182,230 CYC:26211
C656  29 80     AND #$80                        A:10 X:FF Y:00 P:24 SP:FF PPU:194,230 CYC:26215
C658  F0 F9     BEQ $C653                       A:00 X:FF Y:00 P:26 SP:FF PPU:200,230 CYC:26217
C653  AD 02 20  LDA $2002 = FF                  A:00 X:FF Y:00 P:26 SP:FF PPU:209,230 CYC:26220
C656  29 80     AND #$80                        A:10 X:FF Y:00 P:24 SP:FF PPU:221,230 CYC:26224
C658  F0 F9     BEQ $C653                       A:00 X:FF Y:00 P:26 SP:FF PPU:227,230 CYC:26226
C653  AD 02 20  LDA $2002 = FF                  A:00 X:FF Y:00 P:26 SP:FF PPU:236,230 CYC:26229
C656  29 80     AND #$80                        A:10 X:FF Y:00 P:24 SP:FF PPU:248,230 CYC:26233
C658  F0 F9     BEQ $C653                       A:00 X:FF Y:00 P:26 SP:FF PPU:254,230 CYC:26235
C653  AD 02 20  LDA $2002 = FF                  A:00 X:FF Y:00 P:26 SP:FF PPU:263,230 CYC:26238
C656  29 80     AND #$80                        A:10 X:FF Y:00 P:24 SP:FF PPU:275,230 CYC:26242
C658  F0 F9     BEQ $C653                       A:00 X:FF Y:00 P:26 SP:FF PPU:281,230 CYC:26244
C653  AD 02 20  LDA $2002 = FF                  A:00 X:FF Y:00 P:26 SP:FF PPU:290,230 CYC:26247
C656  29 80     AND #$80                        A:10 X:FF Y:00 P:24 SP:FF PPU:302,230 CYC:26251
C658  F0 F9     BEQ $C653                       A:00 X:FF Y:00 P:26 SP:FF PPU:308,230 CYC:26253
C653  AD 02 20  LDA $2002 = FF                  A:00 X:FF Y:00 P:26 SP:FF PPU:317,230 CYC:26256
C656  29 80     AND #$80                        A:10 X:FF Y:00 P:24 SP:FF PPU:329,230 CYC:26260
C658  F0 F9     BEQ $C653                       A:00 X:FF Y:00 P:26 SP:FF PPU:335,230 CYC:26262
C653  AD 02 20  LDA $2002 = FF                  A:00 X:FF Y:00 P:26 SP:FF PPU:  3,231 CYC:26265
C656  29 80     AND #$80                        A:10 X:FF Y:00 P:24 SP:FF PPU: 15,231 CYC:26269
C658  F0 F9     BEQ $C653                       A:00 X:FF Y:00 P:26 SP:FF PPU: 21,231 CYC:26271
C653  AD 02 20  LDA $2002 = FF                  A:00 X:FF Y:00 P:26 SP:FF PPU: 30,231 CYC:26274
C656  29 80     AND #$80                        A:10 X:FF Y:00 P:24 SP:FF PPU: 42,231 CYC:26278
C658  F0 F9     BEQ $C653                       A:00 X:FF Y:00 P:26 SP:FF PPU: 48,231 CYC:26280
C653  AD 02 20  LDA $2002 = FF                  A:00 X:FF Y:00 P:26 SP:FF PPU: 57,231 CYC:26283
C656  29 80     AND #$80                        A:10 X:FF Y:00 P:24 SP:FF PPU: 69,231 CYC:26287
C658  F0 F9     BEQ $C653                       A:00 X:FF Y:00 P:26 SP:FF PPU: 75,231 CYC:26289
C653  AD 02 20  LDA $2002 = FF                  A:00 X:FF Y:00 P:26 SP:FF PPU: 84,231 CYC:26292
C656  29 80     AND #$80                        A:10 X:FF Y:00 P:24 SP:FF PPU: 96,231 CYC:26296
C658  F0 F9     BEQ $C653                       A:00 X:FF Y:00 P:26 SP:FF PPU:102,231 CYC:26298
C653  AD 02 20  LDA $2002 = FF                  A:00 X:FF Y:00 P:26 SP:FF PPU:111,231 CYC:26301
C656  29 80     AND #$80                        A:10 X:FF Y:00 P:24 SP:FF PPU:123,231 CYC:26305
C658  F0 F9     BEQ $C653                       A:00 X:FF Y:00 P:26 SP:FF PPU:129,231 CYC:26307
C653  AD 02 20  LDA $2002 = FF                  A:00 X:FF Y:00 P:26 SP:FF PPU:138,231 CYC:26310
C656  29 80     AND #$80                        A:10 X:FF Y:00 P:24 SP:FF PPU:150,231 CYC:26314
C658  F0 F9     BEQ $C653                       A:00 X:FF Y:00 P:26 SP:FF PPU:156,231 CYC:26316
C653  AD 02 20  LDA $2002 = FF                  A:00 X:FF Y:00 P:26 SP:FF PPU:165,231 CYC:26319
C656  29 80     AND #$80                        A:10 X:FF Y:00 P:24 SP:FF PPU:177,231 CYC:26323
C658  F0 F9     BEQ $C653                       A:00 X:FF Y:00 P:26 SP:FF PPU:183,231 CYC:26325
C653  AD 02 20  LDA $2002 = FF                  A:00 X:FF Y:00 P:26 SP:FF PPU:192,231 CYC:26328
C656  29 80     AND #$80                        A:10 X:FF Y:00 P:24 SP:FF PPU:204,231 CYC:26332
C658  F0 F9     BEQ $C653                       A:00 X:FF Y:00 P:26 SP:FF PPU:210,231 CYC:26334
C653  AD 02 20  LDA $2002 = FF                  A:00 X:FF Y:00 P:26 SP:FF PPU:219,231 CYC:26337
C656  29 80     AND #$80                        A:10 X:FF Y:00 P:24 SP:FF PPU:231,231 CYC:26341
C658  F0 F9     BEQ $C653                       A:00 X:FF Y:00 P:26 SP:FF PPU:237,231 CYC:26343
C653  AD 02 20  LDA $2002 = FF                  A:00 X:FF Y:00 P:26 SP:FF PPU:246,231 CYC:26346
C656  29 80     AND #$80                        A:10 X:FF Y:00 P:24 SP:FF PPU:258,231 CYC:26350
C658  F0 F9     BEQ $C653                       A:00 X:FF Y:00 P:26 SP:FF PPU:264,231 CYC:26352
C653  AD 02 20  LDA $2002 = FF                  A:00 X:FF Y:00 P:26 SP:FF PPU:273,231 CYC:26355
C656  29 80     AND #$80                        A:10 X:FF Y:00 P:24 SP:FF PPU:285,231 CYC:26359
C658  F0 F9     BEQ $C653                       A:00 X:FF Y:00 P:26 SP:FF PPU:291,231 CYC:26361
C653  AD 02 20  LDA $2002 = FF                  A:00 X:FF Y:00 P:26 SP:FF PPU:300,231 CYC:26364
C656  29 80     AND #$80                        A:10 X:FF Y:00 P:24 SP:FF PPU:312,231 CYC:26368
C658  F0 F9     BEQ $C653                       A:00 X:FF Y:00 P:26 SP:FF PPU:318,231 CYC:26370
C653  AD 02 20  LDA $2002 = FF                  A:00 X:FF Y:00 P:26 SP:FF PPU:327,231 CYC:26373
C656  29 80     AND #$80                        A:10 X:FF Y:00 P:24 SP:FF PPU:339,231 CYC:26377
C658  F0 F9     BEQ $C653                       A:00 X:FF Y:00 P:26 SP:FF PPU:  4,232 CYC:26379
C653  AD 02 20  LDA $2002 = FF                  A:00 X:FF Y:00 P:26 SP:FF PPU: 13,232 CYC:26382
C656  29 80     AND #$80                        A:10 X:FF Y:00 P:24 SP:FF PPU: 25,232 CYC:26386
C658  F0 F9     BEQ $C653                       A:00 X:FF Y:00 P:26 SP:FF PPU: 31,232 CYC:26388
C653  AD 02 20  LDA $2002 = FF                  A:00 X:FF Y:00 P:26 SP:FF PPU: 40,232 CYC:26391
C656  29 80     AND #$80                        A:10 X:FF Y:00 P:24 SP:FF PPU: 52,232 CYC:26395
C658  F0 F9     BEQ $C653                       A:00 X:FF Y:00 P:26 SP:FF PPU: 58,232 CYC:26397
C653  AD 02 20  LDA $2002 = FF                  A:00 X:FF Y:00 P:26 SP:FF PPU: 67,232 CYC:26400
C656  29 80     AND #$80                        A:10 X:FF Y:00 P:24 SP:FF PPU: 79,232 CYC:26404
C658  F0 F9     BEQ $C653                       A:00 X:FF Y:00 P:26 SP:FF PPU: 85,232 CYC:26406
C653  AD 02 20  LDA $2002 = FF                  A:00 X:FF Y:00 P:26 SP:FF PPU: 94,232 CYC:26409
C656  29 80     AND #$80                        A:10 X:FF Y:00 P:24 SP:FF PPU:106,232 CYC:26413
C658  F0 F9     BEQ $C653                       A:00 X:FF Y:00 P:26 SP:FF PPU:112,232 CYC:26415
C653  AD 02 20  LDA $2002 = FF                  A:00 X:FF Y:00 P:26 SP:FF PPU:121,232 CYC:26418
C656  29 80     AND #$80                        A:10 X:FF Y:00 P:24 SP:FF PPU:133,232 CYC:26422
C658  F0 F9     BEQ $C653                       A:00 X:FF Y:00 P:26 SP:FF PPU:139,232 CYC:26424
C653  AD 02 20  LDA $2002 = FF                  A:00 X:FF Y:00 P:26 SP:FF PPU:148,232 CYC:26427
C656  29 80     AND #$80                        A:10 X:FF Y:00 P:24 SP:FF PPU:160,232 CYC:26431
C658  F0 F9     BEQ $C653                       A:00 X:FF Y:00 P:26 SP:FF PPU:166,232 CYC:26433
C653  AD 02 20  LDA $2002 = FF                  A:00 X:FF Y:00 P:26 SP:FF PPU:175,232 CYC:26436
C656  29 80     AND #$80                        A:10 X:FF Y:00 P:24 SP:FF PPU:187,232 CYC:26440
C658  F0 F9     BEQ $C653                       A:00 X:FF Y:00 P:26 SP:FF PPU:193,232 CYC:26442
C653  AD 02 20  LDA $2002 = FF                  A:00 X:FF Y:00 P:26 SP:FF PPU:202,232 CYC:26445
C656  29 80     AND #$80                        A:10 X:FF Y:00 P:24 SP:FF PPU:214,232 CYC:26449
C658  F0 F9     BEQ $C653                       A:00 X:FF Y:00 P:26 SP:FF PPU:220,232 CYC:26451
C653  AD 02 20  LDA $2002 = FF                  A:00 X:FF Y:00 P:26 SP:FF PPU:229,232 CYC:26454
C656  29 80     AND #$80                        A:10 X:FF Y:00 P:24 SP:FF PPU:241,232 CYC:26458
C658  F0 F9     BEQ $C653                       A:00 X:FF Y:00 P:26 SP:FF PPU:247,232 CYC:26460
C653  AD 02 20  LDA $2002 = FF                  A:00 X:FF Y:00 P:26 SP:FF PPU:256,232 CYC:26463
C656  29 80     AND #$80                        A:10 X:FF Y:00 P:24 SP:FF PPU:268,232 CYC:26467
C658  F0 F9     BEQ $C653                       A:00 X:FF Y:00 P:26 SP:FF PPU:274,232 CYC:26469
C653  AD 02 20  LDA $2002 = FF                  A:00 X:FF Y:00 P:26 SP:FF PPU:283,232 CYC:26472
C656  29 80     AND #$80                        A:10 X:FF Y:00 P:24 SP:FF PPU:295,232 CYC:26476
C658  F0 F9     BEQ $C653                       A:00 X:FF Y:00 P:26 SP:FF PPU:301,232 CYC:26478
C653  AD 02 20  LDA $2002 = FF                  A:00 X:FF Y:00 P:26 SP:FF PPU:310,232 CYC:26481
C656  29 80     AND #$80                        A:10 X:FF Y:00 P:24 SP:FF PPU:322,232 CYC:26485
C658  F0 F9     BEQ $C653                       A:00 X:FF Y:00 P:26 SP:FF PPU:328,232 CYC:26487
C653  AD 02 20  LDA $2002 = FF                  A:00 X:FF Y:00 P:26 SP:FF PPU:337,232 CYC:26490
C656  29 80     AND #$80                        A:10 X:FF Y:00 P:24 SP:FF PPU:  8,233 CYC:26494
C658  F0 F9     BEQ $C653                       A:00 X:FF Y:00 P:26 SP:FF PPU: 14,233 CYC:26496
C653  AD 02 20  LDA $2002 = FF                  A:00 X:FF Y:00 P:26 SP:FF PPU: 23,233 CYC:26499
C656  29 80     AND #$80                        A:10 X:FF Y:00 P:24 SP:FF PPU: 35,233 CYC:26503
C658  F0 F9     BEQ $C653                       A:00 X:FF Y:00 P:26 SP:FF PPU: 41,233 CYC:26505
C653  AD 02 20  LDA $2002 = FF                  A:00 X:FF Y:00 P:26 SP:FF PPU: 50,233 CYC:26508
C656  29 80     AND #$80                        A:10 X:FF Y:00 P:24 SP:FF PPU: 62,233 CYC:26512
C658  F0 F9     BEQ $C653                       A:00 X:FF Y:00 P:26 SP:FF PPU: 68,233 CYC:26514
C653  AD 02 20  LDA $2002 = FF                  A:00 X:FF Y:00 P:26 SP:FF PPU: 77,233 CYC:26517
C656  29 80     AND #$80                        A:10 X:FF Y:00 P:24 SP:FF PPU: 89,233 CYC:26521
C658  F0 F9     BEQ $C653                       A:00 X:FF Y:00 P:26 SP:FF PPU: 95,233 CYC:26523
C653  AD 02 20  LDA $2002 = FF                  A:00 X:FF Y:00 P:26 SP:FF PPU:104,233 CYC:26526
C656  29 80     AND #$80                        A:10 X:FF Y:00 P:24 SP:FF PPU:116,233 CYC:26530
C658  F0 F9     BEQ $C653                       A:00 X:FF Y:00 P:26 SP:FF PPU:122,233 CYC:26532
C653  AD 02 20  LDA $2002 = FF                  A:00 X:FF Y:00 P:26 SP:FF PPU:131,233 CYC:26535
C656  29 80     AND #$80                        A:10 X:FF Y:00 P:24 SP:FF PPU:143,233 CYC:26539
C658  F0 F9     BEQ $C653                       A:00 X:FF Y:00 P:26 SP:FF PPU:149,233 CYC:26541
C653  AD 02 20  LDA $2002 = FF                  A:00 X:FF Y:00 P:26 SP:FF PPU:158,233 CYC:26544
C656  29 80     AND #$80                        A:10 X:FF Y:00 P:24 SP:FF PPU:170,233 CYC:26548
C658  F0 F9     BEQ $C653                       A:00 X:FF Y:00 P:26 SP:FF PPU:176,233 CYC:26550
C653  AD 02 20  LDA $2002 = FF                  A:00 X:FF Y:00 P:26 SP:FF PPU:185,233 CYC:26553
C656  29 80     AND #$80                        A:10 X:FF Y:00 P:24 SP:FF PPU:197,233 CYC:26557
C658  F0 F9     BEQ $C653                       A:00 X:FF Y:00 P:26 SP:FF PPU:203,233 CYC:26559
C653  AD 02 20  LDA $2002 = FF                  A:00 X:FF Y:00 P:26 SP:FF PPU:212,233 CYC:26562
C656  29 80     AND #$80                        A:10 X:FF Y:00 P:24 SP:FF PPU:224,233 CYC:26566
C658  F0 F9     BEQ $C653                       A:00 X:FF Y:00 P:26 SP:FF PPU:230,233 CYC:26568
C653  AD 02 20  LDA $2002 = FF                  A:00 X:FF Y:00 P:26 SP:FF PPU:239,233 CYC:26571
C656  29 80     AND #$80                        A:10 X:FF Y:00 P:24 SP:FF PPU:251,233 CYC:26575
C658  F0 F9     BEQ $C653                       A:00 X:FF Y:00 P:26 SP:FF PPU:257,233 CYC:26577
C653  AD 02 20  LDA $2002 = FF                  A:00 X:FF Y:00 P:26 SP:FF PPU:266,233 CYC:26580
C656  29 80     AND #$80                        A:10 X:FF Y:00 P:24 SP:FF PPU:278,233 CYC:26584
C658  F0 F9     BEQ $C653                       A:00 X:FF Y:00 P:26 SP:FF PPU:284,233 CYC:26586
C653  AD 02 20  LDA $2002 = FF                  A:00 X:FF Y:00 P:26 SP:FF PPU:293,233 CYC:26589
C656  29 80     AND #$80                        A:10 X:FF Y:00 P:24 SP:FF PPU:305,233 CYC:26593
C658  F0 F9     BEQ $C653                       A:00 X:FF Y:00 P:26 SP:FF PPU:311,233 CYC:26595
C653  AD 02 20  LDA $2002 = FF                  A:00 X:FF Y:00 P:26 SP:FF PPU:320,233 CYC:26598
C656  29 80     AND #$80                        A:10 X:FF Y:00 P:24 SP:FF PPU:332,233 CYC:26602
C658  F0 F9     BEQ $C653                       A:00 X:FF Y:00 P:26 SP:FF PPU:338,233 CYC:26604
C653  AD 02 20  LDA $2002 = FF                  A:00 X:FF Y:00 P:26 SP:FF PPU:  6,234 CYC:26607
C656  29 80     AND #$80                        A:10 X:FF Y:00 P:24 SP:FF PPU: 18,234 CYC:26611
C658  F0 F9     BEQ $C653                       A:00 X:FF Y:00 P:26 SP:FF PPU: 24,234 CYC:26613
C653  AD 02 20  LDA $2002 = FF                  A:00 X:FF Y:00 P:26 SP:FF PPU: 33,234 CYC:26616
C656  29 80     AND #$80                        A:10 X:FF Y:00 P:24 SP:FF PPU: 45,234 CYC:26620
C658  F0 F9     BEQ $C653                       A:00 X:FF Y:00 P:26 SP:FF PPU: 51,234 CYC:26622
C653  AD 02 20  LDA $2002 = FF                  A:00 X:FF Y:00 P:26 SP:FF PPU: 60,234 CYC:26625
C656  29 80     AND #$80                        A:10 X:FF Y:00 P:24 SP:FF PPU: 72,234 CYC:26629
C658  F0 F9     BEQ $C653                       A:00 X:FF Y:00 P:26 SP:FF PPU: 78,234 CYC:26631
C653  AD 02 20  LDA $2002 = FF                  A:00 X:FF Y:00 P:26 SP:FF PPU: 87,234 CYC:26634
C656  29 80     AND #$80                        A:10 X:FF Y:00 P:24 SP:FF PPU: 99,234 CYC:26638
C658  F0 F9     BEQ $C653                       A:00 X:FF Y:00 P:26 SP:FF PPU:105,234 CYC:26640
C653  AD 02 20  LDA $2002 = FF                  A:00 X:FF Y:00 P:26 SP:FF PPU:114,234 CYC:26643
C656  29 80     AND #$80                        A:10 X:FF Y:00 P:24 SP:FF PPU:126,234 CYC:26647
C658  F0 F9     BEQ $C653                       A:00 X:FF Y:00 P:26 SP:FF PPU:132,234 CYC:26649
C653  AD 02 20  LDA $2002 = FF                  A:00 X:FF Y:00 P:26 SP:FF PPU:141,234 CYC:26652
C656  29 80     AND #$80                        A:10 X:FF Y:00 P:24 SP:FF PPU:153,234 CYC:26656
C658  F0 F9     BEQ $C653                       A:00 X:FF Y:00 P:26 SP:FF PPU:159,234 CYC:26658
C653  AD 02 20  LDA $2002 = FF                  A:00 X:FF Y:00 P:26 SP:FF PPU:168,234 CYC:26661
C656  29 80     AND #$80                        A:10 X:FF Y:00 P:24 SP:FF PPU:180,234 CYC:26665
C658  F0 F9     BEQ $C653                       A:00 X:FF Y:00 P:26 SP:FF PPU:186,234 CYC:26667
C653  AD 02 20  LDA $2002 = FF                  A:00 X:FF Y:00 P:26 SP:FF PPU:195,234 CYC:26670
C656  29 80     AND #$80                        A:10 X:FF Y:00 P:24 SP:FF PPU:207,234 CYC:26674
C658  F0 F9     BEQ $C653                       A:00 X:FF Y:00 P:26 SP:FF PPU:213,234 CYC:26676
C653  AD 02 20  LDA $2002 = FF                  A:00 X:FF Y:00 P:26 SP:FF PPU:222,234 CYC:26679
C656  29 80     AND #$80                        A:10 X:FF Y:00 P:24 SP:FF PPU:234,234 CYC:26683
C658  F0 F9     BEQ $C653                       A:00 X:FF Y:00 P:26 SP:FF PPU:240,234 CYC:26685
C653  AD 02 20  LDA $2002 = FF                  A:00 X:FF Y:00 P:26 SP:FF PPU:249,234 CYC:26688
C656  29 80     AND #$80                        A:10 X:FF Y:00 P:24 SP:FF PPU:261,234 CYC:26692
C658  F0 F9     BEQ $C653                       A:00 X:FF Y:00 P:26 SP:FF PPU:267,234 CYC:26694
C653  AD 02 20  LDA $2002 = FF                  A:00 X:FF Y:00 P:26 SP:FF PPU:276,234 CYC:26697
C656  29 80     AND #$80                        A:10 X:FF Y:00 P:24 SP:FF PPU:288,234 CYC:26701
C658  F0 F9     BEQ $C653                       A:00 X:FF Y:00 P:26 SP:FF PPU:294,234 CYC:26703
C653  AD 02 20  LDA $2002 = FF                  A:00 X:FF Y:00 P:26 SP:FF PPU:303,234 CYC:26706
C656  29 80     AND #$80                        A:10 X:FF Y:00 P:24 SP:FF PPU:315,234 CYC:26710
C658  F0 F9     BEQ $C653                       A:00 X:FF Y:00 P:26 SP:FF PPU:321,234 CYC:26712
C653  AD 02 20  LDA $2002 = FF                  A:00 X:FF Y:00 P:26 SP:FF PPU:330,234 CYC:26715
C656  29 80     AND #$80                        A:10 X:FF Y:00 P:24 SP:FF PPU:  1,235 CYC:26719
C658  F0 F9     BEQ $C653                       A:00 X:FF Y:00 P:26 SP:FF PPU:  7,235 CYC:26721
C653  AD 02 20  LDA $2002 = FF                  A:00 X:FF Y:00 P:26 SP:FF PPU: 16,235 CYC:26724
C656  29 80     AND #$80                        A:10 X:FF Y:00 P:24 SP:FF PPU: 28,235 CYC:26728
C658  F0 F9     BEQ $C653                       A:00 X:FF Y:00 P:26 SP:FF PPU: 34,235 CYC:26730
C653  AD 02 20  LDA $2002 = FF                  A:00 X:FF Y:00 P:26 SP:FF PPU: 43,235 CYC:26733
C656  29 80     AND #$80                        A:10 X:FF Y:00 P:24 SP:FF PPU: 55,235 CYC:26737
C658  F0 F9     BEQ $C653                       A:00 X:FF Y:00 P:26 SP:FF PPU: 61,235 CYC:26739
C653  AD 02 20  LDA $2002 = FF                  A:00 X:FF Y:00 P:26 SP:FF PPU: 70,235 CYC:26742
C656  29 80     AND #$80                        A:10 X:FF Y:00 P:24 SP:FF PPU: 82,235 CYC:26746
C658  F0 F9     BEQ $C653                       A:00 X:FF Y:00 P:26 SP:FF PPU: 88,235 CYC:26748
C653  AD 02 20  LDA $2002 = FF                  A:00 X:FF Y:00 P:26 SP:FF PPU: 97,235 CYC:26751
C656  29 80     AND #$80                        A:10 X:FF Y:00 P:24 SP:FF PPU:109,235 CYC:26755
C658  F0 F9     BEQ $C653                       A:00 X:FF Y:00 P:26 SP:FF PPU:115,235 CYC:26757
C653  AD 02 20  LDA $2002 = FF                  A:00 X:FF Y:00 P:26 SP:FF PPU:124,235 CYC:26760
C656  29 80     AND #$80                        A:10 X:FF Y:00 P:24 SP:FF PPU:136,235 CYC:26764
C658  F0 F9     BEQ $C653                       A:00 X:FF Y:00 P:26 SP:FF PPU:142,235 CYC:26766
C653  AD 02 20  LDA $2002 = FF                  A:00 X:FF Y:00 P:26 SP:FF PPU:151,235 CYC:26769
C656  29 80     AND #$80                        A:10 X:FF Y:00 P:24 SP:FF PPU:163,235 CYC:26773
C658  F0 F9     BEQ $C653                       A:00 X:FF Y:00 P:26 SP:FF PPU:169,235 CYC:26775
C653  AD 02 20  LDA $2002 = FF                  A:00 X:FF Y:00 P:26 SP:FF PPU:178,235 CYC:26778
C656  29 80     AND #$80                        A:10 X:FF Y:00 P:24 SP:FF PPU:190,235 CYC:26782
C658  F0 F9     BEQ $C653                       A:00 X:FF Y:00 P:26 SP:FF PPU:196,235 CYC:26784
C653  AD 02 20  LDA $2002 = FF                  A:00 X:FF Y:00 P:26 SP:FF PPU:205,235 CYC:26787
C656  29 80     AND #$80                        A:10 X:FF Y:00 P:24 SP:FF PPU:217,235 CYC:26791
C658  F0 F9     BEQ $C653                       A:00 X:FF Y:00 P:26 SP:FF PPU:223,235 CYC:26793
C653  AD 02 20  LDA $2002 = FF                  A:00 X:FF Y:00 P:26 SP:FF PPU:232,235 CYC:26796
C656  29 80     AND #$80                        A:10 X:FF Y:00 P:24 SP:FF PPU:244,235 CYC:26800
C658  F0 F9     BEQ $C653                       A:00 X:FF Y:00 P:26 SP:FF PPU:250,235 CYC:26802
C653  AD 02 20  LDA $2002 = FF                  A:00 X:FF Y:00 P:26 SP:FF PPU:259,235 CYC:26805
C656  29 80     AND #$80                        A:10 X:FF Y:00 P:24 SP:FF PPU:271,235 CYC:26809
C658  F0 F9     BEQ $C653                       A:00 X:FF Y:00 P:26 SP:FF PPU:277,235 CYC:26811
C653  AD 02 20  LDA $2002 = FF                  A:00 X:FF Y:00 P:26 SP:FF PPU:286,235 CYC:26814
C656  29 80     AND #$80                        A:10 X:FF Y:00 P:24 SP:FF PPU:298,235 CYC:26818
C658  F0 F9     BEQ $C653                       A:00 X:FF Y:00 P:26 SP:FF PPU:304,235 CYC:26820
C653  AD 02 20  LDA $2002 = FF                  A:00 X:FF Y:00 P:26 SP:FF PPU:313,235 CYC:26823
C656  29 80     AND #$80                        A:10 X:FF Y:00 P:24 SP:FF PPU:325,235 CYC:26827
C658  F0 F9     BEQ $C653                       A:00 X:FF Y:00 P:26 SP:FF PPU:331,235 CYC:26829
C653  AD 02 20  LDA $2002 = FF                  A:00 X:FF Y:00 P:26 SP:FF PPU:340,235 CYC:26832
C656  29 80     AND #$80                        A:10 X:FF Y:00 P:24 SP:FF PPU: 11,236 CYC:26836
C658  F0 F9     BEQ $C653                       A:00 X:FF Y:00 P:26 SP:FF PPU: 17,236 CYC:26838
C653  AD 02 20  LDA $2002 = FF                  A:00 X:FF Y:00 P:26 SP:FF PPU: 26,236 CYC:26841
C656  29 80     AND #$80                        A:10 X:FF Y:00 P:24 SP:FF PPU: 38,236 CYC:26845
C658  F0 F9     BEQ $C653                       A:00 X:FF Y:00 P:26 SP:FF PPU: 44,236 CYC:26847
C653  AD 02 20  LDA $2002 = FF                  A:00 X:FF Y:00 P:26 SP:FF PPU: 53,236 CYC:26850
C656  29 80     AND #$80                        A:10 X:FF Y:00 P:24 SP:FF PPU: 65,236 CYC:26854
C658  F0 F9     BEQ $C653                       A:00 X:FF Y:00 P:26 SP:FF PPU: 71,236 CYC:26856
C653  AD 02 20  LDA $2002 = FF                  A:00 X:FF Y:00 P:26 SP:FF PPU: 80,236 CYC:26859
C656  29 80     AND #$80                        A:10 X:FF Y:00 P:24 SP:FF PPU: 92,236 CYC:26863
C658  F0 F9     BEQ $C653                       A:00 X:FF Y:00 P:26 SP:FF PPU: 98,236 CYC:26865
C653  AD 02 20  LDA $2002 = FF                  A:00 X:FF Y:00 P:26 SP:FF PPU:107,236 CYC:26868
C656  29 80     AND #$80                        A:10 X:FF Y:00 P:24 SP:FF PPU:119,236 CYC:26872
C658  F0 F9     BEQ $C653                       A:00 X:FF Y:00 P:26 SP:FF PPU:125,236 CYC:26874
C653  AD 02 20  LDA $2002 = FF                  A:00 X:FF Y:00 P:26 SP:FF PPU:134,236 CYC:26877
C656  29 80     AND #$80                        A:10 X:FF Y:00 P:24 SP:FF PPU:146,236 CYC:26881
C658  F0 F9     BEQ $C653                       A:00 X:FF Y:00 P:26 SP:FF PPU:152,236 CYC:26883
C653  AD 02 20  LDA $2002 = FF                  A:00 X:FF Y:00 P:26 SP:FF PPU:161,236 CYC:26886
C656  29 80     AND #$80                        A:10 X:FF Y:00 P:24 SP:FF PPU:173,236 CYC:26890
C658  F0 F9     BEQ $C653                       A:00 X:FF Y:00 P:26 SP:FF PPU:179,236 CYC:26892
C653  AD 02 20  LDA $2002 = FF                  A:00 X:FF Y:00 P:26 SP:FF PPU:188,236 CYC:26895
C656  29 80     AND #$80                        A:10 X:FF Y:00 P:24 SP:FF PPU:200,236 CYC:26899
C658  F0 F9     BEQ $C653                       A:00 X:FF Y:00 P:26 SP:FF PPU:206,236 CYC:26901
C653  AD 02 20  LDA $2002 = FF                  A:00 X:FF Y:00 P:26 SP:FF PPU:215,236 CYC:26904
C656  29 80     AND #$80                        A:10 X:FF Y:00 P:24 SP:FF PPU:227,236 CYC:26908
C658  F0 F9     BEQ $C653                       A:00 X:FF Y:00 P:26 SP:FF PPU:233,236 CYC:26910
C653  AD 02 20  LDA $2002 = FF                  A:00 X:FF Y:00 P:26 SP:FF PPU:242,236 CYC:26913
C656  29 80     AND #$80                        A:10 X:FF Y:00 P:24 SP:FF PPU:254,236 CYC:26917
C658  F0 F9     BEQ $C653                       A:00 X:FF Y:00 P:26 SP:FF PPU:260,236 CYC:26919
C653  AD 02 20  LDA $2002 = FF                  A:00 X:FF Y:00 P:26 SP:FF PPU:269,236 CYC:26922
C656  29 80     AND #$80                        A:10 X:FF Y:00 P:24 SP:FF PPU:281,236 CYC:26926
C658  F0 F9     BEQ $C653                       A:00 X:FF Y:00 P:26 SP:FF PPU:287,236 CYC:26928
C653  AD 02 20  LDA $2002 = FF                  A:00 X:FF Y:00 P:26 SP:FF PPU:296,236 CYC:26931
C656  29 80     AND #$80                        A:10 X:FF Y:00 P:24 SP:FF PPU:308,236 CYC:26935
C658  F0 F9     BEQ $C653                       A:00 X:FF Y:00 P:26 SP:FF PPU:314,236 CYC:26937
C653  AD 02 20  LDA $2002 = FF                  A:00 X:FF Y:00 P:26 SP:FF PPU:323,236 CYC:26940
C656  29 80     AND #$80                        A:10 X:FF Y:00 P:24 SP:FF PPU:335,236 CYC:26944
C658  F0 F9     BEQ $C653                       A:00 X:FF Y:00 P:26 SP:FF PPU:  0,237 CYC:26946
C653  AD 02 20  LDA $2002 = FF                  A:00 X:FF Y:00 P:26 SP:FF PPU:  9,237 CYC:26949
C656  29 80     AND #$80                        A:10 X:FF Y:00 P:24 SP:FF PPU: 21,237 CYC:26953
C658  F0 F9     BEQ $C653                       A:00 X:FF Y:00 P:26 SP:FF PPU: 27,237 CYC:26955
C653  AD 02 20  LDA $2002 = FF                  A:00 X:FF Y:00 P:26 SP:FF PPU: 36,237 CYC:26958
C656  29 80     AND #$80                        A:10 X:FF Y:00 P:24 SP:FF PPU: 48,237 CYC:26962
C658  F0 F9     BEQ $C653                       A:00 X:FF Y:00 P:26 SP:FF PPU: 54,237 CYC:26964
C653  AD 02 20  LDA $2002 = FF                  A:00 X:FF Y:00 P:26 SP:FF PPU: 63,237 CYC:26967
C656  29 80     AND #$80                        A:10 X:FF Y:00 P:24 SP:FF PPU: 75,237 CYC:26971
C658  F0 F9     BEQ $C653                       A:00 X:FF Y:00 P:26 SP:FF PPU: 81,237 CYC:26973
C653  AD 02 20  LDA $2002 = FF                  A:00 X:FF Y:00 P:26 SP:FF PPU: 90,237 CYC:26976
C656  29 80     AND #$80                        A:10 X:FF Y:00 P:24 SP:FF PPU:102,237 CYC:26980
C658  F0 F9     BEQ $C653                       A:00 X:FF Y:00 P:26 SP:FF PPU:108,237 CYC:26982
C653  AD 02 20  LDA $2002 = FF                  A:00 X:FF Y:00 P:26 SP:FF PPU:117,237 CYC:26985
C656  29 80     AND #$80                        A:10 X:FF Y:00 P:24 SP:FF PPU:129,237 CYC:26989
C658  F0 F9     BEQ $C653                       A:00 X:FF Y:00 P:26 SP:FF PPU:135,237 CYC:26991
C653  AD 02 20  LDA $2002 = FF                  A:00 X:FF Y:00 P:26 SP:FF PPU:144,237 CYC:26994
C656  29 80     AND #$80                        A:10 X:FF Y:00 P:24 SP:FF PPU:156,237 CYC:26998
C658  F0 F9     BEQ $C653                       A:00 X:FF Y:00 P:26 SP:FF PPU:162,237 CYC:27000
C653  AD 02 20  LDA $2002 = FF                  A:00 X:FF Y:00 P:26 SP:FF PPU:171,237 CYC:27003
C656  29 80     AND #$80                        A:10 X:FF Y:00 P:24 SP:FF PPU:183,237 CYC:27007
C658  F0 F9     BEQ $C653                       A:00 X:FF Y:00 P:26 SP:FF PPU:189,237 CYC:27009
C653  AD 02 20  LDA $2002 = FF                  A:00 X:FF Y:00 P:26 SP:FF PPU:198,237 CYC:27012
C656  29 80     AND #$80                        A:10 X:FF Y:00 P:24 SP:FF PPU:210,237 CYC:27016
C658  F0 F9     BEQ $C653                       A:00 X:FF Y:00 P:26 SP:FF PPU:216,237 CYC:27018
C653  AD 02 20  LDA $2002 = FF                  A:00 X:FF Y:00 P:26 SP:FF PPU:225,237 CYC:27021
C656  29 80     AND #$80                        A:10 X:FF Y:00 P:24 SP:FF PPU:237,237 CYC:27025
C658  F0 F9     BEQ $C653                       A:00 X:FF Y:00 P:26 SP:FF PPU:243,237 CYC:27027
C653  AD 02 20  LDA $2002 = FF                  A:00 X:FF Y:00 P:26 SP:FF PPU:252,237 CYC:27030
C656  29 80     AND #$80                        A:10 X:FF Y:00 P:24 SP:FF PPU:264,237 CYC:27034
C658  F0 F9     BEQ $C653                       A:00 X:FF Y:00 P:26 SP:FF PPU:270,237 CYC:27036
C653  AD 02 20  LDA $2002 = FF                  A:00 X:FF Y:00 P:26 SP:FF PPU:279,237 CYC:27039
C656  29 80     AND #$80                        A:10 X:FF Y:00 P:24 SP:FF PPU:291,237 CYC:27043
C658  F0 F9     BEQ $C653                       A:00 X:FF Y:00 P:26 SP:FF PPU:297,237 CYC:27045
C653  AD 02 20  LDA $2002 = FF                  A:00 X:FF Y:00 P:26 SP:FF PPU:306,237 CYC:27048
C656  29 80     AND #$80                        A:10 X:FF Y:00 P:24 SP:FF PPU:318,237 CYC:27052
C658  F0 F9     BEQ $C653                       A:00 X:FF Y:00 P:26 SP:FF PPU:324,237 CYC:27054
C653  AD 02 20  LDA $2002 = FF                  A:00 X:FF Y:00 P:26 SP:FF PPU:333,237 CYC:27057
C656  29 80     AND #$80                        A:10 X:FF Y:00 P:24 SP:FF PPU:  4,238 CYC:27061
C658  F0 F9     BEQ $C653                       A:00 X:FF Y:00 P:26 SP:FF PPU: 10,238 CYC:27063
C653  AD 02 20  LDA $2002 = FF                  A:00 X:FF Y:00 P:26 SP:FF PPU: 19,238 CYC:27066
C656  29 80     AND #$80                        A:10 X:FF Y:00 P:24 SP:FF PPU: 31,238 CYC:27070
C658  F0 F9     BEQ $C653                       A:00 X:FF Y:00 P:26 SP:FF PPU: 37,238 CYC:27072
C653  AD 02 20  LDA $2002 = FF                  A:00 X:FF Y:00 P:26 SP:FF PPU: 46,238 CYC:27075
C656  29 80     AND #$80                        A:10 X:FF Y:00 P:24 SP:FF PPU: 58,238 CYC:27079
C658  F0 F9     BEQ $C653                       A:00 X:FF Y:00 P:26 SP:FF PPU: 64,238 CYC:27081
C653  AD 02 20  LDA $2002 = FF                  A:00 X:FF Y:00 P:26 SP:FF PPU: 73,238 CYC:27084
C656  29 80     AND #$80                        A:10 X:FF Y:00 P:24 SP:FF PPU: 85,238 CYC:27088
C658  F0 F9     BEQ $C653                       A:00 X:FF Y:00 P:26 SP:FF PPU: 91,238 CYC:27090
C653  AD 02 20  LDA $2002 = FF                  A:00 X:FF Y:00 P:26 SP:FF PPU:100,238 CYC:27093
C656  29 80     AND #$80                        A:10 X:FF Y:00 P:24 SP:FF PPU:112,238 CYC:27097
C658  F0 F9     BEQ $C653                       A:00 X:FF Y:00 P:26 SP:FF PPU:118,238 CYC:27099
C653  AD 02 20  LDA $2002 = FF                  A:00 X:FF Y:00 P:26 SP:FF PPU:127,238 CYC:27102
C656  29 80     AND #$80                        A:10 X:FF Y:00 P:24 SP:FF PPU:139,238 CYC:27106
C658  F0 F9     BEQ $C653                       A:00 X:FF Y:00 P:26 SP:FF PPU:145,238 CYC:27108
C653  AD 02 20  LDA $2002 = FF                  A:00 X:FF Y:00 P:26 SP:FF PPU:154,238 CYC:27111
C656  29 80     AND #$80                        A:10 X:FF Y:00 P:24 SP:FF PPU:166,238 CYC:27115
C658  F0 F9     BEQ $C653                       A:00 X:FF Y:00 P:26 SP:FF PPU:172,238 CYC:27117
C653  AD 02 20  LDA $2002 = FF                  A:00 X:FF Y:00 P:26 SP:FF PPU:181,238 CYC:27120
C656  29 80     AND #$80                        A:10 X:FF Y:00 P:24 SP:FF PPU:193,238 CYC:27124
C658  F0 F9     BEQ $C653                       A:00 X:FF Y:00 P:26 SP:FF PPU:199,238 CYC:27126
C653  AD 02 20  LDA $2002 = FF                  A:00 X:FF Y:00 P:26 SP:FF PPU:208,238 CYC:27129
C656  29 80     AND #$80                        A:10 X:FF Y:00 P:24 SP:FF PPU:220,238 CYC:27133
C658  F0 F9     BEQ $C653                       A:00 X:FF Y:00 P:26 SP:FF PPU:226,238 CYC:27135
C653  AD 02 20  LDA $2002 = FF                  A:00 X:FF Y:00 P:26 SP:FF PPU:235,238 CYC:27138
C656  29 80     AND #$80                        A:10 X:FF Y:00 P:24 SP:FF PPU:247,238 CYC:27142
C658  F0 F9     BEQ $C653                       A:00 X:FF Y:00 P:26 SP:FF PPU:253,238 CYC:27144
C653  AD 02 20  LDA $2002 = FF                  A:00 X:FF Y:00 P:26 SP:FF PPU:262,238 CYC:27147
C656  29 80     AND #$80                        A:10 X:FF Y:00 P:24 SP:FF PPU:274,238 CYC:27151
C658  F0 F9     BEQ $C653                       A:00 X:FF Y:00 P:26 SP:FF PPU:280,238 CYC:27153
C653  AD 02 20  LDA $2002 = FF                  A:00 X:FF Y:00 P:26 SP:FF PPU:289,238 CYC:27156
C656  29 80     AND #$80                        A:10 X:FF Y:00 P:24 SP:FF PPU:301,238 CYC:27160
C658  F0 F9     BEQ $C653                       A:00 X:FF Y:00 P:26 SP:FF PPU:307,238 CYC:27162
C653  AD 02 20  LDA $2002 = FF                  A:00 X:FF Y:00 P:26 SP:FF PPU:316,238 CYC:27165
C656  29 80     AND #$80                        A:10 X:FF Y:00 P:24 SP:FF PPU:328,238 CYC:27169
C658  F0 F9     BEQ $C653                       A:00 X:FF Y:00 P:26 SP:FF PPU:334,238 CYC:27171
C653  AD 02 20  LDA $2002 = FF                  A:00 X:FF Y:00 P:26 SP:FF PPU:  2,239 CYC:27174
C656  29 80     AND #$80                        A:10 X:FF Y:00 P:24 SP:FF PPU: 14,239 CYC:27178
C658  F0 F9     BEQ $C653                       A:00 X:FF Y:00 P:26 SP:FF PPU: 20,239 CYC:27180
C653  AD 02 20  LDA $2002 = FF                  A:00 X:FF Y:00 P:26 SP:FF PPU: 29,239 CYC:27183
C656  29 80     AND #$80                        A:10 X:FF Y:00 P:24 SP:FF PPU: 41,239 CYC:27187
C658  F0 F9     BEQ $C653                       A:00 X:FF Y:00 P:26 SP:FF PPU: 47,239 CYC:27189
C653  AD 02 20  LDA $2002 = FF                  A:00 X:FF Y:00 P:26 SP:FF PPU: 56,239 CYC:27192
C656  29 80     AND #$80                        A:10 X:FF Y:00 P:24 SP:FF PPU: 68,239 CYC:27196
C658  F0 F9     BEQ $C653                       A:00 X:FF Y:00 P:26 SP:FF PPU: 74,239 CYC:27198
C653  AD 02 20  LDA $2002 = FF                  A:00 X:FF Y:00 P:26 SP:FF PPU: 83,239 CYC:27201
C656  29 80     AND #$80                        A:10 X:FF Y:00 P:24 SP:FF PPU: 95,239 CYC:27205
C658  F0 F9     BEQ $C653                       A:00 X:FF Y:00 P:26 SP:FF PPU:101,239 CYC:27207
C653  AD 02 20  LDA $2002 = FF                  A:00 X:FF Y:00 P:26 SP:FF PPU:110,239 CYC:27210
C656  29 80     AND #$80                        A:10 X:FF Y:00 P:24 SP:FF PPU:122,239 CYC:27214
C658  F0 F9     BEQ $C653                       A:00 X:FF Y:00 P:26 SP:FF PPU:128,239 CYC:27216
C653  AD 02 20  LDA $2002 = FF                  A:00 X:FF Y:00 P:26 SP:FF PPU:137,239 CYC:27219
C656  29 80     AND #$80                        A:10 X:FF Y:00 P:24 SP:FF PPU:149,239 CYC:27223
C658  F0 F9     BEQ $C653                       A:00 X:FF Y:00 P:26 SP:FF PPU:155,239 CYC:27225
C653  AD 02 20  LDA $2002 = FF                  A:00 X:FF Y:00 P:26 SP:FF PPU:164,239 CYC:27228
C656  29 80     AND #$80                        A:10 X:FF Y:00 P:24 SP:FF PPU:176,239 CYC:27232
C658  F0 F9     BEQ $C653                       A:00 X:FF Y:00 P:26 SP:FF PPU:182,239 CYC:27234
C653  AD 02 20  LDA $2002 = FF                  A:00 X:FF Y:00 P:26 SP:FF PPU:191,239 CYC:27237
C656  29 80     AND #$80                        A:10 X:FF Y:00 P:24 SP:FF PPU:203,239 CYC:27241
C658  F0 F9     BEQ $C653                       A:00 X:FF Y:00 P:26 SP:FF PPU:209,239 CYC:27243
C653  AD 02 20  LDA $2002 = FF                  A:00 X:FF Y:00 P:26 SP:FF PPU:218,239 CYC:27246
C656  29 80     AND #$80                        A:10 X:FF Y:00 P:24 SP:FF PPU:230,239 CYC:27250
C658  F0 F9     BEQ $C653                       A:00 X:FF Y:00 P:26 SP:FF PPU:236,239 CYC:27252
C653  AD 02 20  LDA $2002 = FF                  A:00 X:FF Y:00 P:26 SP:FF PPU:245,239 CYC:27255
C656  29 80     AND #$80                        A:10 X:FF Y:00 P:24 SP:FF PPU:257,239 CYC:27259
C658  F0 F9     BEQ $C653                       A:00 X:FF Y:00 P:26 SP:FF PPU:263,239 CYC:27261
C653  AD 02 20  LDA $2002 = FF                  A:00 X:FF Y:00 P:26 SP:FF PPU:272,239 CYC:27264
C656  29 80     AND #$80                        A:10 X:FF Y:00 P:24 SP:FF PPU:284,239 CYC:27268
C658  F0 F9     BEQ $C653                       A:00 X:FF Y:00 P:26 SP:FF PPU:290,239 CYC:27270
C653  AD 02 20  LDA $2002 = FF                  A:00 X:FF Y:00 P:26 SP:FF PPU:299,239 CYC:27273
C656  29 80     AND #$80                        A:10 X:FF Y:00 P:24 SP:FF PPU:311,239 CYC:27277
C658  F0 F9     BEQ $C653                       A:00 X:FF Y:00 P:26 SP:FF PPU:317,239 CYC:27279
C653  AD 02 20  LDA $2002 = FF                  A:00 X:FF Y:00 P:26 SP:FF PPU:326,239 CYC:27282
C656  29 80     AND #$80                        A:10 X:FF Y:00 P:24 SP:FF PPU:338,239 CYC:27286
C658  F0 F9     BEQ $C653                       A:00 X:FF Y:00 P:26 SP:FF PPU:  3,240 CYC:27288
C653  AD 02 20  LDA $2002 = FF                  A:00 X:FF Y:00 P:26 SP:FF PPU: 12,240 CYC:27291
C656  29 80     AND #$80                        A:10 X:FF Y:00 P:24 SP:FF PPU: 24,240 CYC:27295
C658  F0 F9     BEQ $C653                       A:00 X:FF Y:00 P:26 SP:FF PPU: 30,240 CYC:27297
C653  AD 02 20  LDA $2002 = FF                  A:00 X:FF Y:00 P:26 SP:FF PPU: 39,240 CYC:27300
C656  29 80     AND #$80                        A:10 X:FF Y:00 P:24 SP:FF PPU: 51,240 CYC:27304
C658  F0 F9     BEQ $C653                       A:00 X:FF Y:00 P:26 SP:FF PPU: 57,240 CYC:27306
C653  AD 02 20  LDA $2002 = FF                  A:00 X:FF Y:00 P:26 SP:FF PPU: 66,240 CYC:27309
C656  29 80     AND #$80                        A:10 X:FF Y:00 P:24 SP:FF PPU: 78,240 CYC:27313
C658  F0 F9     BEQ $C653                       A:00 X:FF Y:00 P:26 SP:FF PPU: 84,240 CYC:27315
C653  AD 02 20  LDA $2002 = FF                  A:00 X:FF Y:00 P:26 SP:FF PPU: 93,240 CYC:27318
C656  29 80     AND #$80                        A:10 X:FF Y:00 P:24 SP:FF PPU:105,240 CYC:27322
C658  F0 F9     BEQ $C653                       A:00 X:FF Y:00 P:26 SP:FF PPU:111,240 CYC:27324
C653  AD 02 20  LDA $2002 = FF                  A:00 X:FF Y:00 P:26 SP:FF PPU:120,240 CYC:27327
C656  29 80     AND #$80                        A:10 X:FF Y:00 P:24 SP:FF PPU:132,240 CYC:27331
C658  F0 F9     BEQ $C653                       A:00 X:FF Y:00 P:26 SP:FF PPU:138,240 CYC:27333
C653  AD 02 20  LDA $2002 = FF                  A:00 X:FF Y:00 P:26 SP:FF PPU:147,240 CYC:27336
C656  29 80     AND #$80                        A:10 X:FF Y:00 P:24 SP:FF PPU:159,240 CYC:27340
C658  F0 F9     BEQ $C653                       A:00 X:FF Y:00 P:26 SP:FF PPU:165,240 CYC:27342
C653  AD 02 20  LDA $2002 = FF                  A:00 X:FF Y:00 P:26 SP:FF PPU:174,240 CYC:27345
C656  29 80     AND #$80                        A:10 X:FF Y:00 P:24 SP:FF PPU:186,240 CYC:27349
C658  F0 F9     BEQ $C653                       A:00 X:FF Y:00 P:26 SP:FF PPU:192,240 CYC:27351
C653  AD 02 20  LDA $2002 = FF                  A:00 X:FF Y:00 P:26 SP:FF PPU:201,240 CYC:27354
C656  29 80     AND #$80                        A:10 X:FF Y:00 P:24 SP:FF PPU:213,240 CYC:27358
C658  F0 F9     BEQ $C653                       A:00 X:FF Y:00 P:26 SP:FF PPU:219,240 CYC:27360
C653  AD 02 20  LDA $2002 = FF                  A:00 X:FF Y:00 P:26 SP:FF PPU:228,240 CYC:27363
C656  29 80     AND #$80                        A:10 X:FF Y:00 P:24 SP:FF PPU:240,240 CYC:27367
C658  F0 F9     BEQ $C653                       A:00 X:FF Y:00 P:26 SP:FF PPU:246,240 CYC:27369
C653  AD 02 20  LDA $2002 = FF                  A:00 X:FF Y:00 P:26 SP:FF PPU:255,240 CYC:27372
C656  29 80     AND #$80                        A:10 X:FF Y:00 P:24 SP:FF PPU:267,240 CYC:27376
C658  F0 F9     BEQ $C653                       A:00 X:FF Y:00 P:26 SP:FF PPU:273,240 CYC:27378
C653  AD 02 20  LDA $2002 = FF                  A:00 X:FF Y:00 P:26 SP:FF PPU:282,240 CYC:27381
C656  29 80     AND #$80                        A:10 X:FF Y:00 P:24 SP:FF PPU:294,240 CYC:27385
C658  F0 F9     BEQ $C653                       A:00 X:FF Y:00 P:26 SP:FF PPU:300,240 CYC:27387
C653  AD 02 20  LDA $2002 = FF                  A:00 X:FF Y:00 P:26 SP:FF PPU:309,240 CYC:27390
C656  29 80     AND #$80                        A:10 X:FF Y:00 P:24 SP:FF PPU:321,240 CYC:27394
C658  F0 F9     BEQ $C653                       A:00 X:FF Y:00 P:26 SP:FF PPU:327,240 CYC:27396
C653  AD 02 20  LDA $2002 = FF                  A:00 X:FF Y:00 P:26 SP:FF PPU:336,240 CYC:27399
C656  29 80     AND #$80                        A:90 X:FF Y:00 P:A4 SP:FF PPU:  7,241 CYC:27403
C658  F0 F9     BEQ $C653                       A:80 X:FF Y:00 P:A4 SP:FF PPU: 13,241 CYC:27405
C65A  A0 07     LDY #$07                        A:80 X:FF Y:00 P:A4 SP:FF PPU: 19,241 CYC:27407
C65C  84 01     STY $01 = 00                    A:80 X:FF Y:07 P:24 SP:FF PPU: 25,241 CYC:27409
C65E  A0 00     LDY #$00                        A:80 X:FF Y:07 P:24 SP:FF PPU: 34,241 CYC:27412
C660  84 00     STY $00 = 00                    A:80 X:FF Y:00 P:26 SP:FF PPU: 40,241 CYC:27414
C662  98        TYA                             A:80 X:FF Y:00 P:26 SP:FF PPU: 49,241 CYC:27417
C663  91 00     STA ($00),Y = 0700 @ 0700 = 00  A:00 X:FF Y:00 P:26 SP:FF PPU: 55,241 CYC:27419
C665  88        DEY                             A:00 X:FF Y:00 P:26 SP:FF PPU: 73,241 CYC:27425
C666  D0 FB     BNE $C663                       A:00 X:FF Y:FF P:A4 SP:FF PPU: 79,241 CYC:27427
C663  91 00     STA ($00),Y = 0700 @ 07FF = 00  A:00 X:FF Y:FF P:A4 SP:FF PPU: 88,241 CYC:27430
C665  88        DEY                             A:00 X:FF Y:FF P:A4 SP:FF PPU:106,241 CYC:27436
C666  D0 FB     BNE $C663                       A:00 X:FF Y:FE P:A4 SP:FF PPU:112,241 CYC:27438
C663  91 00     STA ($00),Y = 0700 @ 07FE = 00  A:00 X:FF Y:FE P:A4 SP:FF PPU:121,241 CYC:27441
C665  88        DEY                             A:00 X:FF Y:FE P:A4 SP:FF PPU:139,241 CYC:27447
C666  D0 FB     BNE $C663                       A:00 X:FF Y:FD P:A4 SP:FF PPU:145,241 CYC:27449
C663  91 00     STA ($00),Y = 0700 @ 07FD = 00  A:00 X:FF Y:FD P:A4 SP:FF PPU:154,241 CYC:27452
C665  88        DEY                             A:00 X:FF Y:FD P:A4 SP:FF PPU:172,241 CYC:27458
C666  D0 FB     BNE $C663                       A:00 X:FF Y:FC P:A4 SP:FF PPU:178,241 CYC:27460
C663  91 00     STA ($00),Y = 0700 @ 07FC = 00  A:00 X:FF Y:FC P:A4 SP:FF PPU:187,241 CYC:27463
C665  88        DEY                             A:00 X:FF Y:FC P:A4 SP:FF PPU:205,241 CYC:27469
C666  D0 FB     BNE $C663                       A:00 X:FF Y:FB P:A4 SP:FF PPU:211,241 CYC:27471
C663  91 00     STA ($00),Y = 0700 @ 07FB = 00  A:00 X:FF Y:FB P:A4 SP:FF PPU:220,241 CYC:27474
C665  88        DEY                             A:00 X:FF Y:FB P:A4 SP:FF PPU:238,241 CYC:27480
C666  D0 FB     BNE $C663                       A:00 X:FF Y:FA P:A4 SP:FF PPU:244,241 CYC:27482
C663  91 00     STA ($00),Y = 0700 @ 07FA = 00  A:00 X:FF Y:FA P:A4 SP:FF PPU:253,241 CYC:27485
C665  88        DEY                             A:00 X:FF Y:FA P:A4 SP:FF PPU:271,241 CYC:27491
C666  D0 FB     BNE $C663                       A:00 X:FF Y:F9 P:A4 SP:FF PPU:277,241 CYC:27493
C663  91 00     STA ($00),Y = 0700 @ 07F9 = 00  A:00 X:FF Y:F9 P:A4 SP:FF PPU:286,241 CYC:27496
C665  88        DEY                             A:00 X:FF Y:F9 P:A4 SP:FF PPU:304,241 CYC:27502
C666  D0 FB     BNE $C663                       A:00 X:FF Y:F8 P:A4 SP:FF PPU:310,241 CYC:27504
C663  91 00     STA ($00),Y = 0700 @ 07F8 = 00  A:00 X:FF Y:F8 P:A4 SP:FF PPU:319,241 CYC:27507
C665  88        DEY                             A:00 X:FF Y:F8 P:A4 SP:FF PPU:337,241 CYC:27513
C666  D0 FB     BNE $C663                       A:00 X:FF Y:F7 P:A4 SP:FF PPU:  2,242 CYC:27515
C663  91 00     STA ($00),Y = 0700 @ 07F7 = 00  A:00 X:FF Y:F7 P:A4 SP:FF PPU: 11,242 CYC:27518
C665  88        DEY                             A:00 X:FF Y:F7 P:A4 SP:FF PPU: 29,242 CYC:27524
C666  D0 FB     BNE $C663                       A:00 X:FF Y:F6 P:A4 SP:FF PPU: 35,242 CYC:27526
C663  91 00     STA ($00),Y = 0700 @ 07F6 = 00  A:00 X:FF Y:F6 P:A4 SP:FF PPU: 44,242 CYC:27529
C665  88        DEY                             A:00 X:FF Y:F6 P:A4 SP:FF PPU: 62,242 CYC:27535
C666  D0 FB     BNE $C663                       A:00 X:FF Y:F5 P:A4 SP:FF PPU: 68,242 CYC:27537
C663  91 00     STA ($00),Y = 0700 @ 07F5 = 00  A:00 X:FF Y:F5 P:A4 SP:FF PPU: 77,242 CYC:27540
C665  88        DEY                             A:00 X:FF Y:F5 P:A4 SP:FF PPU: 95,242 CYC:27546
C666  D0 FB     BNE $C663                       A:00 X:FF Y:F4 P:A4 SP:FF PPU:101,242 CYC:27548
C663  91 00     STA ($00),Y = 0700 @ 07F4 = 00  A:00 X:FF Y:F4 P:A4 SP:FF PPU:110,242 CYC:27551
C665  88        DEY                             A:00 X:FF Y:F4 P:A4 SP:FF PPU:128,242 CYC:27557
C666  D0 FB     BNE $C663                       A:00 X:FF Y:F3 P:A4 SP:FF PPU:134,242 CYC:27559
C663  91 00     STA ($00),Y = 0700 @ 07F3 = 00  A:00 X:FF Y:F3 P:A4 SP:FF PPU:143,242 CYC:27562
C665  88        DEY                             A:00 X:FF Y:F3 P:A4 SP:FF PPU:161,242 CYC:27568
C666  D0 FB     BNE $C663                       A:00 X:FF Y:F2 P:A4 SP:FF PPU:167,242 CYC:27570
C663  91 00     STA ($00),Y = 0700 @ 07F2 = 00  A:00 X:FF Y:F2 P:A4 SP:FF PPU:176,242 CYC:27573
C665  88        DEY                             A:00 X:FF Y:F2 P:A4 SP:FF PPU:194,242 CYC:27579
C666  D0 FB     BNE $C663                       A:00 X:FF Y:F1 P:A4 SP:FF PPU:200,242 CYC:27581
C663  91 00     STA ($00),Y = 0700 @ 07F1 = 00  A:00 X:FF Y:F1 P:A4 SP:FF PPU:209,242 CYC:27584
C665  88        DEY                             A:00 X:FF Y:F1 P:A4 SP:FF PPU:227,242 CYC:27590
C666  D0 FB     BNE $C663                       A:00 X:FF Y:F0 P:A4 SP:FF PPU:233,242 CYC:27592
C663  91 00     STA ($00),Y = 0700 @ 07F0 = 00  A:00 X:FF Y:F0 P:A4 SP:FF PPU:242,242 CYC:27595
C665  88        DEY                             A:00 X:FF Y:F0 P:A4 SP:FF PPU:260,242 CYC:27601
C666  D0 FB     BNE $C663                       A:00 X:FF Y:EF P:A4 SP:FF PPU:266,242 CYC:27603
C663  91 00     STA ($00),Y = 0700 @ 07EF = 00  A:00 X:FF Y:EF P:A4 SP:FF PPU:275,242 CYC:27606
C665  88        DEY                             A:00 X:FF Y:EF P:A4 SP:FF PPU:293,242 CYC:27612
C666  D0 FB     BNE $C663                       A:00 X:FF Y:EE P:A4 SP:FF PPU:299,242 CYC:27614
C663  91 00     STA ($00),Y = 0700 @ 07EE = 00  A:00 X:FF Y:EE P:A4 SP:FF PPU:308,242 CYC:27617
C665  88        DEY                             A:00 X:FF Y:EE P:A4 SP:FF PPU:326,242 CYC:27623
C666  D0 FB     BNE $C663                       A:00 X:FF Y:ED P:A4 SP:FF PPU:332,242 CYC:27625
C663  91 00     STA ($00),Y = 0700 @ 07ED = 00  A:00 X:FF Y:ED P:A4 SP:FF PPU:  0,243 CYC:27628
C665  88        DEY                             A:00 X:FF Y:ED P:A4 SP:FF PPU: 18,243 CYC:27634
C666  D0 FB     BNE $C663                       A:00 X:FF Y:EC P:A4 SP:FF PPU: 24,243 CYC:27636
C663  91 00     STA ($00),Y = 0700 @ 07EC = 00  A:00 X:FF Y:EC P:A4 SP:FF PPU: 33,243 CYC:27639
C665  88        DEY                             A:00 X:FF Y:EC P:A4 SP:FF PPU: 51,243 CYC:27645
C666  D0 FB     BNE $C663                       A:00 X:FF Y:EB P:A4 SP:FF PPU: 57,243 CYC:27647
C663  91 00     STA ($00),Y = 0700 @ 07EB = 00  A:00 X:FF Y:EB P:A4 SP:FF PPU: 66,243 CYC:27650
C665  88        DEY                             A:00 X:FF Y:EB P:A4 SP:FF PPU: 84,243 CYC:27656
C666  D0 FB     BNE $C663                       A:00 X:FF Y:EA P:A4 SP:FF PPU: 90,243 CYC:27658
C663  91 00     STA ($00),Y = 0700 @ 07EA = 00  A:00 X:FF Y:EA P:A4 SP:FF PPU: 99,243 CYC:27661
C665  88        DEY                             A:00 X:FF Y:EA P:A4 SP:FF PPU:117,243 CYC:27667
C666  D0 FB     BNE $C663                       A:00 X:FF Y:E9 P:A4 SP:FF PPU:123,243 CYC:27669
C663  91 00     STA ($00),Y = 0700 @ 07E9 = 00  A:00 X:FF Y:E9 P:A4 SP:FF PPU:132,243 CYC:27672
C665  88        DEY                             A:00 X:FF Y:E9 P:A4 SP:FF PPU:150,243 CYC:27678
C666  D0 FB     BNE $C663                       A:00 X:FF Y:E8 P:A4 SP:FF PPU:156,243 CYC:27680
C663  91 00     STA ($00),Y = 0700 @ 07E8 = 00  A:00 X:FF Y:E8 P:A4 SP:FF PPU:165,243 CYC:27683
C665  88        DEY                             A:00 X:FF Y:E8 P:A4 SP:FF PPU:183,243 CYC:27689
C666  D0 FB     BNE $C663                       A:00 X:FF Y:E7 P:A4 SP:FF PPU:189,243 CYC:27691
C663  91 00     STA ($00),Y = 0700 @ 07E7 = 00  A:00 X:FF Y:E7 P:A4 SP:FF PPU:198,243 CYC:27694
C665  88        DEY                             A:00 X:FF Y:E7 P:A4 SP:FF PPU:216,243 CYC:27700
C666  D0 FB     BNE $C663                       A:00 X:FF Y:E6 P:A4 SP:FF PPU:222,243 CYC:27702
C663  91 00     STA ($00),Y = 0700 @ 07E6 = 00  A:00 X:FF Y:E6 P:A4 SP:FF PPU:231,243 CYC:27705
C665  88        DEY                             A:00 X:FF Y:E6 P:A4 SP:FF PPU:249,243 CYC:27711
C666  D0 FB     BNE $C663                       A:00 X:FF Y:E5 P:A4 SP:FF PPU:255,243 CYC:27713
C663  91 00     STA ($00),Y = 0700 @ 07E5 = 00  A:00 X:FF Y:E5 P:A4 SP:FF PPU:264,243 CYC:27716
C665  88        DEY                             A:00 X:FF Y:E5 P:A4 SP:FF PPU:282,243 CYC:27722
C666  D0 FB     BNE $C663                       A:00 X:FF Y:E4 P:A4 SP:FF PPU:288,243 CYC:27724
C663  91 00     STA ($00),Y = 0700 @ 07E4 = 00  A:00 X:FF Y:E4 P:A4 SP:FF PPU:297,243 CYC:27727
C665  88        DEY                             A:00 X:FF Y:E4 P:A4 SP:FF PPU:315,243 CYC:27733
C666  D0 FB     BNE $C663                       A:00 X:FF Y:E3 P:A4 SP:FF PPU:321,243 CYC:27735
C663  91 00     STA ($00),Y = 0700 @ 07E3 = 00  A:00 X:FF Y:E3 P:A4 SP:FF PPU:330,243 CYC:27738
C665  88        DEY                             A:00 X:FF Y:E3 P:A4 SP:FF PPU:  7,244 CYC:27744
C666  D0 FB     BNE $C663                       A:00 X:FF Y:E2 P:A4 SP:FF PPU: 13,244 CYC:27746
C663  91 00     STA ($00),Y = 0700 @ 07E2 = 00  A:00 X:FF Y:E2 P:A4 SP:FF PPU: 22,244 CYC:27749
C665  88        DEY                             A:00 X:FF Y:E2 P:A4 SP:FF PPU: 40,244 CYC:27755
C666  D0 FB     BNE $C663                       A:00 X:FF Y:E1 P:A4 SP:FF PPU: 46,244 CYC:27757
C663  91 00     STA ($00),Y = 0700 @ 07E1 = 00  A:00 X:FF Y:E1 P:A4 SP:FF PPU: 55,244 CYC:27760
C665  88        DEY                             A:00 X:FF Y:E1 P:A4 SP:FF PPU: 73,244 CYC:27766
C666  D0 FB     BNE $C663                       A:00 X:FF Y:E0 P:A4 SP:FF PPU: 79,244 CYC:27768
C663  91 00     STA ($00),Y = 0700 @ 07E0 = 00  A:00 X:FF Y:E0 P:A4 SP:FF PPU: 88,244 CYC:27771
C665  88        DEY                             A:00 X:FF Y:E0 P:A4 SP:FF PPU:106,244 CYC:27777
C666  D0 FB     BNE $C663                       A:00 X:FF Y:DF P:A4 SP:FF PPU:112,244 CYC:27779
C663  91 00     STA ($00),Y = 0700 @ 07DF = 00  A:00 X:FF Y:DF P:A4 SP:FF PPU:121,244 CYC:27782
C665  88        DEY                             A:00 X:FF Y:DF P:A4 SP:FF PPU:139,244 CYC:27788
C666  D0 FB     BNE $C663                       A:00 X:FF Y:DE P:A4 SP:FF PPU:145,244 CYC:27790
C663  91 00     STA ($00),Y = 0700 @ 07DE = 00  A:00 X:FF Y:DE P:A4 SP:FF PPU:154,244 CYC:27793
C665  88        DEY                             A:00 X:FF Y:DE P:A4 SP:FF PPU:172,244 CYC:27799
C666  D0 FB     BNE $C663                       A:00 X:FF Y:DD P:A4 SP:FF PPU:178,244 CYC:27801
C663  91 00     STA ($00),Y = 0700 @ 07DD = 00  A:00 X:FF Y:DD P:A4 SP:FF PPU:187,244 CYC:27804
C665  88        DEY                             A:00 X:FF Y:DD P:A4 SP:FF PPU:205,244 CYC:27810
C666  D0 FB     BNE $C663                       A:00 X:FF Y:DC P:A4 SP:FF PPU:211,244 CYC:27812
C663  91 00     STA ($00),Y = 0700 @ 07DC = 00  A:00 X:FF Y:DC P:A4 SP:FF PPU:220,244 CYC:27815
C665  88        DEY                             A:00 X:FF Y:DC P:A4 SP:FF PPU:238,244 CYC:27821
C666  D0 FB     BNE $C663                       A:00 X:FF Y:DB P:A4 SP:FF PPU:244,244 CYC:27823
C663  91 00     STA ($00),Y = 0700 @ 07DB = 00  A:00 X:FF Y:DB P:A4 SP:FF PPU:253,244 CYC:27826
C665  88        DEY                             A:00 X:FF Y:DB P:A4 SP:FF PPU:271,244 CYC:27832
C666  D0 FB     BNE $C663                       A:00 X:FF Y:DA P:A4 SP:FF PPU:277,244 CYC:27834
C663  91 00     STA ($00),Y = 0700 @ 07DA = 00  A:00 X:FF Y:DA P:A4 SP:FF PPU:286,244 CYC:27837
C665  88        DEY                             A:00 X:FF Y:DA P:A4 SP:FF PPU:304,244 CYC:27843
C666  D0 FB     BNE $C663                       A:00 X:FF Y:D9 P:A4 SP:FF PPU:310,244 CYC:27845
C663  91 00     STA ($00),Y = 0700 @ 07D9 = 00  A:00 X:FF Y:D9 P:A4 SP:FF PPU:319,244 CYC:27848
C665  88        DEY                             A:00 X:FF Y:D9 P:A4 SP:FF PPU:337,244 CYC:27854
C666  D0 FB     BNE $C663                       A:00 X:FF Y:D8 P:A4 SP:FF PPU:  2,245 CYC:27856
C663  91 00     STA ($00),Y = 0700 @ 07D8 = 00  A:00 X:FF Y:D8 P:A4 SP:FF PPU: 11,245 CYC:27859
C665  88        DEY                             A:00 X:FF Y:D8 P:A4 SP:FF PPU: 29,245 CYC:27865
C666  D0 FB     BNE $C663                       A:00 X:FF Y:D7 P:A4 SP:FF PPU: 35,245 CYC:27867
C663  91 00     STA ($00),Y = 0700 @ 07D7 = 00  A:00 X:FF Y:D7 P:A4 SP:FF PPU: 44,245 CYC:27870
C665  88        DEY                             A:00 X:FF Y:D7 P:A4 SP:FF PPU: 62,245 CYC:27876
C666  D0 FB     BNE $C663                       A:00 X:FF Y:D6 P:A4 SP:FF PPU: 68,245 CYC:27878
C663  91 00     STA ($00),Y = 0700 @ 07D6 = 00  A:00 X:FF Y:D6 P:A4 SP:FF PPU: 77,245 CYC:27881
C665  88        DEY                             A:00 X:FF Y:D6 P:A4 SP:FF PPU: 95,245 CYC:27887
C666  D0 FB     BNE $C663                       A:00 X:FF Y:D5 P:A4 SP:FF PPU:101,245 CYC:27889
C663  91 00     STA ($00),Y = 0700 @ 07D5 = 00  A:00 X:FF Y:D5 P:A4 SP:FF PPU:110,245 CYC:27892
C665  88        DEY                             A:00 X:FF Y:D5 P:A4 SP:FF PPU:128,245 CYC:27898
C666  D0 FB     BNE $C663                       A:00 X:FF Y:D4 P:A4 SP:FF PPU:134,245 CYC:27900
C663  91 00     STA ($00),Y = 0700 @ 07D4 = 00  A:00 X:FF Y:D4 P:A4 SP:FF PPU:143,245 CYC:27903
C665  88        DEY                             A:00 X:FF Y:D4 P:A4 SP:FF PPU:161,245 CYC:27909
C666  D0 FB     BNE $C663                       A:00 X:FF Y:D3 P:A4 SP:FF PPU:167,245 CYC:27911
C663  91 00     STA ($00),Y = 0700 @ 07D3 = 00  A:00 X:FF Y:D3 P:A4 SP:FF PPU:176,245 CYC:27914
C665  88        DEY                             A:00 X:FF Y:D3 P:A4 SP:FF PPU:194,245 CYC:27920
C666  D0 FB     BNE $C663                       A:00 X:FF Y:D2 P:A4 SP:FF PPU:200,245 CYC:27922
C663  91 00     STA ($00),Y = 0700 @ 07D2 = 00  A:00 X:FF Y:D2 P:A4 SP:FF PPU:209,245 CYC:27925
C665  88        DEY                             A:00 X:FF Y:D2 P:A4 SP:FF PPU:227,245 CYC:27931
C666  D0 FB     BNE $C663                       A:00 X:FF Y:D1 P:A4 SP:FF PPU:233,245 CYC:27933
C663  91 00     STA ($00),Y = 0700 @ 07D1 = 00  A:00 X:FF Y:D1 P:A4 SP:FF PPU:242,245 CYC:27936
C665  88        DEY                             A:00 X:FF Y:D1 P:A4 SP:FF PPU:260,245 CYC:27942
C666  D0 FB     BNE $C663                       A:00 X:FF Y:D0 P:A4 SP:FF PPU:266,245 CYC:27944
C663  91 00     STA ($00),Y = 0700 @ 07D0 = 00  A:00 X:FF Y:D0 P:A4 SP:FF PPU:275,245 CYC:27947
C665  88        DEY                             A:00 X:FF Y:D0 P:A4 SP:FF PPU:293,245 CYC:27953
C666  D0 FB     BNE $C663                       A:00 X:FF Y:CF P:A4 SP:FF PPU:299,245 CYC:27955
C663  91 00     STA ($00),Y = 0700 @ 07CF = 00  A:00 X:FF Y:CF P:A4 SP:FF PPU:308,245 CYC:27958
C665  88        DEY                             A:00 X:FF Y:CF P:A4 SP:FF PPU:326,245 CYC:27964
C666  D0 FB     BNE $C663                       A:00 X:FF Y:CE P:A4 SP:FF PPU:332,245 CYC:27966
C663  91 00     STA ($00),Y = 0700 @ 07CE = 00  A:00 X:FF Y:CE P:A4 SP:FF PPU:  0,246 CYC:27969
C665  88        DEY                             A:00 X:FF Y:CE P:A4 SP:FF PPU: 18,246 CYC:27975
C666  D0 FB     BNE $C663                       A:00 X:FF Y:CD P:A4 SP:FF PPU: 24,246 CYC:27977
C663  91 00     STA ($00),Y = 0700 @ 07CD = 00  A:00 X:FF Y:CD P:A4 SP:FF PPU: 33,246 CYC:27980
C665  88        DEY                             A:00 X:FF Y:CD P:A4 SP:FF PPU: 51,246 CYC:27986
C666  D0 FB     BNE $C663                       A:00 X:FF Y:CC P:A4 SP:FF PPU: 57,246 CYC:27988
C663  91 00     STA ($00),Y = 0700 @ 07CC = 00  A:00 X:FF Y:CC P:A4 SP:FF PPU: 66,246 CYC:27991
C665  88        DEY                             A:00 X:FF Y:CC P:A4 SP:FF PPU: 84,246 CYC:27997
C666  D0 FB     BNE $C663                       A:00 X:FF Y:CB P:A4 SP:FF PPU: 90,246 CYC:27999
C663  91 00     STA ($00),Y = 0700 @ 07CB = 00  A:00 X:FF Y:CB P:A4 SP:FF PPU: 99,246 CYC:28002
C665  88        DEY                             A:00 X:FF Y:CB P:A4 SP:FF PPU:117,246 CYC:28008
C666  D0 FB     BNE $C663                       A:00 X:FF Y:CA P:A4 SP:FF PPU:123,246 CYC:28010
C663  91 00     STA ($00),Y = 0700 @ 07CA = 00  A:00 X:FF Y:CA P:A4 SP:FF PPU:132,246 CYC:28013
C665  88        DEY                             A:00 X:FF Y:CA P:A4 SP:FF PPU:150,246 CYC:28019
C666  D0 FB     BNE $C663                       A:00 X:FF Y:C9 P:A4 SP:FF PPU:156,246 CYC:28021
C663  91 00     STA ($00),Y = 0700 @ 07C9 = 00  A:00 X:FF Y:C9 P:A4 SP:FF PPU:165,246 CYC:28024
C665  88        DEY                             A:00 X:FF Y:C9 P:A4 SP:FF PPU:183,246 CYC:28030
C666  D0 FB     BNE $C663                       A:00 X:FF Y:C8 P:A4 SP:FF PPU:189,246 CYC:28032
C663  91 00     STA ($00),Y = 0700 @ 07C8 = 00  A:00 X:FF Y:C8 P:A4 SP:FF PPU:198,246 CYC:28035
C665  88        DEY                             A:00 X:FF Y:C8 P:A4 SP:FF PPU:216,246 CYC:28041
C666  D0 FB     BNE $C663                       A:00 X:FF Y:C7 P:A4 SP:FF PPU:222,246 CYC:28043
C663  91 00     STA ($00),Y = 0700 @ 07C7 = 00  A:00 X:FF Y:C7 P:A4 SP:FF PPU:231,246 CYC:28046
C665  88        DEY                             A:00 X:FF Y:C7 P:A4 SP:FF PPU:249,246 CYC:28052
C666  D0 FB     BNE $C663                       A:00 X:FF Y:C6 P:A4 SP:FF PPU:255,246 CYC:28054
C663  91 00     STA ($00),Y = 0700 @ 07C6 = 00  A:00 X:FF Y:C6 P:A4 SP:FF PPU:264,246 CYC:28057
C665  88        DEY                             A:00 X:FF Y:C6 P:A4 SP:FF PPU:282,246 CYC:28063
C666  D0 FB     BNE $C663                       A:00 X:FF Y:C5 P:A4 SP:FF PPU:288,246 CYC:28065
C663  91 00     STA ($00),Y = 0700 @ 07C5 = 00  A:00 X:FF Y:C5 P:A4 SP:FF PPU:297,246 CYC:28068
C665  88        DEY                             A:00 X:FF Y:C5 P:A4 SP:FF PPU:315,246 CYC:28074
C666  D0 FB     BNE $C663                       A:00 X:FF Y:C4 P:A4 SP:FF PPU:321,246 CYC:28076
C663  91 00     STA ($00),Y = 0700 @ 07C4 = 00  A:00 X:FF Y:C4 P:A4 SP:FF PPU:330,246 CYC:28079
C665  88        DEY                             A:00 X:FF Y:C4 P:A4 SP:FF PPU:  7,247 CYC:28085
C666  D0 FB     BNE $C663                       A:00 X:FF Y:C3 P:A4 SP:FF PPU: 13,247 CYC:28087
C663  91 00     STA ($00),Y = 0700 @ 07C3 = 00  A:00 X:FF Y:C3 P:A4 SP:FF PPU: 22,247 CYC:28090
C665  88        DEY                             A:00 X:FF Y:C3 P:A4 SP:FF PPU: 40,247 CYC:28096
C666  D0 FB     BNE $C663                       A:00 X:FF Y:C2 P:A4 SP:FF PPU: 46,247 CYC:28098
C663  91 00     STA ($00),Y = 0700 @ 07C2 = 00  A:00 X:FF Y:C2 P:A4 SP:FF PPU: 55,247 CYC:28101
C665  88        DEY                             A:00 X:FF Y:C2 P:A4 SP:FF PPU: 73,247 CYC:28107
C666  D0 FB     BNE $C663                       A:00 X:FF Y:C1 P:A4 SP:FF PPU: 79,247 CYC:28109
C663  91 00     STA ($00),Y = 0700 @ 07C1 = 00  A:00 X:FF Y:C1 P:A4 SP:FF PPU: 88,247 CYC:28112
C665  88        DEY                             A:00 X:FF Y:C1 P:A4 SP:FF PPU:106,247 CYC:28118
C666  D0 FB     BNE $C663                       A:00 X:FF Y:C0 P:A4 SP:FF PPU:112,247 CYC:28120
C663  91 00     STA ($00),Y = 0700 @ 07C0 = 00  A:00 X:FF Y:C0 P:A4 SP:FF PPU:121,247 CYC:28123
C665  88        DEY                             A:00 X:FF Y:C0 P:A4 SP:FF PPU:139,247 CYC:28129
C666  D0 FB     BNE $C663                       A:00 X:FF Y:BF P:A4 SP:FF PPU:145,247 CYC:28131
C663  91 00     STA ($00),Y = 0700 @ 07BF = 00  A:00 X:FF Y:BF P:A4 SP:FF PPU:154,247 CYC:28134
C665  88        DEY                             A:00 X:FF Y:BF P:A4 SP:FF PPU:172,247 CYC:28140
C666  D0 FB     BNE $C663                       A:00 X:FF Y:BE P:A4 SP:FF PPU:178,247 CYC:28142
C663  91 00     STA ($00),Y = 0700 @ 07BE = 00  A:00 X:FF Y:BE P:A4 SP:FF PPU:187,247 CYC:28145
C665  88        DEY                             A:00 X:FF Y:BE P:A4 SP:FF PPU:205,247 CYC:28151
C666  D0 FB     BNE $C663                       A:00 X:FF Y:BD P:A4 SP:FF PPU:211,247 CYC:28153
C663  91 00     STA ($00),Y = 0700 @ 07BD = 00  A:00 X:FF Y:BD P:A4 SP:FF PPU:220,247 CYC:28156
C665  88        DEY                             A:00 X:FF Y:BD P:A4 SP:FF PPU:238,247 CYC:28162
C666  D0 FB     BNE $C663                       A:00 X:FF Y:BC P:A4 SP:FF PPU:244,247 CYC:28164
C663  91 00     STA ($00),Y = 0700 @ 07BC = 00  A:00 X:FF Y:BC P:A4 SP:FF PPU:253,247 CYC:28167
C665  88        DEY                             A:00 X:FF Y:BC P:A4 SP:FF PPU:271,247 CYC:28173
C666  D0 FB     BNE $C663                       A:00 X:FF Y:BB P:A4 SP:FF PPU:277,247 CYC:28175
C663  91 00     STA ($00),Y = 0700 @ 07BB = 00  A:00 X:FF Y:BB P:A4 SP:FF PPU:286,247 CYC:28178
C665  88        DEY                             A:00 X:FF Y:BB P:A4 SP:FF PPU:304,247 CYC:28184
C666  D0 FB     BNE $C663                       A:00 X:FF Y:BA P:A4 SP:FF PPU:310,247 CYC:28186
C663  91 00     STA ($00),Y = 0700 @ 07BA = 00  A:00 X:FF Y:BA P:A4 SP:FF PPU:319,247 CYC:28189
C665  88        DEY                             A:00 X:FF Y:BA P:A4 SP:FF PPU:337,247 CYC:28195
C666  D0 FB     BNE $C663                       A:00 X:FF Y:B9 P:A4 SP:FF PPU:  2,248 CYC:28197
C663  91 00     STA ($00),Y = 0700 @ 07B9 = 00  A:00 X:FF Y:B9 P:A4 SP:FF PPU: 11,248 CYC:28200
C665  88        DEY                             A:00 X:FF Y:B9 P:A4 SP:FF PPU: 29,248 CYC:28206
C666  D0 FB     BNE $C663                       A:00 X:FF Y:B8 P:A4 SP:FF PPU: 35,248 CYC:28208
C663  91 00     STA ($00),Y = 0700 @ 07B8 = 00  A:00 X:FF Y:B8 P:A4 SP:FF PPU: 44,248 CYC:28211
C665  88        DEY                             A:00 X:FF Y:B8 P:A4 SP:FF PPU: 62,248 CYC:28217
C666  D0 FB     BNE $C663                       A:00 X:FF Y:B7 P:A4 SP:FF PPU: 68,248 CYC:28219
C663  91 00     STA ($00),Y = 0700 @ 07B7 = 00  A:00 X:FF Y:B7 P:A4 SP:FF PPU: 77,248 CYC:28222
C665  88        DEY                             A:00 X:FF Y:B7 P:A4 SP:FF PPU: 95,248 CYC:28228
C666  D0 FB     BNE $C663                       A:00 X:FF Y:B6 P:A4 SP:FF PPU:101,248 CYC:28230
C663  91 00     STA ($00),Y = 0700 @ 07B6 = 00  A:00 X:FF Y:B6 P:A4 SP:FF PPU:110,248 CYC:28233
C665  88        DEY                             A:00 X:FF Y:B6 P:A4 SP:FF PPU:128,248 CYC:28239
C666  D0 FB     BNE $C663                       A:00 X:FF Y:B5 P:A4 SP:FF PPU:134,248 CYC:28241
C663  91 00     STA ($00),Y = 0700 @ 07B5 = 00  A:00 X:FF Y:B5 P:A4 SP:FF PPU:143,248 CYC:28244
C665  88        DEY                             A:00 X:FF Y:B5 P:A4 SP:FF PPU:161,248 CYC:28250
C666  D0 FB     BNE $C663                       A:00 X:FF Y:B4 P:A4 SP:FF PPU:167,248 CYC:28252
C663  91 00     STA ($00),Y = 0700 @ 07B4 = 00  A:00 X:FF Y:B4 P:A4 SP:FF PPU:176,248 CYC:28255
C665  88        DEY                             A:00 X:FF Y:B4 P:A4 SP:FF PPU:194,248 CYC:28261
C666  D0 FB     BNE $C663                       A:00 X:FF Y:B3 P:A4 SP:FF PPU:200,248 CYC:28263
C663  91 00     STA ($00),Y = 0700 @ 07B3 = 00  A:00 X:FF Y:B3 P:A4 SP:FF PPU:209,248 CYC:28266
C665  88        DEY                             A:00 X:FF Y:B3 P:A4 SP:FF PPU:227,248 CYC:28272
C666  D0 FB     BNE $C663                       A:00 X:FF Y:B2 P:A4 SP:FF PPU:233,248 CYC:28274
C663  91 00     STA ($00),Y = 0700 @ 07B2 = 00  A:00 X:FF Y:B2 P:A4 SP:FF PPU:242,248 CYC:28277
C665  88        DEY                             A:00 X:FF Y:B2 P:A4 SP:FF PPU:260,248 CYC:28283
C666  D0 FB     BNE $C663                       A:00 X:FF Y:B1 P:A4 SP:FF PPU:266,248 CYC:28285
C663  91 00     STA ($00),Y = 0700 @ 07B1 = 00  A:00 X:FF Y:B1 P:A4 SP:FF PPU:275,248 CYC:28288
C665  88        DEY                             A:00 X:FF Y:B1 P:A4 SP:FF PPU:293,248 CYC:28294
C666  D0 FB     BNE $C663                       A:00 X:FF Y:B0 P:A4 SP:FF PPU:299,248 CYC:28296
C663  91 00     STA ($00),Y = 0700 @ 07B0 = 00  A:00 X:FF Y:B0 P:A4 SP:FF PPU:308,248 CYC:28299
C665  88        DEY                             A:00 X:FF Y:B0 P:A4 SP:FF PPU:326,248 CYC:28305
C666  D0 FB     BNE $C663                       A:00 X:FF Y:AF P:A4 SP:FF PPU:332,248 CYC:28307
C663  91 00     STA ($00),Y = 0700 @ 07AF = 00  A:00 X:FF Y:AF P:A4 SP:FF PPU:  0,249 CYC:28310
C665  88        DEY                             A:00 X:FF Y:AF P:A4 SP:FF PPU: 18,249 CYC:28316
C666  D0 FB     BNE $C663                       A:00 X:FF Y:AE P:A4 SP:FF PPU: 24,249 CYC:28318
C663  91 00     STA ($00),Y = 0700 @ 07AE = 00  A:00 X:FF Y:AE P:A4 SP:FF PPU: 33,249 CYC:28321
C665  88        DEY                             A:00 X:FF Y:AE P:A4 SP:FF PPU: 51,249 CYC:28327
C666  D0 FB     BNE $C663                       A:00 X:FF Y:AD P:A4 SP:FF PPU: 57,249 CYC:28329
C663  91 00     STA ($00),Y = 0700 @ 07AD = 00  A:00 X:FF Y:AD P:A4 SP:FF PPU: 66,249 CYC:28332
C665  88        DEY                             A:00 X:FF Y:AD P:A4 SP:FF PPU: 84,249 CYC:28338
C666  D0 FB     BNE $C663                       A:00 X:FF Y:AC P:A4 SP:FF PPU: 90,249 CYC:28340
C663  91 00     STA ($00),Y = 0700 @ 07AC = 00  A:00 X:FF Y:AC P:A4 SP:FF PPU: 99,249 CYC:28343
C665  88        DEY                             A:00 X:FF Y:AC P:A4 SP:FF PPU:117,249 CYC:28349
C666  D0 FB     BNE $C663                       A:00 X:FF Y:AB P:A4 SP:FF PPU:123,249 CYC:28351
C663  91 00     STA ($00),Y = 0700 @ 07AB = 00  A:00 X:FF Y:AB P:A4 SP:FF PPU:132,249 CYC:28354
C665  88        DEY                             A:00 X:FF Y:AB P:A4 SP:FF PPU:150,249 CYC:28360
C666  D0 FB     BNE $C663                       A:00 X:FF Y:AA P:A4 SP:FF PPU:156,249 CYC:28362
C663  91 00     STA ($00),Y = 0700 @ 07AA = 00  A:00 X:FF Y:AA P:A4 SP:FF PPU:165,249 CYC:28365
C665  88        DEY                             A:00 X:FF Y:AA P:A4 SP:FF PPU:183,249 CYC:28371
C666  D0 FB     BNE $C663                       A:00 X:FF Y:A9 P:A4 SP:FF PPU:189,249 CYC:28373
C663  91 00     STA ($00),Y = 0700 @ 07A9 = 00  A:00 X:FF Y:A9 P:A4 SP:FF PPU:198,249 CYC:28376
C665  88        DEY                             A:00 X:FF Y:A9 P:A4 SP:FF PPU:216,249 CYC:28382
C666  D0 FB     BNE $C663                       A:00 X:FF Y:A8 P:A4 SP:FF PPU:222,249 CYC:28384
C663  91 00     STA ($00),Y = 0700 @ 07A8 = 00  A:00 X:FF Y:A8 P:A4 SP:FF PPU:231,249 CYC:28387
C665  88        DEY                             A:00 X:FF Y:A8 P:A4 SP:FF PPU:249,249 CYC:28393
C666  D0 FB     BNE $C663                       A:00 X:FF Y:A7 P:A4 SP:FF PPU:255,249 CYC:28395
C663  91 00     STA ($00),Y = 0700 @ 07A7 = 00  A:00 X:FF Y:A7 P:A4 SP:FF PPU:264,249 CYC:28398
C665  88        DEY                             A:00 X:FF Y:A7 P:A4 SP:FF PPU:282,249 CYC:28404
C666  D0 FB     BNE $C663                       A:00 X:FF Y:A6 P:A4 SP:FF PPU:288,249 CYC:28406
C663  91 00     STA ($00),Y = 0700 @ 07A6 = 00  A:00 X:FF Y:A6 P:A4 SP:FF PPU:297,249 CYC:28409
C665  88        DEY                             A:00 X:FF Y:A6 P:A4 SP:FF PPU:315,249 CYC:28415
C666  D0 FB     BNE $C663                       A:00 X:FF Y:A5 P:A4 SP:FF PPU:321,249 CYC:28417
C663  91 00     STA ($00),Y = 0700 @ 07A5 = 00  A:00 X:FF Y:A5 P:A4 SP:FF PPU:330,249 CYC:28420
C665  88        DEY                             A:00 X:FF Y:A5 P:A4 SP:FF PPU:  7,250 CYC:28426
C666  D0 FB     BNE $C663                       A:00 X:FF Y:A4 P:A4 SP:FF PPU: 13,250 CYC:28428
C663  91 00     STA ($00),Y = 0700 @ 07A4 = 00  A:00 X:FF Y:A4 P:A4 SP:FF PPU: 22,250 CYC:28431
C665  88        DEY                             A:00 X:FF Y:A4 P:A4 SP:FF PPU: 40,250 CYC:28437
C666  D0 FB     BNE $C663                       A:00 X:FF Y:A3 P:A4 SP:FF PPU: 46,250 CYC:28439
C663  91 00     STA ($00),Y = 0700 @ 07A3 = 00  A:00 X:FF Y:A3 P:A4 SP:FF PPU: 55,250 CYC:28442
C665  88        DEY                             A:00 X:FF Y:A3 P:A4 SP:FF PPU: 73,250 CYC:28448
C666  D0 FB     BNE $C663                       A:00 X:FF Y:A2 P:A4 SP:FF PPU: 79,250 CYC:28450
C663  91 00     STA ($00),Y = 0700 @ 07A2 = 00  A:00 X:FF Y:A2 P:A4 SP:FF PPU: 88,250 CYC:28453
C665  88        DEY                             A:00 X:FF Y:A2 P:A4 SP:FF PPU:106,250 CYC:28459
C666  D0 FB     BNE $C663                       A:00 X:FF Y:A1 P:A4 SP:FF PPU:112,250 CYC:28461
C663  91 00     STA ($00),Y = 0700 @ 07A1 = 00  A:00 X:FF Y:A1 P:A4 SP:FF PPU:121,250 CYC:28464
C665  88        DEY                             A:00 X:FF Y:A1 P:A4 SP:FF PPU:139,250 CYC:28470
C666  D0 FB     BNE $C663                       A:00 X:FF Y:A0 P:A4 SP:FF PPU:145,250 CYC:28472
C663  91 00     STA ($00),Y = 0700 @ 07A0 = 00  A:00 X:FF Y:A0 P:A4 SP:FF PPU:154,250 CYC:28475
C665  88        DEY                             A:00 X:FF Y:A0 P:A4 SP:FF PPU:172,250 CYC:28481
C666  D0 FB     BNE $C663                       A:00 X:FF Y:9F P:A4 SP:FF PPU:178,250 CYC:28483
C663  91 00     STA ($00),Y = 0700 @ 079F = 00  A:00 X:FF Y:9F P:A4 SP:FF PPU:187,250 CYC:28486
C665  88        DEY                             A:00 X:FF Y:9F P:A4 SP:FF PPU:205,250 CYC:28492
C666  D0 FB     BNE $C663                       A:00 X:FF Y:9E P:A4 SP:FF PPU:211,250 CYC:28494
C663  91 00     STA ($00),Y = 0700 @ 079E = 00  A:00 X:FF Y:9E P:A4 SP:FF PPU:220,250 CYC:28497
C665  88        DEY                             A:00 X:FF Y:9E P:A4 SP:FF PPU:238,250 CYC:28503
C666  D0 FB     BNE $C663                       A:00 X:FF Y:9D P:A4 SP:FF PPU:244,250 CYC:28505
C663  91 00     STA ($00),Y = 0700 @ 079D = 00  A:00 X:FF Y:9D P:A4 SP:FF PPU:253,250 CYC:28508
C665  88        DEY                             A:00 X:FF Y:9D P:A4 SP:FF PPU:271,250 CYC:28514
C666  D0 FB     BNE $C663                       A:00 X:FF Y:9C P:A4 SP:FF PPU:277,250 CYC:28516
C663  91 00     STA ($00),Y = 0700 @ 079C = 00  A:00 X:FF Y:9C P:A4 SP:FF PPU:286,250 CYC:28519
C665  88        DEY                             A:00 X:FF Y:9C P:A4 SP:FF PPU:304,250 CYC:28525
C666  D0 FB     BNE $C663                       A:00 X:FF Y:9B P:A4 SP:FF PPU:310,250 CYC:28527
C663  91 00     STA ($00),Y = 0700 @ 079B = 00  A:00 X:FF Y:9B P:A4 SP:FF PPU:319,250 CYC:28530
C665  88        DEY                             A:00 X:FF Y:9B P:A4 SP:FF PPU:337,250 CYC:28536
C666  D0 FB     BNE $C663                       A:00 X:FF Y:9A P:A4 SP:FF PPU:  2,251 CYC:28538
C663  91 00     STA ($00),Y = 0700 @ 079A = 00  A:00 X:FF Y:9A P:A4 SP:FF PPU: 11,251 CYC:28541
C665  88        DEY                             A:00 X:FF Y:9A P:A4 SP:FF PPU: 29,251 CYC:28547
C666  D0 FB     BNE $C663                       A:00 X:FF Y:99 P:A4 SP:FF PPU: 35,251 CYC:28549
C663  91 00     STA ($00),Y = 0700 @ 0799 = 00  A:00 X:FF Y:99 P:A4 SP:FF PPU: 44,251 CYC:28552
C665  88        DEY                             A:00 X:FF Y:99 P:A4 SP:FF PPU: 62,251 CYC:28558
C666  D0 FB     BNE $C663                       A:00 X:FF Y:98 P:A4 SP:FF PPU: 68,251 CYC:28560
C663  91 00     STA ($00),Y = 0700 @ 0798 = 00  A:00 X:FF Y:98 P:A4 SP:FF PPU: 77,251 CYC:28563
C665  88        DEY                             A:00 X:FF Y:98 P:A4 SP:FF PPU: 95,251 CYC:28569
C666  D0 FB     BNE $C663                       A:00 X:FF Y:97 P:A4 SP:FF PPU:101,251 CYC:28571
C663  91 00     STA ($00),Y = 0700 @ 0797 = 00  A:00 X:FF Y:97 P:A4 SP:FF PPU:110,251 CYC:28574
C665  88        DEY                             A:00 X:FF Y:97 P:A4 SP:FF PPU:128,251 CYC:28580
C666  D0 FB     BNE $C663                       A:00 X:FF Y:96 P:A4 SP:FF PPU:134,251 CYC:28582
C663  91 00     STA ($00),Y = 0700 @ 0796 = 00  A:00 X:FF Y:96 P:A4 SP:FF PPU:143,251 CYC:28585
C665  88        DEY                             A:00 X:FF Y:96 P:A4 SP:FF PPU:161,251 CYC:28591
C666  D0 FB     BNE $C663                       A:00 X:FF Y:95 P:A4 SP:FF PPU:167,251 CYC:28593
C663  91 00     STA ($00),Y = 0700 @ 0795 = 00  A:00 X:FF Y:95 P:A4 SP:FF PPU:176,251 CYC:28596
C665  88        DEY                             A:00 X:FF Y:95 P:A4 SP:FF PPU:194,251 CYC:28602
C666  D0 FB     BNE $C663                       A:00 X:FF Y:94 P:A4 SP:FF PPU:200,251 CYC:28604
C663  91 00     STA ($00),Y = 0700 @ 0794 = 00  A:00 X:FF Y:94 P:A4 SP:FF PPU:209,251 CYC:28607
C665  88        DEY                             A:00 X:FF Y:94 P:A4 SP:FF PPU:227,251 CYC:28613
C666  D0 FB     BNE $C663                       A:00 X:FF Y:93 P:A4 SP:FF PPU:233,251 CYC:28615
C663  91 00     STA ($00),Y = 0700 @ 0793 = 00  A:00 X:FF Y:93 P:A4 SP:FF PPU:242,251 CYC:28618
C665  88        DEY                             A:00 X:FF Y:93 P:A4 SP:FF PPU:260,251 CYC:28624
C666  D0 FB     BNE $C663                       A:00 X:FF Y:92 P:A4 SP:FF PPU:266,251 CYC:28626
C663  91 00     STA ($00),Y = 0700 @ 0792 = 00  A:00 X:FF Y:92 P:A4 SP:FF PPU:275,251 CYC:28629
C665  88        DEY                             A:00 X:FF Y:92 P:A4 SP:FF PPU:293,251 CYC:28635
C666  D0 FB     BNE $C663                       A:00 X:FF Y:91 P:A4 SP:FF PPU:299,251 CYC:28637
C663  91 00     STA ($00),Y = 0700 @ 0791 = 00  A:00 X:FF Y:91 P:A4 SP:FF PPU:308,251 CYC:28640
C665  88        DEY                             A:00 X:FF Y:91 P:A4 SP:FF PPU:326,251 CYC:28646
C666  D0 FB     BNE $C663                       A:00 X:FF Y:90 P:A4 SP:FF PPU:332,251 CYC:28648
C663  91 00     STA ($00),Y = 0700 @ 0790 = 00  A:00 X:FF Y:90 P:A4 SP:FF PPU:  0,252 CYC:28651
C665  88        DEY                             A:00 X:FF Y:90 P:A4 SP:FF PPU: 18,252 CYC:28657
C666  D0 FB     BNE $C663                       A:00 X:FF Y:8F P:A4 SP:FF PPU: 24,252 CYC:28659
C663  91 00     STA ($00),Y = 0700 @ 078F = 00  A:00 X:FF Y:8F P:A4 SP:FF PPU: 33,252 CYC:28662
C665  88        DEY                             A:00 X:FF Y:8F P:A4 SP:FF PPU: 51,252 CYC:28668
C666  D0 FB     BNE $C663                       A:00 X:FF Y:8E P:A4 SP:FF PPU: 57,252 CYC:28670
C663  91 00     STA ($00),Y = 0700 @ 078E = 00  A:00 X:FF Y:8E P:A4 SP:FF PPU: 66,252 CYC:28673
C665  88        DEY                             A:00 X:FF Y:8E P:A4 SP:FF PPU: 84,252 CYC:28679
C666  D0 FB     BNE $C663                       A:00 X:FF Y:8D P:A4 SP:FF PPU: 90,252 CYC:28681
C663  91 00     STA ($00),Y = 0700 @ 078D = 00  A:00 X:FF Y:8D P:A4 SP:FF PPU: 99,252 CYC:28684
C665  88        DEY                             A:00 X:FF Y:8D P:A4 SP:FF PPU:117,252 CYC:28690
C666  D0 FB     BNE $C663                       A:00 X:FF Y:8C P:A4 SP:FF PPU:123,252 CYC:28692
C663  91 00     STA ($00),Y = 0700 @ 078C = 00  A:00 X:FF Y:8C P:A4 SP:FF PPU:132,252 CYC:28695
C665  88        DEY                             A:00 X:FF Y:8C P:A4 SP:FF PPU:150,252 CYC:28701
C666  D0 FB     BNE $C663                       A:00 X:FF Y:8B P:A4 SP:FF PPU:156,252 CYC:28703
C663  91 00     STA ($00),Y = 0700 @ 078B = 00  A:00 X:FF Y:8B P:A4 SP:FF PPU:165,252 CYC:28706
C665  88        DEY                             A:00 X:FF Y:8B P:A4 SP:FF PPU:183,252 CYC:28712
C666  D0 FB     BNE $C663                       A:00 X:FF Y:8A P:A4 SP:FF PPU:189,252 CYC:28714
C663  91 00     STA ($00),Y = 0700 @ 078A = 00  A:00 X:FF Y:8A P:A4 SP:FF PPU:198,252 CYC:28717
C665  88        DEY                             A:00 X:FF Y:8A P:A4 SP:FF PPU:216,252 CYC:28723
C666  D0 FB     BNE $C663                       A:00 X:FF Y:89 P:A4 SP:FF PPU:222,252 CYC:28725
C663  91 00     STA ($00),Y = 0700 @ 0789 = 00  A:00 X:FF Y:89 P:A4 SP:FF PPU:231,252 CYC:28728
C665  88        DEY                             A:00 X:FF Y:89 P:A4 SP:FF PPU:249,252 CYC:28734
C666  D0 FB     BNE $C663                       A:00 X:FF Y:88 P:A4 SP:FF PPU:255,252 CYC:28736
C663  91 00     STA ($00),Y = 0700 @ 0788 = 00  A:00 X:FF Y:88 P:A4 SP:FF PPU:264,252 CYC:28739
C665  88        DEY                             A:00 X:FF Y:88 P:A4 SP:FF PPU:282,252 CYC:28745
C666  D0 FB     BNE $C663                       A:00 X:FF Y:87 P:A4 SP:FF PPU:288,252 CYC:28747
C663  91 00     STA ($00),Y = 0700 @ 0787 = 00  A:00 X:FF Y:87 P:A4 SP:FF PPU:297,252 CYC:28750
C665  88        DEY                             A:00 X:FF Y:87 P:A4 SP:FF PPU:315,252 CYC:28756
C666  D0 FB     BNE $C663                       A:00 X:FF Y:86 P:A4 SP:FF PPU:321,252 CYC:28758
C663  91 00     STA ($00),Y = 0700 @ 0786 = 00  A:00 X:FF Y:86 P:A4 SP:FF PPU:330,252 CYC:28761
C665  88        DEY                             A:00 X:FF Y:86 P:A4 SP:FF PPU:  7,253 CYC:28767
C666  D0 FB     BNE $C663                       A:00 X:FF Y:85 P:A4 SP:FF PPU: 13,253 CYC:28769
C663  91 00     STA ($00),Y = 0700 @ 0785 = 00  A:00 X:FF Y:85 P:A4 SP:FF PPU: 22,253 CYC:28772
C665  88        DEY                             A:00 X:FF Y:85 P:A4 SP:FF PPU: 40,253 CYC:28778
C666  D0 FB     BNE $C663                       A:00 X:FF Y:84 P:A4 SP:FF PPU: 46,253 CYC:28780
C663  91 00     STA ($00),Y = 0700 @ 0784 = 00  A:00 X:FF Y:84 P:A4 SP:FF PPU: 55,253 CYC:28783
C665  88        DEY                             A:00 X:FF Y:84 P:A4 SP:FF PPU: 73,253 CYC:28789
C666  D0 FB     BNE $C663                       A:00 X:FF Y:83 P:A4 SP:FF PPU: 79,253 CYC:28791
C663  91 00     STA ($00),Y = 0700 @ 0783 = 00  A:00 X:FF Y:83 P:A4 SP:FF PPU: 88,253 CYC:28794
C665  88        DEY                             A:00 X:FF Y:83 P:A4 SP:FF PPU:106,253 CYC:28800
C666  D0 FB     BNE $C663                       A:00 X:FF Y:82 P:A4 SP:FF PPU:112,253 CYC:28802
C663  91 00     STA ($00),Y = 0700 @ 0782 = 00  A:00 X:FF Y:82 P:A4 SP:FF PPU:121,253 CYC:28805
C665  88        DEY                             A:00 X:FF Y:82 P:A4 SP:FF PPU:139,253 CYC:28811
C666  D0 FB     BNE $C663                       A:00 X:FF Y:81 P:A4 SP:FF PPU:145,253 CYC:28813
C663  91 00     STA ($00),Y = 0700 @ 0781 = 00  A:00 X:FF Y:81 P:A4 SP:FF PPU:154,253 CYC:28816
C665  88        DEY                             A:00 X:FF Y:81 P:A4 SP:FF PPU:172,253 CYC:28822
C666  D0 FB     BNE $C663                       A:00 X:FF Y:80 P:A4 SP:FF PPU:178,253 CYC:28824
C663  91 00     STA ($00),Y = 0700 @ 0780 = 00  A:00 X:FF Y:80 P:A4 SP:FF PPU:187,253 CYC:28827
C665  88        DEY                             A:00 X:FF Y:80 P:A4 SP:FF PPU:205,253 CYC:28833
C666  D0 FB     BNE $C663                       A:00 X:FF Y:7F P:24 SP:FF PPU:211,253 CYC:28835
C663  91 00     STA ($00),Y = 0700 @ 077F = 00  A:00 X:FF Y:7F P:24 SP:FF PPU:220,253 CYC:28838
C665  88        DEY                             A:00 X:FF Y:7F P:24 SP:FF PPU:238,253 CYC:28844
C666  D0 FB     BNE $C663                       A:00 X:FF Y:7E P:24 SP:FF PPU:244,253 CYC:28846
C663  91 00     STA ($00),Y = 0700 @ 077E = 00  A:00 X:FF Y:7E P:24 SP:FF PPU:253,253 CYC:28849
C665  88        DEY                             A:00 X:FF Y:7E P:24 SP:FF PPU:271,253 CYC:28855
C666  D0 FB     BNE $C663                       A:00 X:FF Y:7D P:24 SP:FF PPU:277,253 CYC:28857
C663  91 00     STA ($00),Y = 0700 @ 077D = 00  A:00 X:FF Y:7D P:24 SP:FF PPU:286,253 CYC:28860
C665  88        DEY                             A:00 X:FF Y:7D P:24 SP:FF PPU:304,253 CYC:28866
C666  D0 FB     BNE $C663                       A:00 X:FF Y:7C P:24 SP:FF PPU:310,253 CYC:28868
C663  91 00     STA ($00),Y = 0700 @ 077C = 00  A:00 X:FF Y:7C P:24 SP:FF PPU:319,253 CYC:28871
C665  88        DEY                             A:00 X:FF Y:7C P:24 SP:FF PPU:337,253 CYC:28877
C666  D0 FB     BNE $C663                       A:00 X:FF Y:7B P:24 SP:FF PPU:  2,254 CYC:28879
C663  91 00     STA ($00),Y = 0700 @ 077B = 00  A:00 X:FF Y:7B P:24 SP:FF PPU: 11,254 CYC:28882
C665  88        DEY                             A:00 X:FF Y:7B P:24 SP:FF PPU: 29,254 CYC:28888
C666  D0 FB     BNE $C663                       A:00 X:FF Y:7A P:24 SP:FF PPU: 35,254 CYC:28890
C663  91 00     STA ($00),Y = 0700 @ 077A = 00  A:00 X:FF Y:7A P:24 SP:FF PPU: 44,254 CYC:28893
C665  88        DEY                             A:00 X:FF Y:7A P:24 SP:FF PPU: 62,254 CYC:28899
C666  D0 FB     BNE $C663                       A:00 X:FF Y:79 P:24 SP:FF PPU: 68,254 CYC:28901
C663  91 00     STA ($00),Y = 0700 @ 0779 = 00  A:00 X:FF Y:79 P:24 SP:FF PPU: 77,254 CYC:28904
C665  88        DEY                             A:00 X:FF Y:79 P:24 SP:FF PPU: 95,254 CYC:28910
C666  D0 FB     BNE $C663                       A:00 X:FF Y:78 P:24 SP:FF PPU:101,254 CYC:28912
C663  91 00     STA ($00),Y = 0700 @ 0778 = 00  A:00 X:FF Y:78 P:24 SP:FF PPU:110,254 CYC:28915
C665  88        DEY                             A:00 X:FF Y:78 P:24 SP:FF PPU:128,254 CYC:28921
C666  D0 FB     BNE $C663                       A:00 X:FF Y:77 P:24 SP:FF PPU:134,254 CYC:28923
C663  91 00     STA ($00),Y = 0700 @ 0777 = 00  A:00 X:FF Y:77 P:24 SP:FF PPU:143,254 CYC:28926
C665  88        DEY                             A:00 X:FF Y:77 P:24 SP:FF PPU:161,254 CYC:28932
C666  D0 FB     BNE $C663                       A:00 X:FF Y:76 P:24 SP:FF PPU:167,254 CYC:28934
C663  91 00     STA ($00),Y = 0700 @ 0776 = 00  A:00 X:FF Y:76 P:24 SP:FF PPU:176,254 CYC:28937
C665  88        DEY                             A:00 X:FF Y:76 P:24 SP:FF PPU:194,254 CYC:28943
C666  D0 FB     BNE $C663                       A:00 X:FF Y:75 P:24 SP:FF PPU:200,254 CYC:28945
C663  91 00     STA ($00),Y = 0700 @ 0775 = 00  A:00 X:FF Y:75 P:24 SP:FF PPU:209,254 CYC:28948
C665  88        DEY                             A:00 X:FF Y:75 P:24 SP:FF PPU:227,254 CYC:28954
C666  D0 FB     BNE $C663                       A:00 X:FF Y:74 P:24 SP:FF PPU:233,254 CYC:28956
C663  91 00     STA ($00),Y = 0700 @ 0774 = 00  A:00 X:FF Y:74 P:24 SP:FF PPU:242,254 CYC:28959
C665  88        DEY                             A:00 X:FF Y:74 P:24 SP:FF PPU:260,254 CYC:28965
C666  D0 FB     BNE $C663                       A:00 X:FF Y:73 P:24 SP:FF PPU:266,254 CYC:28967
C663  91 00     STA ($00),Y = 0700 @ 0773 = 00  A:00 X:FF Y:73 P:24 SP:FF PPU:275,254 CYC:28970
C665  88        DEY                             A:00 X:FF Y:73 P:24 SP:FF PPU:293,254 CYC:28976
C666  D0 FB     BNE $C663                       A:00 X:FF Y:72 P:24 SP:FF PPU:299,254 CYC:28978
C663  91 00     STA ($00),Y = 0700 @ 0772 = 00  A:00 X:FF Y:72 P:24 SP:FF PPU:308,254 CYC:28981
C665  88        DEY                             A:00 X:FF Y:72 P:24 SP:FF PPU:326,254 CYC:28987
C666  D0 FB     BNE $C663                       A:00 X:FF Y:71 P:24 SP:FF PPU:332,254 CYC:28989
C663  91 00     STA ($00),Y = 0700 @ 0771 = 00  A:00 X:FF Y:71 P:24 SP:FF PPU:  0,255 CYC:28992
C665  88        DEY                             A:00 X:FF Y:71 P:24 SP:FF PPU: 18,255 CYC:28998
C666  D0 FB     BNE $C663                       A:00 X:FF Y:70 P:24 SP:FF PPU: 24,255 CYC:29000
C663  91 00     STA ($00),Y = 0700 @ 0770 = 00  A:00 X:FF Y:70 P:24 SP:FF PPU: 33,255 CYC:29003
C665  88        DEY                             A:00 X:FF Y:70 P:24 SP:FF PPU: 51,255 CYC:29009
C666  D0 FB     BNE $C663                       A:00 X:FF Y:6F P:24 SP:FF PPU: 57,255 CYC:29011
C663  91 00     STA ($00),Y = 0700 @ 076F = 00  A:00 X:FF Y:6F P:24 SP:FF PPU: 66,255 CYC:29014
C665  88        DEY                             A:00 X:FF Y:6F P:24 SP:FF PPU: 84,255 CYC:29020
C666  D0 FB     BNE $C663                       A:00 X:FF Y:6E P:24 SP:FF PPU: 90,255 CYC:29022
C663  91 00     STA ($00),Y = 0700 @ 076E = 00  A:00 X:FF Y:6E P:24 SP:FF PPU: 99,255 CYC:29025
C665  88        DEY                             A:00 X:FF Y:6E P:24 SP:FF PPU:117,255 CYC:29031
C666  D0 FB     BNE $C663                       A:00 X:FF Y:6D P:24 SP:FF PPU:123,255 CYC:29033
C663  91 00     STA ($00),Y = 0700 @ 076D = 00  A:00 X:FF Y:6D P:24 SP:FF PPU:132,255 CYC:29036
C665  88        DEY                             A:00 X:FF Y:6D P:24 SP:FF PPU:150,255 CYC:29042
C666  D0 FB     BNE $C663                       A:00 X:FF Y:6C P:24 SP:FF PPU:156,255 CYC:29044
C663  91 00     STA ($00),Y = 0700 @ 076C = 00  A:00 X:FF Y:6C P:24 SP:FF PPU:165,255 CYC:29047
C665  88        DEY                             A:00 X:FF Y:6C P:24 SP:FF PPU:183,255 CYC:29053
C666  D0 FB     BNE $C663                       A:00 X:FF Y:6B P:24 SP:FF PPU:189,255 CYC:29055
C663  91 00     STA ($00),Y = 0700 @ 076B = 00  A:00 X:FF Y:6B P:24 SP:FF PPU:198,255 CYC:29058
C665  88        DEY                             A:00 X:FF Y:6B P:24 SP:FF PPU:216,255 CYC:29064
C666  D0 FB     BNE $C663                       A:00 X:FF Y:6A P:24 SP:FF PPU:222,255 CYC:29066
C663  91 00     STA ($00),Y = 0700 @ 076A = 00  A:00 X:FF Y:6A P:24 SP:FF PPU:231,255 CYC:29069
C665  88        DEY                             A:00 X:FF Y:6A P:24 SP:FF PPU:249,255 CYC:29075
C666  D0 FB     BNE $C663                       A:00 X:FF Y:69 P:24 SP:FF PPU:255,255 CYC:29077
C663  91 00     STA ($00),Y = 0700 @ 0769 = 00  A:00 X:FF Y:69 P:24 SP:FF PPU:264,255 CYC:29080
C665  88        DEY                             A:00 X:FF Y:69 P:24 SP:FF PPU:282,255 CYC:29086
C666  D0 FB     BNE $C663                       A:00 X:FF Y:68 P:24 SP:FF PPU:288,255 CYC:29088
C663  91 00     STA ($00),Y = 0700 @ 0768 = 00  A:00 X:FF Y:68 P:24 SP:FF PPU:297,255 CYC:29091
C665  88        DEY                             A:00 X:FF Y:68 P:24 SP:FF PPU:315,255 CYC:29097
C666  D0 FB     BNE $C663                       A:00 X:FF Y:67 P:24 SP:FF PPU:321,255 CYC:29099
C663  91 00     STA ($00),Y = 0700 @ 0767 = 00  A:00 X:FF Y:67 P:24 SP:FF PPU:330,255 CYC:29102
C665  88        DEY                             A:00 X:FF Y:67 P:24 SP:FF PPU:  7,256 CYC:29108
C666  D0 FB     BNE $C663                       A:00 X:FF Y:66 P:24 SP:FF PPU: 13,256 CYC:29110
C663  91 00     STA ($00),Y = 0700 @ 0766 = 00  A:00 X:FF Y:66 P:24 SP:FF PPU: 22,256 CYC:29113
C665  88        DEY                             A:00 X:FF Y:66 P:24 SP:FF PPU: 40,256 CYC:29119
C666  D0 FB     BNE $C663                       A:00 X:FF Y:65 P:24 SP:FF PPU: 46,256 CYC:29121
C663  91 00     STA ($00),Y = 0700 @ 0765 = 00  A:00 X:FF Y:65 P:24 SP:FF PPU: 55,256 CYC:29124
C665  88        DEY                             A:00 X:FF Y:65 P:24 SP:FF PPU: 73,256 CYC:29130
C666  D0 FB     BNE $C663                       A:00 X:FF Y:64 P:24 SP:FF PPU: 79,256 CYC:29132
C663  91 00     STA ($00),Y = 0700 @ 0764 = 00  A:00 X:FF Y:64 P:24 SP:FF PPU: 88,256 CYC:29135
C665  88        DEY                             A:00 X:FF Y:64 P:24 SP:FF PPU:106,256 CYC:29141
C666  D0 FB     BNE $C663                       A:00 X:FF Y:63 P:24 SP:FF PPU:112,256 CYC:29143
C663  91 00     STA ($00),Y = 0700 @ 0763 = 00  A:00 X:FF Y:63 P:24 SP:FF PPU:121,256 CYC:29146
C665  88        DEY                             A:00 X:FF Y:63 P:24 SP:FF PPU:139,256 CYC:29152
C666  D0 FB     BNE $C663                       A:00 X:FF Y:62 P:24 SP:FF PPU:145,256 CYC:29154
C663  91 00     STA ($00),Y = 0700 @ 0762 = 00  A:00 X:FF Y:62 P:24 SP:FF PPU:154,256 CYC:29157
C665  88        DEY                             A:00 X:FF Y:62 P:24 SP:FF PPU:172,256 CYC:29163
C666  D0 FB     BNE $C663                       A:00 X:FF Y:61 P:24 SP:FF PPU:178,256 CYC:29165
C663  91 00     STA ($00),Y = 0700 @ 0761 = 00  A:00 X:FF Y:61 P:24 SP:FF PPU:187,256 CYC:29168
C665  88        DEY                             A:00 X:FF Y:61 P:24 SP:FF PPU:205,256 CYC:29174
C666  D0 FB     BNE $C663                       A:00 X:FF Y:60 P:24 SP:FF PPU:211,256 CYC:29176
C663  91 00     STA ($00),Y = 0700 @ 0760 = 00  A:00 X:FF Y:60 P:24 SP:FF PPU:220,256 CYC:29179
C665  88        DEY                             A:00 X:FF Y:60 P:24 SP:FF PPU:238,256 CYC:29185
C666  D0 FB     BNE $C663                       A:00 X:FF Y:5F P:24 SP:FF PPU:244,256 CYC:29187
C663  91 00     STA ($00),Y = 0700 @ 075F = 00  A:00 X:FF Y:5F P:24 SP:FF PPU:253,256 CYC:29190
C665  88        DEY                             A:00 X:FF Y:5F P:24 SP:FF PPU:271,256 CYC:29196
C666  D0 FB     BNE $C663                       A:00 X:FF Y:5E P:24 SP:FF PPU:277,256 CYC:29198
C663  91 00     STA ($00),Y = 0700 @ 075E = 00  A:00 X:FF Y:5E P:24 SP:FF PPU:286,256 CYC:29201
C665  88        DEY                             A:00 X:FF Y:5E P:24 SP:FF PPU:304,256 CYC:29207
C666  D0 FB     BNE $C663                       A:00 X:FF Y:5D P:24 SP:FF PPU:310,256 CYC:29209
C663  91 00     STA ($00),Y = 0700 @ 075D = 00  A:00 X:FF Y:5D P:24 SP:FF PPU:319,256 CYC:29212
C665  88        DEY                             A:00 X:FF Y:5D P:24 SP:FF PPU:337,256 CYC:29218
C666  D0 FB     BNE $C663                       A:00 X:FF Y:5C P:24 SP:FF PPU:  2,257 CYC:29220
C663  91 00     STA ($00),Y = 0700 @ 075C = 00  A:00 X:FF Y:5C P:24 SP:FF PPU: 11,257 CYC:29223
C665  88        DEY                             A:00 X:FF Y:5C P:24 SP:FF PPU: 29,257 CYC:29229
C666  D0 FB     BNE $C663                       A:00 X:FF Y:5B P:24 SP:FF PPU: 35,257 CYC:29231
C663  91 00     STA ($00),Y = 0700 @ 075B = 00  A:00 X:FF Y:5B P:24 SP:FF PPU: 44,257 CYC:29234
C665  88        DEY                             A:00 X:FF Y:5B P:24 SP:FF PPU: 62,257 CYC:29240
C666  D0 FB     BNE $C663                       A:00 X:FF Y:5A P:24 SP:FF PPU: 68,257 CYC:29242
C663  91 00     STA ($00),Y = 0700 @ 075A = 00  A:00 X:FF Y:5A P:24 SP:FF PPU: 77,257 CYC:29245
C665  88        DEY                             A:00 X:FF Y:5A P:24 SP:FF PPU: 95,257 CYC:29251
C666  D0 FB     BNE $C663                       A:00 X:FF Y:59 P:24 SP:FF PPU:101,257 CYC:29253
C663  91 00     STA ($00),Y = 0700 @ 0759 = 00  A:00 X:FF Y:59 P:24 SP:FF PPU:110,257 CYC:29256
C665  88        DEY                             A:00 X:FF Y:59 P:24 SP:FF PPU:128,257 CYC:29262
C666  D0 FB     BNE $C663                       A:00 X:FF Y:58 P:24 SP:FF PPU:134,257 CYC:29264
C663  91 00     STA ($00),Y = 0700 @ 0758 = 00  A:00 X:FF Y:58 P:24 SP:FF PPU:143,257 CYC:29267
C665  88        DEY                             A:00 X:FF Y:58 P:24 SP:FF PPU:161,257 CYC:29273
C666  D0 FB     BNE $C663                       A:00 X:FF Y:57 P:24 SP:FF PPU:167,257 CYC:29275
C663  91 00     STA ($00),Y = 0700 @ 0757 = 00  A:00 X:FF Y:57 P:24 SP:FF PPU:176,257 CYC:29278
C665  88        DEY                             A:00 X:FF Y:57 P:24 SP:FF PPU:194,257 CYC:29284
C666  D0 FB     BNE $C663                       A:00 X:FF Y:56 P:24 SP:FF PPU:200,257 CYC:29286
C663  91 00     STA ($00),Y = 0700 @ 0756 = 00  A:00 X:FF Y:56 P:24 SP:FF PPU:209,257 CYC:29289
C665  88        DEY                             A:00 X:FF Y:56 P:24 SP:FF PPU:227,257 CYC:29295
C666  D0 FB     BNE $C663                       A:00 X:FF Y:55 P:24 SP:FF PPU:233,257 CYC:29297
C663  91 00     STA ($00),Y = 0700 @ 0755 = 00  A:00 X:FF Y:55 P:24 SP:FF PPU:242,257 CYC:29300
C665  88        DEY                             A:00 X:FF Y:55 P:24 SP:FF PPU:260,257 CYC:29306
C666  D0 FB     BNE $C663                       A:00 X:FF Y:54 P:24 SP:FF PPU:266,257 CYC:29308
C663  91 00     STA ($00),Y = 0700 @ 0754 = 00  A:00 X:FF Y:54 P:24 SP:FF PPU:275,257 CYC:29311
C665  88        DEY                             A:00 X:FF Y:54 P:24 SP:FF PPU:293,257 CYC:29317
C666  D0 FB     BNE $C663                       A:00 X:FF Y:53 P:24 SP:FF PPU:299,257 CYC:29319
C663  91 00     STA ($00),Y = 0700 @ 0753 = 00  A:00 X:FF Y:53 P:24 SP:FF PPU:308,257 CYC:29322
C665  88        DEY                             A:00 X:FF Y:53 P:24 SP:FF PPU:326,257 CYC:29328
C666  D0 FB     BNE $C663                       A:00 X:FF Y:52 P:24 SP:FF PPU:332,257 CYC:29330
C663  91 00     STA ($00),Y = 0700 @ 0752 = 00  A:00 X:FF Y:52 P:24 SP:FF PPU:  0,258 CYC:29333
C665  88        DEY                             A:00 X:FF Y:52 P:24 SP:FF PPU: 18,258 CYC:29339
C666  D0 FB     BNE $C663                       A:00 X:FF Y:51 P:24 SP:FF PPU: 24,258 CYC:29341
C663  91 00     STA ($00),Y = 0700 @ 0751 = 00  A:00 X:FF Y:51 P:24 SP:FF PPU: 33,258 CYC:29344
C665  88        DEY                             A:00 X:FF Y:51 P:24 SP:FF PPU: 51,258 CYC:29350
C666  D0 FB     BNE $C663                       A:00 X:FF Y:50 P:24 SP:FF PPU: 57,258 CYC:29352
C663  91 00     STA ($00),Y = 0700 @ 0750 = 00  A:00 X:FF Y:50 P:24 SP:FF PPU: 66,258 CYC:29355
C665  88        DEY                             A:00 X:FF Y:50 P:24 SP:FF PPU: 84,258 CYC:29361
C666  D0 FB     BNE $C663                       A:00 X:FF Y:4F P:24 SP:FF PPU: 90,258 CYC:29363
C663  91 00     STA ($00),Y = 0700 @ 074F = 00  A:00 X:FF Y:4F P:24 SP:FF PPU: 99,258 CYC:29366
C665  88        DEY                             A:00 X:FF Y:4F P:24 SP:FF PPU:117,258 CYC:29372
C666  D0 FB     BNE $C663                       A:00 X:FF Y:4E P:24 SP:FF PPU:123,258 CYC:29374
C663  91 00     STA ($00),Y = 0700 @ 074E = 00  A:00 X:FF Y:4E P:24 SP:FF PPU:132,258 CYC:29377
C665  88        DEY                             A:00 X:FF Y:4E P:24 SP:FF PPU:150,258 CYC:29383
C666  D0 FB     BNE $C663                       A:00 X:FF Y:4D P:24 SP:FF PPU:156,258 CYC:29385
C663  91 00     STA ($00),Y = 0700 @ 074D = 00  A:00 X:FF Y:4D P:24 SP:FF PPU:165,258 CYC:29388
C665  88        DEY                             A:00 X:FF Y:4D P:24 SP:FF PPU:183,258 CYC:29394
C666  D0 FB     BNE $C663                       A:00 X:FF Y:4C P:24 SP:FF PPU:189,258 CYC:29396
C663  91 00     STA ($00),Y = 0700 @ 074C = 00  A:00 X:FF Y:4C P:24 SP:FF PPU:198,258 CYC:29399
C665  88        DEY                             A:00 X:FF Y:4C P:24 SP:FF PPU:216,258 CYC:29405
C666  D0 FB     BNE $C663                       A:00 X:FF Y:4B P:24 SP:FF PPU:222,258 CYC:29407
C663  91 00     STA ($00),Y = 0700 @ 074B = 00  A:00 X:FF Y:4B P:24 SP:FF PPU:231,258 CYC:29410
C665  88        DEY                             A:00 X:FF Y:4B P:24 SP:FF PPU:249,258 CYC:29416
C666  D0 FB     BNE $C663                       A:00 X:FF Y:4A P:24 SP:FF PPU:255,258 CYC:29418
C663  91 00     STA ($00),Y = 0700 @ 074A = 00  A:00 X:FF Y:4A P:24 SP:FF PPU:264,258 CYC:29421
C665  88        DEY                             A:00 X:FF Y:4A P:24 SP:FF PPU:282,258 CYC:29427
C666  D0 FB     BNE $C663                       A:00 X:FF Y:49 P:24 SP:FF PPU:288,258 CYC:29429
C663  91 00     STA ($00),Y = 0700 @ 0749 = 00  A:00 X:FF Y:49 P:24 SP:FF PPU:297,258 CYC:29432
C665  88        DEY                             A:00 X:FF Y:49 P:24 SP:FF PPU:315,258 CYC:29438
C666  D0 FB     BNE $C663                       A:00 X:FF Y:48 P:24 SP:FF PPU:321,258 CYC:29440
C663  91 00     STA ($00),Y = 0700 @ 0748 = 00  A:00 X:FF Y:48 P:24 SP:FF PPU:330,258 CYC:29443
C665  88        DEY                             A:00 X:FF Y:48 P:24 SP:FF PPU:  7,259 CYC:29449
C666  D0 FB     BNE $C663                       A:00 X:FF Y:47 P:24 SP:FF PPU: 13,259 CYC:29451
C663  91 00     STA ($00),Y = 0700 @ 0747 = 00  A:00 X:FF Y:47 P:24 SP:FF PPU: 22,259 CYC:29454
C665  88        DEY                             A:00 X:FF Y:47 P:24 SP:FF PPU: 40,259 CYC:29460
C666  D0 FB     BNE $C663                       A:00 X:FF Y:46 P:24 SP:FF PPU: 46,259 CYC:29462
C663  91 00     STA ($00),Y = 0700 @ 0746 = 00  A:00 X:FF Y:46 P:24 SP:FF PPU: 55,259 CYC:29465
C665  88        DEY                             A:00 X:FF Y:46 P:24 SP:FF PPU: 73,259 CYC:29471
C666  D0 FB     BNE $C663                       A:00 X:FF Y:45 P:24 SP:FF PPU: 79,259 CYC:29473
C663  91 00     STA ($00),Y = 0700 @ 0745 = 00  A:00 X:FF Y:45 P:24 SP:FF PPU: 88,259 CYC:29476
C665  88        DEY                             A:00 X:FF Y:45 P:24 SP:FF PPU:106,259 CYC:29482
C666  D0 FB     BNE $C663                       A:00 X:FF Y:44 P:24 SP:FF PPU:112,259 CYC:29484
C663  91 00     STA ($00),Y = 0700 @ 0744 = 00  A:00 X:FF Y:44 P:24 SP:FF PPU:121,259 CYC:29487
C665  88        DEY                             A:00 X:FF Y:44 P:24 SP:FF PPU:139,259 CYC:29493
C666  D0 FB     BNE $C663                       A:00 X:FF Y:43 P:24 SP:FF PPU:145,259 CYC:29495
C663  91 00     STA ($00),Y = 0700 @ 0743 = 00  A:00 X:FF Y:43 P:24 SP:FF PPU:154,259 CYC:29498
C665  88        DEY                             A:00 X:FF Y:43 P:24 SP:FF PPU:172,259 CYC:29504
C666  D0 FB     BNE $C663                       A:00 X:FF Y:42 P:24 SP:FF PPU:178,259 CYC:29506
C663  91 00     STA ($00),Y = 0700 @ 0742 = 00  A:00 X:FF Y:42 P:24 SP:FF PPU:187,259 CYC:29509
C665  88        DEY                             A:00 X:FF Y:42 P:24 SP:FF PPU:205,259 CYC:29515
C666  D0 FB     BNE $C663                       A:00 X:FF Y:41 P:24 SP:FF PPU:211,259 CYC:29517
C663  91 00     STA ($00),Y = 0700 @ 0741 = 00  A:00 X:FF Y:41 P:24 SP:FF PPU:220,259 CYC:29520
C665  88        DEY                             A:00 X:FF Y:41 P:24 SP:FF PPU:238,259 CYC:29526
C666  D0 FB     BNE $C663                       A:00 X:FF Y:40 P:24 SP:FF PPU:244,259 CYC:29528
C663  91 00     STA ($00),Y = 0700 @ 0740 = 00  A:00 X:FF Y:40 P:24 SP:FF PPU:253,259 CYC:29531
C665  88        DEY                             A:00 X:FF Y:40 P:24 SP:FF PPU:271,259 CYC:29537
C666  D0 FB     BNE $C663                       A:00 X:FF Y:3F P:24 SP:FF PPU:277,259 CYC:29539
C663  91 00     STA ($00),Y = 0700 @ 073F = 00  A:00 X:FF Y:3F P:24 SP:FF PPU:286,259 CYC:29542
C665  88        DEY                             A:00 X:FF Y:3F P:24 SP:FF PPU:304,259 CYC:29548
C666  D0 FB     BNE $C663                       A:00 X:FF Y:3E P:24 SP:FF PPU:310,259 CYC:29550
C663  91 00     STA ($00),Y = 0700 @ 073E = 00  A:00 X:FF Y:3E P:24 SP:FF PPU:319,259 CYC:29553
C665  88        DEY                             A:00 X:FF Y:3E P:24 SP:FF PPU:337,259 CYC:29559
C666  D0 FB     BNE $C663                       A:00 X:FF Y:3D P:24 SP:FF PPU:  2,260 CYC:29561
C663  91 00     STA ($00),Y = 0700 @ 073D = 00  A:00 X:FF Y:3D P:24 SP:FF PPU: 11,260 CYC:29564
C665  88        DEY                             A:00 X:FF Y:3D P:24 SP:FF PPU: 29,260 CYC:29570
C666  D0 FB     BNE $C663                       A:00 X:FF Y:3C P:24 SP:FF PPU: 35,260 CYC:29572
C663  91 00     STA ($00),Y = 0700 @ 073C = 00  A:00 X:FF Y:3C P:24 SP:FF PPU: 44,260 CYC:29575
C665  88        DEY                             A:00 X:FF Y:3C P:24 SP:FF PPU: 62,260 CYC:29581
C666  D0 FB     BNE $C663                       A:00 X:FF Y:3B P:24 SP:FF PPU: 68,260 CYC:29583
C663  91 00     STA ($00),Y = 0700 @ 073B = 00  A:00 X:FF Y:3B P:24 SP:FF PPU: 77,260 CYC:29586
C665  88        DEY                             A:00 X:FF Y:3B P:24 SP:FF PPU: 95,260 CYC:29592
C666  D0 FB     BNE $C663                       A:00 X:FF Y:3A P:24 SP:FF PPU:101,260 CYC:29594
C663  91 00     STA ($00),Y = 0700 @ 073A = 00  A:00 X:FF Y:3A P:24 SP:FF PPU:110,260 CYC:29597
C665  88        DEY                             A:00 X:FF Y:3A P:24 SP:FF PPU:128,260 CYC:29603
C666  D0 FB     BNE $C663                       A:00 X:FF Y:39 P:24 SP:FF PPU:134,260 CYC:29605
C663  91 00     STA ($00),Y = 0700 @ 0739 = 00  A:00 X:FF Y:39 P:24 SP:FF PPU:143,260 CYC:29608
C665  88        DEY                             A:00 X:FF Y:39 P:24 SP:FF PPU:161,260 CYC:29614
C666  D0 FB     BNE $C663                       A:00 X:FF Y:38 P:24 SP:FF PPU:167,260 CYC:29616
C663  91 00     STA ($00),Y = 0700 @ 0738 = 00  A:00 X:FF Y:38 P:24 SP:FF PPU:176,260 CYC:29619
C665  88        DEY                             A:00 X:FF Y:38 P:24 SP:FF PPU:194,260 CYC:29625
C666  D0 FB     BNE $C663                       A:00 X:FF Y:37 P:24 SP:FF PPU:200,260 CYC:29627
C663  91 00     STA ($00),Y = 0700 @ 0737 = 00  A:00 X:FF Y:37 P:24 SP:FF PPU:209,260 CYC:29630
C665  88        DEY                             A:00 X:FF Y:37 P:24 SP:FF PPU:227,260 CYC:29636
C666  D0 FB     BNE $C663                       A:00 X:FF Y:36 P:24 SP:FF PPU:233,260 CYC:29638
C663  91 00     STA ($00),Y = 0700 @ 0736 = 00  A:00 X:FF Y:36 P:24 SP:FF PPU:242,260 CYC:29641
C665  88        DEY                             A:00 X:FF Y:36 P:24 SP:FF PPU:260,260 CYC:29647
C666  D0 FB     BNE $C663                       A:00 X:FF Y:35 P:24 SP:FF PPU:266,260 CYC:29649
C663  91 00     STA ($00),Y = 0700 @ 0735 = 00  A:00 X:FF Y:35 P:24 SP:FF PPU:275,260 CYC:29652
C665  88        DEY                             A:00 X:FF Y:35 P:24 SP:FF PPU:293,260 CYC:29658
C666  D0 FB     BNE $C663                       A:00 X:FF Y:34 P:24 SP:FF PPU:299,260 CYC:29660
C663  91 00     STA ($00),Y = 0700 @ 0734 = 00  A:00 X:FF Y:34 P:24 SP:FF PPU:308,260 CYC:29663
C665  88        DEY                             A:00 X:FF Y:34 P:24 SP:FF PPU:326,260 CYC:29669
C666  D0 FB     BNE $C663                       A:00 X:FF Y:33 P:24 SP:FF PPU:332,260 CYC:29671
C663  91 00     STA ($00),Y = 0700 @ 0733 = 00  A:00 X:FF Y:33 P:24 SP:FF PPU:  0,261 CYC:29674
C665  88        DEY                             A:00 X:FF Y:33 P:24 SP:FF PPU: 18,261 CYC:29680
C666  D0 FB     BNE $C663                       A:00 X:FF Y:32 P:24 SP:FF PPU: 24,261 CYC:29682
C663  91 00     STA ($00),Y = 0700 @ 0732 = 00  A:00 X:FF Y:32 P:24 SP:FF PPU: 33,261 CYC:29685
C665  88        DEY                             A:00 X:FF Y:32 P:24 SP:FF PPU: 51,261 CYC:29691
C666  D0 FB     BNE $C663                       A:00 X:FF Y:31 P:24 SP:FF PPU: 57,261 CYC:29693
C663  91 00     STA ($00),Y = 0700 @ 0731 = 00  A:00 X:FF Y:31 P:24 SP:FF PPU: 66,261 CYC:29696
C665  88        DEY                             A:00 X:FF Y:31 P:24 SP:FF PPU: 84,261 CYC:29702
C666  D0 FB     BNE $C663                       A:00 X:FF Y:30 P:24 SP:FF PPU: 90,261 CYC:29704
C663  91 00     STA ($00),Y = 0700 @ 0730 = 00  A:00 X:FF Y:30 P:24 SP:FF PPU: 99,261 CYC:29707
C665  88        DEY                             A:00 X:FF Y:30 P:24 SP:FF PPU:117,261 CYC:29713
C666  D0 FB     BNE $C663                       A:00 X:FF Y:2F P:24 SP:FF PPU:123,261 CYC:29715
C663  91 00     STA ($00),Y = 0700 @ 072F = 00  A:00 X:FF Y:2F P:24 SP:FF PPU:132,261 CYC:29718
C665  88        DEY                             A:00 X:FF Y:2F P:24 SP:FF PPU:150,261 CYC:29724
C666  D0 FB     BNE $C663                       A:00 X:FF Y:2E P:24 SP:FF PPU:156,261 CYC:29726
C663  91 00     STA ($00),Y = 0700 @ 072E = 00  A:00 X:FF Y:2E P:24 SP:FF PPU:165,261 CYC:29729
C665  88        DEY                             A:00 X:FF Y:2E P:24 SP:FF PPU:183,261 CYC:29735
C666  D0 FB     BNE $C663                       A:00 X:FF Y:2D P:24 SP:FF PPU:189,261 CYC:29737
C663  91 00     STA ($00),Y = 0700 @ 072D = 00  A:00 X:FF Y:2D P:24 SP:FF PPU:198,261 CYC:29740
C665  88        DEY                             A:00 X:FF Y:2D P:24 SP:FF PPU:216,261 CYC:29746
C666  D0 FB     BNE $C663                       A:00 X:FF Y:2C P:24 SP:FF PPU:222,261 CYC:29748
C663  91 00     STA ($00),Y = 0700 @ 072C = 00  A:00 X:FF Y:2C P:24 SP:FF PPU:231,261 CYC:29751
C665  88        DEY                             A:00 X:FF Y:2C P:24 SP:FF PPU:249,261 CYC:29757
C666  D0 FB     BNE $C663                       A:00 X:FF Y:2B P:24 SP:FF PPU:255,261 CYC:29759
C663  91 00     STA ($00),Y = 0700 @ 072B = 00  A:00 X:FF Y:2B P:24 SP:FF PPU:264,261 CYC:29762
C665  88        DEY                             A:00 X:FF Y:2B P:24 SP:FF PPU:282,261 CYC:29768
C666  D0 FB     BNE $C663                       A:00 X:FF Y:2A P:24 SP:FF PPU:288,261 CYC:29770
C663  91 00     STA ($00),Y = 0700 @ 072A = 00  A:00 X:FF Y:2A P:24 SP:FF PPU:297,261 CYC:29773
C665  88        DEY                             A:00 X:FF Y:2A P:24 SP:FF PPU:315,261 CYC:29779
C666  D0 FB     BNE $C663                       A:00 X:FF Y:29 P:24 SP:FF PPU:321,261 CYC:29781
C663  91 00     STA ($00),Y = 0700 @ 0729 = 00  A:00 X:FF Y:29 P:24 SP:FF PPU:330,261 CYC:29784
C665  88        DEY                             A:00 X:FF Y:29 P:24 SP:FF PPU:  7,  0 CYC:29790
C666  D0 FB     BNE $C663                       A:00 X:FF Y:28 P:24 SP:FF PPU: 13,  0 CYC:29792
C663  91 00     STA ($00),Y = 0700 @ 0728 = 00  A:00 X:FF Y:28 P:24 SP:FF PPU: 22,  0 CYC:29795
C665  88        DEY                             A:00 X:FF Y:28 P:24 SP:FF PPU: 40,  0 CYC:29801
C666  D0 FB     BNE $C663                       A:00 X:FF Y:27 P:24 SP:FF PPU: 46,  0 CYC:29803
C663  91 00     STA ($00),Y = 0700 @ 0727 = 00  A:00 X:FF Y:27 P:24 SP:FF PPU: 55,  0 CYC:29806
C665  88        DEY                             A:00 X:FF Y:27 P:24 SP:FF PPU: 73,  0 CYC:29812
C666  D0 FB     BNE $C663                       A:00 X:FF Y:26 P:24 SP:FF PPU: 79,  0 CYC:29814
C663  91 00     STA ($00),Y = 0700 @ 0726 = 00  A:00 X:FF Y:26 P:24 SP:FF PPU: 88,  0 CYC:29817
C665  88        DEY                             A:00 X:FF Y:26 P:24 SP:FF PPU:106,  0 CYC:29823
C666  D0 FB     BNE $C663                       A:00 X:FF Y:25 P:24 SP:FF PPU:112,  0 CYC:29825
C663  91 00     STA ($00),Y = 0700 @ 0725 = 00  A:00 X:FF Y:25 P:24 SP:FF PPU:121,  0 CYC:29828
C665  88        DEY                             A:00 X:FF Y:25 P:24 SP:FF PPU:139,  0 CYC:29834
C666  D0 FB     BNE $C663                       A:00 X:FF Y:24 P:24 SP:FF PPU:145,  0 CYC:29836
C663  91 00     STA ($00),Y = 0700 @ 0724 = 00  A:00 X:FF Y:24 P:24 SP:FF PPU:154,  0 CYC:29839
C665  88        DEY                             A:00 X:FF Y:24 P:24 SP:FF PPU:172,  0 CYC:29845
C666  D0 FB     BNE $C663                       A:00 X:FF Y:23 P:24 SP:FF PPU:178,  0 CYC:29847
C663  91 00     STA ($00),Y = 0700 @ 0723 = 00  A:00 X:FF Y:23 P:24 SP:FF PPU:187,  0 CYC:29850
C665  88        DEY                             A:00 X:FF Y:23 P:24 SP:FF PPU:205,  0 CYC:29856
C666  D0 FB     BNE $C663                       A:00 X:FF Y:22 P:24 SP:FF PPU:211,  0 CYC:29858
C663  91 00     STA ($00),Y = 0700 @ 0722 = 00  A:00 X:FF Y:22 P:24 SP:FF PPU:220,  0 CYC:29861
C665  88        DEY                             A:00 X:FF Y:22 P:24 SP:FF PPU:238,  0 CYC:29867
C666  D0 FB     BNE $C663                       A:00 X:FF Y:21 P:24 SP:FF PPU:244,  0 CYC:29869
C663  91 00     STA ($00),Y = 0700 @ 0721 = 00  A:00 X:FF Y:21 P:24 SP:FF PPU:253,  0 CYC:29872
C665  88        DEY                             A:00 X:FF Y:21 P:24 SP:FF PPU:271,  0 CYC:29878
C666  D0 FB     BNE $C663                       A:00 X:FF Y:20 P:24 SP:FF PPU:277,  0 CYC:29880
C663  91 00     STA ($00),Y = 0700 @ 0720 = 00  A:00 X:FF Y:20 P:24 SP:FF PPU:286,  0 CYC:29883
C665  88        DEY                             A:00 X:FF Y:20 P:24 SP:FF PPU:304,  0 CYC:29889
C666  D0 FB     BNE $C663                       A:00 X:FF Y:1F P:24 SP:FF PPU:310,  0 CYC:29891
C663  91 00     STA ($00),Y = 0700 @ 071F = 00  A:00 X:FF Y:1F P:24 SP:FF PPU:319,  0 CYC:29894
C665  88        DEY                             A:00 X:FF Y:1F P:24 SP:FF PPU:337,  0 CYC:29900
C666  D0 FB     BNE $C663                       A:00 X:FF Y:1E P:24 SP:FF PPU:  2,  1 CYC:29902
C663  91 00     STA ($00),Y = 0700 @ 071E = 00  A:00 X:FF Y:1E P:24 SP:FF PPU: 11,  1 CYC:29905
C665  88        DEY                             A:00 X:FF Y:1E P:24 SP:FF PPU: 29,  1 CYC:29911
C666  D0 FB     BNE $C663                       A:00 X:FF Y:1D P:24 SP:FF PPU: 35,  1 CYC:29913
C663  91 00     STA ($00),Y = 0700 @ 071D = 00  A:00 X:FF Y:1D P:24 SP:FF PPU: 44,  1 CYC:29916
C665  88        DEY                             A:00 X:FF Y:1D P:24 SP:FF PPU: 62,  1 CYC:29922
C666  D0 FB     BNE $C663                       A:00 X:FF Y:1C P:24 SP:FF PPU: 68,  1 CYC:29924
C663  91 00     STA ($00),Y = 0700 @ 071C = 00  A:00 X:FF Y:1C P:24 SP:FF PPU: 77,  1 CYC:29927
C665  88        DEY                             A:00 X:FF Y:1C P:24 SP:FF PPU: 95,  1 CYC:29933
C666  D0 FB     BNE $C663                       A:00 X:FF Y:1B P:24 SP:FF PPU:101,  1 CYC:29935
C663  91 00     STA ($00),Y = 0700 @ 071B = 00  A:00 X:FF Y:1B P:24 SP:FF PPU:110,  1 CYC:29938
C665  88        DEY                             A:00 X:FF Y:1B P:24 SP:FF PPU:128,  1 CYC:29944
C666  D0 FB     BNE $C663                       A:00 X:FF Y:1A P:24 SP:FF PPU:134,  1 CYC:29946
C663  91 00     STA ($00),Y = 0700 @ 071A = 00  A:00 X:FF Y:1A P:24 SP:FF PPU:143,  1 CYC:29949
C665  88        DEY                             A:00 X:FF Y:1A P:24 SP:FF PPU:161,  1 CYC:29955
C666  D0 FB     BNE $C663                       A:00 X:FF Y:19 P:24 SP:FF PPU:167,  1 CYC:29957
C663  91 00     STA ($00),Y = 0700 @ 0719 = 00  A:00 X:FF Y:19 P:24 SP:FF PPU:176,  1 CYC:29960
C665  88        DEY                             A:00 X:FF Y:19 P:24 SP:FF PPU:194,  1 CYC:29966
C666  D0 FB     BNE $C663                       A:00 X:FF Y:18 P:24 SP:FF PPU:200,  1 CYC:29968
C663  91 00     STA ($00),Y = 0700 @ 0718 = 00  A:00 X:FF Y:18 P:24 SP:FF PPU:209,  1 CYC:29971
C665  88        DEY                             A:00 X:FF Y:18 P:24 SP:FF PPU:227,  1 CYC:29977
C666  D0 FB     BNE $C663                       A:00 X:FF Y:17 P:24 SP:FF PPU:233,  1 CYC:29979
C663  91 00     STA ($00),Y = 0700 @ 0717 = 00  A:00 X:FF Y:17 P:24 SP:FF PPU:242,  1 CYC:29982
C665  88        DEY                             A:00 X:FF Y:17 P:24 SP:FF PPU:260,  1 CYC:29988
C666  D0 FB     BNE $C663                       A:00 X:FF Y:16 P:24 SP:FF PPU:266,  1 CYC:29990
C663  91 00     STA ($00),Y = 0700 @ 0716 = 00  A:00 X:FF Y:16 P:24 SP:FF PPU:275,  1 CYC:29993
C665  88        DEY                             A:00 X:FF Y:16 P:24 SP:FF PPU:293,  1 CYC:29999
C666  D0 FB     BNE $C663                       A:00 X:FF Y:15 P:24 SP:FF PPU:299,  1 CYC:30001
C663  91 00     STA ($00),Y = 0700 @ 0715 = 00  A:00 X:FF Y:15 P:24 SP:FF PPU:308,  1 CYC:30004
C665  88        DEY                             A:00 X:FF Y:15 P:24 SP:FF PPU:326,  1 CYC:30010
C666  D0 FB     BNE $C663                       A:00 X:FF Y:14 P:24 SP:FF PPU:332,  1 CYC:30012
C663  91 00     STA ($00),Y = 0700 @ 0714 = 00  A:00 X:FF Y:14 P:24 SP:FF PPU:  0,  2 CYC:30015
C665  88        DEY                             A:00 X:FF Y:14 P:24 SP:FF PPU: 18,  2 CYC:30021
C666  D0 FB     BNE $C663                       A:00 X:FF Y:13 P:24 SP:FF PPU: 24,  2 CYC:30023
C663  91 00     STA ($00),Y = 0700 @ 0713 = 00  A:00 X:FF Y:13 P:24 SP:FF PPU: 33,  2 CYC:30026
C665  88        DEY                             A:00 X:FF Y:13 P:24 SP:FF PPU: 51,  2 CYC:30032
C666  D0 FB     BNE $C663                       A:00 X:FF Y:12 P:24 SP:FF PPU: 57,  2 CYC:30034
C663  91 00     STA ($00),Y = 0700 @ 0712 = 00  A:00 X:FF Y:12 P:24 SP:FF PPU: 66,  2 CYC:30037
C665  88        DEY                             A:00 X:FF Y:12 P:24 SP:FF PPU: 84,  2 CYC:30043
C666  D0 FB     BNE $C663                       A:00 X:FF Y:11 P:24 SP:FF PPU: 90,  2 CYC:30045
C663  91 00     STA ($00),Y = 0700 @ 0711 = 00  A:00 X:FF Y:11 P:24 SP:FF PPU: 99,  2 CYC:30048
C665  88        DEY                             A:00 X:FF Y:11 P:24 SP:FF PPU:117,  2 CYC:30054
C666  D0 FB     BNE $C663                       A:00 X:FF Y:10 P:24 SP:FF PPU:123,  2 CYC:30056
C663  91 00     STA ($00),Y = 0700 @ 0710 = 00  A:00 X:FF Y:10 P:24 SP:FF PPU:132,  2 CYC:30059
C665  88        DEY                             A:00 X:FF Y:10 P:24 SP:FF PPU:150,  2 CYC:30065
C666  D0 FB     BNE $C663                       A:00 X:FF Y:0F P:24 SP:FF PPU:156,  2 CYC:30067
C663  91 00     STA ($00),Y = 0700 @ 070F = 00  A:00 X:FF Y:0F P:24 SP:FF PPU:165,  2 CYC:30070
C665  88        DEY                             A:00 X:FF Y:0F P:24 SP:FF PPU:183,  2 CYC:30076
C666  D0 FB     BNE $C663                       A:00 X:FF Y:0E P:24 SP:FF PPU:189,  2 CYC:30078
C663  91 00     STA ($00),Y = 0700 @ 070E = 00  A:00 X:FF Y:0E P:24 SP:FF PPU:198,  2 CYC:30081
C665  88        DEY                             A:00 X:FF Y:0E P:24 SP:FF PPU:216,  2 CYC:30087
C666  D0 FB     BNE $C663                       A:00 X:FF Y:0D P:24 SP:FF PPU:222,  2 CYC:30089
C663  91 00     STA ($00),Y = 0700 @ 070D = 00  A:00 X:FF Y:0D P:24 SP:FF PPU:231,  2 CYC:30092
C665  88        DEY                             A:00 X:FF Y:0D P:24 SP:FF PPU:249,  2 CYC:30098
C666  D0 FB     BNE $C663                       A:00 X:FF Y:0C P:24 SP:FF PPU:255,  2 CYC:30100
C663  91 00     STA ($00),Y = 0700 @ 070C = 00  A:00 X:FF Y:0C P:24 SP:FF PPU:264,  2 CYC:30103
C665  88        DEY                             A:00 X:FF Y:0C P:24 SP:FF PPU:282,  2 CYC:30109
C666  D0 FB     BNE $C663                       A:00 X:FF Y:0B P:24 SP:FF PPU:288,  2 CYC:30111
C663  91 00     STA ($00),Y = 0700 @ 070B = 00  A:00 X:FF Y:0B P:24 SP:FF PPU:297,  2 CYC:30114
C665  88        DEY                             A:00 X:FF Y:0B P:24 SP:FF PPU:315,  2 CYC:30120
C666  D0 FB     BNE $C663                       A:00 X:FF Y:0A P:24 SP:FF PPU:321,  2 CYC:30122
C663  91 00     STA ($00),Y = 0700 @ 070A = 00  A:00 X:FF Y:0A P:24 SP:FF PPU:330,  2 CYC:30125
C665  88        DEY                             A:00 X:FF Y:0A P:24 SP:FF PPU:  7,  3 CYC:30131
C666  D0 FB     BNE $C663                       A:00 X:FF Y:09 P:24 SP:FF PPU: 13,  3 CYC:30133
C663  91 00     STA ($00),Y = 0700 @ 0709 = 00  A:00 X:FF Y:09 P:24 SP:FF PPU: 22,  3 CYC:30136
C665  88        DEY                             A:00 X:FF Y:09 P:24 SP:FF PPU: 40,  3 CYC:30142
C666  D0 FB     BNE $C663                       A:00 X:FF Y:08 P:24 SP:FF PPU: 46,  3 CYC:30144
C663  91 00     STA ($00),Y = 0700 @ 0708 = 00  A:00 X:FF Y:08 P:24 SP:FF PPU: 55,  3 CYC:30147
C665  88        DEY                             A:00 X:FF Y:08 P:24 SP:FF PPU: 73,  3 CYC:30153
C666  D0 FB     BNE $C663                       A:00 X:FF Y:07 P:24 SP:FF PPU: 79,  3 CYC:30155
C663  91 00     STA ($00),Y = 0700 @ 0707 = 00  A:00 X:FF Y:07 P:24 SP:FF PPU: 88,  3 CYC:30158
C665  88        DEY                             A:00 X:FF Y:07 P:24 SP:FF PPU:106,  3 CYC:30164
C666  D0 FB     BNE $C663                       A:00 X:FF Y:06 P:24 SP:FF PPU:112,  3 CYC:30166
C663  91 00     STA ($00),Y = 0700 @ 0706 = 00  A:00 X:FF Y:06 P:24 SP:FF PPU:121,  3 CYC:30169
C665  88        DEY                             A:00 X:FF Y:06 P:24 SP:FF PPU:139,  3 CYC:30175
C666  D0 FB     BNE $C663                       A:00 X:FF Y:05 P:24 SP:FF PPU:145,  3 CYC:30177
C663  91 00     STA ($00),Y = 0700 @ 0705 = 00  A:00 X:FF Y:05 P:24 SP:FF PPU:154,  3 CYC:30180
C665  88        DEY                             A:00 X:FF Y:05 P:24 SP:FF PPU:172,  3 CYC:30186
C666  D0 FB     BNE $C663                       A:00 X:FF Y:04 P:24 SP:FF PPU:178,  3 CYC:30188
C663  91 00     STA ($00),Y = 0700 @ 0704 = 00  A:00 X:FF Y:04 P:24 SP:FF PPU:187,  3 CYC:30191
C665  88        DEY                             A:00 X:FF Y:04 P:24 SP:FF PPU:205,  3 CYC:30197
C666  D0 FB     BNE $C663                       A:00 X:FF Y:03 P:24 SP:FF PPU:211,  3 CYC:30199
C663  91 00     STA ($00),Y = 0700 @ 0703 = 00  A:00 X:FF Y:03 P:24 SP:FF PPU:220,  3 CYC:30202
C665  88        DEY                             A:00 X:FF Y:03 P:24 SP:FF PPU:238,  3 CYC:30208
C666  D0 FB     BNE $C663                       A:00 X:FF Y:02 P:24 SP:FF PPU:244,  3 CYC:30210
C663  91 00     STA ($00),Y = 0700 @ 0702 = 00  A:00 X:FF Y:02 P:24 SP:FF PPU:253,  3 CYC:30213
C665  88        DEY                             A:00 X:FF Y:02 P:24 SP:FF PPU:271,  3 CYC:30219
C666  D0 FB     BNE $C663                       A:00 X:FF Y:01 P:24 SP:FF PPU:277,  3 CYC:30221
C663  91 00     STA ($00),Y = 0700 @ 0701 = 00  A:00 X:FF Y:01 P:24 SP:FF PPU:286,  3 CYC:30224
C665  88        DEY                             A:00 X:FF Y:01 P:24 SP:FF PPU:304,  3 CYC:30230
C666  D0 FB     BNE $C663                       A:00 X:FF Y:00 P:26 SP:FF PPU:310,  3 CYC:30232
C668  C6 01     DEC $01 = 07                    A:00 X:FF Y:00 P:26 SP:FF PPU:316,  3 CYC:30234
C66A  10 F7     BPL $C663                       A:00 X:FF Y:00 P:24 SP:FF PPU:331,  3 CYC:30239
C663  91 00     STA ($00),Y = 0600 @ 0600 = 00  A:00 X:FF Y:00 P:24 SP:FF PPU:340,  3 CYC:30242
C665  88        DEY                             A:00 X:FF Y:00 P:24 SP:FF PPU: 17,  4 CYC:30248
C666  D0 FB     BNE $C663                       A:00 X:FF Y:FF P:A4 SP:FF PPU: 23,  4 CYC:30250
C663  91 00     STA ($00),Y = 0600 @ 06FF = 00  A:00 X:FF Y:FF P:A4 SP:FF PPU: 32,  4 CYC:30253
C665  88        DEY                             A:00 X:FF Y:FF P:A4 SP:FF PPU: 50,  4 CYC:30259
C666  D0 FB     BNE $C663                       A:00 X:FF Y:FE P:A4 SP:FF PPU: 56,  4 CYC:30261
C663  91 00     STA ($00),Y = 0600 @ 06FE = 00  A:00 X:FF Y:FE P:A4 SP:FF PPU: 65,  4 CYC:30264
C665  88        DEY                             A:00 X:FF Y:FE P:A4 SP:FF PPU: 83,  4 CYC:30270
C666  D0 FB     BNE $C663                       A:00 X:FF Y:FD P:A4 SP:FF PPU: 89,  4 CYC:30272
C663  91 00     STA ($00),Y = 0600 @ 06FD = 00  A:00 X:FF Y:FD P:A4 SP:FF PPU: 98,  4 CYC:30275
C665  88        DEY                             A:00 X:FF Y:FD P:A4 SP:FF PPU:116,  4 CYC:30281
C666  D0 FB     BNE $C663                       A:00 X:FF Y:FC P:A4 SP:FF PPU:122,  4 CYC:30283
C663  91 00     STA ($00),Y = 0600 @ 06FC = 00  A:00 X:FF Y:FC P:A4 SP:FF PPU:131,  4 CYC:30286
C665  88        DEY                             A:00 X:FF Y:FC P:A4 SP:FF PPU:149,  4 CYC:30292
C666  D0 FB     BNE $C663                       A:00 X:FF Y:FB P:A4 SP:FF PPU:155,  4 CYC:30294
C663  91 00     STA ($00),Y = 0600 @ 06FB = 00  A:00 X:FF Y:FB P:A4 SP:FF PPU:164,  4 CYC:30297
C665  88        DEY                             A:00 X:FF Y:FB P:A4 SP:FF PPU:182,  4 CYC:30303
C666  D0 FB     BNE $C663                       A:00 X:FF Y:FA P:A4 SP:FF PPU:188,  4 CYC:30305
C663  91 00     STA ($00),Y = 0600 @ 06FA = 00  A:00 X:FF Y:FA P:A4 SP:FF PPU:197,  4 CYC:30308
C665  88        DEY                             A:00 X:FF Y:FA P:A4 SP:FF PPU:215,  4 CYC:30314
C666  D0 FB     BNE $C663                       A:00 X:FF Y:F9 P:A4 SP:FF PPU:221,  4 CYC:30316
C663  91 00     STA ($00),Y = 0600 @ 06F9 = 00  A:00 X:FF Y:F9 P:A4 SP:FF PPU:230,  4 CYC:30319
C665  88        DEY                             A:00 X:FF Y:F9 P:A4 SP:FF PPU:248,  4 CYC:30325
C666  D0 FB     BNE $C663                       A:00 X:FF Y:F8 P:A4 SP:FF PPU:254,  4 CYC:30327
C663  91 00     STA ($00),Y = 0600 @ 06F8 = 00  A:00 X:FF Y:F8 P:A4 SP:FF PPU:263,  4 CYC:30330
C665  88        DEY                             A:00 X:FF Y:F8 P:A4 SP:FF PPU:281,  4 CYC:30336
C666  D0 FB     BNE $C663                       A:00 X:FF Y:F7 P:A4 SP:FF PPU:287,  4 CYC:30338
C663  91 00     STA ($00),Y = 0600 @ 06F7 = 00  A:00 X:FF Y:F7 P:A4 SP:FF PPU:296,  4 CYC:30341
C665  88        DEY                             A:00 X:FF Y:F7 P:A4 SP:FF PPU:314,  4 CYC:30347
C666  D0 FB     BNE $C663                       A:00 X:FF Y:F6 P:A4 SP:FF PPU:320,  4 CYC:30349
C663  91 00     STA ($00),Y = 0600 @ 06F6 = 00  A:00 X:FF Y:F6 P:A4 SP:FF PPU:329,  4 CYC:30352
C665  88        DEY                             A:00 X:FF Y:F6 P:A4 SP:FF PPU:  6,  5 CYC:30358
C666  D0 FB     BNE $C663                       A:00 X:FF Y:F5 P:A4 SP:FF PPU: 12,  5 CYC:30360
C663  91 00     STA ($00),Y = 0600 @ 06F5 = 00  A:00 X:FF Y:F5 P:A4 SP:FF PPU: 21,  5 CYC:30363
C665  88        DEY                             A:00 X:FF Y:F5 P:A4 SP:FF PPU: 39,  5 CYC:30369
C666  D0 FB     BNE $C663                       A:00 X:FF Y:F4 P:A4 SP:FF PPU: 45,  5 CYC:30371
C663  91 00     STA ($00),Y = 0600 @ 06F4 = 00  A:00 X:FF Y:F4 P:A4 SP:FF PPU: 54,  5 CYC:30374
C665  88        DEY                             A:00 X:FF Y:F4 P:A4 SP:FF PPU: 72,  5 CYC:30380
C666  D0 FB     BNE $C663                       A:00 X:FF Y:F3 P:A4 SP:FF PPU: 78,  5 CYC:30382
C663  91 00     STA ($00),Y = 0600 @ 06F3 = 00  A:00 X:FF Y:F3 P:A4 SP:FF PPU: 87,  5 CYC:30385
C665  88        DEY                             A:00 X:FF Y:F3 P:A4 SP:FF PPU:105,  5 CYC:30391
C666  D0 FB     BNE $C663                       A:00 X:FF Y:F2 P:A4 SP:FF PPU:111,  5 CYC:30393
C663  91 00     STA ($00),Y = 0600 @ 06F2 = 00  A:00 X:FF Y:F2 P:A4 SP:FF PPU:120,  5 CYC:30396
C665  88        DEY                             A:00 X:FF Y:F2 P:A4 SP:FF PPU:138,  5 CYC:30402
C666  D0 FB     BNE $C663                       A:00 X:FF Y:F1 P:A4 SP:FF PPU:144,  5 CYC:30404
C663  91 00     STA ($00),Y = 0600 @ 06F1 = 00  A:00 X:FF Y:F1 P:A4 SP:FF PPU:153,  5 CYC:30407
C665  88        DEY                             A:00 X:FF Y:F1 P:A4 SP:FF PPU:171,  5 CYC:30413
C666  D0 FB     BNE $C663                       A:00 X:FF Y:F0 P:A4 SP:FF PPU:177,  5 CYC:30415
C663  91 00     STA ($00),Y = 0600 @ 06F0 = 00  A:00 X:FF Y:F0 P:A4 SP:FF PPU:186,  5 CYC:30418
C665  88        DEY                             A:00 X:FF Y:F0 P:A4 SP:FF PPU:204,  5 CYC:30424
C666  D0 FB     BNE $C663                       A:00 X:FF Y:EF P:A4 SP:FF PPU:210,  5 CYC:30426
C663  91 00     STA ($00),Y = 0600 @ 06EF = 00  A:00 X:FF Y:EF P:A4 SP:FF PPU:219,  5 CYC:30429
C665  88        DEY                             A:00 X:FF Y:EF P:A4 SP:FF PPU:237,  5 CYC:30435
C666  D0 FB     BNE $C663                       A:00 X:FF Y:EE P:A4 SP:FF PPU:243,  5 CYC:30437
C663  91 00     STA ($00),Y = 0600 @ 06EE = 00  A:00 X:FF Y:EE P:A4 SP:FF PPU:252,  5 CYC:30440
C665  88        DEY                             A:00 X:FF Y:EE P:A4 SP:FF PPU:270,  5 CYC:30446
C666  D0 FB     BNE $C663                       A:00 X:FF Y:ED P:A4 SP:FF PPU:276,  5 CYC:30448
C663  91 00     STA ($00),Y = 0600 @ 06ED = 00  A:00 X:FF Y:ED P:A4 SP:FF PPU:285,  5 CYC:30451
C665  88        DEY                             A:00 X:FF Y:ED P:A4 SP:FF PPU:303,  5 CYC:30457
C666  D0 FB     BNE $C663                       A:00 X:FF Y:EC P:A4 SP:FF PPU:309,  5 CYC:30459
C663  91 00     STA ($00),Y = 0600 @ 06EC = 00  A:00 X:FF Y:EC P:A4 SP:FF PPU:318,  5 CYC:30462
C665  88        DEY                             A:00 X:FF Y:EC P:A4 SP:FF PPU:336,  5 CYC:30468
C666  D0 FB     BNE $C663                       A:00 X:FF Y:EB P:A4 SP:FF PPU:  1,  6 CYC:30470
C663  91 00     STA ($00),Y = 0600 @ 06EB = 00  A:00 X:FF Y:EB P:A4 SP:FF PPU: 10,  6 CYC:30473
C665  88        DEY                             A:00 X:FF Y:EB P:A4 SP:FF PPU: 28,  6 CYC:30479
C666  D0 FB     BNE $C663                       A:00 X:FF Y:EA P:A4 SP:FF PPU: 34,  6 CYC:30481
C663  91 00     STA ($00),Y = 0600 @ 06EA = 00  A:00 X:FF Y:EA P:A4 SP:FF PPU: 43,  6 CYC:30484
C665  88        DEY                             A:00 X:FF Y:EA P:A4 SP:FF PPU: 61,  6 CYC:30490
C666  D0 FB     BNE $C663                       A:00 X:FF Y:E9 P:A4 SP:FF PPU: 67,  6 CYC:30492
C663  91 00     STA ($00),Y = 0600 @ 06E9 = 00  A:00 X:FF Y:E9 P:A4 SP:FF PPU: 76,  6 CYC:30495
C665  88        DEY                             A:00 X:FF Y:E9 P:A4 SP:FF PPU: 94,  6 CYC:30501
C666  D0 FB     BNE $C663                       A:00 X:FF Y:E8 P:A4 SP:FF PPU:100,  6 CYC:30503
C663  91 00     STA ($00),Y = 0600 @ 06E8 = 00  A:00 X:FF Y:E8 P:A4 SP:FF PPU:109,  6 CYC:30506
C665  88        DEY                             A:00 X:FF Y:E8 P:A4 SP:FF PPU:127,  6 CYC:30512
C666  D0 FB     BNE $C663                       A:00 X:FF Y:E7 P:A4 SP:FF PPU:133,  6 CYC:30514
C663  91 00     STA ($00),Y = 0600 @ 06E7 = 00  A:00 X:FF Y:E7 P:A4 SP:FF PPU:142,  6 CYC:30517
C665  88        DEY                             A:00 X:FF Y:E7 P:A4 SP:FF PPU:160,  6 CYC:30523
C666  D0 FB     BNE $C663                       A:00 X:FF Y:E6 P:A4 SP:FF PPU:166,  6 CYC:30525
C663  91 00     STA ($00),Y = 0600 @ 06E6 = 00  A:00 X:FF Y:E6 P:A4 SP:FF PPU:175,  6 CYC:30528
C665  88        DEY                             A:00 X:FF Y:E6 P:A4 SP:FF PPU:193,  6 CYC:30534
C666  D0 FB     BNE $C663                       A:00 X:FF Y:E5 P:A4 SP:FF PPU:199,  6 CYC:30536
C663  91 00     STA ($00),Y = 0600 @ 06E5 = 00  A:00 X:FF Y:E5 P:A4 SP:FF PPU:208,  6 CYC:30539
C665  88        DEY                             A:00 X:FF Y:E5 P:A4 SP:FF PPU:226,  6 CYC:30545
C666  D0 FB     BNE $C663                       A:00 X:FF Y:E4 P:A4 SP:FF PPU:232,  6 CYC:30547
C663  91 00     STA ($00),Y = 0600 @ 06E4 = 00  A:00 X:FF Y:E4 P:A4 SP:FF PPU:241,  6 CYC:30550
C665  88        DEY                             A:00 X:FF Y:E4 P:A4 SP:FF PPU:259,  6 CYC:30556
C666  D0 FB     BNE $C663                       A:00 X:FF Y:E3 P:A4 SP:FF PPU:265,  6 CYC:30558
C663  91 00     STA ($00),Y = 0600 @ 06E3 = 00  A:00 X:FF Y:E3 P:A4 SP:FF PPU:274,  6 CYC:30561
C665  88        DEY                             A:00 X:FF Y:E3 P:A4 SP:FF PPU:292,  6 CYC:30567
C666  D0 FB     BNE $C663                       A:00 X:FF Y:E2 P:A4 SP:FF PPU:298,  6 CYC:30569
